
ED2platformTest0.elf:     file format elf32-littlenios2
ED2platformTest0.elf
architecture: nios2:r1, flags 0x00000112:
EXEC_P, HAS_SYMS, D_PAGED
start address 0x00000244

Program Header:
    LOAD off    0x00001000 vaddr 0x00000000 paddr 0x00000000 align 2**12
         filesz 0x00000020 memsz 0x00000020 flags r-x
    LOAD off    0x00001020 vaddr 0x00000020 paddr 0x00000020 align 2**12
         filesz 0x0001a4a0 memsz 0x0001a4a0 flags r-x
    LOAD off    0x0001b4c0 vaddr 0x0001a4c0 paddr 0x0001c120 align 2**12
         filesz 0x00001c60 memsz 0x00001c60 flags rw-
    LOAD off    0x0001dd80 vaddr 0x0001dd80 paddr 0x0001dd80 align 2**12
         filesz 0x00000000 memsz 0x0000027c flags rw-

Sections:
Idx Name          Size      VMA       LMA       File off  Algn
  0 .entry        00000020  00000000  00000000  00001000  2**5
                  CONTENTS, ALLOC, LOAD, READONLY, CODE
  1 .exceptions   00000224  00000020  00000020  00001020  2**2
                  CONTENTS, ALLOC, LOAD, READONLY, CODE
  2 .text         0001964c  00000244  00000244  00001244  2**2
                  CONTENTS, ALLOC, LOAD, READONLY, CODE
  3 .rodata       00000c30  00019890  00019890  0001a890  2**2
                  CONTENTS, ALLOC, LOAD, READONLY, DATA
  4 .rwdata       00001c60  0001a4c0  0001c120  0001b4c0  2**2
                  CONTENTS, ALLOC, LOAD, DATA, SMALL_DATA
  5 .bss          0000027c  0001dd80  0001dd80  0001dd80  2**2
                  ALLOC, SMALL_DATA
  6 .sdram        00000000  0001dffc  0001dffc  0001d120  2**0
                  CONTENTS
  7 .sram         00000000  08000000  08000000  0001d120  2**0
                  CONTENTS
  8 .comment      00000023  00000000  00000000  0001d120  2**0
                  CONTENTS, READONLY
  9 .debug_aranges 000010e8  00000000  00000000  0001d148  2**3
                  CONTENTS, READONLY, DEBUGGING
 10 .debug_info   00034d6c  00000000  00000000  0001e230  2**0
                  CONTENTS, READONLY, DEBUGGING
 11 .debug_abbrev 0000cabd  00000000  00000000  00052f9c  2**0
                  CONTENTS, READONLY, DEBUGGING
 12 .debug_line   00010834  00000000  00000000  0005fa59  2**0
                  CONTENTS, READONLY, DEBUGGING
 13 .debug_frame  00002c14  00000000  00000000  00070290  2**2
                  CONTENTS, READONLY, DEBUGGING
 14 .debug_str    0000422b  00000000  00000000  00072ea4  2**0
                  CONTENTS, READONLY, DEBUGGING
 15 .debug_loc    000239c6  00000000  00000000  000770cf  2**0
                  CONTENTS, READONLY, DEBUGGING
 16 .debug_alt_sim_info 00000060  00000000  00000000  0009aa98  2**2
                  CONTENTS, READONLY, DEBUGGING
 17 .debug_ranges 00001a80  00000000  00000000  0009aaf8  2**3
                  CONTENTS, READONLY, DEBUGGING
 18 .thread_model 00000003  00000000  00000000  000a04ae  2**0
                  CONTENTS, READONLY
 19 .cpu          00000003  00000000  00000000  000a04b1  2**0
                  CONTENTS, READONLY
 20 .qsys         00000001  00000000  00000000  000a04b4  2**0
                  CONTENTS, READONLY
 21 .simulation_enabled 00000001  00000000  00000000  000a04b5  2**0
                  CONTENTS, READONLY
 22 .sysid_hash   00000004  00000000  00000000  000a04b6  2**0
                  CONTENTS, READONLY
 23 .sysid_base   00000004  00000000  00000000  000a04ba  2**0
                  CONTENTS, READONLY
 24 .sysid_time   00000004  00000000  00000000  000a04be  2**0
                  CONTENTS, READONLY
 25 .stderr_dev   00000009  00000000  00000000  000a04c2  2**0
                  CONTENTS, READONLY
 26 .stdin_dev    00000009  00000000  00000000  000a04cb  2**0
                  CONTENTS, READONLY
 27 .stdout_dev   00000009  00000000  00000000  000a04d4  2**0
                  CONTENTS, READONLY
 28 .sopc_system_name 0000000b  00000000  00000000  000a04dd  2**0
                  CONTENTS, READONLY
 29 .quartus_project_dir 00000017  00000000  00000000  000a04e8  2**0
                  CONTENTS, READONLY
 30 .jdi          00003a5d  00000000  00000000  000a04ff  2**0
                  CONTENTS, READONLY
 31 .sopcinfo     00061681  00000000  00000000  000a3f5c  2**0
                  CONTENTS, READONLY
SYMBOL TABLE:
00000000 l    d  .entry	00000000 .entry
00000020 l    d  .exceptions	00000000 .exceptions
00000244 l    d  .text	00000000 .text
00019890 l    d  .rodata	00000000 .rodata
0001a4c0 l    d  .rwdata	00000000 .rwdata
0001dd80 l    d  .bss	00000000 .bss
0001dffc l    d  .sdram	00000000 .sdram
08000000 l    d  .sram	00000000 .sram
00000000 l    d  .comment	00000000 .comment
00000000 l    d  .debug_aranges	00000000 .debug_aranges
00000000 l    d  .debug_info	00000000 .debug_info
00000000 l    d  .debug_abbrev	00000000 .debug_abbrev
00000000 l    d  .debug_line	00000000 .debug_line
00000000 l    d  .debug_frame	00000000 .debug_frame
00000000 l    d  .debug_str	00000000 .debug_str
00000000 l    d  .debug_loc	00000000 .debug_loc
00000000 l    d  .debug_alt_sim_info	00000000 .debug_alt_sim_info
00000000 l    d  .debug_ranges	00000000 .debug_ranges
00000000 l    df *ABS*	00000000 ../ED2platformTest0_bsp//obj/HAL/src/crt0.o
0000028c l       .text	00000000 alt_after_alt_main
00000000 l    df *ABS*	00000000 alt_irq_handler.c
00000000 l    df *ABS*	00000000 alt_instruction_exception_entry.c
00000000 l    df *ABS*	00000000 board_diag.c
00000290 l     F .text	00000068 MenuBegin
000002f8 l     F .text	00000048 MenuItem
000003cc l     F .text	0000010c MenuEnd
0001dd80 l     O .bss	00000004 entry.2639
0001dd84 l     O .bss	00000001 ch.2640
000004d8 l     F .text	000000b4 DoJTAGUARTMenu
0001dd85 l     O .bss	00000001 ch.2644
00000ec0 l     F .text	0000016c UARTSendLots
0000102c l     F .text	000000e8 UARTReceiveChars
0000058c l     F .text	000000b4 DoSevenSegMenu
0001dd86 l     O .bss	00000001 ch.2653
00000c2c l     F .text	0000005c SevenSegCount
00000c88 l     F .text	00000238 SevenSegControl
00000640 l     F .text	00000198 TopMenu
0001dd87 l     O .bss	00000001 ch.2662
000007d8 l     F .text	000000f4 TestLEDs
000009f8 l     F .text	00000184 TestButtons
0001dd88 l     O .bss	00000004 entry.2677
0001dd8c l     O .bss	00000001 ch.2676
000008cc l     F .text	00000070 handle_button_interrupts
0000093c l     F .text	0000006c init_button_pio
000009a8 l     F .text	00000050 disable_button_pio
00000b7c l     F .text	000000b0 sevenseg_set_hex
0001a4c0 l     O .rwdata	00000010 segments.2707
0001dd8d l     O .bss	00000001 ch.2722
0001dd8e l     O .bss	00000001 ch.2729
0001dd8f l     O .bss	00000004 entry.2742
0001dd93 l     O .bss	00000001 ch.2743
0001dd94 l     O .bss	00000001 chP.2744
00000000 l    df *ABS*	00000000 getc.c
00000000 l    df *ABS*	00000000 impure.c
0001a4d0 l     O .rwdata	00000424 impure_data
00000000 l    df *ABS*	00000000 printf.c
00000000 l    df *ABS*	00000000 putchar.c
00000000 l    df *ABS*	00000000 puts.c
00000000 l    df *ABS*	00000000 rget.c
00000000 l    df *ABS*	00000000 sscanf.c
00000000 l    df *ABS*	00000000 stdio.c
00000000 l    df *ABS*	00000000 strlen.c
00000000 l    df *ABS*	00000000 vfscanf.c
00019de2 l     O .rodata	00000022 basefix.4082
00000000 l    df *ABS*	00000000 vfprintf.c
00019e46 l     O .rodata	00000010 zeroes.4181
00019e56 l     O .rodata	00000010 blanks.4180
00000000 l    df *ABS*	00000000 writer.c
00000000 l    df *ABS*	00000000 wsetup.c
00000000 l    df *ABS*	00000000 closer.c
00000000 l    df *ABS*	00000000 ctype_.c
00019f67 l     O .rodata	00000180 _ctype_b
00000000 l    df *ABS*	00000000 dtoa.c
0000508c l     F .text	00000200 quorem
00000000 l    df *ABS*	00000000 fflush.c
00000000 l    df *ABS*	00000000 findfp.c
00006c0c l     F .text	00000008 __fp_lock
00006c14 l     F .text	00000008 __fp_unlock
00006c28 l     F .text	000001a0 __sinit.part.1
00000000 l    df *ABS*	00000000 mallocr.c
00000000 l    df *ABS*	00000000 fvwrite.c
00000000 l    df *ABS*	00000000 fwalk.c
00000000 l    df *ABS*	00000000 int_errno.c
00000000 l    df *ABS*	00000000 iswspace.c
00000000 l    df *ABS*	00000000 locale.c
0001a914 l     O .rwdata	00000020 lc_ctype_charset
0001a8f4 l     O .rwdata	00000020 lc_message_charset
0001a934 l     O .rwdata	00000038 lconv
00000000 l    df *ABS*	00000000 lseekr.c
00000000 l    df *ABS*	00000000 makebuf.c
00000000 l    df *ABS*	00000000 mallocr.c
00000000 l    df *ABS*	00000000 mbrtowc.c
00000000 l    df *ABS*	00000000 mbtowc_r.c
00000000 l    df *ABS*	00000000 memchr.c
00000000 l    df *ABS*	00000000 memcpy.c
00000000 l    df *ABS*	00000000 memmove.c
00000000 l    df *ABS*	00000000 memset.c
00000000 l    df *ABS*	00000000 mprec.c
0001a104 l     O .rodata	0000000c p05.2678
00000000 l    df *ABS*	00000000 putc.c
00000000 l    df *ABS*	00000000 readr.c
00000000 l    df *ABS*	00000000 mallocr.c
00000000 l    df *ABS*	00000000 refill.c
0000a26c l     F .text	0000001c lflush
00000000 l    df *ABS*	00000000 s_fpclassify.c
00000000 l    df *ABS*	00000000 sbrkr.c
00000000 l    df *ABS*	00000000 sccl.c
00000000 l    df *ABS*	00000000 sf_nan.c
00000000 l    df *ABS*	00000000 sprintf.c
00000000 l    df *ABS*	00000000 strcmp.c
00000000 l    df *ABS*	00000000 strtod.c
0001ad88 l     O .rwdata	00000014 fpi.2638
0001a238 l     O .rodata	00000028 tinytens
0001ad74 l     O .rwdata	00000014 fpinan.2674
00000000 l    df *ABS*	00000000 strtol.c
00000000 l    df *ABS*	00000000 strtoll_r.c
00000000 l    df *ABS*	00000000 strtoul.c
00000000 l    df *ABS*	00000000 strtoull_r.c
00000000 l    df *ABS*	00000000 vfscanf.c
0001a260 l     O .rodata	00000022 basefix.3580
00000000 l    df *ABS*	00000000 vfprintf.c
0001a282 l     O .rodata	00000010 zeroes.4166
0001a292 l     O .rodata	00000010 blanks.4165
00000000 l    df *ABS*	00000000 ungetc.c
00000000 l    df *ABS*	00000000 vfprintf.c
0000fe28 l     F .text	000000fc __sprint_r.part.0
0001a2b2 l     O .rodata	00000010 blanks.4125
0001a2a2 l     O .rodata	00000010 zeroes.4126
00000000 l    df *ABS*	00000000 wbuf.c
00000000 l    df *ABS*	00000000 mallocr.c
00000000 l    df *ABS*	00000000 fclose.c
00000000 l    df *ABS*	00000000 fputwc.c
00000000 l    df *ABS*	00000000 fstatr.c
00000000 l    df *ABS*	00000000 gdtoa-gethex.c
00011838 l     F .text	00000100 rshift
00000000 l    df *ABS*	00000000 gdtoa-hexnan.c
00000000 l    df *ABS*	00000000 isattyr.c
00000000 l    df *ABS*	00000000 strncmp.c
00000000 l    df *ABS*	00000000 vfprintf.c
0001a2e0 l     O .rodata	00000010 zeroes.4110
0001a2f0 l     O .rodata	00000010 blanks.4109
00000000 l    df *ABS*	00000000 wcrtomb.c
00000000 l    df *ABS*	00000000 wctomb_r.c
00000000 l    df *ABS*	00000000 libgcc2.c
00000000 l    df *ABS*	00000000 libgcc2.c
00000000 l    df *ABS*	00000000 libgcc2.c
00000000 l    df *ABS*	00000000 libgcc2.c
00000000 l    df *ABS*	00000000 lib2-divmod.c
000145d4 l     F .text	0000006c udivmodsi4
00000000 l    df *ABS*	00000000 eqsf2.c
00000000 l    df *ABS*	00000000 gesf2.c
00000000 l    df *ABS*	00000000 lesf2.c
00000000 l    df *ABS*	00000000 adddf3.c
00000000 l    df *ABS*	00000000 divdf3.c
00000000 l    df *ABS*	00000000 eqdf2.c
00000000 l    df *ABS*	00000000 gedf2.c
00000000 l    df *ABS*	00000000 ledf2.c
00000000 l    df *ABS*	00000000 muldf3.c
00000000 l    df *ABS*	00000000 subdf3.c
00000000 l    df *ABS*	00000000 fixdfsi.c
00000000 l    df *ABS*	00000000 floatsidf.c
00000000 l    df *ABS*	00000000 floatunsidf.c
00000000 l    df *ABS*	00000000 truncdfsf2.c
00000000 l    df *ABS*	00000000 libgcc2.c
00000000 l    df *ABS*	00000000 libgcc2.c
00000000 l    df *ABS*	00000000 alt_close.c
0001707c l     F .text	00000050 alt_get_errno
00000000 l    df *ABS*	00000000 alt_dev.c
0001719c l     F .text	0000002c alt_dev_null_write
00000000 l    df *ABS*	00000000 alt_errno.c
00000000 l    df *ABS*	00000000 alt_fstat.c
000171c8 l     F .text	00000050 alt_get_errno
00000000 l    df *ABS*	00000000 alt_irq_register.c
00000000 l    df *ABS*	00000000 alt_irq_vars.c
00000000 l    df *ABS*	00000000 alt_isatty.c
00017478 l     F .text	00000050 alt_get_errno
00000000 l    df *ABS*	00000000 alt_load.c
0001756c l     F .text	00000064 alt_load_section
00000000 l    df *ABS*	00000000 alt_lseek.c
00017650 l     F .text	00000050 alt_get_errno
00000000 l    df *ABS*	00000000 alt_main.c
00000000 l    df *ABS*	00000000 alt_malloc_lock.c
00000000 l    df *ABS*	00000000 alt_read.c
0001782c l     F .text	00000050 alt_get_errno
00000000 l    df *ABS*	00000000 alt_release_fd.c
00000000 l    df *ABS*	00000000 alt_sbrk.c
0001c114 l     O .rwdata	00000004 heap_end
00000000 l    df *ABS*	00000000 alt_usleep.c
00000000 l    df *ABS*	00000000 alt_write.c
00017ab8 l     F .text	00000050 alt_get_errno
00000000 l    df *ABS*	00000000 alt_sys_init.c
00017c00 l     F .text	00000038 alt_dev_reg
0001af44 l     O .rwdata	00001060 jtag_uart
0001bfa4 l     O .rwdata	0000002c led_green
0001bfd0 l     O .rwdata	0000002c led_red
0001bffc l     O .rwdata	0000002c push_buttons
0001c028 l     O .rwdata	0000002c seg7_0to3
0001c054 l     O .rwdata	0000002c seg7_4to7
0001c080 l     O .rwdata	0000002c slider_switch
0001c0ac l     O .rwdata	0000002c Altera_UP_SD_Card_Avalon_Interface_0
00000000 l    df *ABS*	00000000 altera_avalon_jtag_uart_fd.c
00000000 l    df *ABS*	00000000 altera_avalon_jtag_uart_init.c
00017f24 l     F .text	00000208 altera_avalon_jtag_uart_irq
0001812c l     F .text	000000a8 altera_avalon_jtag_uart_timeout
00000000 l    df *ABS*	00000000 altera_avalon_jtag_uart_ioctl.c
00000000 l    df *ABS*	00000000 altera_avalon_jtag_uart_read.c
00000000 l    df *ABS*	00000000 altera_avalon_jtag_uart_write.c
00000000 l    df *ABS*	00000000 alt_alarm_start.c
00000000 l    df *ABS*	00000000 alt_busy_sleep.c
00000000 l    df *ABS*	00000000 alt_dcache_flush_all.c
00000000 l    df *ABS*	00000000 alt_dev_llist_insert.c
00018a28 l     F .text	00000050 alt_get_errno
00000000 l    df *ABS*	00000000 alt_do_ctors.c
00000000 l    df *ABS*	00000000 alt_do_dtors.c
00000000 l    df *ABS*	00000000 alt_icache_flush_all.c
00000000 l    df *ABS*	00000000 alt_io_redirect.c
00018c04 l     F .text	000000c0 alt_open_fd
00000000 l    df *ABS*	00000000 alt_open.c
00018d3c l     F .text	00000050 alt_get_errno
00018d8c l     F .text	000000cc alt_file_locked
00000000 l    df *ABS*	00000000 alt_tick.c
00000000 l    df *ABS*	00000000 altera_nios2_gen2_irq.c
00000000 l    df *ABS*	00000000 alt_find_dev.c
00000000 l    df *ABS*	00000000 alt_find_file.c
00000000 l    df *ABS*	00000000 alt_get_fd.c
00000000 l    df *ABS*	00000000 alt_icache_flush.c
00000000 l    df *ABS*	00000000 atexit.c
00000000 l    df *ABS*	00000000 exit.c
00000000 l    df *ABS*	00000000 memcmp.c
00000000 l    df *ABS*	00000000 __atexit.c
00000000 l    df *ABS*	00000000 __call_atexit.c
00000000 l    df *ABS*	00000000 alt_exit.c
0001ddd0 g     O .bss	00000004 alt_instruction_exception_handler
000012f0 g     F .text	00000018 putchar
00009990 g     F .text	00000074 _mprec_log10
00009a7c g     F .text	0000008c __any_on
0001246c g     F .text	00000054 _isatty_r
0001a110 g     O .rodata	00000028 __mprec_tinytens
00017774 g     F .text	00000078 alt_main
00001308 g     F .text	000000b8 _puts_r
0001defc g     O .bss	00000100 alt_irq
00007ae4 g     F .text	0000005c _lseek_r
0001c120 g       *ABS*	00000000 __flash_rwdata_start
00015a4c g     F .text	00000084 .hidden __eqdf2
0001dffc g       *ABS*	00000000 __alt_heap_start
000012ac g     F .text	0000003c printf
000137b0 g     F .text	0000009c _wcrtomb_r
08000000 g       *ABS*	00000000 __alt_mem_sram
00001628 g     F .text	0000005c __sseek
00006f5c g     F .text	00000010 __sinit
000112bc g     F .text	00000154 __swbuf_r
00007a04 g     F .text	0000007c _setlocale_r
00006dc8 g     F .text	00000064 __sfmoreglue
0000fe0c g     F .text	0000001c ungetc
0001780c g     F .text	00000020 __malloc_unlock
0000a728 g     F .text	00001540 _strtod_r
00000340 g     F .text	0000008c GetInputString
0000ca88 g     F .text	000000f4 _sfread_r
000088fc g     F .text	0000015c memmove
00006f44 g     F .text	00000018 _cleanup
00008b7c g     F .text	000000a8 _Balloc
00015ad0 g     F .text	000000e0 .hidden __gtdf2
0001914c g     F .text	00000020 altera_nios2_gen2_irq_init
00000000  w      *UND*	00000000 __errno
00000000 g     F .entry	0000001c __reset
0001dd98 g     O .bss	00000004 edge_capture
00000020 g       *ABS*	00000000 __flash_exceptions_start
000117e0 g     F .text	00000058 _fstat_r
0001dd9c g     O .bss	00000004 errno
00001448 g     F .text	00000014 __srget
000015a4 g     F .text	00000008 __seofread
00012748 g     F .text	00001068 ___svfiprintf_internal_r
0001ddc0 g     O .bss	00000004 alt_argv
000240d8 g       *ABS*	00000000 _gp
00017a88 g     F .text	00000030 usleep
0001adc4 g     O .rwdata	00000180 alt_fd_list
00001178 g     F .text	00000080 _getc_r
000011f8 g     F .text	00000088 getc
000012e8 g     F .text	00000008 _putchar_r
0001916c g     F .text	00000090 alt_find_dev
000087c4 g     F .text	00000138 memcpy
000121d8 g     F .text	00000294 __hexnan
00006c1c g     F .text	0000000c _cleanup_r
00016d0c g     F .text	000000d0 .hidden __floatsidf
00018cc4 g     F .text	00000078 alt_io_redirect
00015bb0 g     F .text	000000e0 .hidden __ltdf2
00019890 g       *ABS*	00000000 __DTOR_END__
000013c0 g     F .text	00000014 puts
00019450 g     F .text	0000009c alt_exception_cause_generated_bad_addr
0000854c g     F .text	000000f0 mbrtowc
0000a430 g     F .text	00000074 __fpclassifyd
000098ec g     F .text	000000a4 __ratio
00011298 g     F .text	00000024 __vfiprintf_internal
00018328 g     F .text	0000020c altera_avalon_jtag_uart_read
00000000  w      *UND*	00000000 malloc
00001280 g     F .text	0000002c _printf_r
000146f0 g     F .text	00000008 .hidden __udivsi3
000174c8 g     F .text	000000a4 isatty
000079d4 g     F .text	00000030 iswspace
0001a160 g     O .rodata	000000c8 __mprec_tens
00007a80 g     F .text	0000000c __locale_charset
0001482c g     F .text	000000b8 .hidden __lesf2
00013a10 g     F .text	00000074 .hidden __fixunsdfsi
000193c4 g     F .text	0000008c alt_icache_flush
0001ddb4 g     O .bss	00000004 __malloc_top_pad
0000ca18 g     F .text	00000070 __ssrefill_r
0000c5a8 g     F .text	00000024 strtoul
0001c0e4 g     O .rwdata	00000004 __mb_cur_max
00007ab0 g     F .text	0000000c _localeconv_r
0000c5cc g     F .text	00000354 _strtoull_r
00008f7c g     F .text	0000003c __i2b
000073c0 g     F .text	000004a4 __sfvwrite_r
0000a4a4 g     F .text	00000054 _sbrk_r
00009c70 g     F .text	0000005c _read_r
0001c108 g     O .rwdata	00000004 alt_max_fd
000114f0 g     F .text	00000100 _fclose_r
00006bdc g     F .text	00000030 fflush
0001ddb0 g     O .bss	00000004 __malloc_max_sbrked_mem
000172c8 g     F .text	000001b0 alt_irq_register
00001724 g     F .text	00001768 __ssvfscanf_r
000148e4 g     F .text	0000089c .hidden __adddf3
00014700 g     F .text	00000074 .hidden __nesf2
00009694 g     F .text	0000011c __b2d
00014044 g     F .text	00000590 .hidden __umoddi3
000176a0 g     F .text	000000d4 lseek
0001c0d8 g     O .rwdata	00000004 _global_impure_ptr
00009ccc g     F .text	000005a0 _realloc_r
0001dffc g       *ABS*	00000000 __bss_end
00019048 g     F .text	00000104 alt_tick
0001ddfc g     O .bss	00000100 __hexdig
00013a84 g     F .text	000005c0 .hidden __udivdi3
00011604 g     F .text	00000184 _fputwc_r
0001a138 g     O .rodata	00000028 __mprec_bigtens
00008d60 g     F .text	00000104 __s2b
00016ddc g     F .text	000000a4 .hidden __floatunsidf
0000943c g     F .text	00000060 __mcmp
00006f7c g     F .text	00000018 __fp_lock_all
00018fb0 g     F .text	00000098 alt_alarm_stop
0000bfe8 g     F .text	00000024 strtol
0001ddb8 g     O .bss	00000004 alt_irq_active
000000fc g     F .exceptions	000000d4 alt_irq_handler
0001ad9c g     O .rwdata	00000028 alt_dev_null
000189e4 g     F .text	00000044 alt_dcache_flush_all
00008e64 g     F .text	00000068 __hi0bits
00016c84 g     F .text	00000088 .hidden __fixdfsi
0000bc68 g     F .text	0000001c strtod
0001c120 g       *ABS*	00000000 __ram_rwdata_end
0001c100 g     O .rwdata	00000008 alt_dev_list
00017b08 g     F .text	000000f8 write
00009b08 g     F .text	000000a0 _putc_r
00014774 g     F .text	000000b8 .hidden __gtsf2
0001a4c0 g       *ABS*	00000000 __ram_rodata_end
00017218 g     F .text	000000b0 fstat
00015bb0 g     F .text	000000e0 .hidden __ledf2
000091b4 g     F .text	00000140 __pow5mult
0000ff3c g     F .text	0000135c ___vfiprintf_internal_r
0001dda8 g     O .bss	00000004 __nlocale_changed
000146f8 g     F .text	00000008 .hidden __umodsi3
0001dffc g       *ABS*	00000000 end
00017e6c g     F .text	000000b8 altera_avalon_jtag_uart_init
000001d0 g     F .exceptions	00000074 alt_instruction_exception_entry
00019890 g       *ABS*	00000000 __CTOR_LIST__
08000000 g       *ABS*	00000000 __alt_stack_pointer
00017018 g     F .text	00000064 .hidden __clzsi2
00018534 g     F .text	00000218 altera_avalon_jtag_uart_write
00006f6c g     F .text	00000004 __sfp_lock_acquire
000086dc g     F .text	000000e8 memchr
00002e8c g     F .text	00001ffc ___vfprintf_internal_r
0000a5c0 g     F .text	00000058 _sprintf_r
000070d0 g     F .text	000002f0 _free_r
00007a8c g     F .text	00000010 __locale_mb_cur_max
000196c8 g     F .text	00000194 __call_exitprocs
000013d4 g     F .text	00000074 __srget_r
0000c920 g     F .text	000000f8 _sungetc_r
0001dda4 g     O .bss	00000004 __mlocale_changed
0001c0e8 g     O .rwdata	00000004 __malloc_sbrk_base
00000244 g     F .text	0000004c _start
0001ddc8 g     O .bss	00000004 _alt_tick_rate
0000c00c g     F .text	00000314 _strtoll_r
000092f4 g     F .text	00000148 __lshift
0001ddcc g     O .bss	00000004 _alt_nticks
0001787c g     F .text	000000fc read
00017c6c g     F .text	0000009c alt_sys_init
00012580 g     F .text	000001c8 __ssprint_r
000195b4 g     F .text	00000114 __register_exitproc
000124c0 g     F .text	000000c0 strncmp
00008fb8 g     F .text	000001fc __multiply
000181d4 g     F .text	00000068 altera_avalon_jtag_uart_close
0001a4c0 g       *ABS*	00000000 __ram_rwdata_start
00019890 g       *ABS*	00000000 __ram_rodata_start
0001ddd4 g     O .bss	00000028 __malloc_current_mallinfo
00014700 g     F .text	00000074 .hidden __eqsf2
000097b0 g     F .text	0000013c __d2b
00017d08 g     F .text	00000060 altera_avalon_jtag_uart_read_fd
0000c320 g     F .text	00000288 _strtoul_r
00019310 g     F .text	000000b4 alt_get_fd
0001888c g     F .text	00000158 alt_busy_sleep
00005038 g     F .text	00000054 _close_r
00019538 g     F .text	0000007c memcmp
00017dc8 g     F .text	00000050 altera_avalon_jtag_uart_close_fd
0001dffc g       *ABS*	00000000 __alt_stack_base
00017e18 g     F .text	00000054 altera_avalon_jtag_uart_ioctl_fd
0000145c g     F .text	0000007c sscanf
00004f08 g     F .text	00000130 __swsetup_r
00015180 g     F .text	000008cc .hidden __divdf3
00006e2c g     F .text	00000118 __sfp
00009a04 g     F .text	00000078 __copybits
0001a96c g     O .rwdata	00000408 __malloc_av_
00006f78 g     F .text	00000004 __sinit_lock_release
00015c90 g     F .text	00000724 .hidden __muldf3
00001550 g     F .text	00000054 __sread
000191fc g     F .text	00000114 alt_find_file
00018a78 g     F .text	000000a4 alt_dev_llist_insert
000177ec g     F .text	00000020 __malloc_lock
000179d8 g     F .text	000000b0 sbrk
0000dc20 g     F .text	00001f90 ___svfprintf_internal_r
000069b4 g     F .text	00000228 _fflush_r
0001142c g     F .text	000000c4 _calloc_r
0001dd80 g       *ABS*	00000000 __bss_start
00008a58 g     F .text	00000124 memset
00001114 g     F .text	00000064 main
0001ddc4 g     O .bss	00000004 alt_envp
0001ddac g     O .bss	00000004 __malloc_max_total_mem
00017d68 g     F .text	00000060 altera_avalon_jtag_uart_write_fd
00011410 g     F .text	0000001c __swbuf
0001482c g     F .text	000000b8 .hidden __ltsf2
00001684 g     F .text	00000008 __sclose
08000000 g       *ABS*	00000000 __alt_heap_limit
000115f0 g     F .text	00000014 fclose
0000bd88 g     F .text	00000260 _strtol_r
00016e80 g     F .text	00000198 .hidden __truncdfsf2
0000528c g     F .text	00001728 _dtoa_r
00007cf8 g     F .text	000007a8 _malloc_r
00013924 g     F .text	00000030 __ascii_wctomb
0001c10c g     O .rwdata	00000004 alt_errno
0000fbb0 g     F .text	000000d4 __submore
00007864 g     F .text	000000b8 _fwalk
00008680 g     F .text	0000005c _mbtowc_r
00009ba8 g     F .text	000000c8 putc
00014640 g     F .text	00000054 .hidden __divsi3
00006fac g     F .text	00000124 _malloc_trim_r
00019890 g       *ABS*	00000000 __CTOR_END__
0000a684 g     F .text	000000a4 strcmp
00019890 g       *ABS*	00000000 __flash_rodata_start
00019890 g       *ABS*	00000000 __DTOR_LIST__
00015a4c g     F .text	00000084 .hidden __nedf2
00017c38 g     F .text	00000034 alt_irq_init
00017978 g     F .text	00000060 alt_release_fd
0000a618 g     F .text	0000006c sprintf
0001a300 g     O .rodata	00000100 .hidden __clz_tab
0001dda0 g     O .bss	00000004 _PathLocale
0000bc84 g     F .text	00000104 strtof
000194ec g     F .text	00000014 atexit
00014774 g     F .text	000000b8 .hidden __gesf2
00004eac g     F .text	0000005c _write_r
00007abc g     F .text	0000001c setlocale
0000a5b8 g     F .text	00000008 nanf
0001c0dc g     O .rwdata	00000004 _impure_ptr
0001ddbc g     O .bss	00000004 alt_argc
000084a0 g     F .text	000000ac _mbrtowc_r
00018b78 g     F .text	0000005c _do_dtors
00007aa8 g     F .text	00000008 __locale_cjk_lang
0000a288 g     F .text	000001a8 __srefill_r
00000020 g       .exceptions	00000000 alt_irq_entry
0000863c g     F .text	00000044 __ascii_mbtowc
00009634 g     F .text	00000060 __ulp
00006f94 g     F .text	00000018 __fp_unlock_all
0001c0f8 g     O .rwdata	00000008 alt_fs_list
0000cb7c g     F .text	000010a4 __ssvfiscanf_r
00000020 g       *ABS*	00000000 __ram_exceptions_start
00007ad8 g     F .text	0000000c localeconv
00011938 g     F .text	00000084 __hexdig_init
000014d8 g     F .text	00000078 _sscanf_r
0001c120 g       *ABS*	00000000 _edata
0001dffc g       *ABS*	00000000 _end
00000244 g       *ABS*	00000000 __ram_exceptions_end
0001823c g     F .text	000000ec altera_avalon_jtag_uart_ioctl
000015ac g     F .text	0000007c __swrite
0001c0ec g     O .rwdata	00000004 __malloc_trim_threshold
00007a9c g     F .text	0000000c __locale_msgcharset
00019500 g     F .text	00000038 exit
0000791c g     F .text	000000b8 _fwalk_reent
0000949c g     F .text	00000198 __mdiff
00014694 g     F .text	0000005c .hidden __modsi3
0001c0e0 g     O .rwdata	00000004 __ctype_ptr__
08000000 g       *ABS*	00000000 __alt_data_end
00000020 g     F .exceptions	00000000 alt_exception
00006f70 g     F .text	00000004 __sfp_lock_release
00000000 g       *ABS*	00000000 __alt_mem_sdram
0000a4f8 g     F .text	000000c0 __sccl
00019e66 g     O .rodata	00000101 _ctype_
0001c0f0 g     O .rwdata	00000004 __mbtowc
0001985c g     F .text	00000034 _exit
0001874c g     F .text	00000140 alt_alarm_start
000139b0 g     F .text	00000060 .hidden __muldi3
00007b40 g     F .text	000001b8 __smakebuf_r
0000168c g     F .text	00000098 strlen
00018e58 g     F .text	00000158 open
00015ad0 g     F .text	000000e0 .hidden __gedf2
000119bc g     F .text	0000081c __gethex
0001c0f4 g     O .rwdata	00000004 __wctomb
0000ff24 g     F .text	00000018 __sprint_r
00018bd4 g     F .text	00000030 alt_icache_flush_all
0001c110 g     O .rwdata	00000004 alt_priority_mask
00004e88 g     F .text	00000024 __vfprintf_internal
00013954 g     F .text	0000005c _wctomb_r
000163b4 g     F .text	000008d0 .hidden __subdf3
00008ecc g     F .text	000000b0 __lo0bits
0001c118 g     O .rwdata	00000008 alt_alarm_list
0000fc84 g     F .text	00000188 _ungetc_r
00018b1c g     F .text	0000005c _do_ctors
0001384c g     F .text	000000d8 wcrtomb
000170cc g     F .text	000000d0 close
000175d0 g     F .text	00000080 alt_load
00011788 g     F .text	00000058 fputwc
00000000  w      *UND*	00000000 free
00006f74 g     F .text	00000004 __sinit_lock_acquire
00008c4c g     F .text	00000114 __multadd
00008c24 g     F .text	00000028 _Bfree



Disassembly of section .entry:

00000000 <__reset>:
#if NIOS2_ICACHE_SIZE > 0 && defined(ALT_ALLOW_CODE_AT_RESET) && (!defined(ALT_SIM_OPTIMIZE) || defined(NIOS2_ECC_PRESENT))
    /* Assume the instruction cache size is always a power of two. */
#if NIOS2_ICACHE_SIZE > 0x8000
    movhi r2, %hi(NIOS2_ICACHE_SIZE)
#else
    movui r2, NIOS2_ICACHE_SIZE
   0:	00840014 	movui	r2,4096
#endif

0:
    initi r2
   4:	1001483a 	initi	r2
    addi r2, r2, -NIOS2_ICACHE_LINE_SIZE
   8:	10bff804 	addi	r2,r2,-32
    bgt r2, zero, 0b
   c:	00bffd16 	blt	zero,r2,4 <__alt_data_end+0xf8000004>
 * Jump to the _start entry point in the .text section if reset code
 * is allowed or if optimizing for RTL simulation.
 */
#if defined(ALT_ALLOW_CODE_AT_RESET) || defined(ALT_SIM_OPTIMIZE)
    /* Jump to the _start entry point in the .text section. */
    movhi r1, %hi(_start)
  10:	00400034 	movhi	at,0
    ori r1, r1, %lo(_start)
  14:	08409114 	ori	at,at,580
    jmp r1
  18:	0800683a 	jmp	at
  1c:	00000000 	call	0 <__reset>

Disassembly of section .exceptions:

00000020 <alt_exception>:

#else /* ALT_EXCEPTION_STACK disabled */
        /* 
         * Reserve space on normal stack for registers about to be pushed.
         */
        addi  sp, sp, -76
  20:	deffed04 	addi	sp,sp,-76
         * documentation for details).
         *
         * Leave a gap in the stack frame at 4(sp) for the muldiv handler to
         * store zero into.
         */
        stw   ra,  0(sp)
  24:	dfc00015 	stw	ra,0(sp)
        stw   r1,   8(sp)
  28:	d8400215 	stw	at,8(sp)
        stw   r2,  12(sp)
  2c:	d8800315 	stw	r2,12(sp)
        stw   r3,  16(sp)
  30:	d8c00415 	stw	r3,16(sp)
        stw   r4,  20(sp)
  34:	d9000515 	stw	r4,20(sp)
        stw   r5,  24(sp)
  38:	d9400615 	stw	r5,24(sp)
        stw   r6,  28(sp)
  3c:	d9800715 	stw	r6,28(sp)
        stw   r7,  32(sp)
  40:	d9c00815 	stw	r7,32(sp)
        rdctl r5, estatus   /* Read early to avoid usage stall */
  44:	000b307a 	rdctl	r5,estatus
        stw   r8,  36(sp)
  48:	da000915 	stw	r8,36(sp)
        stw   r9,  40(sp)
  4c:	da400a15 	stw	r9,40(sp)
        stw   r10, 44(sp)
  50:	da800b15 	stw	r10,44(sp)
        stw   r11, 48(sp)
  54:	dac00c15 	stw	r11,48(sp)
        stw   r12, 52(sp)
  58:	db000d15 	stw	r12,52(sp)
        stw   r13, 56(sp)
  5c:	db400e15 	stw	r13,56(sp)
        stw   r14, 60(sp)
  60:	db800f15 	stw	r14,60(sp)
        stw   r15, 64(sp)
  64:	dbc01015 	stw	r15,64(sp)
        /*
         * ea-4 contains the address of the instruction being executed
         * when the exception occured. For interrupt exceptions, we will
         * will be re-issue the isntruction. Store it in 72(sp)
         */
        stw   r5,  68(sp)  /* estatus */
  68:	d9401115 	stw	r5,68(sp)
        addi  r15, ea, -4  /* instruction that caused exception */
  6c:	ebffff04 	addi	r15,ea,-4
        stw   r15,  72(sp)
  70:	dbc01215 	stw	r15,72(sp)
#else
        /*
         * Test to see if the exception was a software exception or caused 
         * by an external interrupt, and vector accordingly.
         */
        rdctl r4, ipending
  74:	0009313a 	rdctl	r4,ipending
        andi  r2, r5, 1
  78:	2880004c 	andi	r2,r5,1
        beq   r2, zero, .Lnot_irq
  7c:	10000326 	beq	r2,zero,8c <alt_exception+0x6c>
        beq   r4, zero, .Lnot_irq
  80:	20000226 	beq	r4,zero,8c <alt_exception+0x6c>
        /*
         * Now that all necessary registers have been preserved, call 
         * alt_irq_handler() to process the interrupts.
         */

        call alt_irq_handler
  84:	00000fc0 	call	fc <alt_irq_handler>

        .section .exceptions.irqreturn, "xa"

        br    .Lexception_exit
  88:	00000706 	br	a8 <alt_exception+0x88>
         * upon completion, so we write ea (address of instruction *after*
         * the one where the exception occured) into 72(sp). The actual
         * instruction that caused the exception is written in r2, which these
         * handlers will utilize.
         */
        stw   ea,  72(sp)  /* Don't re-issue */
  8c:	df401215 	stw	ea,72(sp)
        ldhu.n  r2, 0(r4)
        ldhu.n  r3, 2(r4)
        slli.n  r3, r3, 16
        or.n    r2, r2, r3 /* Instruction that caused exception */
#else
        ldw   r2, -4(ea)   /* Instruction that caused exception */
  90:	e8bfff17 	ldw	r2,-4(ea)
         * debugger is present) or go into an infinite loop since the
         * handling behavior is undefined; in that case we will not return here.
         */

        /* Load exception-causing address as first argument (r4) */
        addi   r4, ea, -4
  94:	e93fff04 	addi	r4,ea,-4

        /* Call the instruction-exception entry */
        call   alt_instruction_exception_entry
  98:	00001d00 	call	1d0 <alt_instruction_exception_entry>
         * instruction
         *
         * Return code was 0: Skip. The instruction after the exception is
         * already stored in 72(sp).
         */
        bne   r2, r0, .Lexception_exit
  9c:	1000021e 	bne	r2,zero,a8 <alt_exception+0x88>

        /*
         * Otherwise, modify 72(sp) to re-issue the instruction that caused the
         * exception.
         */
        addi  r15, ea, -4  /* instruction that caused exception */
  a0:	ebffff04 	addi	r15,ea,-4
        stw   r15,  72(sp)
  a4:	dbc01215 	stw	r15,72(sp)
        /* 
         * Restore the saved registers, so that all general purpose registers 
         * have been restored to their state at the time the interrupt occured.
         */

        ldw   r5,  68(sp)
  a8:	d9401117 	ldw	r5,68(sp)
        ldw   ea,  72(sp)  /* This becomes the PC once eret is executed */
  ac:	df401217 	ldw	ea,72(sp)
        ldw   ra,   0(sp)
  b0:	dfc00017 	ldw	ra,0(sp)

        wrctl estatus, r5
  b4:	2801707a 	wrctl	estatus,r5

        ldw   r1,   8(sp)
  b8:	d8400217 	ldw	at,8(sp)
        ldw   r2,  12(sp)
  bc:	d8800317 	ldw	r2,12(sp)
        ldw   r3,  16(sp)
  c0:	d8c00417 	ldw	r3,16(sp)
        ldw   r4,  20(sp)
  c4:	d9000517 	ldw	r4,20(sp)
        ldw   r5,  24(sp)
  c8:	d9400617 	ldw	r5,24(sp)
        ldw   r6,  28(sp)
  cc:	d9800717 	ldw	r6,28(sp)
        ldw   r7,  32(sp)
  d0:	d9c00817 	ldw	r7,32(sp)

#if defined(ALT_EXCEPTION_STACK) && defined(ALT_STACK_CHECK)
        ldw   et, %gprel(alt_exception_old_stack_limit)(gp)
#endif

        ldw   r8,  36(sp)
  d4:	da000917 	ldw	r8,36(sp)
        ldw   r9,  40(sp)
  d8:	da400a17 	ldw	r9,40(sp)
        ldw   r10, 44(sp)
  dc:	da800b17 	ldw	r10,44(sp)
        ldw   r11, 48(sp)
  e0:	dac00c17 	ldw	r11,48(sp)
        ldw   r12, 52(sp)
  e4:	db000d17 	ldw	r12,52(sp)
        ldw   r13, 56(sp)
  e8:	db400e17 	ldw	r13,56(sp)
        ldw   r14, 60(sp)
  ec:	db800f17 	ldw	r14,60(sp)
        ldw   r15, 64(sp)
  f0:	dbc01017 	ldw	r15,64(sp)
        stw   et, %gprel(alt_stack_limit_value)(gp)
        stw   zero, %gprel(alt_exception_old_stack_limit)(gp)
#endif /* ALT_STACK_CHECK */
        ldw   sp,  76(sp)
#else /* ALT_EXCEPTION_STACK disabled */
        addi  sp, sp, 76
  f4:	dec01304 	addi	sp,sp,76

        /*
         * Return to the interrupted instruction.
         */

        eret
  f8:	ef80083a 	eret

000000fc <alt_irq_handler>:
 * instruction is present if the macro ALT_CI_INTERRUPT_VECTOR defined.
 */

void alt_irq_handler (void) __attribute__ ((section (".exceptions")));
void alt_irq_handler (void)
{
  fc:	defff904 	addi	sp,sp,-28
 100:	dfc00615 	stw	ra,24(sp)
 104:	df000515 	stw	fp,20(sp)
 108:	df000504 	addi	fp,sp,20
  
  /*
   * Notify the operating system that we are at interrupt level.
   */ 
  
  ALT_OS_INT_ENTER();
 10c:	0001883a 	nop
#ifndef NIOS2_EIC_PRESENT
static ALT_INLINE alt_u32 ALT_ALWAYS_INLINE alt_irq_pending (void)
{
  alt_u32 active;

  NIOS2_READ_IPENDING (active);
 110:	0005313a 	rdctl	r2,ipending
 114:	e0bffe15 	stw	r2,-8(fp)

  return active;
 118:	e0bffe17 	ldw	r2,-8(fp)
   * Consider the case where the high priority interupt is asserted during
   * the interrupt entry sequence for a lower priority interrupt to see why
   * this is the case.
   */

  active = alt_irq_pending ();
 11c:	e0bffb15 	stw	r2,-20(fp)

  do
  {
    i = 0;
 120:	e03ffd15 	stw	zero,-12(fp)
    mask = 1;
 124:	00800044 	movi	r2,1
 128:	e0bffc15 	stw	r2,-16(fp)
     * called to clear the interrupt condition.
     */

    do
    {
      if (active & mask)
 12c:	e0fffb17 	ldw	r3,-20(fp)
 130:	e0bffc17 	ldw	r2,-16(fp)
 134:	1884703a 	and	r2,r3,r2
 138:	10001526 	beq	r2,zero,190 <alt_irq_handler+0x94>
      { 
#ifdef ALT_ENHANCED_INTERRUPT_API_PRESENT
        alt_irq[i].handler(alt_irq[i].context); 
#else
        alt_irq[i].handler(alt_irq[i].context, i); 
 13c:	008000b4 	movhi	r2,2
 140:	10b7bf04 	addi	r2,r2,-8452
 144:	e0fffd17 	ldw	r3,-12(fp)
 148:	180690fa 	slli	r3,r3,3
 14c:	10c5883a 	add	r2,r2,r3
 150:	10c00017 	ldw	r3,0(r2)
 154:	008000b4 	movhi	r2,2
 158:	10b7bf04 	addi	r2,r2,-8452
 15c:	e13ffd17 	ldw	r4,-12(fp)
 160:	200890fa 	slli	r4,r4,3
 164:	1105883a 	add	r2,r2,r4
 168:	10800104 	addi	r2,r2,4
 16c:	10800017 	ldw	r2,0(r2)
 170:	1009883a 	mov	r4,r2
 174:	e17ffd17 	ldw	r5,-12(fp)
 178:	183ee83a 	callr	r3
#endif
        break;
 17c:	0001883a 	nop
#ifndef NIOS2_EIC_PRESENT
static ALT_INLINE alt_u32 ALT_ALWAYS_INLINE alt_irq_pending (void)
{
  alt_u32 active;

  NIOS2_READ_IPENDING (active);
 180:	0005313a 	rdctl	r2,ipending
 184:	e0bfff15 	stw	r2,-4(fp)

  return active;
 188:	e0bfff17 	ldw	r2,-4(fp)
 18c:	00000706 	br	1ac <alt_irq_handler+0xb0>
      }
      mask <<= 1;
 190:	e0bffc17 	ldw	r2,-16(fp)
 194:	1085883a 	add	r2,r2,r2
 198:	e0bffc15 	stw	r2,-16(fp)
      i++;
 19c:	e0bffd17 	ldw	r2,-12(fp)
 1a0:	10800044 	addi	r2,r2,1
 1a4:	e0bffd15 	stw	r2,-12(fp)

    } while (1);
 1a8:	003fe006 	br	12c <__alt_data_end+0xf800012c>

    active = alt_irq_pending ();
 1ac:	e0bffb15 	stw	r2,-20(fp)
    
  } while (active);
 1b0:	e0bffb17 	ldw	r2,-20(fp)
 1b4:	103fda1e 	bne	r2,zero,120 <__alt_data_end+0xf8000120>

  /*
   * Notify the operating system that interrupt processing is complete.
   */ 

  ALT_OS_INT_EXIT();
 1b8:	0001883a 	nop
}
 1bc:	e037883a 	mov	sp,fp
 1c0:	dfc00117 	ldw	ra,4(sp)
 1c4:	df000017 	ldw	fp,0(sp)
 1c8:	dec00204 	addi	sp,sp,8
 1cc:	f800283a 	ret

000001d0 <alt_instruction_exception_entry>:
 * that handler if it has been registered. Absent a handler, it will
 * break break or hang as discussed below.
 */
int 
alt_instruction_exception_entry (alt_u32 exception_pc)
{
 1d0:	defffb04 	addi	sp,sp,-20
 1d4:	dfc00415 	stw	ra,16(sp)
 1d8:	df000315 	stw	fp,12(sp)
 1dc:	df000304 	addi	fp,sp,12
 1e0:	e13fff15 	stw	r4,-4(fp)
 * NIOS2_EXCEPTION_CAUSE_NOT_PRESENT. Your handling routine should
 * check the validity of the cause argument before proceeding.
 */
#ifdef NIOS2_HAS_EXTRA_EXCEPTION_INFO
  /* Get exception cause & "badaddr" */
  NIOS2_READ_EXCEPTION(cause);
 1e4:	000531fa 	rdctl	r2,exception
 1e8:	e0bffd15 	stw	r2,-12(fp)
  cause = ( (cause & NIOS2_EXCEPTION_REG_CAUSE_MASK) >>
 1ec:	e0bffd17 	ldw	r2,-12(fp)
 1f0:	10801f0c 	andi	r2,r2,124
 1f4:	1004d0ba 	srli	r2,r2,2
 1f8:	e0bffd15 	stw	r2,-12(fp)
              NIOS2_EXCEPTION_REG_CAUSE_OFST );

  NIOS2_READ_BADADDR(badaddr);
 1fc:	0005333a 	rdctl	r2,badaddr
 200:	e0bffe15 	stw	r2,-8(fp)
#else
  cause = NIOS2_EXCEPTION_CAUSE_NOT_PRESENT;
  badaddr = 0;
#endif /* NIOS2_HAS_EXTRA_EXCEPTION_INFO */

  if(alt_instruction_exception_handler) {
 204:	d0a73e17 	ldw	r2,-25352(gp)
 208:	10000726 	beq	r2,zero,228 <alt_instruction_exception_entry+0x58>
     * Call handler. Its return value indicates whether the exception-causing
     * instruction should be re-issued. The code that called us,
     * alt_eceptions_entry.S, will look at this value and adjust the ea
     * register as necessary
     */
    return alt_instruction_exception_handler(cause, exception_pc, badaddr);
 20c:	d0a73e17 	ldw	r2,-25352(gp)
 210:	e0fffd17 	ldw	r3,-12(fp)
 214:	1809883a 	mov	r4,r3
 218:	e17fff17 	ldw	r5,-4(fp)
 21c:	e1bffe17 	ldw	r6,-8(fp)
 220:	103ee83a 	callr	r2
 224:	00000206 	br	230 <alt_instruction_exception_entry+0x60>
   *    (a peripheral which negates its interrupt output before its
   *    interrupt handler has been executed will cause spurious interrupts)
   */
  else {
#ifdef NIOS2_HAS_DEBUG_STUB
    NIOS2_BREAK();
 228:	003da03a 	break	0
      ;
#endif /* NIOS2_HAS_DEBUG_STUB */
  }

  /* We should not get here. Remove compiler warning. */
  return NIOS2_EXCEPTION_RETURN_REISSUE_INST;
 22c:	0005883a 	mov	r2,zero
}
 230:	e037883a 	mov	sp,fp
 234:	dfc00117 	ldw	ra,4(sp)
 238:	df000017 	ldw	fp,0(sp)
 23c:	dec00204 	addi	sp,sp,8
 240:	f800283a 	ret

Disassembly of section .text:

00000244 <_start>:

    /* Assume the data cache size is always a power of two. */
#if NIOS2_DCACHE_SIZE > 0x8000
    movhi r2, %hi(NIOS2_DCACHE_SIZE)
#else
    movui r2, NIOS2_DCACHE_SIZE
     244:	00820014 	movui	r2,2048
#endif

0:
    initd 0(r2)
     248:	10000033 	initd	0(r2)
#ifdef NIOS2_ECC_PRESENT
    addi r2, r2, -4
#else
    addi r2, r2, -NIOS2_DCACHE_LINE_SIZE
     24c:	10bff804 	addi	r2,r2,-32
#endif
    bgt r2, zero, 0b
     250:	00bffd16 	blt	zero,r2,248 <__alt_data_end+0xf8000248>

    /*
     * Now that the caches are initialized, set up the stack pointer and global pointer.
     * The values provided by the linker are assumed to be correctly aligned.
     */
    movhi sp, %hi(__alt_stack_pointer)
     254:	06c20034 	movhi	sp,2048
    ori sp, sp, %lo(__alt_stack_pointer)
     258:	dec00014 	ori	sp,sp,0
    movhi gp, %hi(_gp)
     25c:	068000b4 	movhi	gp,2
    ori gp, gp, %lo(_gp)
     260:	d6903614 	ori	gp,gp,16600
 */
#ifndef ALT_SIM_OPTIMIZE
    /* Log that the BSS is about to be cleared. */
    ALT_LOG_PUTS(alt_log_msg_bss)

    movhi r2, %hi(__bss_start)
     264:	00800074 	movhi	r2,1
    ori r2, r2, %lo(__bss_start)
     268:	10b76014 	ori	r2,r2,56704

    movhi r3, %hi(__bss_end)
     26c:	00c00074 	movhi	r3,1
    ori r3, r3, %lo(__bss_end)
     270:	18f7ff14 	ori	r3,r3,57340

    beq r2, r3, 1f
     274:	10c00326 	beq	r2,r3,284 <_start+0x40>

0:
    stw zero, (r2)
     278:	10000015 	stw	zero,0(r2)
    addi r2, r2, 4
     27c:	10800104 	addi	r2,r2,4
    bltu r2, r3, 0b
     280:	10fffd36 	bltu	r2,r3,278 <__alt_data_end+0xf8000278>
     * section aren't defined until alt_load() has been called).
     */
    mov   et, zero
#endif

    call alt_load
     284:	00175d00 	call	175d0 <alt_load>

    /* Log that alt_main is about to be called. */
    ALT_LOG_PUTS(alt_log_msg_alt_main)

    /* Call the C entry point. It should never return. */
    call alt_main
     288:	00177740 	call	17774 <alt_main>

0000028c <alt_after_alt_main>:

    /* Wait in infinite loop in case alt_main does return. */
alt_after_alt_main:
    br alt_after_alt_main
     28c:	003fff06 	br	28c <__alt_data_end+0xf800028c>

00000290 <MenuBegin>:
 * 
 * Function to set the Menu "header".
 */

static void MenuBegin( char *title )
{
     290:	defffd04 	addi	sp,sp,-12
     294:	dfc00215 	stw	ra,8(sp)
     298:	df000115 	stw	fp,4(sp)
     29c:	df000104 	addi	fp,sp,4
     2a0:	e13fff15 	stw	r4,-4(fp)
  printf("\n\n");
     2a4:	010000b4 	movhi	r4,2
     2a8:	21262404 	addi	r4,r4,-26480
     2ac:	00013c00 	call	13c0 <puts>
  printf("----------------------------------\n");
     2b0:	010000b4 	movhi	r4,2
     2b4:	21262504 	addi	r4,r4,-26476
     2b8:	00013c00 	call	13c0 <puts>
  printf("Nios II Board Diagnostics\n");
     2bc:	010000b4 	movhi	r4,2
     2c0:	21262e04 	addi	r4,r4,-26440
     2c4:	00013c00 	call	13c0 <puts>
  printf("----------------------------------\n");
     2c8:	010000b4 	movhi	r4,2
     2cc:	21262504 	addi	r4,r4,-26476
     2d0:	00013c00 	call	13c0 <puts>
  printf(" %s\n",title);
     2d4:	010000b4 	movhi	r4,2
     2d8:	21263504 	addi	r4,r4,-26412
     2dc:	e17fff17 	ldw	r5,-4(fp)
     2e0:	00012ac0 	call	12ac <printf>
}
     2e4:	e037883a 	mov	sp,fp
     2e8:	dfc00117 	ldw	ra,4(sp)
     2ec:	df000017 	ldw	fp,0(sp)
     2f0:	dec00204 	addi	sp,sp,8
     2f4:	f800283a 	ret

000002f8 <MenuItem>:
 *    (defined by 'string').
 *
 **********************************************************************/

static void MenuItem( char letter, char *name )
{
     2f8:	defffc04 	addi	sp,sp,-16
     2fc:	dfc00315 	stw	ra,12(sp)
     300:	df000215 	stw	fp,8(sp)
     304:	df000204 	addi	fp,sp,8
     308:	2005883a 	mov	r2,r4
     30c:	e17fff15 	stw	r5,-4(fp)
     310:	e0bffe05 	stb	r2,-8(fp)
  printf("     %c:  %s\n" ,letter, name);
     314:	e0bffe07 	ldb	r2,-8(fp)
     318:	010000b4 	movhi	r4,2
     31c:	21263704 	addi	r4,r4,-26404
     320:	100b883a 	mov	r5,r2
     324:	e1bfff17 	ldw	r6,-4(fp)
     328:	00012ac0 	call	12ac <printf>
}
     32c:	e037883a 	mov	sp,fp
     330:	dfc00117 	ldw	ra,4(sp)
     334:	df000017 	ldw	fp,0(sp)
     338:	dec00204 	addi	sp,sp,8
     33c:	f800283a 	ret

00000340 <GetInputString>:
*           returns the string, minus any '\r' characters it 
*           encounters.
*
******************************************************************/
void GetInputString( char* entry, int size, FILE * stream )
{
     340:	defff904 	addi	sp,sp,-28
     344:	dfc00615 	stw	ra,24(sp)
     348:	df000515 	stw	fp,20(sp)
     34c:	df000504 	addi	fp,sp,20
     350:	e13ffd15 	stw	r4,-12(fp)
     354:	e17ffe15 	stw	r5,-8(fp)
     358:	e1bfff15 	stw	r6,-4(fp)
  int i;
  int ch = 0;
     35c:	e03ffc15 	stw	zero,-16(fp)
  
  for(i = 0; (ch != '\n') && (i < size); )
     360:	e03ffb15 	stw	zero,-20(fp)
     364:	00000e06 	br	3a0 <GetInputString+0x60>
  {
    if( (ch = getc(stream)) != '\r')
     368:	e13fff17 	ldw	r4,-4(fp)
     36c:	00011f80 	call	11f8 <getc>
     370:	e0bffc15 	stw	r2,-16(fp)
     374:	e0bffc17 	ldw	r2,-16(fp)
     378:	10800360 	cmpeqi	r2,r2,13
     37c:	1000081e 	bne	r2,zero,3a0 <GetInputString+0x60>
    {
      entry[i] = ch;
     380:	e0bffb17 	ldw	r2,-20(fp)
     384:	e0fffd17 	ldw	r3,-12(fp)
     388:	1885883a 	add	r2,r3,r2
     38c:	e0fffc17 	ldw	r3,-16(fp)
     390:	10c00005 	stb	r3,0(r2)
      i++;
     394:	e0bffb17 	ldw	r2,-20(fp)
     398:	10800044 	addi	r2,r2,1
     39c:	e0bffb15 	stw	r2,-20(fp)
void GetInputString( char* entry, int size, FILE * stream )
{
  int i;
  int ch = 0;
  
  for(i = 0; (ch != '\n') && (i < size); )
     3a0:	e0bffc17 	ldw	r2,-16(fp)
     3a4:	108002a0 	cmpeqi	r2,r2,10
     3a8:	1000031e 	bne	r2,zero,3b8 <GetInputString+0x78>
     3ac:	e0fffb17 	ldw	r3,-20(fp)
     3b0:	e0bffe17 	ldw	r2,-8(fp)
     3b4:	18bfec16 	blt	r3,r2,368 <__alt_data_end+0xf8000368>
    {
      entry[i] = ch;
      i++;
    }
  }
}
     3b8:	e037883a 	mov	sp,fp
     3bc:	dfc00117 	ldw	ra,4(sp)
     3c0:	df000017 	ldw	fp,0(sp)
     3c4:	dec00204 	addi	sp,sp,8
     3c8:	f800283a 	ret

000003cc <MenuEnd>:
 *    and continues until either a 'q' or a character outside of the 
 *    range, enclosed by 'lowLetter' and 'highLetter', is reached.
 */

static int MenuEnd( char lowLetter, char highLetter )
{
     3cc:	defffc04 	addi	sp,sp,-16
     3d0:	dfc00315 	stw	ra,12(sp)
     3d4:	df000215 	stw	fp,8(sp)
     3d8:	df000204 	addi	fp,sp,8
     3dc:	2007883a 	mov	r3,r4
     3e0:	2805883a 	mov	r2,r5
     3e4:	e0fffe05 	stb	r3,-8(fp)
     3e8:	e0bfff05 	stb	r2,-4(fp)
  static char entry[4];
  static char ch;

  printf("     q:  Exit\n");
     3ec:	010000b4 	movhi	r4,2
     3f0:	21263b04 	addi	r4,r4,-26388
     3f4:	00013c00 	call	13c0 <puts>
  printf("----------------------------------\n");
     3f8:	010000b4 	movhi	r4,2
     3fc:	21262504 	addi	r4,r4,-26476
     400:	00013c00 	call	13c0 <puts>
  printf("\nSelect Choice (%c-%c): [Followed by <enter>]",lowLetter,highLetter);
     404:	e0fffe07 	ldb	r3,-8(fp)
     408:	e0bfff07 	ldb	r2,-4(fp)
     40c:	010000b4 	movhi	r4,2
     410:	21263f04 	addi	r4,r4,-26372
     414:	180b883a 	mov	r5,r3
     418:	100d883a 	mov	r6,r2
     41c:	00012ac0 	call	12ac <printf>
  
  GetInputString( entry, sizeof(entry), stdin );
     420:	008000b4 	movhi	r2,2
     424:	10b03704 	addi	r2,r2,-16164
     428:	10800017 	ldw	r2,0(r2)
     42c:	10800117 	ldw	r2,4(r2)
     430:	d1272a04 	addi	r4,gp,-25432
     434:	01400104 	movi	r5,4
     438:	100d883a 	mov	r6,r2
     43c:	00003400 	call	340 <GetInputString>
  if(sscanf(entry, "%c\n", &ch))
     440:	d1272a04 	addi	r4,gp,-25432
     444:	014000b4 	movhi	r5,2
     448:	29664b04 	addi	r5,r5,-26324
     44c:	d1a72b04 	addi	r6,gp,-25428
     450:	000145c0 	call	145c <sscanf>
     454:	10001726 	beq	r2,zero,4b4 <MenuEnd+0xe8>
  {
    if( ch >= 'A' && ch <= 'Z' )
     458:	d0a72b03 	ldbu	r2,-25428(gp)
     45c:	10803fcc 	andi	r2,r2,255
     460:	1080201c 	xori	r2,r2,128
     464:	10bfe004 	addi	r2,r2,-128
     468:	10801050 	cmplti	r2,r2,65
     46c:	1000091e 	bne	r2,zero,494 <MenuEnd+0xc8>
     470:	d0a72b03 	ldbu	r2,-25428(gp)
     474:	10803fcc 	andi	r2,r2,255
     478:	1080201c 	xori	r2,r2,128
     47c:	10bfe004 	addi	r2,r2,-128
     480:	108016c8 	cmpgei	r2,r2,91
     484:	1000031e 	bne	r2,zero,494 <MenuEnd+0xc8>
      ch += 'a' - 'A';
     488:	d0a72b03 	ldbu	r2,-25428(gp)
     48c:	10800804 	addi	r2,r2,32
     490:	d0a72b05 	stb	r2,-25428(gp)
    if( ch == 27 )
     494:	d0a72b03 	ldbu	r2,-25428(gp)
     498:	10803fcc 	andi	r2,r2,255
     49c:	1080201c 	xori	r2,r2,128
     4a0:	10bfe004 	addi	r2,r2,-128
     4a4:	108006d8 	cmpnei	r2,r2,27
     4a8:	1000021e 	bne	r2,zero,4b4 <MenuEnd+0xe8>
      ch = 'q';        
     4ac:	00801c44 	movi	r2,113
     4b0:	d0a72b05 	stb	r2,-25428(gp)
  }
  return ch;
     4b4:	d0a72b03 	ldbu	r2,-25428(gp)
     4b8:	10803fcc 	andi	r2,r2,255
     4bc:	1080201c 	xori	r2,r2,128
     4c0:	10bfe004 	addi	r2,r2,-128
}
     4c4:	e037883a 	mov	sp,fp
     4c8:	dfc00117 	ldw	ra,4(sp)
     4cc:	df000017 	ldw	fp,0(sp)
     4d0:	dec00204 	addi	sp,sp,8
     4d4:	f800283a 	ret

000004d8 <DoJTAGUARTMenu>:
 * Generates the JTAG UART testing menu.
 * 
 ******************************************************************************/

static void DoJTAGUARTMenu( void )
{
     4d8:	defffe04 	addi	sp,sp,-8
     4dc:	dfc00115 	stw	ra,4(sp)
     4e0:	df000015 	stw	fp,0(sp)
     4e4:	d839883a 	mov	fp,sp
  static char ch;  
  
  while (1)
  {
    MenuBegin( "JTAG UART Menu" );
     4e8:	010000b4 	movhi	r4,2
     4ec:	21264c04 	addi	r4,r4,-26320
     4f0:	00002900 	call	290 <MenuBegin>
    MenuItem( 'a', "Send Lots" );
     4f4:	01001844 	movi	r4,97
     4f8:	014000b4 	movhi	r5,2
     4fc:	29665004 	addi	r5,r5,-26304
     500:	00002f80 	call	2f8 <MenuItem>
    MenuItem( 'b', "Receive Chars" );
     504:	01001884 	movi	r4,98
     508:	014000b4 	movhi	r5,2
     50c:	29665304 	addi	r5,r5,-26292
     510:	00002f80 	call	2f8 <MenuItem>
    ch = MenuEnd('a', 'b');
     514:	01001844 	movi	r4,97
     518:	01401884 	movi	r5,98
     51c:	00003cc0 	call	3cc <MenuEnd>
     520:	d0a72b45 	stb	r2,-25427(gp)

    switch (ch)
     524:	d0a72b43 	ldbu	r2,-25427(gp)
     528:	10803fcc 	andi	r2,r2,255
     52c:	1080201c 	xori	r2,r2,128
     530:	10bfe004 	addi	r2,r2,-128
     534:	10c01860 	cmpeqi	r3,r2,97
     538:	1800031e 	bne	r3,zero,548 <DoJTAGUARTMenu+0x70>
     53c:	108018a0 	cmpeqi	r2,r2,98
     540:	1000031e 	bne	r2,zero,550 <DoJTAGUARTMenu+0x78>
     544:	00000406 	br	558 <DoJTAGUARTMenu+0x80>
    {
      MenuCase('a', UARTSendLots);
     548:	0000ec00 	call	ec0 <UARTSendLots>
     54c:	00000206 	br	558 <DoJTAGUARTMenu+0x80>
      MenuCase('b', UARTReceiveChars);
     550:	000102c0 	call	102c <UARTReceiveChars>
     554:	0001883a 	nop
    }
    
    if (ch == 'q')
     558:	d0a72b43 	ldbu	r2,-25427(gp)
     55c:	10803fcc 	andi	r2,r2,255
     560:	1080201c 	xori	r2,r2,128
     564:	10bfe004 	addi	r2,r2,-128
     568:	10801c58 	cmpnei	r2,r2,113
     56c:	1000011e 	bne	r2,zero,574 <DoJTAGUARTMenu+0x9c>
    {
      break;
     570:	00000106 	br	578 <DoJTAGUARTMenu+0xa0>
    }
  }
     574:	003fdc06 	br	4e8 <__alt_data_end+0xf80004e8>
}
     578:	e037883a 	mov	sp,fp
     57c:	dfc00117 	ldw	ra,4(sp)
     580:	df000017 	ldw	fp,0(sp)
     584:	dec00204 	addi	sp,sp,8
     588:	f800283a 	ret

0000058c <DoSevenSegMenu>:
 * Generates the Seven Segment Display menu.
 * 
 ******************************************************************************/

static void DoSevenSegMenu( void )
{
     58c:	defffe04 	addi	sp,sp,-8
     590:	dfc00115 	stw	ra,4(sp)
     594:	df000015 	stw	fp,0(sp)
     598:	d839883a 	mov	fp,sp
  static char ch;

  while(1)
  {
    MenuBegin("Seven Segment Menu");
     59c:	010000b4 	movhi	r4,2
     5a0:	21265704 	addi	r4,r4,-26276
     5a4:	00002900 	call	290 <MenuBegin>
    MenuItem('a', "Count From 0 to FF.");
     5a8:	01001844 	movi	r4,97
     5ac:	014000b4 	movhi	r5,2
     5b0:	29665c04 	addi	r5,r5,-26256
     5b4:	00002f80 	call	2f8 <MenuItem>
    MenuItem('b', "Control Individual Segments.");
     5b8:	01001884 	movi	r4,98
     5bc:	014000b4 	movhi	r5,2
     5c0:	29666104 	addi	r5,r5,-26236
     5c4:	00002f80 	call	2f8 <MenuItem>
    ch = MenuEnd('a', 'b');
     5c8:	01001844 	movi	r4,97
     5cc:	01401884 	movi	r5,98
     5d0:	00003cc0 	call	3cc <MenuEnd>
     5d4:	d0a72b85 	stb	r2,-25426(gp)
  
    switch(ch)
     5d8:	d0a72b83 	ldbu	r2,-25426(gp)
     5dc:	10803fcc 	andi	r2,r2,255
     5e0:	1080201c 	xori	r2,r2,128
     5e4:	10bfe004 	addi	r2,r2,-128
     5e8:	10c01860 	cmpeqi	r3,r2,97
     5ec:	1800031e 	bne	r3,zero,5fc <DoSevenSegMenu+0x70>
     5f0:	108018a0 	cmpeqi	r2,r2,98
     5f4:	1000031e 	bne	r2,zero,604 <DoSevenSegMenu+0x78>
     5f8:	00000406 	br	60c <DoSevenSegMenu+0x80>
    {
      MenuCase('a', SevenSegCount);
     5fc:	0000c2c0 	call	c2c <SevenSegCount>
     600:	00000206 	br	60c <DoSevenSegMenu+0x80>
      MenuCase('b', SevenSegControl);
     604:	0000c880 	call	c88 <SevenSegControl>
     608:	0001883a 	nop
    }
    
    if ( ch == 'q' )
     60c:	d0a72b83 	ldbu	r2,-25426(gp)
     610:	10803fcc 	andi	r2,r2,255
     614:	1080201c 	xori	r2,r2,128
     618:	10bfe004 	addi	r2,r2,-128
     61c:	10801c58 	cmpnei	r2,r2,113
     620:	1000011e 	bne	r2,zero,628 <DoSevenSegMenu+0x9c>
    {
      break;
     624:	00000106 	br	62c <DoSevenSegMenu+0xa0>
    }
  }
     628:	003fdc06 	br	59c <__alt_data_end+0xf800059c>
}
     62c:	e037883a 	mov	sp,fp
     630:	dfc00117 	ldw	ra,4(sp)
     634:	df000017 	ldw	fp,0(sp)
     638:	dec00204 	addi	sp,sp,8
     63c:	f800283a 	ret

00000640 <TopMenu>:
 * Generates the top level menu for this diagnostics program.
 * 
 ******************************************************************************/

static char TopMenu( void )
{
     640:	defffe04 	addi	sp,sp,-8
     644:	dfc00115 	stw	ra,4(sp)
     648:	df000015 	stw	fp,0(sp)
     64c:	d839883a 	mov	fp,sp
  
  /* Output the top-level menu to STDOUT */

  while (1)
  {
    MenuBegin("Main Menu");
     650:	010000b4 	movhi	r4,2
     654:	21266904 	addi	r4,r4,-26204
     658:	00002900 	call	290 <MenuBegin>
#ifdef LED_GREEN_NAME
    MenuItem( 'a', "Test LEDs" );
     65c:	01001844 	movi	r4,97
     660:	014000b4 	movhi	r5,2
     664:	29666c04 	addi	r5,r5,-26192
     668:	00002f80 	call	2f8 <MenuItem>
#endif
#ifdef LCD_DISPLAY_NAME
    MenuItem( 'b', "LCD Display Test");
#endif
#ifdef PUSH_BUTTONS_NAME
    MenuItem( 'c', "Button/Switch Test");
     66c:	010018c4 	movi	r4,99
     670:	014000b4 	movhi	r5,2
     674:	29666f04 	addi	r5,r5,-26180
     678:	00002f80 	call	2f8 <MenuItem>
#endif
#ifdef SEG7_0TO3_NAME
    MenuItem( 'd', "Seven Segment Menu" );
     67c:	01001904 	movi	r4,100
     680:	014000b4 	movhi	r5,2
     684:	29665704 	addi	r5,r5,-26276
     688:	00002f80 	call	2f8 <MenuItem>
#endif
#ifdef JTAG_UART_NAME
    MenuItem( 'e', "JTAG UART Menu" );
     68c:	01001944 	movi	r4,101
     690:	014000b4 	movhi	r5,2
     694:	29664c04 	addi	r5,r5,-26320
     698:	00002f80 	call	2f8 <MenuItem>
#endif  
    ch = MenuEnd('a', 'e');
     69c:	01001844 	movi	r4,97
     6a0:	01401944 	movi	r5,101
     6a4:	00003cc0 	call	3cc <MenuEnd>
     6a8:	d0a72bc5 	stb	r2,-25425(gp)

    printf( "%x:%c\n", ch, ch );
     6ac:	d0a72bc3 	ldbu	r2,-25425(gp)
     6b0:	10c03fcc 	andi	r3,r2,255
     6b4:	18c0201c 	xori	r3,r3,128
     6b8:	18ffe004 	addi	r3,r3,-128
     6bc:	d0a72bc3 	ldbu	r2,-25425(gp)
     6c0:	10803fcc 	andi	r2,r2,255
     6c4:	1080201c 	xori	r2,r2,128
     6c8:	10bfe004 	addi	r2,r2,-128
     6cc:	010000b4 	movhi	r4,2
     6d0:	21267404 	addi	r4,r4,-26160
     6d4:	180b883a 	mov	r5,r3
     6d8:	100d883a 	mov	r6,r2
     6dc:	00012ac0 	call	12ac <printf>
    switch(ch)
     6e0:	d0a72bc3 	ldbu	r2,-25425(gp)
     6e4:	10803fcc 	andi	r2,r2,255
     6e8:	1080201c 	xori	r2,r2,128
     6ec:	10bfe004 	addi	r2,r2,-128
     6f0:	10bfe7c4 	addi	r2,r2,-97
     6f4:	10c00468 	cmpgeui	r3,r2,17
     6f8:	18001f1e 	bne	r3,zero,778 <TopMenu+0x138>
     6fc:	100690ba 	slli	r3,r2,2
     700:	00800034 	movhi	r2,0
     704:	1081c504 	addi	r2,r2,1812
     708:	1885883a 	add	r2,r3,r2
     70c:	10800017 	ldw	r2,0(r2)
     710:	1000683a 	jmp	r2
     714:	00000758 	cmpnei	zero,zero,29
     718:	00000778 	rdprs	zero,zero,29
     71c:	00000760 	cmpeqi	zero,zero,29
     720:	00000768 	cmpgeui	zero,zero,29
     724:	00000770 	cmpltui	zero,zero,29
     728:	00000778 	rdprs	zero,zero,29
     72c:	00000778 	rdprs	zero,zero,29
     730:	00000778 	rdprs	zero,zero,29
     734:	00000778 	rdprs	zero,zero,29
     738:	00000778 	rdprs	zero,zero,29
     73c:	00000778 	rdprs	zero,zero,29
     740:	00000778 	rdprs	zero,zero,29
     744:	00000778 	rdprs	zero,zero,29
     748:	00000778 	rdprs	zero,zero,29
     74c:	00000778 	rdprs	zero,zero,29
     750:	00000778 	rdprs	zero,zero,29
     754:	0000079c 	xori	zero,zero,30
    {
#ifdef LED_GREEN_NAME
      MenuCase('a',TestLEDs);
     758:	00007d80 	call	7d8 <TestLEDs>
     75c:	00001006 	br	7a0 <TopMenu+0x160>
#endif
#ifdef LCD_DISPLAY_NAME
      MenuCase('b',TestLCD);
#endif
#ifdef PUSH_BUTTONS_NAME
      MenuCase('c',TestButtons);
     760:	00009f80 	call	9f8 <TestButtons>
     764:	00000e06 	br	7a0 <TopMenu+0x160>
#endif
#ifdef SEG7_0TO3_NAME
      MenuCase('d',DoSevenSegMenu);
     768:	000058c0 	call	58c <DoSevenSegMenu>
     76c:	00000c06 	br	7a0 <TopMenu+0x160>
#endif
#ifdef JTAG_UART_NAME
      MenuCase('e',DoJTAGUARTMenu);
     770:	00004d80 	call	4d8 <DoJTAGUARTMenu>
     774:	00000a06 	br	7a0 <TopMenu+0x160>
#endif
      case 'q':	break;
      default:	printf("\n -ERROR: %c is an invalid entry.  Please try again\n", ch); break;
     778:	d0a72bc3 	ldbu	r2,-25425(gp)
     77c:	10803fcc 	andi	r2,r2,255
     780:	1080201c 	xori	r2,r2,128
     784:	10bfe004 	addi	r2,r2,-128
     788:	010000b4 	movhi	r4,2
     78c:	21267604 	addi	r4,r4,-26152
     790:	100b883a 	mov	r5,r2
     794:	00012ac0 	call	12ac <printf>
     798:	00000106 	br	7a0 <TopMenu+0x160>
      MenuCase('d',DoSevenSegMenu);
#endif
#ifdef JTAG_UART_NAME
      MenuCase('e',DoJTAGUARTMenu);
#endif
      case 'q':	break;
     79c:	0001883a 	nop
      default:	printf("\n -ERROR: %c is an invalid entry.  Please try again\n", ch); break;
    }
    
    if (ch == 'q' )
     7a0:	d0a72bc3 	ldbu	r2,-25425(gp)
     7a4:	10803fcc 	andi	r2,r2,255
     7a8:	1080201c 	xori	r2,r2,128
     7ac:	10bfe004 	addi	r2,r2,-128
     7b0:	10801c58 	cmpnei	r2,r2,113
     7b4:	1000011e 	bne	r2,zero,7bc <TopMenu+0x17c>
      break;
     7b8:	00000106 	br	7c0 <TopMenu+0x180>
  }
     7bc:	003fa406 	br	650 <__alt_data_end+0xf8000650>
  return( ch );
     7c0:	d0a72bc3 	ldbu	r2,-25425(gp)
}
     7c4:	e037883a 	mov	sp,fp
     7c8:	dfc00117 	ldw	ra,4(sp)
     7cc:	df000017 	ldw	fp,0(sp)
     7d0:	dec00204 	addi	sp,sp,8
     7d4:	f800283a 	ret

000007d8 <TestLEDs>:
 * This function tests LED functionality.
 * It exits when the user types a 'q'.
 */

static void TestLEDs(void)
{
     7d8:	defffd04 	addi	sp,sp,-12
     7dc:	dfc00215 	stw	ra,8(sp)
     7e0:	df000115 	stw	fp,4(sp)
     7e4:	df000104 	addi	fp,sp,4
  volatile alt_u32 led;
  static char ch;
  static char entry[4];
  
  /* Turn the LEDs on. */
  led = 0xfffff;
     7e8:	00800434 	movhi	r2,16
     7ec:	10bfffc4 	addi	r2,r2,-1
     7f0:	e0bfff15 	stw	r2,-4(fp)
  IOWR_ALT_UP_PARALLEL_PORT_DATA(LED_GREEN_BASE, led);
     7f4:	e0bfff17 	ldw	r2,-4(fp)
     7f8:	1007883a 	mov	r3,r2
     7fc:	00820834 	movhi	r2,2080
     800:	10850c04 	addi	r2,r2,5168
     804:	10c00035 	stwio	r3,0(r2)
  IOWR_ALT_UP_PARALLEL_PORT_DATA(LED_RED_BASE, led);
     808:	e0bfff17 	ldw	r2,-4(fp)
     80c:	1007883a 	mov	r3,r2
     810:	00820834 	movhi	r2,2080
     814:	10850004 	addi	r2,r2,5120
     818:	10c00035 	stwio	r3,0(r2)
  printf( "\nAll LEDs should now be on.\n" );
     81c:	010000b4 	movhi	r4,2
     820:	21268404 	addi	r4,r4,-26096
     824:	00013c00 	call	13c0 <puts>
  printf( "\tPlease press 'q' [Followed by <enter>] to exit this test.\n" );
     828:	010000b4 	movhi	r4,2
     82c:	21268b04 	addi	r4,r4,-26068
     830:	00013c00 	call	13c0 <puts>
  
  /* Get the input string for exiting this test. */
  do {
    GetInputString( entry, sizeof(entry), stdin);
     834:	008000b4 	movhi	r2,2
     838:	10b03704 	addi	r2,r2,-16164
     83c:	10800017 	ldw	r2,0(r2)
     840:	10800117 	ldw	r2,4(r2)
     844:	d1272c04 	addi	r4,gp,-25424
     848:	01400104 	movi	r5,4
     84c:	100d883a 	mov	r6,r2
     850:	00003400 	call	340 <GetInputString>
    sscanf( entry, "%c\n", &ch );
     854:	d1272c04 	addi	r4,gp,-25424
     858:	014000b4 	movhi	r5,2
     85c:	29664b04 	addi	r5,r5,-26324
     860:	d1a72d04 	addi	r6,gp,-25420
     864:	000145c0 	call	145c <sscanf>
  } while ( ch != 'q' );
     868:	d0a72d03 	ldbu	r2,-25420(gp)
     86c:	10803fcc 	andi	r2,r2,255
     870:	1080201c 	xori	r2,r2,128
     874:	10bfe004 	addi	r2,r2,-128
     878:	10801c58 	cmpnei	r2,r2,113
     87c:	103fed1e 	bne	r2,zero,834 <__alt_data_end+0xf8000834>
  
  /* Turn the LEDs off and exit. */
  led = 0x0;
     880:	e03fff15 	stw	zero,-4(fp)
  IOWR_ALT_UP_PARALLEL_PORT_DATA(LED_GREEN_BASE, led);
     884:	e0bfff17 	ldw	r2,-4(fp)
     888:	1007883a 	mov	r3,r2
     88c:	00820834 	movhi	r2,2080
     890:	10850c04 	addi	r2,r2,5168
     894:	10c00035 	stwio	r3,0(r2)
  IOWR_ALT_UP_PARALLEL_PORT_DATA(LED_RED_BASE, led);
     898:	e0bfff17 	ldw	r2,-4(fp)
     89c:	1007883a 	mov	r3,r2
     8a0:	00820834 	movhi	r2,2080
     8a4:	10850004 	addi	r2,r2,5120
     8a8:	10c00035 	stwio	r3,0(r2)
  printf(".....Exiting LED Test.\n");
     8ac:	010000b4 	movhi	r4,2
     8b0:	21269a04 	addi	r4,r4,-26008
     8b4:	00013c00 	call	13c0 <puts>
}
     8b8:	e037883a 	mov	sp,fp
     8bc:	dfc00117 	ldw	ra,4(sp)
     8c0:	df000017 	ldw	fp,0(sp)
     8c4:	dec00204 	addi	sp,sp,8
     8c8:	f800283a 	ret

000008cc <handle_button_interrupts>:
#ifdef ALT_ENHANCED_INTERRUPT_API_PRESENT
static void handle_button_interrupts(void* context)
#else
static void handle_button_interrupts(void* context, alt_u32 id)
#endif
{
     8cc:	defffb04 	addi	sp,sp,-20
     8d0:	dfc00415 	stw	ra,16(sp)
     8d4:	df000315 	stw	fp,12(sp)
     8d8:	df000304 	addi	fp,sp,12
     8dc:	e13ffe15 	stw	r4,-8(fp)
     8e0:	e17fff15 	stw	r5,-4(fp)
  /* Cast context to edge_capture's type.
   * It is important to keep this volatile,
   * to avoid compiler optimization issues.
   */
	printf( "button interrupt come\n" );
     8e4:	010000b4 	movhi	r4,2
     8e8:	2126a004 	addi	r4,r4,-25984
     8ec:	00013c00 	call	13c0 <puts>
  volatile int* edge_capture_ptr = (volatile int*) context;
     8f0:	e0bffe17 	ldw	r2,-8(fp)
     8f4:	e0bffd15 	stw	r2,-12(fp)
  /* Store the value in the Button's edge capture register in *context. */
  *edge_capture_ptr = IORD_ALT_UP_PARALLEL_PORT_EDGE_CAPTURE(PUSH_BUTTONS_BASE);
     8f8:	00820834 	movhi	r2,2080
     8fc:	10851704 	addi	r2,r2,5212
     900:	10c00037 	ldwio	r3,0(r2)
     904:	e0bffd17 	ldw	r2,-12(fp)
     908:	10c00015 	stw	r3,0(r2)
  /* Reset the Button's edge capture register. */
  IOWR_ALT_UP_PARALLEL_PORT_EDGE_CAPTURE(PUSH_BUTTONS_BASE, 0);
     90c:	0007883a 	mov	r3,zero
     910:	00820834 	movhi	r2,2080
     914:	10851704 	addi	r2,r2,5212
     918:	10c00035 	stwio	r3,0(r2)
  /* 
   * Read the PIO to delay ISR exit. This is done to prevent a spurious
   * interrupt in systems with high processor -> pio latency and fast
   * interrupts.
   */
  IORD_ALT_UP_PARALLEL_PORT_EDGE_CAPTURE(PUSH_BUTTONS_BASE);
     91c:	00820834 	movhi	r2,2080
     920:	10851704 	addi	r2,r2,5212
     924:	10800037 	ldwio	r2,0(r2)
}
     928:	e037883a 	mov	sp,fp
     92c:	dfc00117 	ldw	ra,4(sp)
     930:	df000017 	ldw	fp,0(sp)
     934:	dec00204 	addi	sp,sp,8
     938:	f800283a 	ret

0000093c <init_button_pio>:

/* Initialize the button_pio. */

static void init_button_pio()
{
     93c:	defffd04 	addi	sp,sp,-12
     940:	dfc00215 	stw	ra,8(sp)
     944:	df000115 	stw	fp,4(sp)
     948:	df000104 	addi	fp,sp,4
  /* Recast the edge_capture pointer to match the alt_irq_register() function
  * prototype. */
  void* edge_capture_ptr = (void*) &edge_capture;
     94c:	d0a73004 	addi	r2,gp,-25408
     950:	e0bfff15 	stw	r2,-4(fp)
  /* Enable all 4 button interrupts. */
  IOWR_ALT_UP_PARALLEL_PORT_INTERRUPT_MASK(PUSH_BUTTONS_BASE, 0xf);
     954:	00c003c4 	movi	r3,15
     958:	00820834 	movhi	r2,2080
     95c:	10851604 	addi	r2,r2,5208
     960:	10c00035 	stwio	r3,0(r2)
  /* Reset the edge capture register. */
  IOWR_ALT_UP_PARALLEL_PORT_EDGE_CAPTURE(PUSH_BUTTONS_BASE, 0x0);
     964:	0007883a 	mov	r3,zero
     968:	00820834 	movhi	r2,2080
     96c:	10851704 	addi	r2,r2,5212
     970:	10c00035 	stwio	r3,0(r2)
   */
#ifdef ALT_ENHANCED_INTERRUPT_API_PRESENT
  alt_ic_isr_register(BUTTON_PIO_IRQ_INTERRUPT_CONTROLLER_ID, PUSH_BUTTONS_IRQ,
    handle_button_interrupts, edge_capture_ptr, 0x0);
#else
  printf( "button initial\n" );
     974:	010000b4 	movhi	r4,2
     978:	2126a604 	addi	r4,r4,-25960
     97c:	00013c00 	call	13c0 <puts>
  alt_irq_register( PUSH_BUTTONS_IRQ, edge_capture_ptr,
     980:	01000044 	movi	r4,1
     984:	e17fff17 	ldw	r5,-4(fp)
     988:	01800034 	movhi	r6,0
     98c:	31823304 	addi	r6,r6,2252
     990:	00172c80 	call	172c8 <alt_irq_register>
    handle_button_interrupts);
#endif
}
     994:	e037883a 	mov	sp,fp
     998:	dfc00117 	ldw	ra,4(sp)
     99c:	df000017 	ldw	fp,0(sp)
     9a0:	dec00204 	addi	sp,sp,8
     9a4:	f800283a 	ret

000009a8 <disable_button_pio>:

/* Tear down the button_pio. */

static void disable_button_pio()
{
     9a8:	defffe04 	addi	sp,sp,-8
     9ac:	dfc00115 	stw	ra,4(sp)
     9b0:	df000015 	stw	fp,0(sp)
     9b4:	d839883a 	mov	fp,sp
  /* Disable interrupts from the button_pio PIO component. */
	IOWR_ALT_UP_PARALLEL_PORT_INTERRUPT_MASK(PUSH_BUTTONS_BASE, 0x0);
     9b8:	0007883a 	mov	r3,zero
     9bc:	00820834 	movhi	r2,2080
     9c0:	10851604 	addi	r2,r2,5208
     9c4:	10c00035 	stwio	r3,0(r2)
  /* Un-register the IRQ handler by passing a null handler. */
#ifdef ALT_ENHANCED_INTERRUPT_API_PRESENT
  alt_ic_isr_register(BUTTON_PIO_IRQ_INTERRUPT_CONTROLLER_ID, PUSH_BUTTONS_IRQ,
    NULL, NULL, NULL);
#else
  printf( "button stop\n" );
     9c8:	010000b4 	movhi	r4,2
     9cc:	2126aa04 	addi	r4,r4,-25944
     9d0:	00013c00 	call	13c0 <puts>
  alt_irq_register( PUSH_BUTTONS_IRQ, NULL, NULL );
     9d4:	01000044 	movi	r4,1
     9d8:	000b883a 	mov	r5,zero
     9dc:	000d883a 	mov	r6,zero
     9e0:	00172c80 	call	172c8 <alt_irq_register>
#endif
}
     9e4:	e037883a 	mov	sp,fp
     9e8:	dfc00117 	ldw	ra,4(sp)
     9ec:	df000017 	ldw	fp,0(sp)
     9f0:	dec00204 	addi	sp,sp,8
     9f4:	f800283a 	ret

000009f8 <TestButtons>:
 * 
 ******************************************************************************/


static void TestButtons( void )
{
     9f8:	defffb04 	addi	sp,sp,-20
     9fc:	dfc00415 	stw	ra,16(sp)
     a00:	df000315 	stw	fp,12(sp)
     a04:	df000304 	addi	fp,sp,12
  /* Variable which holds the last value of edge_capture to avoid 
   * "double counting" button/switch presses
   */
  int last_tested;
  /* Initialize the Buttons/Switches (SW0-SW3) */
  init_button_pio();
     a08:	000093c0 	call	93c <init_button_pio>
  /* Initialize the variables which keep track of which buttons have been tested. */
  buttons_tested = 0x0;
     a0c:	e03ffd05 	stb	zero,-12(fp)
  all_tested = 0xf;
     a10:	008003c4 	movi	r2,15
     a14:	e0bfff05 	stb	r2,-4(fp)

  /* Initialize edge_capture to avoid any "false" triggers from
   * a previous run.
   */
   
  edge_capture = 0;
     a18:	d0273015 	stw	zero,-25408(gp)
  
  /* Set last_tested to a value that edge_capture can never equal
   * to avoid accidental equalities in the while() loop below.
   */
    
  last_tested = 0xffff;
     a1c:	00bfffd4 	movui	r2,65535
     a20:	e0bffe15 	stw	r2,-8(fp)

  /* Print a quick message stating what is happening */
  
  printf("\nA loop will be run until all buttons/switches have been pressed.\n\n");
     a24:	010000b4 	movhi	r4,2
     a28:	2126ad04 	addi	r4,r4,-25932
     a2c:	00013c00 	call	13c0 <puts>
  printf("\n\tNOTE:  Once a button press has been detected, for a particular button,\n\tany further presses will be ignored!\n\n");
     a30:	010000b4 	movhi	r4,2
     a34:	2126be04 	addi	r4,r4,-25864
     a38:	00013c00 	call	13c0 <puts>
  
  /* Loop until all buttons have been pressed.
   * This happens when buttons_tested == all_tested.
   */
  
  while (  buttons_tested != all_tested )
     a3c:	00003f06 	br	b3c <TestButtons+0x144>
  { 
    if (last_tested == edge_capture)
     a40:	d0a73017 	ldw	r2,-25408(gp)
     a44:	e0fffe17 	ldw	r3,-8(fp)
     a48:	1880011e 	bne	r3,r2,a50 <TestButtons+0x58>
    {
      continue;
     a4c:	00003b06 	br	b3c <TestButtons+0x144>
    }
    else
    {
      last_tested = edge_capture;
     a50:	d0a73017 	ldw	r2,-25408(gp)
     a54:	e0bffe15 	stw	r2,-8(fp)
      switch (edge_capture)
     a58:	d0a73017 	ldw	r2,-25408(gp)
     a5c:	10c000a0 	cmpeqi	r3,r2,2
     a60:	1800151e 	bne	r3,zero,ab8 <TestButtons+0xc0>
     a64:	10c000c8 	cmpgei	r3,r2,3
     a68:	1800031e 	bne	r3,zero,a78 <TestButtons+0x80>
     a6c:	10800060 	cmpeqi	r2,r2,1
     a70:	1000061e 	bne	r2,zero,a8c <TestButtons+0x94>
     a74:	00003106 	br	b3c <TestButtons+0x144>
     a78:	10c00120 	cmpeqi	r3,r2,4
     a7c:	1800191e 	bne	r3,zero,ae4 <TestButtons+0xec>
     a80:	10800220 	cmpeqi	r2,r2,8
     a84:	1000221e 	bne	r2,zero,b10 <TestButtons+0x118>
     a88:	00002c06 	br	b3c <TestButtons+0x144>
      {
        case 0x1:
          if (buttons_tested & 0x1)
     a8c:	e0bffd03 	ldbu	r2,-12(fp)
     a90:	1080004c 	andi	r2,r2,1
     a94:	10000126 	beq	r2,zero,a9c <TestButtons+0xa4>
          {
            continue;
     a98:	00002806 	br	b3c <TestButtons+0x144>
          }
          else
          {
            printf("\nButton 1 (SW0) Pressed.\n");
     a9c:	010000b4 	movhi	r4,2
     aa0:	2126da04 	addi	r4,r4,-25752
     aa4:	00013c00 	call	13c0 <puts>
            buttons_tested = buttons_tested | 0x1;
     aa8:	e0bffd03 	ldbu	r2,-12(fp)
     aac:	10800054 	ori	r2,r2,1
     ab0:	e0bffd05 	stb	r2,-12(fp)
          } 
          break;
     ab4:	00002106 	br	b3c <TestButtons+0x144>
        case 0x2:
          if (buttons_tested & 0x2)
     ab8:	e0bffd03 	ldbu	r2,-12(fp)
     abc:	1080008c 	andi	r2,r2,2
     ac0:	10000126 	beq	r2,zero,ac8 <TestButtons+0xd0>
          {
            continue;
     ac4:	00001d06 	br	b3c <TestButtons+0x144>
          } 
          else
          {
            printf("\nButton 2 (SW1) Pressed.\n");
     ac8:	010000b4 	movhi	r4,2
     acc:	2126e104 	addi	r4,r4,-25724
     ad0:	00013c00 	call	13c0 <puts>
            buttons_tested = buttons_tested | 0x2;
     ad4:	e0bffd03 	ldbu	r2,-12(fp)
     ad8:	10800094 	ori	r2,r2,2
     adc:	e0bffd05 	stb	r2,-12(fp)
          }
          break;
     ae0:	00001606 	br	b3c <TestButtons+0x144>
        case 0x4:
          if (buttons_tested & 0x4)
     ae4:	e0bffd03 	ldbu	r2,-12(fp)
     ae8:	1080010c 	andi	r2,r2,4
     aec:	10000126 	beq	r2,zero,af4 <TestButtons+0xfc>
          {
            continue;
     af0:	00001206 	br	b3c <TestButtons+0x144>
          }
          else
          {
            printf("\nButton 3 (SW2) Pressed.\n");
     af4:	010000b4 	movhi	r4,2
     af8:	2126e804 	addi	r4,r4,-25696
     afc:	00013c00 	call	13c0 <puts>
            buttons_tested = buttons_tested | 0x4;
     b00:	e0bffd03 	ldbu	r2,-12(fp)
     b04:	10800114 	ori	r2,r2,4
     b08:	e0bffd05 	stb	r2,-12(fp)
          }
          break;
     b0c:	00000b06 	br	b3c <TestButtons+0x144>
        case 0x8:
          if (buttons_tested & 0x8)
     b10:	e0bffd03 	ldbu	r2,-12(fp)
     b14:	1080020c 	andi	r2,r2,8
     b18:	10000126 	beq	r2,zero,b20 <TestButtons+0x128>
          {
            continue;
     b1c:	00000706 	br	b3c <TestButtons+0x144>
          }
          else
          {
            printf("\nButton 4 (SW3) Pressed.\n");
     b20:	010000b4 	movhi	r4,2
     b24:	2126ef04 	addi	r4,r4,-25668
     b28:	00013c00 	call	13c0 <puts>
            buttons_tested = buttons_tested | 0x8;
     b2c:	e0bffd03 	ldbu	r2,-12(fp)
     b30:	10800214 	ori	r2,r2,8
     b34:	e0bffd05 	stb	r2,-12(fp)
          }
          break;
     b38:	0001883a 	nop
  
  /* Loop until all buttons have been pressed.
   * This happens when buttons_tested == all_tested.
   */
  
  while (  buttons_tested != all_tested )
     b3c:	e0fffd03 	ldbu	r3,-12(fp)
     b40:	e0bfff03 	ldbu	r2,-4(fp)
     b44:	18bfbe1e 	bne	r3,r2,a40 <__alt_data_end+0xf8000a40>
          break;
      }
    }
  }
  /* Disable the button pio. */
  disable_button_pio();
     b48:	00009a80 	call	9a8 <disable_button_pio>

  printf ("\nAll Buttons (SW0-SW3) were pressed, at least, once.\n");
     b4c:	010000b4 	movhi	r4,2
     b50:	2126f604 	addi	r4,r4,-25640
     b54:	00013c00 	call	13c0 <puts>
  usleep(2000000);
     b58:	010007f4 	movhi	r4,31
     b5c:	21212004 	addi	r4,r4,-31616
     b60:	0017a880 	call	17a88 <usleep>
  return;
     b64:	0001883a 	nop
}
     b68:	e037883a 	mov	sp,fp
     b6c:	dfc00117 	ldw	ra,4(sp)
     b70:	df000017 	ldw	fp,0(sp)
     b74:	dec00204 	addi	sp,sp,8
     b78:	f800283a 	ret

00000b7c <sevenseg_set_hex>:
 * the variable 'hex' into what is displayed on
 * the Seven Segment Display.
 *********************************************/
 
static void sevenseg_set_hex(alt_u8 hex)
{
     b7c:	defffd04 	addi	sp,sp,-12
     b80:	df000215 	stw	fp,8(sp)
     b84:	df000204 	addi	fp,sp,8
     b88:	2005883a 	mov	r2,r4
     b8c:	e0bfff05 	stb	r2,-4(fp)
	  static alt_u8 segments[16] = {
	    0xbf, 0x06, 0x5b, 0x4f, 0x66, 0x6d, 0x7d, 0x07, 0x7f, 0x6f, /* 0-9 */
	    0xf7, 0x7c, 0x58, 0x5e, 0x79, 0x71 };                       /* a-f */

  alt_u32 data = segments[hex & 15] | (segments[(hex >> 4) & 15] << 8);
     b90:	e0bfff03 	ldbu	r2,-4(fp)
     b94:	10c003cc 	andi	r3,r2,15
     b98:	008000b4 	movhi	r2,2
     b9c:	10a93004 	addi	r2,r2,-23360
     ba0:	10c5883a 	add	r2,r2,r3
     ba4:	10800003 	ldbu	r2,0(r2)
     ba8:	10c03fcc 	andi	r3,r2,255
     bac:	e0bfff03 	ldbu	r2,-4(fp)
     bb0:	1004d13a 	srli	r2,r2,4
     bb4:	10803fcc 	andi	r2,r2,255
     bb8:	110003cc 	andi	r4,r2,15
     bbc:	008000b4 	movhi	r2,2
     bc0:	10a93004 	addi	r2,r2,-23360
     bc4:	1105883a 	add	r2,r2,r4
     bc8:	10800003 	ldbu	r2,0(r2)
     bcc:	10803fcc 	andi	r2,r2,255
     bd0:	1004923a 	slli	r2,r2,8
     bd4:	1884b03a 	or	r2,r3,r2
     bd8:	e0bffe15 	stw	r2,-8(fp)

  IOWR_ALT_UP_PARALLEL_PORT_DATA(SEG7_0TO3_BASE, data | (data<<16));
     bdc:	e0bffe17 	ldw	r2,-8(fp)
     be0:	1006943a 	slli	r3,r2,16
     be4:	e0bffe17 	ldw	r2,-8(fp)
     be8:	1884b03a 	or	r2,r3,r2
     bec:	1007883a 	mov	r3,r2
     bf0:	00820834 	movhi	r2,2080
     bf4:	10850804 	addi	r2,r2,5152
     bf8:	10c00035 	stwio	r3,0(r2)
  IOWR_ALT_UP_PARALLEL_PORT_DATA(SEG7_4TO7_BASE, data | (data<<16));
     bfc:	e0bffe17 	ldw	r2,-8(fp)
     c00:	1006943a 	slli	r3,r2,16
     c04:	e0bffe17 	ldw	r2,-8(fp)
     c08:	1884b03a 	or	r2,r3,r2
     c0c:	1007883a 	mov	r3,r2
     c10:	00820834 	movhi	r2,2080
     c14:	10850404 	addi	r2,r2,5136
     c18:	10c00035 	stwio	r3,0(r2)
}
     c1c:	e037883a 	mov	sp,fp
     c20:	df000017 	ldw	fp,0(sp)
     c24:	dec00104 	addi	sp,sp,4
     c28:	f800283a 	ret

00000c2c <SevenSegCount>:
 * Displays from 0 to FF on the Seven Segment Display with
 * a 0.25s count delay implemented in a for loop.
 *******************************************/
 
static void SevenSegCount( void )
{
     c2c:	defffd04 	addi	sp,sp,-12
     c30:	dfc00215 	stw	ra,8(sp)
     c34:	df000115 	stw	fp,4(sp)
     c38:	df000104 	addi	fp,sp,4
  alt_u32 count;
  for (count = 0; count <= 0xff; count++)
     c3c:	e03fff15 	stw	zero,-4(fp)
     c40:	00000906 	br	c68 <SevenSegCount+0x3c>
  {
    sevenseg_set_hex( count );
     c44:	e0bfff17 	ldw	r2,-4(fp)
     c48:	10803fcc 	andi	r2,r2,255
     c4c:	1009883a 	mov	r4,r2
     c50:	0000b7c0 	call	b7c <sevenseg_set_hex>
    usleep(50000);
     c54:	0130d414 	movui	r4,50000
     c58:	0017a880 	call	17a88 <usleep>
 *******************************************/
 
static void SevenSegCount( void )
{
  alt_u32 count;
  for (count = 0; count <= 0xff; count++)
     c5c:	e0bfff17 	ldw	r2,-4(fp)
     c60:	10800044 	addi	r2,r2,1
     c64:	e0bfff15 	stw	r2,-4(fp)
     c68:	e0bfff17 	ldw	r2,-4(fp)
     c6c:	10804030 	cmpltui	r2,r2,256
     c70:	103ff41e 	bne	r2,zero,c44 <__alt_data_end+0xf8000c44>
  {
    sevenseg_set_hex( count );
    usleep(50000);
  }
}
     c74:	e037883a 	mov	sp,fp
     c78:	dfc00117 	ldw	ra,4(sp)
     c7c:	df000017 	ldw	fp,0(sp)
     c80:	dec00204 	addi	sp,sp,8
     c84:	f800283a 	ret

00000c88 <SevenSegControl>:
 * Displays selected Seven Segment segments.
 * 
 ******************************************/

static void SevenSegControl(void)
{
     c88:	defffb04 	addi	sp,sp,-20
     c8c:	dfc00415 	stw	ra,16(sp)
     c90:	df000315 	stw	fp,12(sp)
     c94:	df000304 	addi	fp,sp,12
  alt_32 bits;
  alt_32 keyBit;
  static char ch;
  
  /* Turn all segments off at start of test. */
  bits = 0xffff;
     c98:	00bfffd4 	movui	r2,65535
     c9c:	e0bffd15 	stw	r2,-12(fp)
  IOWR_ALT_UP_PARALLEL_PORT_DATA( SEG7_0TO3_BASE, bits );
     ca0:	00820834 	movhi	r2,2080
     ca4:	10850804 	addi	r2,r2,5152
     ca8:	e0fffd17 	ldw	r3,-12(fp)
     cac:	10c00035 	stwio	r3,0(r2)
  printf("\n");
     cb0:	01000284 	movi	r4,10
     cb4:	00012f00 	call	12f0 <putchar>
  printf("\n");
     cb8:	01000284 	movi	r4,10
     cbc:	00012f00 	call	12f0 <putchar>
  printf("         +-A--+     +-a--+\n");
     cc0:	010000b4 	movhi	r4,2
     cc4:	21270404 	addi	r4,r4,-25584
     cc8:	00013c00 	call	13c0 <puts>
  printf("         |    |     |    |\n");
     ccc:	010000b4 	movhi	r4,2
     cd0:	21270b04 	addi	r4,r4,-25556
     cd4:	00013c00 	call	13c0 <puts>
  printf("         F    B     f    b\n");
     cd8:	010000b4 	movhi	r4,2
     cdc:	21271204 	addi	r4,r4,-25528
     ce0:	00013c00 	call	13c0 <puts>
  printf("         |    |     |    |\n");
     ce4:	010000b4 	movhi	r4,2
     ce8:	21270b04 	addi	r4,r4,-25556
     cec:	00013c00 	call	13c0 <puts>
  printf("         +-G--+     +-g--+\n");
     cf0:	010000b4 	movhi	r4,2
     cf4:	21271904 	addi	r4,r4,-25500
     cf8:	00013c00 	call	13c0 <puts>
  printf("         |    |     |    |\n");
     cfc:	010000b4 	movhi	r4,2
     d00:	21270b04 	addi	r4,r4,-25556
     d04:	00013c00 	call	13c0 <puts>
  printf("         E    C     e    c\n");
     d08:	010000b4 	movhi	r4,2
     d0c:	21272004 	addi	r4,r4,-25472
     d10:	00013c00 	call	13c0 <puts>
  printf("         |    |     |    |\n");
     d14:	010000b4 	movhi	r4,2
     d18:	21270b04 	addi	r4,r4,-25556
     d1c:	00013c00 	call	13c0 <puts>
  printf("         +-D--+ (H) +-d--+ (h)\n");
     d20:	010000b4 	movhi	r4,2
     d24:	21272704 	addi	r4,r4,-25444
     d28:	00013c00 	call	13c0 <puts>
  printf("\n");
     d2c:	01000284 	movi	r4,10
     d30:	00012f00 	call	12f0 <putchar>
  printf("Press 'q' [Followed by <enter>] to exit this test.\n");
     d34:	010000b4 	movhi	r4,2
     d38:	21272f04 	addi	r4,r4,-25412
     d3c:	00013c00 	call	13c0 <puts>
  
  do
  {
    /* Get terminal input. */
    GetInputString( entry, sizeof(entry), stdin);
     d40:	008000b4 	movhi	r2,2
     d44:	10b03704 	addi	r2,r2,-16164
     d48:	10800017 	ldw	r2,0(r2)
     d4c:	10800117 	ldw	r2,4(r2)
     d50:	e0ffff04 	addi	r3,fp,-4
     d54:	1809883a 	mov	r4,r3
     d58:	01400104 	movi	r5,4
     d5c:	100d883a 	mov	r6,r2
     d60:	00003400 	call	340 <GetInputString>
    sscanf( entry, "%c\n", &ch );
     d64:	e0bfff04 	addi	r2,fp,-4
     d68:	1009883a 	mov	r4,r2
     d6c:	014000b4 	movhi	r5,2
     d70:	29664b04 	addi	r5,r5,-26324
     d74:	d1a72d44 	addi	r6,gp,-25419
     d78:	000145c0 	call	145c <sscanf>
    /* SSD pattern algorithm. */
    keyBit = 0;
     d7c:	e03ffe15 	stw	zero,-8(fp)
    if(ch >= 'a' && ch <= 'g')
     d80:	d0a72d43 	ldbu	r2,-25419(gp)
     d84:	10803fcc 	andi	r2,r2,255
     d88:	1080201c 	xori	r2,r2,128
     d8c:	10bfe004 	addi	r2,r2,-128
     d90:	10801850 	cmplti	r2,r2,97
     d94:	1000101e 	bne	r2,zero,dd8 <SevenSegControl+0x150>
     d98:	d0a72d43 	ldbu	r2,-25419(gp)
     d9c:	10803fcc 	andi	r2,r2,255
     da0:	1080201c 	xori	r2,r2,128
     da4:	10bfe004 	addi	r2,r2,-128
     da8:	10801a08 	cmpgei	r2,r2,104
     dac:	10000a1e 	bne	r2,zero,dd8 <SevenSegControl+0x150>
      keyBit = 1 << ('g' - ch);
     db0:	d0a72d43 	ldbu	r2,-25419(gp)
     db4:	10803fcc 	andi	r2,r2,255
     db8:	1080201c 	xori	r2,r2,128
     dbc:	10bfe004 	addi	r2,r2,-128
     dc0:	00c019c4 	movi	r3,103
     dc4:	1885c83a 	sub	r2,r3,r2
     dc8:	00c00044 	movi	r3,1
     dcc:	1884983a 	sll	r2,r3,r2
     dd0:	e0bffe15 	stw	r2,-8(fp)
     dd4:	00002706 	br	e74 <SevenSegControl+0x1ec>
    else if(ch == 'h')
     dd8:	d0a72d43 	ldbu	r2,-25419(gp)
     ddc:	10803fcc 	andi	r2,r2,255
     de0:	1080201c 	xori	r2,r2,128
     de4:	10bfe004 	addi	r2,r2,-128
     de8:	10801a18 	cmpnei	r2,r2,104
     dec:	1000031e 	bne	r2,zero,dfc <SevenSegControl+0x174>
      keyBit = 1 << 7;
     df0:	00802004 	movi	r2,128
     df4:	e0bffe15 	stw	r2,-8(fp)
     df8:	00001e06 	br	e74 <SevenSegControl+0x1ec>
    else if(ch >= 'A' && ch <= 'G')
     dfc:	d0a72d43 	ldbu	r2,-25419(gp)
     e00:	10803fcc 	andi	r2,r2,255
     e04:	1080201c 	xori	r2,r2,128
     e08:	10bfe004 	addi	r2,r2,-128
     e0c:	10801050 	cmplti	r2,r2,65
     e10:	1000101e 	bne	r2,zero,e54 <SevenSegControl+0x1cc>
     e14:	d0a72d43 	ldbu	r2,-25419(gp)
     e18:	10803fcc 	andi	r2,r2,255
     e1c:	1080201c 	xori	r2,r2,128
     e20:	10bfe004 	addi	r2,r2,-128
     e24:	10801208 	cmpgei	r2,r2,72
     e28:	10000a1e 	bne	r2,zero,e54 <SevenSegControl+0x1cc>
      keyBit = 1 << ('G' - ch + 8);
     e2c:	d0a72d43 	ldbu	r2,-25419(gp)
     e30:	10803fcc 	andi	r2,r2,255
     e34:	1080201c 	xori	r2,r2,128
     e38:	10bfe004 	addi	r2,r2,-128
     e3c:	00c013c4 	movi	r3,79
     e40:	1885c83a 	sub	r2,r3,r2
     e44:	00c00044 	movi	r3,1
     e48:	1884983a 	sll	r2,r3,r2
     e4c:	e0bffe15 	stw	r2,-8(fp)
     e50:	00000806 	br	e74 <SevenSegControl+0x1ec>
    else if(ch == 'H')
     e54:	d0a72d43 	ldbu	r2,-25419(gp)
     e58:	10803fcc 	andi	r2,r2,255
     e5c:	1080201c 	xori	r2,r2,128
     e60:	10bfe004 	addi	r2,r2,-128
     e64:	10801218 	cmpnei	r2,r2,72
     e68:	1000021e 	bne	r2,zero,e74 <SevenSegControl+0x1ec>
      keyBit = 1 << 15;
     e6c:	00a00014 	movui	r2,32768
     e70:	e0bffe15 	stw	r2,-8(fp)
    bits ^= keyBit;
     e74:	e0fffd17 	ldw	r3,-12(fp)
     e78:	e0bffe17 	ldw	r2,-8(fp)
     e7c:	1884f03a 	xor	r2,r3,r2
     e80:	e0bffd15 	stw	r2,-12(fp)
    IOWR_ALT_UP_PARALLEL_PORT_DATA( SEG7_0TO3_BASE, bits );
     e84:	00820834 	movhi	r2,2080
     e88:	10850804 	addi	r2,r2,5152
     e8c:	e0fffd17 	ldw	r3,-12(fp)
     e90:	10c00035 	stwio	r3,0(r2)
  }
  while( ch != 'q' );
     e94:	d0a72d43 	ldbu	r2,-25419(gp)
     e98:	10803fcc 	andi	r2,r2,255
     e9c:	1080201c 	xori	r2,r2,128
     ea0:	10bfe004 	addi	r2,r2,-128
     ea4:	10801c58 	cmpnei	r2,r2,113
     ea8:	103fa51e 	bne	r2,zero,d40 <__alt_data_end+0xf8000d40>
}
     eac:	e037883a 	mov	sp,fp
     eb0:	dfc00117 	ldw	ra,4(sp)
     eb4:	df000017 	ldw	fp,0(sp)
     eb8:	dec00204 	addi	sp,sp,8
     ebc:	f800283a 	ret

00000ec0 <UARTSendLots>:
 * characters per line.
 * 
 ****************************************************/

static void UARTSendLots( void )
{
     ec0:	defffa04 	addi	sp,sp,-24
     ec4:	dfc00515 	stw	ra,20(sp)
     ec8:	df000415 	stw	fp,16(sp)
     ecc:	df000404 	addi	fp,sp,16
  char entry[4];
  static char ch;
  int i,j;
  int mix = 0;
     ed0:	e03ffe15 	stw	zero,-8(fp)

  printf("\n\nPress character (and <enter>), or <space> (and <enter>) for mix: ");
     ed4:	010000b4 	movhi	r4,2
     ed8:	21273c04 	addi	r4,r4,-25360
     edc:	00012ac0 	call	12ac <printf>
  GetInputString( entry, sizeof(entry), stdin);
     ee0:	008000b4 	movhi	r2,2
     ee4:	10b03704 	addi	r2,r2,-16164
     ee8:	10800017 	ldw	r2,0(r2)
     eec:	10800117 	ldw	r2,4(r2)
     ef0:	e0ffff04 	addi	r3,fp,-4
     ef4:	1809883a 	mov	r4,r3
     ef8:	01400104 	movi	r5,4
     efc:	100d883a 	mov	r6,r2
     f00:	00003400 	call	340 <GetInputString>
  sscanf( entry, "%c\n", &ch );
     f04:	e0bfff04 	addi	r2,fp,-4
     f08:	1009883a 	mov	r4,r2
     f0c:	014000b4 	movhi	r5,2
     f10:	29664b04 	addi	r5,r5,-26324
     f14:	d1a72d84 	addi	r6,gp,-25418
     f18:	000145c0 	call	145c <sscanf>
  printf("%c\n\n",ch);
     f1c:	d0a72d83 	ldbu	r2,-25418(gp)
     f20:	10803fcc 	andi	r2,r2,255
     f24:	1080201c 	xori	r2,r2,128
     f28:	10bfe004 	addi	r2,r2,-128
     f2c:	010000b4 	movhi	r4,2
     f30:	21274d04 	addi	r4,r4,-25292
     f34:	100b883a 	mov	r5,r2
     f38:	00012ac0 	call	12ac <printf>
  
  /* Don't print unprintables! */
  if(ch < 32)
     f3c:	d0a72d83 	ldbu	r2,-25418(gp)
     f40:	10803fcc 	andi	r2,r2,255
     f44:	1080201c 	xori	r2,r2,128
     f48:	10bfe004 	addi	r2,r2,-128
     f4c:	10800808 	cmpgei	r2,r2,32
     f50:	1000021e 	bne	r2,zero,f5c <UARTSendLots+0x9c>
    ch = '.';
     f54:	00800b84 	movi	r2,46
     f58:	d0a72d85 	stb	r2,-25418(gp)
    
  /* Check to see if the character is a space (for "mix" of chars). */
  
  if (ch == ' ')
     f5c:	d0a72d83 	ldbu	r2,-25418(gp)
     f60:	10803fcc 	andi	r2,r2,255
     f64:	1080201c 	xori	r2,r2,128
     f68:	10bfe004 	addi	r2,r2,-128
     f6c:	10800818 	cmpnei	r2,r2,32
     f70:	1000021e 	bne	r2,zero,f7c <UARTSendLots+0xbc>
  {
    mix = 1;
     f74:	00800044 	movi	r2,1
     f78:	e0bffe15 	stw	r2,-8(fp)
  }
  
  /* The loop that sends the block of text. */
  
  for(i = 0; i < 100; i++)
     f7c:	e03ffc15 	stw	zero,-16(fp)
     f80:	00002006 	br	1004 <UARTSendLots+0x144>
  {
    for(j = 0; j < 80; j++)
     f84:	e03ffd15 	stw	zero,-12(fp)
     f88:	00001606 	br	fe4 <UARTSendLots+0x124>
    {
      if(mix)
     f8c:	e0bffe17 	ldw	r2,-8(fp)
     f90:	10000b26 	beq	r2,zero,fc0 <UARTSendLots+0x100>
      {
        ch++;
     f94:	d0a72d83 	ldbu	r2,-25418(gp)
     f98:	10800044 	addi	r2,r2,1
     f9c:	d0a72d85 	stb	r2,-25418(gp)
        if(ch >= 127)
     fa0:	d0a72d83 	ldbu	r2,-25418(gp)
     fa4:	10803fcc 	andi	r2,r2,255
     fa8:	1080201c 	xori	r2,r2,128
     fac:	10bfe004 	addi	r2,r2,-128
     fb0:	10801fd8 	cmpnei	r2,r2,127
     fb4:	1000021e 	bne	r2,zero,fc0 <UARTSendLots+0x100>
          ch = 33;
     fb8:	00800844 	movi	r2,33
     fbc:	d0a72d85 	stb	r2,-25418(gp)
      }
      printf("%c", ch);
     fc0:	d0a72d83 	ldbu	r2,-25418(gp)
     fc4:	10803fcc 	andi	r2,r2,255
     fc8:	1080201c 	xori	r2,r2,128
     fcc:	10bfe004 	addi	r2,r2,-128
     fd0:	1009883a 	mov	r4,r2
     fd4:	00012f00 	call	12f0 <putchar>
  
  /* The loop that sends the block of text. */
  
  for(i = 0; i < 100; i++)
  {
    for(j = 0; j < 80; j++)
     fd8:	e0bffd17 	ldw	r2,-12(fp)
     fdc:	10800044 	addi	r2,r2,1
     fe0:	e0bffd15 	stw	r2,-12(fp)
     fe4:	e0bffd17 	ldw	r2,-12(fp)
     fe8:	10801410 	cmplti	r2,r2,80
     fec:	103fe71e 	bne	r2,zero,f8c <__alt_data_end+0xf8000f8c>
        if(ch >= 127)
          ch = 33;
      }
      printf("%c", ch);
    }
    printf("\n");
     ff0:	01000284 	movi	r4,10
     ff4:	00012f00 	call	12f0 <putchar>
    mix = 1;
  }
  
  /* The loop that sends the block of text. */
  
  for(i = 0; i < 100; i++)
     ff8:	e0bffc17 	ldw	r2,-16(fp)
     ffc:	10800044 	addi	r2,r2,1
    1000:	e0bffc15 	stw	r2,-16(fp)
    1004:	e0bffc17 	ldw	r2,-16(fp)
    1008:	10801910 	cmplti	r2,r2,100
    100c:	103fdd1e 	bne	r2,zero,f84 <__alt_data_end+0xf8000f84>
      }
      printf("%c", ch);
    }
    printf("\n");
  }
  printf("\n");
    1010:	01000284 	movi	r4,10
    1014:	00012f00 	call	12f0 <putchar>
}
    1018:	e037883a 	mov	sp,fp
    101c:	dfc00117 	ldw	ra,4(sp)
    1020:	df000017 	ldw	fp,0(sp)
    1024:	dec00204 	addi	sp,sp,8
    1028:	f800283a 	ret

0000102c <UARTReceiveChars>:
 * Entering 'q' will end the session.
 *
 ************************************************/

static void UARTReceiveChars(void)
{
    102c:	defffe04 	addi	sp,sp,-8
    1030:	dfc00115 	stw	ra,4(sp)
    1034:	df000015 	stw	fp,0(sp)
    1038:	d839883a 	mov	fp,sp
  static char entry[4];
  static char ch;
  static char chP;

  printf("\n\nEnter a character (followed by <enter>); \n\tPress 'q' (followed by <enter>) to exit this test.\n\n");
    103c:	010000b4 	movhi	r4,2
    1040:	21274f04 	addi	r4,r4,-25284
    1044:	00013c00 	call	13c0 <puts>
  
  do
  {
    GetInputString( entry, sizeof(entry), stdin );
    1048:	008000b4 	movhi	r2,2
    104c:	10b03704 	addi	r2,r2,-16164
    1050:	10800017 	ldw	r2,0(r2)
    1054:	10800117 	ldw	r2,4(r2)
    1058:	d1272dc4 	addi	r4,gp,-25417
    105c:	01400104 	movi	r5,4
    1060:	100d883a 	mov	r6,r2
    1064:	00003400 	call	340 <GetInputString>
    sscanf( entry, "%c\n", &ch );
    1068:	d1272dc4 	addi	r4,gp,-25417
    106c:	014000b4 	movhi	r5,2
    1070:	29664b04 	addi	r5,r5,-26324
    1074:	d1a72ec4 	addi	r6,gp,-25413
    1078:	000145c0 	call	145c <sscanf>
    chP = ch >= 32 ? ch : '.';
    107c:	d0a72ec3 	ldbu	r2,-25413(gp)
    1080:	10803fcc 	andi	r2,r2,255
    1084:	1080201c 	xori	r2,r2,128
    1088:	10bfe004 	addi	r2,r2,-128
    108c:	10800810 	cmplti	r2,r2,32
    1090:	1000021e 	bne	r2,zero,109c <UARTReceiveChars+0x70>
    1094:	d0a72ec3 	ldbu	r2,-25413(gp)
    1098:	00000106 	br	10a0 <UARTReceiveChars+0x74>
    109c:	00800b84 	movi	r2,46
    10a0:	d0a72f05 	stb	r2,-25412(gp)
    printf("\'%c\' 0x%02x %d\n",chP,ch,ch);
    10a4:	d0a72f03 	ldbu	r2,-25412(gp)
    10a8:	11403fcc 	andi	r5,r2,255
    10ac:	2940201c 	xori	r5,r5,128
    10b0:	297fe004 	addi	r5,r5,-128
    10b4:	d0a72ec3 	ldbu	r2,-25413(gp)
    10b8:	10c03fcc 	andi	r3,r2,255
    10bc:	18c0201c 	xori	r3,r3,128
    10c0:	18ffe004 	addi	r3,r3,-128
    10c4:	d0a72ec3 	ldbu	r2,-25413(gp)
    10c8:	10803fcc 	andi	r2,r2,255
    10cc:	1080201c 	xori	r2,r2,128
    10d0:	10bfe004 	addi	r2,r2,-128
    10d4:	010000b4 	movhi	r4,2
    10d8:	21276804 	addi	r4,r4,-25184
    10dc:	180d883a 	mov	r6,r3
    10e0:	100f883a 	mov	r7,r2
    10e4:	00012ac0 	call	12ac <printf>
  }
  while( ch != 'q' );
    10e8:	d0a72ec3 	ldbu	r2,-25413(gp)
    10ec:	10803fcc 	andi	r2,r2,255
    10f0:	1080201c 	xori	r2,r2,128
    10f4:	10bfe004 	addi	r2,r2,-128
    10f8:	10801c58 	cmpnei	r2,r2,113
    10fc:	103fd21e 	bne	r2,zero,1048 <__alt_data_end+0xf8001048>
}
    1100:	e037883a 	mov	sp,fp
    1104:	dfc00117 	ldw	ra,4(sp)
    1108:	df000017 	ldw	fp,0(sp)
    110c:	dec00204 	addi	sp,sp,8
    1110:	f800283a 	ret

00001114 <main>:

#endif

int main()
{
    1114:	defffd04 	addi	sp,sp,-12
    1118:	dfc00215 	stw	ra,8(sp)
    111c:	df000115 	stw	fp,4(sp)
    1120:	df000104 	addi	fp,sp,4
  /* Declare variable for received character. */
  int ch;

  while (1)
  {
    ch = TopMenu();
    1124:	00006400 	call	640 <TopMenu>
    1128:	10803fcc 	andi	r2,r2,255
    112c:	1080201c 	xori	r2,r2,128
    1130:	10bfe004 	addi	r2,r2,-128
    1134:	e0bfff15 	stw	r2,-4(fp)
    if (ch == 'q')
    1138:	e0bfff17 	ldw	r2,-4(fp)
    113c:	10801c58 	cmpnei	r2,r2,113
    1140:	1000061e 	bne	r2,zero,115c <main+0x48>
    {
      printf( "\nExiting from Board Diagnostics.\n");
    1144:	010000b4 	movhi	r4,2
    1148:	21276c04 	addi	r4,r4,-25168
    114c:	00013c00 	call	13c0 <puts>
      /* Send EOT to nios2-terminal on the other side of the link. */
      printf( "%c", EOT );
    1150:	01000104 	movi	r4,4
    1154:	00012f00 	call	12f0 <putchar>
      break;
    1158:	00000106 	br	1160 <main+0x4c>
    }
  }
    115c:	003ff106 	br	1124 <__alt_data_end+0xf8001124>
//	  int swVal = IORD_ALT_UP_PARALLEL_PORT_DATA( SLIDER_SWITCH_BASE );
//	  printf( "switch value is %x\n", swVal );
//
//  }

  return( 0 );
    1160:	0005883a 	mov	r2,zero
}
    1164:	e037883a 	mov	sp,fp
    1168:	dfc00117 	ldw	ra,4(sp)
    116c:	df000017 	ldw	fp,0(sp)
    1170:	dec00204 	addi	sp,sp,8
    1174:	f800283a 	ret

00001178 <_getc_r>:
    1178:	defffd04 	addi	sp,sp,-12
    117c:	dc400115 	stw	r17,4(sp)
    1180:	dc000015 	stw	r16,0(sp)
    1184:	dfc00215 	stw	ra,8(sp)
    1188:	2023883a 	mov	r17,r4
    118c:	2821883a 	mov	r16,r5
    1190:	20000226 	beq	r4,zero,119c <_getc_r+0x24>
    1194:	20800e17 	ldw	r2,56(r4)
    1198:	10001026 	beq	r2,zero,11dc <_getc_r+0x64>
    119c:	0006f6c0 	call	6f6c <__sfp_lock_acquire>
    11a0:	80800117 	ldw	r2,4(r16)
    11a4:	10bfffc4 	addi	r2,r2,-1
    11a8:	80800115 	stw	r2,4(r16)
    11ac:	10000d16 	blt	r2,zero,11e4 <_getc_r+0x6c>
    11b0:	80800017 	ldw	r2,0(r16)
    11b4:	10c00044 	addi	r3,r2,1
    11b8:	80c00015 	stw	r3,0(r16)
    11bc:	14000003 	ldbu	r16,0(r2)
    11c0:	0006f700 	call	6f70 <__sfp_lock_release>
    11c4:	8005883a 	mov	r2,r16
    11c8:	dfc00217 	ldw	ra,8(sp)
    11cc:	dc400117 	ldw	r17,4(sp)
    11d0:	dc000017 	ldw	r16,0(sp)
    11d4:	dec00304 	addi	sp,sp,12
    11d8:	f800283a 	ret
    11dc:	0006f5c0 	call	6f5c <__sinit>
    11e0:	003fee06 	br	119c <__alt_data_end+0xf800119c>
    11e4:	800b883a 	mov	r5,r16
    11e8:	8809883a 	mov	r4,r17
    11ec:	00013d40 	call	13d4 <__srget_r>
    11f0:	1021883a 	mov	r16,r2
    11f4:	003ff206 	br	11c0 <__alt_data_end+0xf80011c0>

000011f8 <getc>:
    11f8:	defffd04 	addi	sp,sp,-12
    11fc:	dc400115 	stw	r17,4(sp)
    1200:	044000b4 	movhi	r17,2
    1204:	8c703704 	addi	r17,r17,-16164
    1208:	dc000015 	stw	r16,0(sp)
    120c:	2021883a 	mov	r16,r4
    1210:	89000017 	ldw	r4,0(r17)
    1214:	dfc00215 	stw	ra,8(sp)
    1218:	20000226 	beq	r4,zero,1224 <getc+0x2c>
    121c:	20800e17 	ldw	r2,56(r4)
    1220:	10001026 	beq	r2,zero,1264 <getc+0x6c>
    1224:	0006f6c0 	call	6f6c <__sfp_lock_acquire>
    1228:	80800117 	ldw	r2,4(r16)
    122c:	10bfffc4 	addi	r2,r2,-1
    1230:	80800115 	stw	r2,4(r16)
    1234:	10000d16 	blt	r2,zero,126c <getc+0x74>
    1238:	80800017 	ldw	r2,0(r16)
    123c:	10c00044 	addi	r3,r2,1
    1240:	80c00015 	stw	r3,0(r16)
    1244:	14000003 	ldbu	r16,0(r2)
    1248:	0006f700 	call	6f70 <__sfp_lock_release>
    124c:	8005883a 	mov	r2,r16
    1250:	dfc00217 	ldw	ra,8(sp)
    1254:	dc400117 	ldw	r17,4(sp)
    1258:	dc000017 	ldw	r16,0(sp)
    125c:	dec00304 	addi	sp,sp,12
    1260:	f800283a 	ret
    1264:	0006f5c0 	call	6f5c <__sinit>
    1268:	003fee06 	br	1224 <__alt_data_end+0xf8001224>
    126c:	89000017 	ldw	r4,0(r17)
    1270:	800b883a 	mov	r5,r16
    1274:	00013d40 	call	13d4 <__srget_r>
    1278:	1021883a 	mov	r16,r2
    127c:	003ff206 	br	1248 <__alt_data_end+0xf8001248>

00001280 <_printf_r>:
    1280:	defffd04 	addi	sp,sp,-12
    1284:	dfc00015 	stw	ra,0(sp)
    1288:	d9800115 	stw	r6,4(sp)
    128c:	d9c00215 	stw	r7,8(sp)
    1290:	280d883a 	mov	r6,r5
    1294:	21400217 	ldw	r5,8(r4)
    1298:	d9c00104 	addi	r7,sp,4
    129c:	0002e8c0 	call	2e8c <___vfprintf_internal_r>
    12a0:	dfc00017 	ldw	ra,0(sp)
    12a4:	dec00304 	addi	sp,sp,12
    12a8:	f800283a 	ret

000012ac <printf>:
    12ac:	defffc04 	addi	sp,sp,-16
    12b0:	dfc00015 	stw	ra,0(sp)
    12b4:	d9400115 	stw	r5,4(sp)
    12b8:	d9800215 	stw	r6,8(sp)
    12bc:	d9c00315 	stw	r7,12(sp)
    12c0:	008000b4 	movhi	r2,2
    12c4:	10b03704 	addi	r2,r2,-16164
    12c8:	10800017 	ldw	r2,0(r2)
    12cc:	200b883a 	mov	r5,r4
    12d0:	d9800104 	addi	r6,sp,4
    12d4:	11000217 	ldw	r4,8(r2)
    12d8:	0004e880 	call	4e88 <__vfprintf_internal>
    12dc:	dfc00017 	ldw	ra,0(sp)
    12e0:	dec00404 	addi	sp,sp,16
    12e4:	f800283a 	ret

000012e8 <_putchar_r>:
    12e8:	21800217 	ldw	r6,8(r4)
    12ec:	0009b081 	jmpi	9b08 <_putc_r>

000012f0 <putchar>:
    12f0:	008000b4 	movhi	r2,2
    12f4:	10b03704 	addi	r2,r2,-16164
    12f8:	200b883a 	mov	r5,r4
    12fc:	11000017 	ldw	r4,0(r2)
    1300:	21800217 	ldw	r6,8(r4)
    1304:	0009b081 	jmpi	9b08 <_putc_r>

00001308 <_puts_r>:
    1308:	defff604 	addi	sp,sp,-40
    130c:	dc000715 	stw	r16,28(sp)
    1310:	2021883a 	mov	r16,r4
    1314:	2809883a 	mov	r4,r5
    1318:	dc400815 	stw	r17,32(sp)
    131c:	dfc00915 	stw	ra,36(sp)
    1320:	2823883a 	mov	r17,r5
    1324:	000168c0 	call	168c <strlen>
    1328:	00c000b4 	movhi	r3,2
    132c:	18f03704 	addi	r3,r3,-16164
    1330:	18c00017 	ldw	r3,0(r3)
    1334:	11000044 	addi	r4,r2,1
    1338:	d8800115 	stw	r2,4(sp)
    133c:	18c00217 	ldw	r3,8(r3)
    1340:	014000b4 	movhi	r5,2
    1344:	29677604 	addi	r5,r5,-25128
    1348:	1880030b 	ldhu	r2,12(r3)
    134c:	d9400215 	stw	r5,8(sp)
    1350:	d9000615 	stw	r4,24(sp)
    1354:	01400044 	movi	r5,1
    1358:	01000084 	movi	r4,2
    135c:	d9000515 	stw	r4,20(sp)
    1360:	dc400015 	stw	r17,0(sp)
    1364:	d9400315 	stw	r5,12(sp)
    1368:	dec00415 	stw	sp,16(sp)
    136c:	1108000c 	andi	r4,r2,8192
    1370:	2000061e 	bne	r4,zero,138c <_puts_r+0x84>
    1374:	19401917 	ldw	r5,100(r3)
    1378:	0137ffc4 	movi	r4,-8193
    137c:	10880014 	ori	r2,r2,8192
    1380:	2908703a 	and	r4,r5,r4
    1384:	1880030d 	sth	r2,12(r3)
    1388:	19001915 	stw	r4,100(r3)
    138c:	81400217 	ldw	r5,8(r16)
    1390:	8009883a 	mov	r4,r16
    1394:	d9800404 	addi	r6,sp,16
    1398:	00073c00 	call	73c0 <__sfvwrite_r>
    139c:	1000061e 	bne	r2,zero,13b8 <_puts_r+0xb0>
    13a0:	00800284 	movi	r2,10
    13a4:	dfc00917 	ldw	ra,36(sp)
    13a8:	dc400817 	ldw	r17,32(sp)
    13ac:	dc000717 	ldw	r16,28(sp)
    13b0:	dec00a04 	addi	sp,sp,40
    13b4:	f800283a 	ret
    13b8:	00bfffc4 	movi	r2,-1
    13bc:	003ff906 	br	13a4 <__alt_data_end+0xf80013a4>

000013c0 <puts>:
    13c0:	008000b4 	movhi	r2,2
    13c4:	10b03704 	addi	r2,r2,-16164
    13c8:	200b883a 	mov	r5,r4
    13cc:	11000017 	ldw	r4,0(r2)
    13d0:	00013081 	jmpi	1308 <_puts_r>

000013d4 <__srget_r>:
    13d4:	defffd04 	addi	sp,sp,-12
    13d8:	dc400115 	stw	r17,4(sp)
    13dc:	dc000015 	stw	r16,0(sp)
    13e0:	dfc00215 	stw	ra,8(sp)
    13e4:	2023883a 	mov	r17,r4
    13e8:	2821883a 	mov	r16,r5
    13ec:	20000226 	beq	r4,zero,13f8 <__srget_r+0x24>
    13f0:	20800e17 	ldw	r2,56(r4)
    13f4:	10001026 	beq	r2,zero,1438 <__srget_r+0x64>
    13f8:	8809883a 	mov	r4,r17
    13fc:	800b883a 	mov	r5,r16
    1400:	000a2880 	call	a288 <__srefill_r>
    1404:	10000e1e 	bne	r2,zero,1440 <__srget_r+0x6c>
    1408:	80c00017 	ldw	r3,0(r16)
    140c:	80800117 	ldw	r2,4(r16)
    1410:	19000044 	addi	r4,r3,1
    1414:	10bfffc4 	addi	r2,r2,-1
    1418:	80800115 	stw	r2,4(r16)
    141c:	81000015 	stw	r4,0(r16)
    1420:	18800003 	ldbu	r2,0(r3)
    1424:	dfc00217 	ldw	ra,8(sp)
    1428:	dc400117 	ldw	r17,4(sp)
    142c:	dc000017 	ldw	r16,0(sp)
    1430:	dec00304 	addi	sp,sp,12
    1434:	f800283a 	ret
    1438:	0006f5c0 	call	6f5c <__sinit>
    143c:	003fee06 	br	13f8 <__alt_data_end+0xf80013f8>
    1440:	00bfffc4 	movi	r2,-1
    1444:	003ff706 	br	1424 <__alt_data_end+0xf8001424>

00001448 <__srget>:
    1448:	008000b4 	movhi	r2,2
    144c:	10b03704 	addi	r2,r2,-16164
    1450:	200b883a 	mov	r5,r4
    1454:	11000017 	ldw	r4,0(r2)
    1458:	00013d41 	jmpi	13d4 <__srget_r>

0000145c <sscanf>:
    145c:	deffe204 	addi	sp,sp,-120
    1460:	dfc01b15 	stw	ra,108(sp)
    1464:	dc001a15 	stw	r16,104(sp)
    1468:	d9801c15 	stw	r6,112(sp)
    146c:	d9c01d15 	stw	r7,116(sp)
    1470:	00c08104 	movi	r3,516
    1474:	2821883a 	mov	r16,r5
    1478:	d8c0030d 	sth	r3,12(sp)
    147c:	d9000015 	stw	r4,0(sp)
    1480:	d9000415 	stw	r4,16(sp)
    1484:	000168c0 	call	168c <strlen>
    1488:	00c000b4 	movhi	r3,2
    148c:	18f03704 	addi	r3,r3,-16164
    1490:	d8800115 	stw	r2,4(sp)
    1494:	d8800515 	stw	r2,20(sp)
    1498:	19000017 	ldw	r4,0(r3)
    149c:	00800034 	movhi	r2,0
    14a0:	10856904 	addi	r2,r2,5540
    14a4:	d8800815 	stw	r2,32(sp)
    14a8:	d80b883a 	mov	r5,sp
    14ac:	800d883a 	mov	r6,r16
    14b0:	d9c01c04 	addi	r7,sp,112
    14b4:	00bfffc4 	movi	r2,-1
    14b8:	d8000c15 	stw	zero,48(sp)
    14bc:	d8001115 	stw	zero,68(sp)
    14c0:	d880038d 	sth	r2,14(sp)
    14c4:	00017240 	call	1724 <__ssvfscanf_r>
    14c8:	dfc01b17 	ldw	ra,108(sp)
    14cc:	dc001a17 	ldw	r16,104(sp)
    14d0:	dec01e04 	addi	sp,sp,120
    14d4:	f800283a 	ret

000014d8 <_sscanf_r>:
    14d8:	deffe204 	addi	sp,sp,-120
    14dc:	dc001b15 	stw	r16,108(sp)
    14e0:	2021883a 	mov	r16,r4
    14e4:	dfc01c15 	stw	ra,112(sp)
    14e8:	d9c01d15 	stw	r7,116(sp)
    14ec:	00808104 	movi	r2,516
    14f0:	2809883a 	mov	r4,r5
    14f4:	d9400015 	stw	r5,0(sp)
    14f8:	d9400415 	stw	r5,16(sp)
    14fc:	d9801a15 	stw	r6,104(sp)
    1500:	d880030d 	sth	r2,12(sp)
    1504:	000168c0 	call	168c <strlen>
    1508:	d8800115 	stw	r2,4(sp)
    150c:	d8800515 	stw	r2,20(sp)
    1510:	d9801a17 	ldw	r6,104(sp)
    1514:	00800034 	movhi	r2,0
    1518:	10856904 	addi	r2,r2,5540
    151c:	d8800815 	stw	r2,32(sp)
    1520:	8009883a 	mov	r4,r16
    1524:	d80b883a 	mov	r5,sp
    1528:	d9c01d04 	addi	r7,sp,116
    152c:	00bfffc4 	movi	r2,-1
    1530:	d8000c15 	stw	zero,48(sp)
    1534:	d8001115 	stw	zero,68(sp)
    1538:	d880038d 	sth	r2,14(sp)
    153c:	00017240 	call	1724 <__ssvfscanf_r>
    1540:	dfc01c17 	ldw	ra,112(sp)
    1544:	dc001b17 	ldw	r16,108(sp)
    1548:	dec01e04 	addi	sp,sp,120
    154c:	f800283a 	ret

00001550 <__sread>:
    1550:	defffe04 	addi	sp,sp,-8
    1554:	dc000015 	stw	r16,0(sp)
    1558:	2821883a 	mov	r16,r5
    155c:	2940038f 	ldh	r5,14(r5)
    1560:	dfc00115 	stw	ra,4(sp)
    1564:	0009c700 	call	9c70 <_read_r>
    1568:	10000716 	blt	r2,zero,1588 <__sread+0x38>
    156c:	80c01417 	ldw	r3,80(r16)
    1570:	1887883a 	add	r3,r3,r2
    1574:	80c01415 	stw	r3,80(r16)
    1578:	dfc00117 	ldw	ra,4(sp)
    157c:	dc000017 	ldw	r16,0(sp)
    1580:	dec00204 	addi	sp,sp,8
    1584:	f800283a 	ret
    1588:	80c0030b 	ldhu	r3,12(r16)
    158c:	18fbffcc 	andi	r3,r3,61439
    1590:	80c0030d 	sth	r3,12(r16)
    1594:	dfc00117 	ldw	ra,4(sp)
    1598:	dc000017 	ldw	r16,0(sp)
    159c:	dec00204 	addi	sp,sp,8
    15a0:	f800283a 	ret

000015a4 <__seofread>:
    15a4:	0005883a 	mov	r2,zero
    15a8:	f800283a 	ret

000015ac <__swrite>:
    15ac:	2880030b 	ldhu	r2,12(r5)
    15b0:	defffb04 	addi	sp,sp,-20
    15b4:	dcc00315 	stw	r19,12(sp)
    15b8:	dc800215 	stw	r18,8(sp)
    15bc:	dc400115 	stw	r17,4(sp)
    15c0:	dc000015 	stw	r16,0(sp)
    15c4:	dfc00415 	stw	ra,16(sp)
    15c8:	10c0400c 	andi	r3,r2,256
    15cc:	2821883a 	mov	r16,r5
    15d0:	2027883a 	mov	r19,r4
    15d4:	3025883a 	mov	r18,r6
    15d8:	3823883a 	mov	r17,r7
    15dc:	18000526 	beq	r3,zero,15f4 <__swrite+0x48>
    15e0:	2940038f 	ldh	r5,14(r5)
    15e4:	000d883a 	mov	r6,zero
    15e8:	01c00084 	movi	r7,2
    15ec:	0007ae40 	call	7ae4 <_lseek_r>
    15f0:	8080030b 	ldhu	r2,12(r16)
    15f4:	8140038f 	ldh	r5,14(r16)
    15f8:	10bbffcc 	andi	r2,r2,61439
    15fc:	9809883a 	mov	r4,r19
    1600:	900d883a 	mov	r6,r18
    1604:	880f883a 	mov	r7,r17
    1608:	8080030d 	sth	r2,12(r16)
    160c:	dfc00417 	ldw	ra,16(sp)
    1610:	dcc00317 	ldw	r19,12(sp)
    1614:	dc800217 	ldw	r18,8(sp)
    1618:	dc400117 	ldw	r17,4(sp)
    161c:	dc000017 	ldw	r16,0(sp)
    1620:	dec00504 	addi	sp,sp,20
    1624:	0004eac1 	jmpi	4eac <_write_r>

00001628 <__sseek>:
    1628:	defffe04 	addi	sp,sp,-8
    162c:	dc000015 	stw	r16,0(sp)
    1630:	2821883a 	mov	r16,r5
    1634:	2940038f 	ldh	r5,14(r5)
    1638:	dfc00115 	stw	ra,4(sp)
    163c:	0007ae40 	call	7ae4 <_lseek_r>
    1640:	00ffffc4 	movi	r3,-1
    1644:	10c00826 	beq	r2,r3,1668 <__sseek+0x40>
    1648:	80c0030b 	ldhu	r3,12(r16)
    164c:	80801415 	stw	r2,80(r16)
    1650:	18c40014 	ori	r3,r3,4096
    1654:	80c0030d 	sth	r3,12(r16)
    1658:	dfc00117 	ldw	ra,4(sp)
    165c:	dc000017 	ldw	r16,0(sp)
    1660:	dec00204 	addi	sp,sp,8
    1664:	f800283a 	ret
    1668:	80c0030b 	ldhu	r3,12(r16)
    166c:	18fbffcc 	andi	r3,r3,61439
    1670:	80c0030d 	sth	r3,12(r16)
    1674:	dfc00117 	ldw	ra,4(sp)
    1678:	dc000017 	ldw	r16,0(sp)
    167c:	dec00204 	addi	sp,sp,8
    1680:	f800283a 	ret

00001684 <__sclose>:
    1684:	2940038f 	ldh	r5,14(r5)
    1688:	00050381 	jmpi	5038 <_close_r>

0000168c <strlen>:
    168c:	208000cc 	andi	r2,r4,3
    1690:	10002026 	beq	r2,zero,1714 <strlen+0x88>
    1694:	20800007 	ldb	r2,0(r4)
    1698:	10002026 	beq	r2,zero,171c <strlen+0x90>
    169c:	2005883a 	mov	r2,r4
    16a0:	00000206 	br	16ac <strlen+0x20>
    16a4:	10c00007 	ldb	r3,0(r2)
    16a8:	18001826 	beq	r3,zero,170c <strlen+0x80>
    16ac:	10800044 	addi	r2,r2,1
    16b0:	10c000cc 	andi	r3,r2,3
    16b4:	183ffb1e 	bne	r3,zero,16a4 <__alt_data_end+0xf80016a4>
    16b8:	10c00017 	ldw	r3,0(r2)
    16bc:	01ffbff4 	movhi	r7,65279
    16c0:	39ffbfc4 	addi	r7,r7,-257
    16c4:	00ca303a 	nor	r5,zero,r3
    16c8:	01a02074 	movhi	r6,32897
    16cc:	19c7883a 	add	r3,r3,r7
    16d0:	31a02004 	addi	r6,r6,-32640
    16d4:	1946703a 	and	r3,r3,r5
    16d8:	1986703a 	and	r3,r3,r6
    16dc:	1800091e 	bne	r3,zero,1704 <strlen+0x78>
    16e0:	10800104 	addi	r2,r2,4
    16e4:	10c00017 	ldw	r3,0(r2)
    16e8:	19cb883a 	add	r5,r3,r7
    16ec:	00c6303a 	nor	r3,zero,r3
    16f0:	28c6703a 	and	r3,r5,r3
    16f4:	1986703a 	and	r3,r3,r6
    16f8:	183ff926 	beq	r3,zero,16e0 <__alt_data_end+0xf80016e0>
    16fc:	00000106 	br	1704 <strlen+0x78>
    1700:	10800044 	addi	r2,r2,1
    1704:	10c00007 	ldb	r3,0(r2)
    1708:	183ffd1e 	bne	r3,zero,1700 <__alt_data_end+0xf8001700>
    170c:	1105c83a 	sub	r2,r2,r4
    1710:	f800283a 	ret
    1714:	2005883a 	mov	r2,r4
    1718:	003fe706 	br	16b8 <__alt_data_end+0xf80016b8>
    171c:	0005883a 	mov	r2,zero
    1720:	f800283a 	ret

00001724 <__ssvfscanf_r>:
    1724:	deff4b04 	addi	sp,sp,-724
    1728:	df00b315 	stw	fp,716(sp)
    172c:	dd80b115 	stw	r22,708(sp)
    1730:	dc40ac15 	stw	r17,688(sp)
    1734:	2839883a 	mov	fp,r5
    1738:	dfc0b415 	stw	ra,720(sp)
    173c:	ddc0b215 	stw	r23,712(sp)
    1740:	dd40b015 	stw	r21,704(sp)
    1744:	dd00af15 	stw	r20,700(sp)
    1748:	dcc0ae15 	stw	r19,696(sp)
    174c:	dc80ad15 	stw	r18,692(sp)
    1750:	dc00ab15 	stw	r16,684(sp)
    1754:	202d883a 	mov	r22,r4
    1758:	3023883a 	mov	r17,r6
    175c:	d9c09c15 	stw	r7,624(sp)
    1760:	0006f6c0 	call	6f6c <__sfp_lock_acquire>
    1764:	e080030b 	ldhu	r2,12(fp)
    1768:	10c8000c 	andi	r3,r2,8192
    176c:	1800061e 	bne	r3,zero,1788 <__ssvfscanf_r+0x64>
    1770:	e1001917 	ldw	r4,100(fp)
    1774:	00f7ffc4 	movi	r3,-8193
    1778:	10880014 	ori	r2,r2,8192
    177c:	20c6703a 	and	r3,r4,r3
    1780:	e080030d 	sth	r2,12(fp)
    1784:	e0c01915 	stw	r3,100(fp)
    1788:	88800007 	ldb	r2,0(r17)
    178c:	0029883a 	mov	r20,zero
    1790:	054000b4 	movhi	r21,2
    1794:	d800a015 	stw	zero,640(sp)
    1798:	d8009e15 	stw	zero,632(sp)
    179c:	d8009f15 	stw	zero,636(sp)
    17a0:	d8809b15 	stw	r2,620(sp)
    17a4:	ad703804 	addi	r21,r21,-16160
    17a8:	a027883a 	mov	r19,r20
    17ac:	e02f883a 	mov	r23,fp
    17b0:	8c800044 	addi	r18,r17,1
    17b4:	10001e26 	beq	r2,zero,1830 <__ssvfscanf_r+0x10c>
    17b8:	a9000017 	ldw	r4,0(r21)
    17bc:	2087883a 	add	r3,r4,r2
    17c0:	18c00043 	ldbu	r3,1(r3)
    17c4:	18c0020c 	andi	r3,r3,8
    17c8:	18001c26 	beq	r3,zero,183c <__ssvfscanf_r+0x118>
    17cc:	b8800117 	ldw	r2,4(r23)
    17d0:	00800e0e 	bge	zero,r2,180c <__ssvfscanf_r+0xe8>
    17d4:	b8c00017 	ldw	r3,0(r23)
    17d8:	a9000017 	ldw	r4,0(r21)
    17dc:	18800003 	ldbu	r2,0(r3)
    17e0:	2085883a 	add	r2,r4,r2
    17e4:	10800043 	ldbu	r2,1(r2)
    17e8:	1080020c 	andi	r2,r2,8
    17ec:	10000b26 	beq	r2,zero,181c <__ssvfscanf_r+0xf8>
    17f0:	b8800117 	ldw	r2,4(r23)
    17f4:	18c00044 	addi	r3,r3,1
    17f8:	b8c00015 	stw	r3,0(r23)
    17fc:	10bfffc4 	addi	r2,r2,-1
    1800:	b8800115 	stw	r2,4(r23)
    1804:	9cc00044 	addi	r19,r19,1
    1808:	00bff216 	blt	zero,r2,17d4 <__alt_data_end+0xf80017d4>
    180c:	b009883a 	mov	r4,r22
    1810:	b80b883a 	mov	r5,r23
    1814:	000ca180 	call	ca18 <__ssrefill_r>
    1818:	103fee26 	beq	r2,zero,17d4 <__alt_data_end+0xf80017d4>
    181c:	9023883a 	mov	r17,r18
    1820:	88800007 	ldb	r2,0(r17)
    1824:	8c800044 	addi	r18,r17,1
    1828:	d8809b15 	stw	r2,620(sp)
    182c:	103fe21e 	bne	r2,zero,17b8 <__alt_data_end+0xf80017b8>
    1830:	0006f700 	call	6f70 <__sfp_lock_release>
    1834:	d8809f17 	ldw	r2,636(sp)
    1838:	00021906 	br	20a0 <__ssvfscanf_r+0x97c>
    183c:	00c00944 	movi	r3,37
    1840:	10c0881e 	bne	r2,r3,1a64 <__ssvfscanf_r+0x340>
    1844:	88c00043 	ldbu	r3,1(r17)
    1848:	0021883a 	mov	r16,zero
    184c:	0023883a 	mov	r17,zero
    1850:	01801e04 	movi	r6,120
    1854:	01c01b04 	movi	r7,108
    1858:	18803fcc 	andi	r2,r3,255
    185c:	91400044 	addi	r5,r18,1
    1860:	3081ef36 	bltu	r6,r2,2020 <__ssvfscanf_r+0x8fc>
    1864:	100490ba 	slli	r2,r2,2
    1868:	02000034 	movhi	r8,0
    186c:	42061f04 	addi	r8,r8,6268
    1870:	1205883a 	add	r2,r2,r8
    1874:	10800017 	ldw	r2,0(r2)
    1878:	1000683a 	jmp	r2
    187c:	00002098 	cmpnei	zero,zero,130
    1880:	00002020 	cmpeqi	zero,zero,128
    1884:	00002020 	cmpeqi	zero,zero,128
    1888:	00002020 	cmpeqi	zero,zero,128
    188c:	00002020 	cmpeqi	zero,zero,128
    1890:	00002020 	cmpeqi	zero,zero,128
    1894:	00002020 	cmpeqi	zero,zero,128
    1898:	00002020 	cmpeqi	zero,zero,128
    189c:	00002020 	cmpeqi	zero,zero,128
    18a0:	00002020 	cmpeqi	zero,zero,128
    18a4:	00002020 	cmpeqi	zero,zero,128
    18a8:	00002020 	cmpeqi	zero,zero,128
    18ac:	00002020 	cmpeqi	zero,zero,128
    18b0:	00002020 	cmpeqi	zero,zero,128
    18b4:	00002020 	cmpeqi	zero,zero,128
    18b8:	00002020 	cmpeqi	zero,zero,128
    18bc:	00002020 	cmpeqi	zero,zero,128
    18c0:	00002020 	cmpeqi	zero,zero,128
    18c4:	00002020 	cmpeqi	zero,zero,128
    18c8:	00002020 	cmpeqi	zero,zero,128
    18cc:	00002020 	cmpeqi	zero,zero,128
    18d0:	00002020 	cmpeqi	zero,zero,128
    18d4:	00002020 	cmpeqi	zero,zero,128
    18d8:	00002020 	cmpeqi	zero,zero,128
    18dc:	00002020 	cmpeqi	zero,zero,128
    18e0:	00002020 	cmpeqi	zero,zero,128
    18e4:	00002020 	cmpeqi	zero,zero,128
    18e8:	00002020 	cmpeqi	zero,zero,128
    18ec:	00002020 	cmpeqi	zero,zero,128
    18f0:	00002020 	cmpeqi	zero,zero,128
    18f4:	00002020 	cmpeqi	zero,zero,128
    18f8:	00002020 	cmpeqi	zero,zero,128
    18fc:	00002020 	cmpeqi	zero,zero,128
    1900:	00002020 	cmpeqi	zero,zero,128
    1904:	00002020 	cmpeqi	zero,zero,128
    1908:	00002020 	cmpeqi	zero,zero,128
    190c:	00002020 	cmpeqi	zero,zero,128
    1910:	00001a60 	cmpeqi	zero,zero,105
    1914:	00002020 	cmpeqi	zero,zero,128
    1918:	00002020 	cmpeqi	zero,zero,128
    191c:	00002020 	cmpeqi	zero,zero,128
    1920:	00002020 	cmpeqi	zero,zero,128
    1924:	00002008 	cmpgei	zero,zero,128
    1928:	00002020 	cmpeqi	zero,zero,128
    192c:	00002020 	cmpeqi	zero,zero,128
    1930:	00002020 	cmpeqi	zero,zero,128
    1934:	00002020 	cmpeqi	zero,zero,128
    1938:	00002020 	cmpeqi	zero,zero,128
    193c:	00002118 	cmpnei	zero,zero,132
    1940:	00002118 	cmpnei	zero,zero,132
    1944:	00002118 	cmpnei	zero,zero,132
    1948:	00002118 	cmpnei	zero,zero,132
    194c:	00002118 	cmpnei	zero,zero,132
    1950:	00002118 	cmpnei	zero,zero,132
    1954:	00002118 	cmpnei	zero,zero,132
    1958:	00002118 	cmpnei	zero,zero,132
    195c:	00002118 	cmpnei	zero,zero,132
    1960:	00002118 	cmpnei	zero,zero,132
    1964:	00002020 	cmpeqi	zero,zero,128
    1968:	00002020 	cmpeqi	zero,zero,128
    196c:	00002020 	cmpeqi	zero,zero,128
    1970:	00002020 	cmpeqi	zero,zero,128
    1974:	00002020 	cmpeqi	zero,zero,128
    1978:	00002020 	cmpeqi	zero,zero,128
    197c:	00002020 	cmpeqi	zero,zero,128
    1980:	00002020 	cmpeqi	zero,zero,128
    1984:	00002020 	cmpeqi	zero,zero,128
    1988:	00002020 	cmpeqi	zero,zero,128
    198c:	000020f0 	cmpltui	zero,zero,131
    1990:	000020e0 	cmpeqi	zero,zero,131
    1994:	00002020 	cmpeqi	zero,zero,128
    1998:	000020e0 	cmpeqi	zero,zero,131
    199c:	00002020 	cmpeqi	zero,zero,128
    19a0:	00002020 	cmpeqi	zero,zero,128
    19a4:	00002020 	cmpeqi	zero,zero,128
    19a8:	00002020 	cmpeqi	zero,zero,128
    19ac:	000020d0 	cmplti	zero,zero,131
    19b0:	00002020 	cmpeqi	zero,zero,128
    19b4:	00002020 	cmpeqi	zero,zero,128
    19b8:	0000225c 	xori	zero,zero,137
    19bc:	00002020 	cmpeqi	zero,zero,128
    19c0:	00002020 	cmpeqi	zero,zero,128
    19c4:	00002020 	cmpeqi	zero,zero,128
    19c8:	00002020 	cmpeqi	zero,zero,128
    19cc:	00002020 	cmpeqi	zero,zero,128
    19d0:	00002020 	cmpeqi	zero,zero,128
    19d4:	00002020 	cmpeqi	zero,zero,128
    19d8:	00002020 	cmpeqi	zero,zero,128
    19dc:	00002250 	cmplti	zero,zero,137
    19e0:	00002020 	cmpeqi	zero,zero,128
    19e4:	00002020 	cmpeqi	zero,zero,128
    19e8:	00002234 	movhi	zero,136
    19ec:	00002020 	cmpeqi	zero,zero,128
    19f0:	00002020 	cmpeqi	zero,zero,128
    19f4:	00002020 	cmpeqi	zero,zero,128
    19f8:	00002020 	cmpeqi	zero,zero,128
    19fc:	00002020 	cmpeqi	zero,zero,128
    1a00:	00002020 	cmpeqi	zero,zero,128
    1a04:	00002020 	cmpeqi	zero,zero,128
    1a08:	00002220 	cmpeqi	zero,zero,136
    1a0c:	00002218 	cmpnei	zero,zero,136
    1a10:	000020e0 	cmpeqi	zero,zero,131
    1a14:	000020e0 	cmpeqi	zero,zero,131
    1a18:	000020e0 	cmpeqi	zero,zero,131
    1a1c:	00002208 	cmpgei	zero,zero,136
    1a20:	00001a9c 	xori	zero,zero,106
    1a24:	00002020 	cmpeqi	zero,zero,128
    1a28:	00002020 	cmpeqi	zero,zero,128
    1a2c:	000021e8 	cmpgeui	zero,zero,135
    1a30:	00002020 	cmpeqi	zero,zero,128
    1a34:	000021bc 	xorhi	zero,zero,134
    1a38:	00002198 	cmpnei	zero,zero,134
    1a3c:	00002170 	cmpltui	zero,zero,133
    1a40:	00002020 	cmpeqi	zero,zero,128
    1a44:	00002020 	cmpeqi	zero,zero,128
    1a48:	00002160 	cmpeqi	zero,zero,133
    1a4c:	00002020 	cmpeqi	zero,zero,128
    1a50:	0000213c 	xorhi	zero,zero,132
    1a54:	00002020 	cmpeqi	zero,zero,128
    1a58:	00002020 	cmpeqi	zero,zero,128
    1a5c:	00002250 	cmplti	zero,zero,137
    1a60:	2825883a 	mov	r18,r5
    1a64:	b8800117 	ldw	r2,4(r23)
    1a68:	00844f0e 	bge	zero,r2,2ba8 <__ssvfscanf_r+0x1484>
    1a6c:	b8800017 	ldw	r2,0(r23)
    1a70:	90ffffc3 	ldbu	r3,-1(r18)
    1a74:	11000003 	ldbu	r4,0(r2)
    1a78:	20ff6d1e 	bne	r4,r3,1830 <__alt_data_end+0xf8001830>
    1a7c:	b8c00117 	ldw	r3,4(r23)
    1a80:	10800044 	addi	r2,r2,1
    1a84:	b8800015 	stw	r2,0(r23)
    1a88:	18bfffc4 	addi	r2,r3,-1
    1a8c:	b8800115 	stw	r2,4(r23)
    1a90:	9cc00044 	addi	r19,r19,1
    1a94:	9023883a 	mov	r17,r18
    1a98:	003f6106 	br	1820 <__alt_data_end+0xf8001820>
    1a9c:	02c00074 	movhi	r11,1
    1aa0:	5aef6204 	addi	r11,r11,-17016
    1aa4:	8839883a 	mov	fp,r17
    1aa8:	2825883a 	mov	r18,r5
    1aac:	dac0a015 	stw	r11,640(sp)
    1ab0:	d8009e15 	stw	zero,632(sp)
    1ab4:	050000c4 	movi	r20,3
    1ab8:	b8800117 	ldw	r2,4(r23)
    1abc:	00816a0e 	bge	zero,r2,2068 <__ssvfscanf_r+0x944>
    1ac0:	8080100c 	andi	r2,r16,64
    1ac4:	10007a26 	beq	r2,zero,1cb0 <__ssvfscanf_r+0x58c>
    1ac8:	00800084 	movi	r2,2
    1acc:	a0820a26 	beq	r20,r2,22f8 <__ssvfscanf_r+0xbd4>
    1ad0:	1501e70e 	bge	r2,r20,2270 <__ssvfscanf_r+0xb4c>
    1ad4:	008000c4 	movi	r2,3
    1ad8:	a0823f26 	beq	r20,r2,23d8 <__ssvfscanf_r+0xcb4>
    1adc:	00800104 	movi	r2,4
    1ae0:	a082221e 	bne	r20,r2,236c <__ssvfscanf_r+0xc48>
    1ae4:	88bfffc4 	addi	r2,r17,-1
    1ae8:	01005704 	movi	r4,348
    1aec:	20830e2e 	bgeu	r4,r2,2728 <__ssvfscanf_r+0x1004>
    1af0:	8c7fa8c4 	addi	r17,r17,-349
    1af4:	dc40a315 	stw	r17,652(sp)
    1af8:	07005744 	movi	fp,349
    1afc:	8401e014 	ori	r16,r16,1920
    1b00:	0023883a 	mov	r17,zero
    1b04:	d9c00104 	addi	r7,sp,4
    1b08:	9011883a 	mov	r8,r18
    1b0c:	d800a415 	stw	zero,656(sp)
    1b10:	8825883a 	mov	r18,r17
    1b14:	d800a215 	stw	zero,648(sp)
    1b18:	8023883a 	mov	r17,r16
    1b1c:	d8009d15 	stw	zero,628(sp)
    1b20:	e021883a 	mov	r16,fp
    1b24:	d800a115 	stw	zero,644(sp)
    1b28:	0029883a 	mov	r20,zero
    1b2c:	02c01384 	movi	r11,78
    1b30:	00fe1fc4 	movi	r3,-1921
    1b34:	3839883a 	mov	fp,r7
    1b38:	b9800017 	ldw	r6,0(r23)
    1b3c:	31000003 	ldbu	r4,0(r6)
    1b40:	20bff544 	addi	r2,r4,-43
    1b44:	10803fcc 	andi	r2,r2,255
    1b48:	58807b36 	bltu	r11,r2,1d38 <__ssvfscanf_r+0x614>
    1b4c:	100490ba 	slli	r2,r2,2
    1b50:	01400034 	movhi	r5,0
    1b54:	2946d904 	addi	r5,r5,7012
    1b58:	1145883a 	add	r2,r2,r5
    1b5c:	10800017 	ldw	r2,0(r2)
    1b60:	1000683a 	jmp	r2
    1b64:	00001ec8 	cmpgei	zero,zero,123
    1b68:	00001d38 	rdprs	zero,zero,116
    1b6c:	00001ec8 	cmpgei	zero,zero,123
    1b70:	00001eac 	andhi	zero,zero,122
    1b74:	00001d38 	rdprs	zero,zero,116
    1b78:	00001fd4 	movui	zero,127
    1b7c:	00001cf0 	cmpltui	zero,zero,115
    1b80:	00001cf0 	cmpltui	zero,zero,115
    1b84:	00001cf0 	cmpltui	zero,zero,115
    1b88:	00001cf0 	cmpltui	zero,zero,115
    1b8c:	00001cf0 	cmpltui	zero,zero,115
    1b90:	00001cf0 	cmpltui	zero,zero,115
    1b94:	00001cf0 	cmpltui	zero,zero,115
    1b98:	00001cf0 	cmpltui	zero,zero,115
    1b9c:	00001cf0 	cmpltui	zero,zero,115
    1ba0:	00001d38 	rdprs	zero,zero,116
    1ba4:	00001d38 	rdprs	zero,zero,116
    1ba8:	00001d38 	rdprs	zero,zero,116
    1bac:	00001d38 	rdprs	zero,zero,116
    1bb0:	00001d38 	rdprs	zero,zero,116
    1bb4:	00001d38 	rdprs	zero,zero,116
    1bb8:	00001d38 	rdprs	zero,zero,116
    1bbc:	00001fc4 	movi	zero,127
    1bc0:	00001d38 	rdprs	zero,zero,116
    1bc4:	00001d38 	rdprs	zero,zero,116
    1bc8:	00001d38 	rdprs	zero,zero,116
    1bcc:	00001f7c 	xorhi	zero,zero,125
    1bd0:	00001f60 	cmpeqi	zero,zero,125
    1bd4:	00001d38 	rdprs	zero,zero,116
    1bd8:	00001d38 	rdprs	zero,zero,116
    1bdc:	00001f28 	cmpgeui	zero,zero,124
    1be0:	00001d38 	rdprs	zero,zero,116
    1be4:	00001d38 	rdprs	zero,zero,116
    1be8:	00001d38 	rdprs	zero,zero,116
    1bec:	00001d38 	rdprs	zero,zero,116
    1bf0:	00001ef8 	rdprs	zero,zero,123
    1bf4:	00001d38 	rdprs	zero,zero,116
    1bf8:	00001d38 	rdprs	zero,zero,116
    1bfc:	00001d38 	rdprs	zero,zero,116
    1c00:	00001d38 	rdprs	zero,zero,116
    1c04:	00001d38 	rdprs	zero,zero,116
    1c08:	00001edc 	xori	zero,zero,123
    1c0c:	00001d38 	rdprs	zero,zero,116
    1c10:	00001d38 	rdprs	zero,zero,116
    1c14:	00001d38 	rdprs	zero,zero,116
    1c18:	00001d38 	rdprs	zero,zero,116
    1c1c:	00001e90 	cmplti	zero,zero,122
    1c20:	00001d38 	rdprs	zero,zero,116
    1c24:	00001d38 	rdprs	zero,zero,116
    1c28:	00001d38 	rdprs	zero,zero,116
    1c2c:	00001d38 	rdprs	zero,zero,116
    1c30:	00001d38 	rdprs	zero,zero,116
    1c34:	00001d38 	rdprs	zero,zero,116
    1c38:	00001d38 	rdprs	zero,zero,116
    1c3c:	00001fc4 	movi	zero,127
    1c40:	00001d38 	rdprs	zero,zero,116
    1c44:	00001d38 	rdprs	zero,zero,116
    1c48:	00001d38 	rdprs	zero,zero,116
    1c4c:	00001f7c 	xorhi	zero,zero,125
    1c50:	00001f60 	cmpeqi	zero,zero,125
    1c54:	00001d38 	rdprs	zero,zero,116
    1c58:	00001d38 	rdprs	zero,zero,116
    1c5c:	00001f28 	cmpgeui	zero,zero,124
    1c60:	00001d38 	rdprs	zero,zero,116
    1c64:	00001d38 	rdprs	zero,zero,116
    1c68:	00001d38 	rdprs	zero,zero,116
    1c6c:	00001d38 	rdprs	zero,zero,116
    1c70:	00001ef8 	rdprs	zero,zero,123
    1c74:	00001d38 	rdprs	zero,zero,116
    1c78:	00001d38 	rdprs	zero,zero,116
    1c7c:	00001d38 	rdprs	zero,zero,116
    1c80:	00001d38 	rdprs	zero,zero,116
    1c84:	00001d38 	rdprs	zero,zero,116
    1c88:	00001edc 	xori	zero,zero,123
    1c8c:	00001d38 	rdprs	zero,zero,116
    1c90:	00001d38 	rdprs	zero,zero,116
    1c94:	00001d38 	rdprs	zero,zero,116
    1c98:	00001d38 	rdprs	zero,zero,116
    1c9c:	00001e90 	cmplti	zero,zero,122
    1ca0:	b009883a 	mov	r4,r22
    1ca4:	b80b883a 	mov	r5,r23
    1ca8:	000ca180 	call	ca18 <__ssrefill_r>
    1cac:	1000f21e 	bne	r2,zero,2078 <__ssvfscanf_r+0x954>
    1cb0:	a9400017 	ldw	r5,0(r21)
    1cb4:	b9000017 	ldw	r4,0(r23)
    1cb8:	00000206 	br	1cc4 <__ssvfscanf_r+0x5a0>
    1cbc:	21000044 	addi	r4,r4,1
    1cc0:	b9000015 	stw	r4,0(r23)
    1cc4:	20800003 	ldbu	r2,0(r4)
    1cc8:	2885883a 	add	r2,r5,r2
    1ccc:	10800043 	ldbu	r2,1(r2)
    1cd0:	1080020c 	andi	r2,r2,8
    1cd4:	103f7c26 	beq	r2,zero,1ac8 <__alt_data_end+0xf8001ac8>
    1cd8:	b8800117 	ldw	r2,4(r23)
    1cdc:	9cc00044 	addi	r19,r19,1
    1ce0:	10bfffc4 	addi	r2,r2,-1
    1ce4:	b8800115 	stw	r2,4(r23)
    1ce8:	00bff416 	blt	zero,r2,1cbc <__alt_data_end+0xf8001cbc>
    1cec:	003fec06 	br	1ca0 <__alt_data_end+0xf8001ca0>
    1cf0:	90803fcc 	andi	r2,r18,255
    1cf4:	1080201c 	xori	r2,r2,128
    1cf8:	10bfe004 	addi	r2,r2,-128
    1cfc:	a085883a 	add	r2,r20,r2
    1d00:	10000d1e 	bne	r2,zero,1d38 <__ssvfscanf_r+0x614>
    1d04:	00bf9fc4 	movi	r2,-385
    1d08:	88a2703a 	and	r17,r17,r2
    1d0c:	e1000005 	stb	r4,0(fp)
    1d10:	e7000044 	addi	fp,fp,1
    1d14:	b8800117 	ldw	r2,4(r23)
    1d18:	843fffc4 	addi	r16,r16,-1
    1d1c:	9cc00044 	addi	r19,r19,1
    1d20:	10bfffc4 	addi	r2,r2,-1
    1d24:	b8800115 	stw	r2,4(r23)
    1d28:	00826e0e 	bge	zero,r2,26e4 <__ssvfscanf_r+0xfc0>
    1d2c:	31800044 	addi	r6,r6,1
    1d30:	b9800015 	stw	r6,0(r23)
    1d34:	803f801e 	bne	r16,zero,1b38 <__alt_data_end+0xf8001b38>
    1d38:	d8c09d17 	ldw	r3,628(sp)
    1d3c:	8821883a 	mov	r16,r17
    1d40:	e00f883a 	mov	r7,fp
    1d44:	9023883a 	mov	r17,r18
    1d48:	4025883a 	mov	r18,r8
    1d4c:	1802711e 	bne	r3,zero,2714 <__ssvfscanf_r+0xff0>
    1d50:	a33fffc4 	addi	r12,r20,-1
    1d54:	00800044 	movi	r2,1
    1d58:	1304262e 	bgeu	r2,r12,2df4 <__ssvfscanf_r+0x16d0>
    1d5c:	88803fcc 	andi	r2,r17,255
    1d60:	1080201c 	xori	r2,r2,128
    1d64:	10bfe004 	addi	r2,r2,-128
    1d68:	10ffffc4 	addi	r3,r2,-1
    1d6c:	01000184 	movi	r4,6
    1d70:	20c01336 	bltu	r4,r3,1dc0 <__ssvfscanf_r+0x69c>
    1d74:	00c00084 	movi	r3,2
    1d78:	18842a0e 	bge	r3,r2,2e24 <__ssvfscanf_r+0x1700>
    1d7c:	050000c4 	movi	r20,3
    1d80:	8839883a 	mov	fp,r17
    1d84:	15000e26 	beq	r2,r20,1dc0 <__ssvfscanf_r+0x69c>
    1d88:	3823883a 	mov	r17,r7
    1d8c:	99e7c83a 	sub	r19,r19,r7
    1d90:	8c7fffc4 	addi	r17,r17,-1
    1d94:	89400007 	ldb	r5,0(r17)
    1d98:	b009883a 	mov	r4,r22
    1d9c:	b80d883a 	mov	r6,r23
    1da0:	000c9200 	call	c920 <_sungetc_r>
    1da4:	e0bfffc4 	addi	r2,fp,-1
    1da8:	10c03fcc 	andi	r3,r2,255
    1dac:	8cd3883a 	add	r9,r17,r19
    1db0:	1039883a 	mov	fp,r2
    1db4:	a0fff636 	bltu	r20,r3,1d90 <__alt_data_end+0xf8001d90>
    1db8:	4827883a 	mov	r19,r9
    1dbc:	880f883a 	mov	r7,r17
    1dc0:	8080400c 	andi	r2,r16,256
    1dc4:	10001626 	beq	r2,zero,1e20 <__ssvfscanf_r+0x6fc>
    1dc8:	8081000c 	andi	r2,r16,1024
    1dcc:	1004211e 	bne	r2,zero,2e54 <__ssvfscanf_r+0x1730>
    1dd0:	397fffc7 	ldb	r5,-1(r7)
    1dd4:	00801944 	movi	r2,101
    1dd8:	3c7fffc4 	addi	r17,r7,-1
    1ddc:	9d3fffc4 	addi	r20,r19,-1
    1de0:	28800a26 	beq	r5,r2,1e0c <__ssvfscanf_r+0x6e8>
    1de4:	00801144 	movi	r2,69
    1de8:	28800826 	beq	r5,r2,1e0c <__ssvfscanf_r+0x6e8>
    1dec:	b009883a 	mov	r4,r22
    1df0:	b80d883a 	mov	r6,r23
    1df4:	d9c0a815 	stw	r7,672(sp)
    1df8:	000c9200 	call	c920 <_sungetc_r>
    1dfc:	d9c0a817 	ldw	r7,672(sp)
    1e00:	9d3fff84 	addi	r20,r19,-2
    1e04:	397fff87 	ldb	r5,-2(r7)
    1e08:	3c7fff84 	addi	r17,r7,-2
    1e0c:	b009883a 	mov	r4,r22
    1e10:	b80d883a 	mov	r6,r23
    1e14:	000c9200 	call	c920 <_sungetc_r>
    1e18:	a027883a 	mov	r19,r20
    1e1c:	880f883a 	mov	r7,r17
    1e20:	8080040c 	andi	r2,r16,16
    1e24:	103e7d1e 	bne	r2,zero,181c <__alt_data_end+0xf800181c>
    1e28:	38000005 	stb	zero,0(r7)
    1e2c:	80c1800c 	andi	r3,r16,1536
    1e30:	00810004 	movi	r2,1024
    1e34:	18836b26 	beq	r3,r2,2be4 <__ssvfscanf_r+0x14c0>
    1e38:	d8c0a217 	ldw	r3,648(sp)
    1e3c:	1803221e 	bne	r3,zero,2ac8 <__ssvfscanf_r+0x13a4>
    1e40:	b009883a 	mov	r4,r22
    1e44:	d9400104 	addi	r5,sp,4
    1e48:	000d883a 	mov	r6,zero
    1e4c:	000a7280 	call	a728 <_strtod_r>
    1e50:	1023883a 	mov	r17,r2
    1e54:	8080004c 	andi	r2,r16,1
    1e58:	1002eb1e 	bne	r2,zero,2a08 <__ssvfscanf_r+0x12e4>
    1e5c:	8280008c 	andi	r10,r16,2
    1e60:	50038e26 	beq	r10,zero,2c9c <__ssvfscanf_r+0x1578>
    1e64:	dac09c17 	ldw	r11,624(sp)
    1e68:	58800017 	ldw	r2,0(r11)
    1e6c:	5ac00104 	addi	r11,r11,4
    1e70:	dac09c15 	stw	r11,624(sp)
    1e74:	14400015 	stw	r17,0(r2)
    1e78:	10c00115 	stw	r3,4(r2)
    1e7c:	dac09f17 	ldw	r11,636(sp)
    1e80:	9023883a 	mov	r17,r18
    1e84:	5ac00044 	addi	r11,r11,1
    1e88:	dac09f15 	stw	r11,636(sp)
    1e8c:	003e6406 	br	1820 <__alt_data_end+0xf8001820>
    1e90:	90803fcc 	andi	r2,r18,255
    1e94:	1080201c 	xori	r2,r2,128
    1e98:	10bfe004 	addi	r2,r2,-128
    1e9c:	014001c4 	movi	r5,7
    1ea0:	117fa51e 	bne	r2,r5,1d38 <__alt_data_end+0xf8001d38>
    1ea4:	04800204 	movi	r18,8
    1ea8:	003f9806 	br	1d0c <__alt_data_end+0xf8001d0c>
    1eac:	8880800c 	andi	r2,r17,512
    1eb0:	103fa126 	beq	r2,zero,1d38 <__alt_data_end+0xf8001d38>
    1eb4:	d9409d17 	ldw	r5,628(sp)
    1eb8:	00bf5fc4 	movi	r2,-641
    1ebc:	88a2703a 	and	r17,r17,r2
    1ec0:	d940a115 	stw	r5,644(sp)
    1ec4:	003f9106 	br	1d0c <__alt_data_end+0xf8001d0c>
    1ec8:	8880200c 	andi	r2,r17,128
    1ecc:	103f9a26 	beq	r2,zero,1d38 <__alt_data_end+0xf8001d38>
    1ed0:	00bfdfc4 	movi	r2,-129
    1ed4:	88a2703a 	and	r17,r17,r2
    1ed8:	003f8c06 	br	1d0c <__alt_data_end+0xf8001d0c>
    1edc:	91403fcc 	andi	r5,r18,255
    1ee0:	2940201c 	xori	r5,r5,128
    1ee4:	297fe004 	addi	r5,r5,-128
    1ee8:	00800184 	movi	r2,6
    1eec:	28bf921e 	bne	r5,r2,1d38 <__alt_data_end+0xf8001d38>
    1ef0:	048001c4 	movi	r18,7
    1ef4:	003f8506 	br	1d0c <__alt_data_end+0xf8001d0c>
    1ef8:	a0025c1e 	bne	r20,zero,286c <__ssvfscanf_r+0x1148>
    1efc:	d9409d17 	ldw	r5,628(sp)
    1f00:	2802d226 	beq	r5,zero,2a4c <__ssvfscanf_r+0x1328>
    1f04:	90803fcc 	andi	r2,r18,255
    1f08:	1080201c 	xori	r2,r2,128
    1f0c:	10bfe004 	addi	r2,r2,-128
    1f10:	01400044 	movi	r5,1
    1f14:	11400226 	beq	r2,r5,1f20 <__ssvfscanf_r+0x7fc>
    1f18:	01400104 	movi	r5,4
    1f1c:	117f861e 	bne	r2,r5,1d38 <__alt_data_end+0xf8001d38>
    1f20:	94800044 	addi	r18,r18,1
    1f24:	003f7906 	br	1d0c <__alt_data_end+0xf8001d0c>
    1f28:	90803fcc 	andi	r2,r18,255
    1f2c:	1080201c 	xori	r2,r2,128
    1f30:	10bfe004 	addi	r2,r2,-128
    1f34:	1002481e 	bne	r2,zero,2858 <__ssvfscanf_r+0x1134>
    1f38:	d8809d17 	ldw	r2,628(sp)
    1f3c:	1002bc1e 	bne	r2,zero,2a30 <__ssvfscanf_r+0x130c>
    1f40:	8941c00c 	andi	r5,r17,1792
    1f44:	0081c004 	movi	r2,1792
    1f48:	28838f26 	beq	r5,r2,2d88 <__ssvfscanf_r+0x1664>
    1f4c:	8821883a 	mov	r16,r17
    1f50:	e00f883a 	mov	r7,fp
    1f54:	9023883a 	mov	r17,r18
    1f58:	4025883a 	mov	r18,r8
    1f5c:	003f7c06 	br	1d50 <__alt_data_end+0xf8001d50>
    1f60:	91403fcc 	andi	r5,r18,255
    1f64:	2940201c 	xori	r5,r5,128
    1f68:	297fe004 	addi	r5,r5,-128
    1f6c:	00800084 	movi	r2,2
    1f70:	28bf711e 	bne	r5,r2,1d38 <__alt_data_end+0xf8001d38>
    1f74:	048000c4 	movi	r18,3
    1f78:	003f6406 	br	1d0c <__alt_data_end+0xf8001d0c>
    1f7c:	8881400c 	andi	r2,r17,1280
    1f80:	01410004 	movi	r5,1024
    1f84:	11400426 	beq	r2,r5,1f98 <__ssvfscanf_r+0x874>
    1f88:	8944703a 	and	r2,r17,r5
    1f8c:	103f6a26 	beq	r2,zero,1d38 <__alt_data_end+0xf8001d38>
    1f90:	d8809d17 	ldw	r2,628(sp)
    1f94:	103fed26 	beq	r2,zero,1f4c <__alt_data_end+0xf8001f4c>
    1f98:	8880800c 	andi	r2,r17,512
    1f9c:	1000051e 	bne	r2,zero,1fb4 <__ssvfscanf_r+0x890>
    1fa0:	d9409d17 	ldw	r5,628(sp)
    1fa4:	d880a117 	ldw	r2,644(sp)
    1fa8:	df00a415 	stw	fp,656(sp)
    1fac:	288bc83a 	sub	r5,r5,r2
    1fb0:	d940a215 	stw	r5,648(sp)
    1fb4:	88e2703a 	and	r17,r17,r3
    1fb8:	8c406014 	ori	r17,r17,384
    1fbc:	d8009d15 	stw	zero,628(sp)
    1fc0:	003f5206 	br	1d0c <__alt_data_end+0xf8001d0c>
    1fc4:	00800044 	movi	r2,1
    1fc8:	a0bf5b1e 	bne	r20,r2,1d38 <__alt_data_end+0xf8001d38>
    1fcc:	05000084 	movi	r20,2
    1fd0:	003f4e06 	br	1d0c <__alt_data_end+0xf8001d0c>
    1fd4:	8880400c 	andi	r2,r17,256
    1fd8:	103f4526 	beq	r2,zero,1cf0 <__alt_data_end+0xf8001cf0>
    1fdc:	00bfdfc4 	movi	r2,-129
    1fe0:	88a2703a 	and	r17,r17,r2
    1fe4:	d8809d17 	ldw	r2,628(sp)
    1fe8:	d900a317 	ldw	r4,652(sp)
    1fec:	10800044 	addi	r2,r2,1
    1ff0:	d8809d15 	stw	r2,628(sp)
    1ff4:	203f4726 	beq	r4,zero,1d14 <__alt_data_end+0xf8001d14>
    1ff8:	213fffc4 	addi	r4,r4,-1
    1ffc:	d900a315 	stw	r4,652(sp)
    2000:	84000044 	addi	r16,r16,1
    2004:	003f4306 	br	1d14 <__alt_data_end+0xf8001d14>
    2008:	90c00043 	ldbu	r3,1(r18)
    200c:	2825883a 	mov	r18,r5
    2010:	84000414 	ori	r16,r16,16
    2014:	18803fcc 	andi	r2,r3,255
    2018:	91400044 	addi	r5,r18,1
    201c:	30be112e 	bgeu	r6,r2,1864 <__alt_data_end+0xf8001864>
    2020:	18c03fcc 	andi	r3,r3,255
    2024:	18c0201c 	xori	r3,r3,128
    2028:	18ffe004 	addi	r3,r3,-128
    202c:	20c9883a 	add	r4,r4,r3
    2030:	20800043 	ldbu	r2,1(r4)
    2034:	00c00044 	movi	r3,1
    2038:	2825883a 	mov	r18,r5
    203c:	108000cc 	andi	r2,r2,3
    2040:	10c2ee26 	beq	r2,r3,2bfc <__ssvfscanf_r+0x14d8>
    2044:	00800074 	movhi	r2,1
    2048:	10af6204 	addi	r2,r2,-17016
    204c:	d880a015 	stw	r2,640(sp)
    2050:	b8800117 	ldw	r2,4(r23)
    2054:	02000284 	movi	r8,10
    2058:	da009e15 	stw	r8,632(sp)
    205c:	8839883a 	mov	fp,r17
    2060:	050000c4 	movi	r20,3
    2064:	00be9616 	blt	zero,r2,1ac0 <__alt_data_end+0xf8001ac0>
    2068:	b009883a 	mov	r4,r22
    206c:	b80b883a 	mov	r5,r23
    2070:	000ca180 	call	ca18 <__ssrefill_r>
    2074:	103e9226 	beq	r2,zero,1ac0 <__alt_data_end+0xf8001ac0>
    2078:	0006f700 	call	6f70 <__sfp_lock_release>
    207c:	da009f17 	ldw	r8,636(sp)
    2080:	40007926 	beq	r8,zero,2268 <__ssvfscanf_r+0xb44>
    2084:	b880030b 	ldhu	r2,12(r23)
    2088:	1080100c 	andi	r2,r2,64
    208c:	1000761e 	bne	r2,zero,2268 <__ssvfscanf_r+0xb44>
    2090:	4005883a 	mov	r2,r8
    2094:	00000206 	br	20a0 <__ssvfscanf_r+0x97c>
    2098:	0006f700 	call	6f70 <__sfp_lock_release>
    209c:	00bfffc4 	movi	r2,-1
    20a0:	dfc0b417 	ldw	ra,720(sp)
    20a4:	df00b317 	ldw	fp,716(sp)
    20a8:	ddc0b217 	ldw	r23,712(sp)
    20ac:	dd80b117 	ldw	r22,708(sp)
    20b0:	dd40b017 	ldw	r21,704(sp)
    20b4:	dd00af17 	ldw	r20,700(sp)
    20b8:	dcc0ae17 	ldw	r19,696(sp)
    20bc:	dc80ad17 	ldw	r18,692(sp)
    20c0:	dc40ac17 	ldw	r17,688(sp)
    20c4:	dc00ab17 	ldw	r16,684(sp)
    20c8:	dec0b504 	addi	sp,sp,724
    20cc:	f800283a 	ret
    20d0:	90c00043 	ldbu	r3,1(r18)
    20d4:	84000094 	ori	r16,r16,2
    20d8:	2825883a 	mov	r18,r5
    20dc:	003dde06 	br	1858 <__alt_data_end+0xf8001858>
    20e0:	2825883a 	mov	r18,r5
    20e4:	8839883a 	mov	fp,r17
    20e8:	05000104 	movi	r20,4
    20ec:	003e7206 	br	1ab8 <__alt_data_end+0xf8001ab8>
    20f0:	2825883a 	mov	r18,r5
    20f4:	84000054 	ori	r16,r16,1
    20f8:	02c00074 	movhi	r11,1
    20fc:	5aef6204 	addi	r11,r11,-17016
    2100:	02000284 	movi	r8,10
    2104:	8839883a 	mov	fp,r17
    2108:	dac0a015 	stw	r11,640(sp)
    210c:	da009e15 	stw	r8,632(sp)
    2110:	050000c4 	movi	r20,3
    2114:	003e6806 	br	1ab8 <__alt_data_end+0xf8001ab8>
    2118:	18803fcc 	andi	r2,r3,255
    211c:	8c4002a4 	muli	r17,r17,10
    2120:	1080201c 	xori	r2,r2,128
    2124:	10bfe004 	addi	r2,r2,-128
    2128:	88a3883a 	add	r17,r17,r2
    212c:	90c00043 	ldbu	r3,1(r18)
    2130:	8c7ff404 	addi	r17,r17,-48
    2134:	2825883a 	mov	r18,r5
    2138:	003dc706 	br	1858 <__alt_data_end+0xf8001858>
    213c:	02c00074 	movhi	r11,1
    2140:	5af0c804 	addi	r11,r11,-15584
    2144:	02000284 	movi	r8,10
    2148:	2825883a 	mov	r18,r5
    214c:	8839883a 	mov	fp,r17
    2150:	dac0a015 	stw	r11,640(sp)
    2154:	da009e15 	stw	r8,632(sp)
    2158:	050000c4 	movi	r20,3
    215c:	003e5606 	br	1ab8 <__alt_data_end+0xf8001ab8>
    2160:	2825883a 	mov	r18,r5
    2164:	8839883a 	mov	fp,r17
    2168:	05000084 	movi	r20,2
    216c:	003e5206 	br	1ab8 <__alt_data_end+0xf8001ab8>
    2170:	2825883a 	mov	r18,r5
    2174:	84008814 	ori	r16,r16,544
    2178:	02c00074 	movhi	r11,1
    217c:	5af0c804 	addi	r11,r11,-15584
    2180:	02000404 	movi	r8,16
    2184:	8839883a 	mov	fp,r17
    2188:	dac0a015 	stw	r11,640(sp)
    218c:	da009e15 	stw	r8,632(sp)
    2190:	050000c4 	movi	r20,3
    2194:	003e4806 	br	1ab8 <__alt_data_end+0xf8001ab8>
    2198:	2825883a 	mov	r18,r5
    219c:	02c00074 	movhi	r11,1
    21a0:	5af0c804 	addi	r11,r11,-15584
    21a4:	02000204 	movi	r8,8
    21a8:	8839883a 	mov	fp,r17
    21ac:	dac0a015 	stw	r11,640(sp)
    21b0:	da009e15 	stw	r8,632(sp)
    21b4:	050000c4 	movi	r20,3
    21b8:	003e3f06 	br	1ab8 <__alt_data_end+0xf8001ab8>
    21bc:	8080040c 	andi	r2,r16,16
    21c0:	2825883a 	mov	r18,r5
    21c4:	103d951e 	bne	r2,zero,181c <__alt_data_end+0xf800181c>
    21c8:	8080010c 	andi	r2,r16,4
    21cc:	10028d26 	beq	r2,zero,2c04 <__ssvfscanf_r+0x14e0>
    21d0:	dac09c17 	ldw	r11,624(sp)
    21d4:	58800017 	ldw	r2,0(r11)
    21d8:	5ac00104 	addi	r11,r11,4
    21dc:	dac09c15 	stw	r11,624(sp)
    21e0:	14c0000d 	sth	r19,0(r2)
    21e4:	003d8d06 	br	181c <__alt_data_end+0xf800181c>
    21e8:	90c00043 	ldbu	r3,1(r18)
    21ec:	18803fcc 	andi	r2,r3,255
    21f0:	1080201c 	xori	r2,r2,128
    21f4:	10bfe004 	addi	r2,r2,-128
    21f8:	11c27626 	beq	r2,r7,2bd4 <__ssvfscanf_r+0x14b0>
    21fc:	84000054 	ori	r16,r16,1
    2200:	2825883a 	mov	r18,r5
    2204:	003d9406 	br	1858 <__alt_data_end+0xf8001858>
    2208:	90c00043 	ldbu	r3,1(r18)
    220c:	84000114 	ori	r16,r16,4
    2210:	2825883a 	mov	r18,r5
    2214:	003d9006 	br	1858 <__alt_data_end+0xf8001858>
    2218:	2825883a 	mov	r18,r5
    221c:	003fb606 	br	20f8 <__alt_data_end+0xf80020f8>
    2220:	2825883a 	mov	r18,r5
    2224:	84001014 	ori	r16,r16,64
    2228:	8839883a 	mov	fp,r17
    222c:	0029883a 	mov	r20,zero
    2230:	003e2106 	br	1ab8 <__alt_data_end+0xf8001ab8>
    2234:	d9005884 	addi	r4,sp,354
    2238:	000a4f80 	call	a4f8 <__sccl>
    223c:	1025883a 	mov	r18,r2
    2240:	84001014 	ori	r16,r16,64
    2244:	8839883a 	mov	fp,r17
    2248:	05000044 	movi	r20,1
    224c:	003e1a06 	br	1ab8 <__alt_data_end+0xf8001ab8>
    2250:	2825883a 	mov	r18,r5
    2254:	84008014 	ori	r16,r16,512
    2258:	003fc706 	br	2178 <__alt_data_end+0xf8002178>
    225c:	2825883a 	mov	r18,r5
    2260:	84000054 	ori	r16,r16,1
    2264:	003fcd06 	br	219c <__alt_data_end+0xf800219c>
    2268:	00bfffc4 	movi	r2,-1
    226c:	003f8c06 	br	20a0 <__alt_data_end+0xf80020a0>
    2270:	00800044 	movi	r2,1
    2274:	a0803d1e 	bne	r20,r2,236c <__ssvfscanf_r+0xc48>
    2278:	8800011e 	bne	r17,zero,2280 <__ssvfscanf_r+0xb5c>
    227c:	073fffc4 	movi	fp,-1
    2280:	8400040c 	andi	r16,r16,16
    2284:	80012a26 	beq	r16,zero,2730 <__ssvfscanf_r+0x100c>
    2288:	b9000017 	ldw	r4,0(r23)
    228c:	0021883a 	mov	r16,zero
    2290:	dc405884 	addi	r17,sp,354
    2294:	20800003 	ldbu	r2,0(r4)
    2298:	8885883a 	add	r2,r17,r2
    229c:	10800007 	ldb	r2,0(r2)
    22a0:	10001126 	beq	r2,zero,22e8 <__ssvfscanf_r+0xbc4>
    22a4:	b8800117 	ldw	r2,4(r23)
    22a8:	21000044 	addi	r4,r4,1
    22ac:	84000044 	addi	r16,r16,1
    22b0:	10bfffc4 	addi	r2,r2,-1
    22b4:	b8800115 	stw	r2,4(r23)
    22b8:	b9000015 	stw	r4,0(r23)
    22bc:	e4000b26 	beq	fp,r16,22ec <__ssvfscanf_r+0xbc8>
    22c0:	00bff416 	blt	zero,r2,2294 <__alt_data_end+0xf8002294>
    22c4:	b009883a 	mov	r4,r22
    22c8:	b80b883a 	mov	r5,r23
    22cc:	000ca180 	call	ca18 <__ssrefill_r>
    22d0:	1000061e 	bne	r2,zero,22ec <__ssvfscanf_r+0xbc8>
    22d4:	b9000017 	ldw	r4,0(r23)
    22d8:	20800003 	ldbu	r2,0(r4)
    22dc:	8885883a 	add	r2,r17,r2
    22e0:	10800007 	ldb	r2,0(r2)
    22e4:	103fef1e 	bne	r2,zero,22a4 <__alt_data_end+0xf80022a4>
    22e8:	803d5126 	beq	r16,zero,1830 <__alt_data_end+0xf8001830>
    22ec:	9c27883a 	add	r19,r19,r16
    22f0:	9023883a 	mov	r17,r18
    22f4:	003d4a06 	br	1820 <__alt_data_end+0xf8001820>
    22f8:	8800011e 	bne	r17,zero,2300 <__ssvfscanf_r+0xbdc>
    22fc:	073fffc4 	movi	fp,-1
    2300:	8080004c 	andi	r2,r16,1
    2304:	10016f1e 	bne	r2,zero,28c4 <__ssvfscanf_r+0x11a0>
    2308:	8400040c 	andi	r16,r16,16
    230c:	80012a26 	beq	r16,zero,27b8 <__ssvfscanf_r+0x1094>
    2310:	a9400017 	ldw	r5,0(r21)
    2314:	b9000017 	ldw	r4,0(r23)
    2318:	0021883a 	mov	r16,zero
    231c:	20800003 	ldbu	r2,0(r4)
    2320:	2885883a 	add	r2,r5,r2
    2324:	10800043 	ldbu	r2,1(r2)
    2328:	1080020c 	andi	r2,r2,8
    232c:	103fef1e 	bne	r2,zero,22ec <__alt_data_end+0xf80022ec>
    2330:	b8800117 	ldw	r2,4(r23)
    2334:	21000044 	addi	r4,r4,1
    2338:	84000044 	addi	r16,r16,1
    233c:	10bfffc4 	addi	r2,r2,-1
    2340:	b8800115 	stw	r2,4(r23)
    2344:	b9000015 	stw	r4,0(r23)
    2348:	e43fe826 	beq	fp,r16,22ec <__alt_data_end+0xf80022ec>
    234c:	00bff316 	blt	zero,r2,231c <__alt_data_end+0xf800231c>
    2350:	b009883a 	mov	r4,r22
    2354:	b80b883a 	mov	r5,r23
    2358:	000ca180 	call	ca18 <__ssrefill_r>
    235c:	103fe31e 	bne	r2,zero,22ec <__alt_data_end+0xf80022ec>
    2360:	a9400017 	ldw	r5,0(r21)
    2364:	b9000017 	ldw	r4,0(r23)
    2368:	003fec06 	br	231c <__alt_data_end+0xf800231c>
    236c:	8800011e 	bne	r17,zero,2374 <__ssvfscanf_r+0xc50>
    2370:	07000044 	movi	fp,1
    2374:	8080004c 	andi	r2,r16,1
    2378:	1001701e 	bne	r2,zero,293c <__ssvfscanf_r+0x1218>
    237c:	8400040c 	andi	r16,r16,16
    2380:	8001f626 	beq	r16,zero,2b5c <__ssvfscanf_r+0x1438>
    2384:	0021883a 	mov	r16,zero
    2388:	00000906 	br	23b0 <__ssvfscanf_r+0xc8c>
    238c:	b8c00017 	ldw	r3,0(r23)
    2390:	b009883a 	mov	r4,r22
    2394:	b80b883a 	mov	r5,r23
    2398:	1887883a 	add	r3,r3,r2
    239c:	b8c00015 	stw	r3,0(r23)
    23a0:	80a1883a 	add	r16,r16,r2
    23a4:	e0b9c83a 	sub	fp,fp,r2
    23a8:	000ca180 	call	ca18 <__ssrefill_r>
    23ac:	1001e81e 	bne	r2,zero,2b50 <__ssvfscanf_r+0x142c>
    23b0:	b8800117 	ldw	r2,4(r23)
    23b4:	173ff516 	blt	r2,fp,238c <__alt_data_end+0xf800238c>
    23b8:	b9000017 	ldw	r4,0(r23)
    23bc:	1705c83a 	sub	r2,r2,fp
    23c0:	e421883a 	add	r16,fp,r16
    23c4:	2707883a 	add	r3,r4,fp
    23c8:	b8800115 	stw	r2,4(r23)
    23cc:	b8c00015 	stw	r3,0(r23)
    23d0:	9c27883a 	add	r19,r19,r16
    23d4:	003fc606 	br	22f0 <__alt_data_end+0xf80022f0>
    23d8:	88bfffc4 	addi	r2,r17,-1
    23dc:	01005704 	movi	r4,348
    23e0:	2080cf2e 	bgeu	r4,r2,2720 <__ssvfscanf_r+0xffc>
    23e4:	89ffa8c4 	addi	r7,r17,-349
    23e8:	07005744 	movi	fp,349
    23ec:	84436014 	ori	r17,r16,3456
    23f0:	0021883a 	mov	r16,zero
    23f4:	9013883a 	mov	r9,r18
    23f8:	8025883a 	mov	r18,r16
    23fc:	dc009e17 	ldw	r16,632(sp)
    2400:	dd000104 	addi	r20,sp,4
    2404:	02001344 	movi	r8,77
    2408:	02808004 	movi	r10,512
    240c:	01bf7fc4 	movi	r6,-513
    2410:	00ffdfc4 	movi	r3,-129
    2414:	b9000017 	ldw	r4,0(r23)
    2418:	21400003 	ldbu	r5,0(r4)
    241c:	28bff544 	addi	r2,r5,-43
    2420:	10803fcc 	andi	r2,r2,255
    2424:	40806336 	bltu	r8,r2,25b4 <__ssvfscanf_r+0xe90>
    2428:	100490ba 	slli	r2,r2,2
    242c:	02c00034 	movhi	r11,0
    2430:	5ac91004 	addi	r11,r11,9280
    2434:	12c5883a 	add	r2,r2,r11
    2438:	10800017 	ldw	r2,0(r2)
    243c:	1000683a 	jmp	r2
    2440:	000026d4 	movui	zero,155
    2444:	000025b4 	movhi	zero,150
    2448:	000026d4 	movui	zero,155
    244c:	000025b4 	movhi	zero,150
    2450:	000025b4 	movhi	zero,150
    2454:	0000264c 	andi	zero,zero,153
    2458:	0000262c 	andhi	zero,zero,152
    245c:	0000262c 	andhi	zero,zero,152
    2460:	0000262c 	andhi	zero,zero,152
    2464:	0000262c 	andhi	zero,zero,152
    2468:	0000262c 	andhi	zero,zero,152
    246c:	0000262c 	andhi	zero,zero,152
    2470:	0000262c 	andhi	zero,zero,152
    2474:	0000260c 	andi	zero,zero,152
    2478:	0000260c 	andi	zero,zero,152
    247c:	000025b4 	movhi	zero,150
    2480:	000025b4 	movhi	zero,150
    2484:	000025b4 	movhi	zero,150
    2488:	000025b4 	movhi	zero,150
    248c:	000025b4 	movhi	zero,150
    2490:	000025b4 	movhi	zero,150
    2494:	000025b4 	movhi	zero,150
    2498:	000025f8 	rdprs	zero,zero,151
    249c:	000025f8 	rdprs	zero,zero,151
    24a0:	000025f8 	rdprs	zero,zero,151
    24a4:	000025f8 	rdprs	zero,zero,151
    24a8:	000025f8 	rdprs	zero,zero,151
    24ac:	000025f8 	rdprs	zero,zero,151
    24b0:	000025b4 	movhi	zero,150
    24b4:	000025b4 	movhi	zero,150
    24b8:	000025b4 	movhi	zero,150
    24bc:	000025b4 	movhi	zero,150
    24c0:	000025b4 	movhi	zero,150
    24c4:	000025b4 	movhi	zero,150
    24c8:	000025b4 	movhi	zero,150
    24cc:	000025b4 	movhi	zero,150
    24d0:	000025b4 	movhi	zero,150
    24d4:	000025b4 	movhi	zero,150
    24d8:	000025b4 	movhi	zero,150
    24dc:	000025b4 	movhi	zero,150
    24e0:	000025b4 	movhi	zero,150
    24e4:	000025b4 	movhi	zero,150
    24e8:	000025b4 	movhi	zero,150
    24ec:	000025b4 	movhi	zero,150
    24f0:	000025b4 	movhi	zero,150
    24f4:	00002578 	rdprs	zero,zero,149
    24f8:	000025b4 	movhi	zero,150
    24fc:	000025b4 	movhi	zero,150
    2500:	000025b4 	movhi	zero,150
    2504:	000025b4 	movhi	zero,150
    2508:	000025b4 	movhi	zero,150
    250c:	000025b4 	movhi	zero,150
    2510:	000025b4 	movhi	zero,150
    2514:	000025b4 	movhi	zero,150
    2518:	000025f8 	rdprs	zero,zero,151
    251c:	000025f8 	rdprs	zero,zero,151
    2520:	000025f8 	rdprs	zero,zero,151
    2524:	000025f8 	rdprs	zero,zero,151
    2528:	000025f8 	rdprs	zero,zero,151
    252c:	000025f8 	rdprs	zero,zero,151
    2530:	000025b4 	movhi	zero,150
    2534:	000025b4 	movhi	zero,150
    2538:	000025b4 	movhi	zero,150
    253c:	000025b4 	movhi	zero,150
    2540:	000025b4 	movhi	zero,150
    2544:	000025b4 	movhi	zero,150
    2548:	000025b4 	movhi	zero,150
    254c:	000025b4 	movhi	zero,150
    2550:	000025b4 	movhi	zero,150
    2554:	000025b4 	movhi	zero,150
    2558:	000025b4 	movhi	zero,150
    255c:	000025b4 	movhi	zero,150
    2560:	000025b4 	movhi	zero,150
    2564:	000025b4 	movhi	zero,150
    2568:	000025b4 	movhi	zero,150
    256c:	000025b4 	movhi	zero,150
    2570:	000025b4 	movhi	zero,150
    2574:	00002578 	rdprs	zero,zero,149
    2578:	8881800c 	andi	r2,r17,1536
    257c:	12800d1e 	bne	r2,r10,25b4 <__ssvfscanf_r+0xe90>
    2580:	89a2703a 	and	r17,r17,r6
    2584:	8c414014 	ori	r17,r17,1280
    2588:	04000404 	movi	r16,16
    258c:	b8800117 	ldw	r2,4(r23)
    2590:	a1400005 	stb	r5,0(r20)
    2594:	a5000044 	addi	r20,r20,1
    2598:	10bfffc4 	addi	r2,r2,-1
    259c:	b8800115 	stw	r2,4(r23)
    25a0:	00803b0e 	bge	zero,r2,2690 <__ssvfscanf_r+0xf6c>
    25a4:	21000044 	addi	r4,r4,1
    25a8:	b9000015 	stw	r4,0(r23)
    25ac:	e73fffc4 	addi	fp,fp,-1
    25b0:	e03f981e 	bne	fp,zero,2414 <__alt_data_end+0xf8002414>
    25b4:	dc009e15 	stw	r16,632(sp)
    25b8:	8880400c 	andi	r2,r17,256
    25bc:	9021883a 	mov	r16,r18
    25c0:	4825883a 	mov	r18,r9
    25c4:	10000426 	beq	r2,zero,25d8 <__ssvfscanf_r+0xeb4>
    25c8:	d8800104 	addi	r2,sp,4
    25cc:	15017b36 	bltu	r2,r20,2bbc <__ssvfscanf_r+0x1498>
    25d0:	d8c00104 	addi	r3,sp,4
    25d4:	1d3c9626 	beq	r3,r20,1830 <__alt_data_end+0xf8001830>
    25d8:	8880040c 	andi	r2,r17,16
    25dc:	1000a726 	beq	r2,zero,287c <__ssvfscanf_r+0x1158>
    25e0:	dac00104 	addi	r11,sp,4
    25e4:	a2e9c83a 	sub	r20,r20,r11
    25e8:	a429883a 	add	r20,r20,r16
    25ec:	9d27883a 	add	r19,r19,r20
    25f0:	9023883a 	mov	r17,r18
    25f4:	003c8a06 	br	1820 <__alt_data_end+0xf8001820>
    25f8:	00800284 	movi	r2,10
    25fc:	143fed0e 	bge	r2,r16,25b4 <__alt_data_end+0xf80025b4>
    2600:	00bd1fc4 	movi	r2,-2945
    2604:	88a2703a 	and	r17,r17,r2
    2608:	003fe006 	br	258c <__alt_data_end+0xf800258c>
    260c:	02c000b4 	movhi	r11,2
    2610:	8421883a 	add	r16,r16,r16
    2614:	5ae77884 	addi	r11,r11,-25118
    2618:	5c05883a 	add	r2,r11,r16
    261c:	1400000f 	ldh	r16,0(r2)
    2620:	00800204 	movi	r2,8
    2624:	143ff616 	blt	r2,r16,2600 <__alt_data_end+0xf8002600>
    2628:	003fe206 	br	25b4 <__alt_data_end+0xf80025b4>
    262c:	02c000b4 	movhi	r11,2
    2630:	8421883a 	add	r16,r16,r16
    2634:	5ae77884 	addi	r11,r11,-25118
    2638:	5c05883a 	add	r2,r11,r16
    263c:	1400000f 	ldh	r16,0(r2)
    2640:	00bd1fc4 	movi	r2,-2945
    2644:	88a2703a 	and	r17,r17,r2
    2648:	003fd006 	br	258c <__alt_data_end+0xf800258c>
    264c:	8882000c 	andi	r2,r17,2048
    2650:	103fce26 	beq	r2,zero,258c <__alt_data_end+0xf800258c>
    2654:	8000021e 	bne	r16,zero,2660 <__ssvfscanf_r+0xf3c>
    2658:	8c408014 	ori	r17,r17,512
    265c:	04000204 	movi	r16,8
    2660:	8881000c 	andi	r2,r17,1024
    2664:	1000ef1e 	bne	r2,zero,2a24 <__ssvfscanf_r+0x1300>
    2668:	00bf1fc4 	movi	r2,-897
    266c:	88a2703a 	and	r17,r17,r2
    2670:	38000226 	beq	r7,zero,267c <__ssvfscanf_r+0xf58>
    2674:	39ffffc4 	addi	r7,r7,-1
    2678:	e7000044 	addi	fp,fp,1
    267c:	b8800117 	ldw	r2,4(r23)
    2680:	94800044 	addi	r18,r18,1
    2684:	10bfffc4 	addi	r2,r2,-1
    2688:	b8800115 	stw	r2,4(r23)
    268c:	00bfc516 	blt	zero,r2,25a4 <__alt_data_end+0xf80025a4>
    2690:	b009883a 	mov	r4,r22
    2694:	b80b883a 	mov	r5,r23
    2698:	d8c0aa15 	stw	r3,680(sp)
    269c:	d980a615 	stw	r6,664(sp)
    26a0:	d9c0a815 	stw	r7,672(sp)
    26a4:	da00a915 	stw	r8,676(sp)
    26a8:	da40a715 	stw	r9,668(sp)
    26ac:	da80a515 	stw	r10,660(sp)
    26b0:	000ca180 	call	ca18 <__ssrefill_r>
    26b4:	d8c0aa17 	ldw	r3,680(sp)
    26b8:	d980a617 	ldw	r6,664(sp)
    26bc:	d9c0a817 	ldw	r7,672(sp)
    26c0:	da00a917 	ldw	r8,676(sp)
    26c4:	da40a717 	ldw	r9,668(sp)
    26c8:	da80a517 	ldw	r10,660(sp)
    26cc:	103fb726 	beq	r2,zero,25ac <__alt_data_end+0xf80025ac>
    26d0:	003fb806 	br	25b4 <__alt_data_end+0xf80025b4>
    26d4:	8880200c 	andi	r2,r17,128
    26d8:	103fb626 	beq	r2,zero,25b4 <__alt_data_end+0xf80025b4>
    26dc:	88e2703a 	and	r17,r17,r3
    26e0:	003faa06 	br	258c <__alt_data_end+0xf800258c>
    26e4:	b009883a 	mov	r4,r22
    26e8:	b80b883a 	mov	r5,r23
    26ec:	d8c0aa15 	stw	r3,680(sp)
    26f0:	da00a915 	stw	r8,676(sp)
    26f4:	dac0a515 	stw	r11,660(sp)
    26f8:	000ca180 	call	ca18 <__ssrefill_r>
    26fc:	d8c0aa17 	ldw	r3,680(sp)
    2700:	da00a917 	ldw	r8,676(sp)
    2704:	dac0a517 	ldw	r11,660(sp)
    2708:	103d8b1e 	bne	r2,zero,1d38 <__alt_data_end+0xf8001d38>
    270c:	803d0a1e 	bne	r16,zero,1b38 <__alt_data_end+0xf8001b38>
    2710:	003d8906 	br	1d38 <__alt_data_end+0xf8001d38>
    2714:	00bfbfc4 	movi	r2,-257
    2718:	80a0703a 	and	r16,r16,r2
    271c:	003d8c06 	br	1d50 <__alt_data_end+0xf8001d50>
    2720:	000f883a 	mov	r7,zero
    2724:	003f3106 	br	23ec <__alt_data_end+0xf80023ec>
    2728:	d800a315 	stw	zero,652(sp)
    272c:	003cf306 	br	1afc <__alt_data_end+0xf8001afc>
    2730:	dac09c17 	ldw	r11,624(sp)
    2734:	e0ffffc4 	addi	r3,fp,-1
    2738:	dc405884 	addi	r17,sp,354
    273c:	5c000017 	ldw	r16,0(r11)
    2740:	5a000104 	addi	r8,r11,4
    2744:	da009c15 	stw	r8,624(sp)
    2748:	800b883a 	mov	r5,r16
    274c:	80e9883a 	add	r20,r16,r3
    2750:	00000106 	br	2758 <__ssvfscanf_r+0x1034>
    2754:	e00b883a 	mov	r5,fp
    2758:	b8c00017 	ldw	r3,0(r23)
    275c:	280d883a 	mov	r6,r5
    2760:	18800003 	ldbu	r2,0(r3)
    2764:	8885883a 	add	r2,r17,r2
    2768:	10800007 	ldb	r2,0(r2)
    276c:	1000f626 	beq	r2,zero,2b48 <__ssvfscanf_r+0x1424>
    2770:	b8800117 	ldw	r2,4(r23)
    2774:	19c00044 	addi	r7,r3,1
    2778:	b9c00015 	stw	r7,0(r23)
    277c:	10bfffc4 	addi	r2,r2,-1
    2780:	b8800115 	stw	r2,4(r23)
    2784:	18800003 	ldbu	r2,0(r3)
    2788:	37000044 	addi	fp,r6,1
    278c:	28800005 	stb	r2,0(r5)
    2790:	3500e426 	beq	r6,r20,2b24 <__ssvfscanf_r+0x1400>
    2794:	b8800117 	ldw	r2,4(r23)
    2798:	00bfee16 	blt	zero,r2,2754 <__alt_data_end+0xf8002754>
    279c:	b009883a 	mov	r4,r22
    27a0:	b80b883a 	mov	r5,r23
    27a4:	000ca180 	call	ca18 <__ssrefill_r>
    27a8:	103fea26 	beq	r2,zero,2754 <__alt_data_end+0xf8002754>
    27ac:	e009883a 	mov	r4,fp
    27b0:	8700dd1e 	bne	r16,fp,2b28 <__ssvfscanf_r+0x1404>
    27b4:	003e3006 	br	2078 <__alt_data_end+0xf8002078>
    27b8:	da009c17 	ldw	r8,624(sp)
    27bc:	e0ffffc4 	addi	r3,fp,-1
    27c0:	44400017 	ldw	r17,0(r8)
    27c4:	42c00104 	addi	r11,r8,4
    27c8:	dac09c15 	stw	r11,624(sp)
    27cc:	88e9883a 	add	r20,r17,r3
    27d0:	880b883a 	mov	r5,r17
    27d4:	00000106 	br	27dc <__ssvfscanf_r+0x10b8>
    27d8:	800b883a 	mov	r5,r16
    27dc:	b8c00017 	ldw	r3,0(r23)
    27e0:	a9800017 	ldw	r6,0(r21)
    27e4:	18800003 	ldbu	r2,0(r3)
    27e8:	3085883a 	add	r2,r6,r2
    27ec:	10800043 	ldbu	r2,1(r2)
    27f0:	1080020c 	andi	r2,r2,8
    27f4:	1000ea1e 	bne	r2,zero,2ba0 <__ssvfscanf_r+0x147c>
    27f8:	b8800117 	ldw	r2,4(r23)
    27fc:	19800044 	addi	r6,r3,1
    2800:	b9800015 	stw	r6,0(r23)
    2804:	10bfffc4 	addi	r2,r2,-1
    2808:	b8800115 	stw	r2,4(r23)
    280c:	18800003 	ldbu	r2,0(r3)
    2810:	2c000044 	addi	r16,r5,1
    2814:	8039883a 	mov	fp,r16
    2818:	28800005 	stb	r2,0(r5)
    281c:	2d000626 	beq	r5,r20,2838 <__ssvfscanf_r+0x1114>
    2820:	b8800117 	ldw	r2,4(r23)
    2824:	00bfec16 	blt	zero,r2,27d8 <__alt_data_end+0xf80027d8>
    2828:	b009883a 	mov	r4,r22
    282c:	b80b883a 	mov	r5,r23
    2830:	000ca180 	call	ca18 <__ssrefill_r>
    2834:	103fe826 	beq	r2,zero,27d8 <__alt_data_end+0xf80027d8>
    2838:	da009f17 	ldw	r8,636(sp)
    283c:	e463c83a 	sub	r17,fp,r17
    2840:	9c67883a 	add	r19,r19,r17
    2844:	42000044 	addi	r8,r8,1
    2848:	e0000005 	stb	zero,0(fp)
    284c:	da009f15 	stw	r8,636(sp)
    2850:	9023883a 	mov	r17,r18
    2854:	003bf206 	br	1820 <__alt_data_end+0xf8001820>
    2858:	014000c4 	movi	r5,3
    285c:	117db026 	beq	r2,r5,1f20 <__alt_data_end+0xf8001f20>
    2860:	01400144 	movi	r5,5
    2864:	117dae26 	beq	r2,r5,1f20 <__alt_data_end+0xf8001f20>
    2868:	003d3306 	br	1d38 <__alt_data_end+0xf8001d38>
    286c:	00800084 	movi	r2,2
    2870:	a0bda41e 	bne	r20,r2,1f04 <__alt_data_end+0xf8001f04>
    2874:	050000c4 	movi	r20,3
    2878:	003d2406 	br	1d0c <__alt_data_end+0xf8001d0c>
    287c:	d9c09e17 	ldw	r7,632(sp)
    2880:	da00a017 	ldw	r8,640(sp)
    2884:	b009883a 	mov	r4,r22
    2888:	d9400104 	addi	r5,sp,4
    288c:	000d883a 	mov	r6,zero
    2890:	a0000005 	stb	zero,0(r20)
    2894:	403ee83a 	callr	r8
    2898:	88c0080c 	andi	r3,r17,32
    289c:	18008226 	beq	r3,zero,2aa8 <__ssvfscanf_r+0x1384>
    28a0:	dac09c17 	ldw	r11,624(sp)
    28a4:	58c00017 	ldw	r3,0(r11)
    28a8:	5ac00104 	addi	r11,r11,4
    28ac:	dac09c15 	stw	r11,624(sp)
    28b0:	18800015 	stw	r2,0(r3)
    28b4:	da009f17 	ldw	r8,636(sp)
    28b8:	42000044 	addi	r8,r8,1
    28bc:	da009f15 	stw	r8,636(sp)
    28c0:	003f4706 	br	25e0 <__alt_data_end+0xf80025e0>
    28c4:	d8c09904 	addi	r3,sp,612
    28c8:	8400040c 	andi	r16,r16,16
    28cc:	1809883a 	mov	r4,r3
    28d0:	000b883a 	mov	r5,zero
    28d4:	01800204 	movi	r6,8
    28d8:	d8c09d15 	stw	r3,628(sp)
    28dc:	0008a580 	call	8a58 <memset>
    28e0:	80006c26 	beq	r16,zero,2a94 <__ssvfscanf_r+0x1370>
    28e4:	dc409b04 	addi	r17,sp,620
    28e8:	0007883a 	mov	r3,zero
    28ec:	dc80a115 	stw	r18,644(sp)
    28f0:	8025883a 	mov	r18,r16
    28f4:	1821883a 	mov	r16,r3
    28f8:	b8800017 	ldw	r2,0(r23)
    28fc:	a8c00017 	ldw	r3,0(r21)
    2900:	10800003 	ldbu	r2,0(r2)
    2904:	1885883a 	add	r2,r3,r2
    2908:	10800043 	ldbu	r2,1(r2)
    290c:	1080020c 	andi	r2,r2,8
    2910:	1000011e 	bne	r2,zero,2918 <__ssvfscanf_r+0x11f4>
    2914:	e000f51e 	bne	fp,zero,2cec <__ssvfscanf_r+0x15c8>
    2918:	9021883a 	mov	r16,r18
    291c:	dc80a117 	ldw	r18,644(sp)
    2920:	803bbe1e 	bne	r16,zero,181c <__alt_data_end+0xf800181c>
    2924:	dac09f17 	ldw	r11,636(sp)
    2928:	88000015 	stw	zero,0(r17)
    292c:	9023883a 	mov	r17,r18
    2930:	5ac00044 	addi	r11,r11,1
    2934:	dac09f15 	stw	r11,636(sp)
    2938:	003bb906 	br	1820 <__alt_data_end+0xf8001820>
    293c:	dac09904 	addi	r11,sp,612
    2940:	8400040c 	andi	r16,r16,16
    2944:	5809883a 	mov	r4,r11
    2948:	000b883a 	mov	r5,zero
    294c:	01800204 	movi	r6,8
    2950:	dc00a115 	stw	r16,644(sp)
    2954:	dac09d15 	stw	r11,628(sp)
    2958:	0008a580 	call	8a58 <memset>
    295c:	dc00a117 	ldw	r16,644(sp)
    2960:	80004726 	beq	r16,zero,2a80 <__ssvfscanf_r+0x135c>
    2964:	0023883a 	mov	r17,zero
    2968:	dc00a117 	ldw	r16,644(sp)
    296c:	0029883a 	mov	r20,zero
    2970:	dc80a215 	stw	r18,648(sp)
    2974:	0007a8c0 	call	7a8c <__locale_mb_cur_max>
    2978:	153dbf26 	beq	r2,r20,2078 <__alt_data_end+0xf8002078>
    297c:	b8800017 	ldw	r2,0(r23)
    2980:	b9000117 	ldw	r4,4(r23)
    2984:	d8c09d17 	ldw	r3,628(sp)
    2988:	12400003 	ldbu	r9,0(r2)
    298c:	213fffc4 	addi	r4,r4,-1
    2990:	10800044 	addi	r2,r2,1
    2994:	dac00104 	addi	r11,sp,4
    2998:	b9000115 	stw	r4,4(r23)
    299c:	b8800015 	stw	r2,0(r23)
    29a0:	a4800044 	addi	r18,r20,1
    29a4:	d8c00015 	stw	r3,0(sp)
    29a8:	5d29883a 	add	r20,r11,r20
    29ac:	b009883a 	mov	r4,r22
    29b0:	880b883a 	mov	r5,r17
    29b4:	580d883a 	mov	r6,r11
    29b8:	900f883a 	mov	r7,r18
    29bc:	a2400005 	stb	r9,0(r20)
    29c0:	00084a00 	call	84a0 <_mbrtowc_r>
    29c4:	013fffc4 	movi	r4,-1
    29c8:	113dab26 	beq	r2,r4,2078 <__alt_data_end+0xf8002078>
    29cc:	10004f1e 	bne	r2,zero,2b0c <__ssvfscanf_r+0x13e8>
    29d0:	8000011e 	bne	r16,zero,29d8 <__ssvfscanf_r+0x12b4>
    29d4:	88000015 	stw	zero,0(r17)
    29d8:	9ca7883a 	add	r19,r19,r18
    29dc:	e73fffc4 	addi	fp,fp,-1
    29e0:	80004e1e 	bne	r16,zero,2b1c <__ssvfscanf_r+0x13f8>
    29e4:	8c400104 	addi	r17,r17,4
    29e8:	0029883a 	mov	r20,zero
    29ec:	b8800117 	ldw	r2,4(r23)
    29f0:	00801c0e 	bge	zero,r2,2a64 <__ssvfscanf_r+0x1340>
    29f4:	e03fdf1e 	bne	fp,zero,2974 <__alt_data_end+0xf8002974>
    29f8:	dc80a217 	ldw	r18,648(sp)
    29fc:	da00a117 	ldw	r8,644(sp)
    2a00:	403d1e26 	beq	r8,zero,1e7c <__alt_data_end+0xf8001e7c>
    2a04:	003b8506 	br	181c <__alt_data_end+0xf800181c>
    2a08:	da009c17 	ldw	r8,624(sp)
    2a0c:	40800017 	ldw	r2,0(r8)
    2a10:	42000104 	addi	r8,r8,4
    2a14:	da009c15 	stw	r8,624(sp)
    2a18:	14400015 	stw	r17,0(r2)
    2a1c:	10c00115 	stw	r3,4(r2)
    2a20:	003d1606 	br	1e7c <__alt_data_end+0xf8001e7c>
    2a24:	00be9fc4 	movi	r2,-1409
    2a28:	88a2703a 	and	r17,r17,r2
    2a2c:	003ed706 	br	258c <__alt_data_end+0xf800258c>
    2a30:	8821883a 	mov	r16,r17
    2a34:	00bfbfc4 	movi	r2,-257
    2a38:	9023883a 	mov	r17,r18
    2a3c:	e00f883a 	mov	r7,fp
    2a40:	4025883a 	mov	r18,r8
    2a44:	80a0703a 	and	r16,r16,r2
    2a48:	003cc106 	br	1d50 <__alt_data_end+0xf8001d50>
    2a4c:	8941c00c 	andi	r5,r17,1792
    2a50:	0081c004 	movi	r2,1792
    2a54:	28bd2b1e 	bne	r5,r2,1f04 <__alt_data_end+0xf8001f04>
    2a58:	88e2703a 	and	r17,r17,r3
    2a5c:	05000044 	movi	r20,1
    2a60:	003caa06 	br	1d0c <__alt_data_end+0xf8001d0c>
    2a64:	b009883a 	mov	r4,r22
    2a68:	b80b883a 	mov	r5,r23
    2a6c:	000ca180 	call	ca18 <__ssrefill_r>
    2a70:	103fe026 	beq	r2,zero,29f4 <__alt_data_end+0xf80029f4>
    2a74:	dc80a217 	ldw	r18,648(sp)
    2a78:	a03fe026 	beq	r20,zero,29fc <__alt_data_end+0xf80029fc>
    2a7c:	003d7e06 	br	2078 <__alt_data_end+0xf8002078>
    2a80:	da009c17 	ldw	r8,624(sp)
    2a84:	44400017 	ldw	r17,0(r8)
    2a88:	42000104 	addi	r8,r8,4
    2a8c:	da009c15 	stw	r8,624(sp)
    2a90:	003fb506 	br	2968 <__alt_data_end+0xf8002968>
    2a94:	da009c17 	ldw	r8,624(sp)
    2a98:	44400017 	ldw	r17,0(r8)
    2a9c:	42000104 	addi	r8,r8,4
    2aa0:	da009c15 	stw	r8,624(sp)
    2aa4:	003f9006 	br	28e8 <__alt_data_end+0xf80028e8>
    2aa8:	88c0010c 	andi	r3,r17,4
    2aac:	18006726 	beq	r3,zero,2c4c <__ssvfscanf_r+0x1528>
    2ab0:	da009c17 	ldw	r8,624(sp)
    2ab4:	40c00017 	ldw	r3,0(r8)
    2ab8:	42000104 	addi	r8,r8,4
    2abc:	da009c15 	stw	r8,624(sp)
    2ac0:	1880000d 	sth	r2,0(r3)
    2ac4:	003f7b06 	br	28b4 <__alt_data_end+0xf80028b4>
    2ac8:	da00a417 	ldw	r8,656(sp)
    2acc:	000d883a 	mov	r6,zero
    2ad0:	01c00284 	movi	r7,10
    2ad4:	b009883a 	mov	r4,r22
    2ad8:	41400044 	addi	r5,r8,1
    2adc:	000bd880 	call	bd88 <_strtol_r>
    2ae0:	dac0a217 	ldw	r11,648(sp)
    2ae4:	d9c0a417 	ldw	r7,656(sp)
    2ae8:	12cdc83a 	sub	r6,r2,r11
    2aec:	d88055c4 	addi	r2,sp,343
    2af0:	38800136 	bltu	r7,r2,2af8 <__ssvfscanf_r+0x13d4>
    2af4:	d9c05584 	addi	r7,sp,342
    2af8:	014000b4 	movhi	r5,2
    2afc:	29677704 	addi	r5,r5,-25124
    2b00:	3809883a 	mov	r4,r7
    2b04:	000a6180 	call	a618 <sprintf>
    2b08:	003ccd06 	br	1e40 <__alt_data_end+0xf8001e40>
    2b0c:	017fff84 	movi	r5,-2
    2b10:	117fb11e 	bne	r2,r5,29d8 <__alt_data_end+0xf80029d8>
    2b14:	9029883a 	mov	r20,r18
    2b18:	003fb406 	br	29ec <__alt_data_end+0xf80029ec>
    2b1c:	0029883a 	mov	r20,zero
    2b20:	003fb206 	br	29ec <__alt_data_end+0xf80029ec>
    2b24:	e009883a 	mov	r4,fp
    2b28:	2421c83a 	sub	r16,r4,r16
    2b2c:	803b4026 	beq	r16,zero,1830 <__alt_data_end+0xf8001830>
    2b30:	dac09f17 	ldw	r11,636(sp)
    2b34:	20000005 	stb	zero,0(r4)
    2b38:	9c27883a 	add	r19,r19,r16
    2b3c:	5ac00044 	addi	r11,r11,1
    2b40:	dac09f15 	stw	r11,636(sp)
    2b44:	003dea06 	br	22f0 <__alt_data_end+0xf80022f0>
    2b48:	2809883a 	mov	r4,r5
    2b4c:	003ff606 	br	2b28 <__alt_data_end+0xf8002b28>
    2b50:	803d4926 	beq	r16,zero,2078 <__alt_data_end+0xf8002078>
    2b54:	9c27883a 	add	r19,r19,r16
    2b58:	003de506 	br	22f0 <__alt_data_end+0xf80022f0>
    2b5c:	da009c17 	ldw	r8,624(sp)
    2b60:	ddc00015 	stw	r23,0(sp)
    2b64:	b009883a 	mov	r4,r22
    2b68:	41400017 	ldw	r5,0(r8)
    2b6c:	01800044 	movi	r6,1
    2b70:	e00f883a 	mov	r7,fp
    2b74:	000ca880 	call	ca88 <_sfread_r>
    2b78:	dac09c17 	ldw	r11,624(sp)
    2b7c:	58c00104 	addi	r3,r11,4
    2b80:	103d3d26 	beq	r2,zero,2078 <__alt_data_end+0xf8002078>
    2b84:	da009f17 	ldw	r8,636(sp)
    2b88:	14e7883a 	add	r19,r2,r19
    2b8c:	d8c09c15 	stw	r3,624(sp)
    2b90:	42000044 	addi	r8,r8,1
    2b94:	da009f15 	stw	r8,636(sp)
    2b98:	9023883a 	mov	r17,r18
    2b9c:	003b2006 	br	1820 <__alt_data_end+0xf8001820>
    2ba0:	2839883a 	mov	fp,r5
    2ba4:	003f2406 	br	2838 <__alt_data_end+0xf8002838>
    2ba8:	b009883a 	mov	r4,r22
    2bac:	b80b883a 	mov	r5,r23
    2bb0:	000ca180 	call	ca18 <__ssrefill_r>
    2bb4:	103bad26 	beq	r2,zero,1a6c <__alt_data_end+0xf8001a6c>
    2bb8:	003d2f06 	br	2078 <__alt_data_end+0xf8002078>
    2bbc:	a17fffc7 	ldb	r5,-1(r20)
    2bc0:	b009883a 	mov	r4,r22
    2bc4:	b80d883a 	mov	r6,r23
    2bc8:	a53fffc4 	addi	r20,r20,-1
    2bcc:	000c9200 	call	c920 <_sungetc_r>
    2bd0:	003e7f06 	br	25d0 <__alt_data_end+0xf80025d0>
    2bd4:	90c00083 	ldbu	r3,2(r18)
    2bd8:	84000094 	ori	r16,r16,2
    2bdc:	94800084 	addi	r18,r18,2
    2be0:	003b1d06 	br	1858 <__alt_data_end+0xf8001858>
    2be4:	da009d17 	ldw	r8,628(sp)
    2be8:	dac0a117 	ldw	r11,644(sp)
    2bec:	42c5c83a 	sub	r2,r8,r11
    2bf0:	008dc83a 	sub	r6,zero,r2
    2bf4:	103fbd1e 	bne	r2,zero,2aec <__alt_data_end+0xf8002aec>
    2bf8:	003c9106 	br	1e40 <__alt_data_end+0xf8001e40>
    2bfc:	80e0b03a 	or	r16,r16,r3
    2c00:	003d3d06 	br	20f8 <__alt_data_end+0xf80020f8>
    2c04:	8080004c 	andi	r2,r16,1
    2c08:	10000a1e 	bne	r2,zero,2c34 <__ssvfscanf_r+0x1510>
    2c0c:	8400008c 	andi	r16,r16,2
    2c10:	80000826 	beq	r16,zero,2c34 <__ssvfscanf_r+0x1510>
    2c14:	dac09c17 	ldw	r11,624(sp)
    2c18:	9807d7fa 	srai	r3,r19,31
    2c1c:	58800017 	ldw	r2,0(r11)
    2c20:	5ac00104 	addi	r11,r11,4
    2c24:	dac09c15 	stw	r11,624(sp)
    2c28:	14c00015 	stw	r19,0(r2)
    2c2c:	10c00115 	stw	r3,4(r2)
    2c30:	003afa06 	br	181c <__alt_data_end+0xf800181c>
    2c34:	da009c17 	ldw	r8,624(sp)
    2c38:	40800017 	ldw	r2,0(r8)
    2c3c:	42000104 	addi	r8,r8,4
    2c40:	da009c15 	stw	r8,624(sp)
    2c44:	14c00015 	stw	r19,0(r2)
    2c48:	003af406 	br	181c <__alt_data_end+0xf800181c>
    2c4c:	88c0004c 	andi	r3,r17,1
    2c50:	183f131e 	bne	r3,zero,28a0 <__alt_data_end+0xf80028a0>
    2c54:	88c0008c 	andi	r3,r17,2
    2c58:	183f1126 	beq	r3,zero,28a0 <__alt_data_end+0xf80028a0>
    2c5c:	da00a017 	ldw	r8,640(sp)
    2c60:	02c00074 	movhi	r11,1
    2c64:	5af0c804 	addi	r11,r11,-15584
    2c68:	b009883a 	mov	r4,r22
    2c6c:	d9400104 	addi	r5,sp,4
    2c70:	000d883a 	mov	r6,zero
    2c74:	d9c09e17 	ldw	r7,632(sp)
    2c78:	42c08226 	beq	r8,r11,2e84 <__ssvfscanf_r+0x1760>
    2c7c:	000c00c0 	call	c00c <_strtoll_r>
    2c80:	da009c17 	ldw	r8,624(sp)
    2c84:	41000017 	ldw	r4,0(r8)
    2c88:	42000104 	addi	r8,r8,4
    2c8c:	da009c15 	stw	r8,624(sp)
    2c90:	20800015 	stw	r2,0(r4)
    2c94:	20c00115 	stw	r3,4(r4)
    2c98:	003f0606 	br	28b4 <__alt_data_end+0xf80028b4>
    2c9c:	da009c17 	ldw	r8,624(sp)
    2ca0:	180b883a 	mov	r5,r3
    2ca4:	8809883a 	mov	r4,r17
    2ca8:	45000017 	ldw	r20,0(r8)
    2cac:	44000104 	addi	r16,r8,4
    2cb0:	d8c0aa15 	stw	r3,680(sp)
    2cb4:	000a4300 	call	a430 <__fpclassifyd>
    2cb8:	d8c0aa17 	ldw	r3,680(sp)
    2cbc:	10000626 	beq	r2,zero,2cd8 <__ssvfscanf_r+0x15b4>
    2cc0:	8809883a 	mov	r4,r17
    2cc4:	180b883a 	mov	r5,r3
    2cc8:	0016e800 	call	16e80 <__truncdfsf2>
    2ccc:	a0800015 	stw	r2,0(r20)
    2cd0:	dc009c15 	stw	r16,624(sp)
    2cd4:	003c6906 	br	1e7c <__alt_data_end+0xf8001e7c>
    2cd8:	0009883a 	mov	r4,zero
    2cdc:	000a5b80 	call	a5b8 <nanf>
    2ce0:	a0800015 	stw	r2,0(r20)
    2ce4:	dc009c15 	stw	r16,624(sp)
    2ce8:	003c6406 	br	1e7c <__alt_data_end+0xf8001e7c>
    2cec:	0007a8c0 	call	7a8c <__locale_mb_cur_max>
    2cf0:	143ce126 	beq	r2,r16,2078 <__alt_data_end+0xf8002078>
    2cf4:	b8800017 	ldw	r2,0(r23)
    2cf8:	b9000117 	ldw	r4,4(r23)
    2cfc:	d8c09d17 	ldw	r3,628(sp)
    2d00:	12000003 	ldbu	r8,0(r2)
    2d04:	213fffc4 	addi	r4,r4,-1
    2d08:	10800044 	addi	r2,r2,1
    2d0c:	dac00104 	addi	r11,sp,4
    2d10:	b9000115 	stw	r4,4(r23)
    2d14:	b8800015 	stw	r2,0(r23)
    2d18:	85000044 	addi	r20,r16,1
    2d1c:	d8c00015 	stw	r3,0(sp)
    2d20:	5c21883a 	add	r16,r11,r16
    2d24:	b009883a 	mov	r4,r22
    2d28:	880b883a 	mov	r5,r17
    2d2c:	580d883a 	mov	r6,r11
    2d30:	a00f883a 	mov	r7,r20
    2d34:	82000005 	stb	r8,0(r16)
    2d38:	00084a00 	call	84a0 <_mbrtowc_r>
    2d3c:	013fffc4 	movi	r4,-1
    2d40:	113ccd26 	beq	r2,r4,2078 <__alt_data_end+0xf8002078>
    2d44:	1000131e 	bne	r2,zero,2d94 <__ssvfscanf_r+0x1670>
    2d48:	88000015 	stw	zero,0(r17)
    2d4c:	0009883a 	mov	r4,zero
    2d50:	00079d40 	call	79d4 <iswspace>
    2d54:	10001d26 	beq	r2,zero,2dcc <__ssvfscanf_r+0x16a8>
    2d58:	9021883a 	mov	r16,r18
    2d5c:	dc80a117 	ldw	r18,644(sp)
    2d60:	a03eef26 	beq	r20,zero,2920 <__alt_data_end+0xf8002920>
    2d64:	a53fffc4 	addi	r20,r20,-1
    2d68:	da000104 	addi	r8,sp,4
    2d6c:	4505883a 	add	r2,r8,r20
    2d70:	11400003 	ldbu	r5,0(r2)
    2d74:	b009883a 	mov	r4,r22
    2d78:	b80d883a 	mov	r6,r23
    2d7c:	000c9200 	call	c920 <_sungetc_r>
    2d80:	a03ff81e 	bne	r20,zero,2d64 <__alt_data_end+0xf8002d64>
    2d84:	003ee606 	br	2920 <__alt_data_end+0xf8002920>
    2d88:	88e2703a 	and	r17,r17,r3
    2d8c:	04800044 	movi	r18,1
    2d90:	003bde06 	br	1d0c <__alt_data_end+0xf8001d0c>
    2d94:	017fff84 	movi	r5,-2
    2d98:	1140121e 	bne	r2,r5,2de4 <__ssvfscanf_r+0x16c0>
    2d9c:	a021883a 	mov	r16,r20
    2da0:	b8800117 	ldw	r2,4(r23)
    2da4:	00bed416 	blt	zero,r2,28f8 <__alt_data_end+0xf80028f8>
    2da8:	b009883a 	mov	r4,r22
    2dac:	b80b883a 	mov	r5,r23
    2db0:	000ca180 	call	ca18 <__ssrefill_r>
    2db4:	103ed026 	beq	r2,zero,28f8 <__alt_data_end+0xf80028f8>
    2db8:	8007883a 	mov	r3,r16
    2dbc:	9021883a 	mov	r16,r18
    2dc0:	dc80a117 	ldw	r18,644(sp)
    2dc4:	183cac1e 	bne	r3,zero,2078 <__alt_data_end+0xf8002078>
    2dc8:	003ed506 	br	2920 <__alt_data_end+0xf8002920>
    2dcc:	9d27883a 	add	r19,r19,r20
    2dd0:	e73fffc4 	addi	fp,fp,-1
    2dd4:	9000051e 	bne	r18,zero,2dec <__ssvfscanf_r+0x16c8>
    2dd8:	8c400104 	addi	r17,r17,4
    2ddc:	0021883a 	mov	r16,zero
    2de0:	003fef06 	br	2da0 <__alt_data_end+0xf8002da0>
    2de4:	89000017 	ldw	r4,0(r17)
    2de8:	003fd906 	br	2d50 <__alt_data_end+0xf8002d50>
    2dec:	0021883a 	mov	r16,zero
    2df0:	003feb06 	br	2da0 <__alt_data_end+0xf8002da0>
    2df4:	d9000104 	addi	r4,sp,4
    2df8:	b839883a 	mov	fp,r23
    2dfc:	3821883a 	mov	r16,r7
    2e00:	21fa8b2e 	bgeu	r4,r7,1830 <__alt_data_end+0xf8001830>
    2e04:	843fffc4 	addi	r16,r16,-1
    2e08:	81400007 	ldb	r5,0(r16)
    2e0c:	b009883a 	mov	r4,r22
    2e10:	e00d883a 	mov	r6,fp
    2e14:	000c9200 	call	c920 <_sungetc_r>
    2e18:	d9400104 	addi	r5,sp,4
    2e1c:	817ff91e 	bne	r16,r5,2e04 <__alt_data_end+0xf8002e04>
    2e20:	003a8306 	br	1830 <__alt_data_end+0xf8001830>
    2e24:	da000104 	addi	r8,sp,4
    2e28:	b839883a 	mov	fp,r23
    2e2c:	3821883a 	mov	r16,r7
    2e30:	41fa7f2e 	bgeu	r8,r7,1830 <__alt_data_end+0xf8001830>
    2e34:	843fffc4 	addi	r16,r16,-1
    2e38:	81400007 	ldb	r5,0(r16)
    2e3c:	b009883a 	mov	r4,r22
    2e40:	e00d883a 	mov	r6,fp
    2e44:	000c9200 	call	c920 <_sungetc_r>
    2e48:	dac00104 	addi	r11,sp,4
    2e4c:	82fff91e 	bne	r16,r11,2e34 <__alt_data_end+0xf8002e34>
    2e50:	003a7706 	br	1830 <__alt_data_end+0xf8001830>
    2e54:	d8800104 	addi	r2,sp,4
    2e58:	b839883a 	mov	fp,r23
    2e5c:	382f883a 	mov	r23,r7
    2e60:	11fa732e 	bgeu	r2,r7,1830 <__alt_data_end+0xf8001830>
    2e64:	bdffffc4 	addi	r23,r23,-1
    2e68:	b9400007 	ldb	r5,0(r23)
    2e6c:	b009883a 	mov	r4,r22
    2e70:	e00d883a 	mov	r6,fp
    2e74:	000c9200 	call	c920 <_sungetc_r>
    2e78:	d8c00104 	addi	r3,sp,4
    2e7c:	b8fff91e 	bne	r23,r3,2e64 <__alt_data_end+0xf8002e64>
    2e80:	003a6b06 	br	1830 <__alt_data_end+0xf8001830>
    2e84:	000c5cc0 	call	c5cc <_strtoull_r>
    2e88:	003f7d06 	br	2c80 <__alt_data_end+0xf8002c80>

00002e8c <___vfprintf_internal_r>:
    2e8c:	defeb604 	addi	sp,sp,-1320
    2e90:	dfc14915 	stw	ra,1316(sp)
    2e94:	ddc14715 	stw	r23,1308(sp)
    2e98:	dd814615 	stw	r22,1304(sp)
    2e9c:	282f883a 	mov	r23,r5
    2ea0:	202d883a 	mov	r22,r4
    2ea4:	d9812a15 	stw	r6,1192(sp)
    2ea8:	d9c12d15 	stw	r7,1204(sp)
    2eac:	df014815 	stw	fp,1312(sp)
    2eb0:	dd414515 	stw	r21,1300(sp)
    2eb4:	dd014415 	stw	r20,1296(sp)
    2eb8:	dcc14315 	stw	r19,1292(sp)
    2ebc:	dc814215 	stw	r18,1288(sp)
    2ec0:	dc414115 	stw	r17,1284(sp)
    2ec4:	dc014015 	stw	r16,1280(sp)
    2ec8:	0007ab00 	call	7ab0 <_localeconv_r>
    2ecc:	10800017 	ldw	r2,0(r2)
    2ed0:	1009883a 	mov	r4,r2
    2ed4:	d8813515 	stw	r2,1236(sp)
    2ed8:	000168c0 	call	168c <strlen>
    2edc:	d8813815 	stw	r2,1248(sp)
    2ee0:	b0000226 	beq	r22,zero,2eec <___vfprintf_internal_r+0x60>
    2ee4:	b0800e17 	ldw	r2,56(r22)
    2ee8:	10010426 	beq	r2,zero,32fc <___vfprintf_internal_r+0x470>
    2eec:	b8c0030b 	ldhu	r3,12(r23)
    2ef0:	1908000c 	andi	r4,r3,8192
    2ef4:	1805883a 	mov	r2,r3
    2ef8:	2000071e 	bne	r4,zero,2f18 <___vfprintf_internal_r+0x8c>
    2efc:	b9001917 	ldw	r4,100(r23)
    2f00:	18880014 	ori	r2,r3,8192
    2f04:	00f7ffc4 	movi	r3,-8193
    2f08:	20c8703a 	and	r4,r4,r3
    2f0c:	b880030d 	sth	r2,12(r23)
    2f10:	1007883a 	mov	r3,r2
    2f14:	b9001915 	stw	r4,100(r23)
    2f18:	1100020c 	andi	r4,r2,8
    2f1c:	2000a726 	beq	r4,zero,31bc <___vfprintf_internal_r+0x330>
    2f20:	b9000417 	ldw	r4,16(r23)
    2f24:	2000a526 	beq	r4,zero,31bc <___vfprintf_internal_r+0x330>
    2f28:	1080068c 	andi	r2,r2,26
    2f2c:	01000284 	movi	r4,10
    2f30:	1100ab26 	beq	r2,r4,31e0 <___vfprintf_internal_r+0x354>
    2f34:	dac10e04 	addi	r11,sp,1080
    2f38:	db010dc4 	addi	r12,sp,1079
    2f3c:	d8800404 	addi	r2,sp,16
    2f40:	050000b4 	movhi	r20,2
    2f44:	dac12815 	stw	r11,1184(sp)
    2f48:	5b17c83a 	sub	r11,r11,r12
    2f4c:	a5279184 	addi	r20,r20,-25018
    2f50:	db012915 	stw	r12,1188(sp)
    2f54:	d8811e15 	stw	r2,1144(sp)
    2f58:	d8012015 	stw	zero,1152(sp)
    2f5c:	d8011f15 	stw	zero,1148(sp)
    2f60:	d8013315 	stw	zero,1228(sp)
    2f64:	d8013715 	stw	zero,1244(sp)
    2f68:	d8013915 	stw	zero,1252(sp)
    2f6c:	d8013b15 	stw	zero,1260(sp)
    2f70:	d8013a15 	stw	zero,1256(sp)
    2f74:	d8012f15 	stw	zero,1212(sp)
    2f78:	1011883a 	mov	r8,r2
    2f7c:	dac13c15 	stw	r11,1264(sp)
    2f80:	db012a17 	ldw	r12,1192(sp)
    2f84:	60800007 	ldb	r2,0(r12)
    2f88:	1000df26 	beq	r2,zero,3308 <___vfprintf_internal_r+0x47c>
    2f8c:	00c00944 	movi	r3,37
    2f90:	10c0dd26 	beq	r2,r3,3308 <___vfprintf_internal_r+0x47c>
    2f94:	6021883a 	mov	r16,r12
    2f98:	00000106 	br	2fa0 <___vfprintf_internal_r+0x114>
    2f9c:	10c08426 	beq	r2,r3,31b0 <___vfprintf_internal_r+0x324>
    2fa0:	84000044 	addi	r16,r16,1
    2fa4:	80800007 	ldb	r2,0(r16)
    2fa8:	103ffc1e 	bne	r2,zero,2f9c <__alt_data_end+0xf8002f9c>
    2fac:	dac12a17 	ldw	r11,1192(sp)
    2fb0:	82e3c83a 	sub	r17,r16,r11
    2fb4:	88000f26 	beq	r17,zero,2ff4 <___vfprintf_internal_r+0x168>
    2fb8:	d8c12017 	ldw	r3,1152(sp)
    2fbc:	d8811f17 	ldw	r2,1148(sp)
    2fc0:	dac12a17 	ldw	r11,1192(sp)
    2fc4:	1c47883a 	add	r3,r3,r17
    2fc8:	10800044 	addi	r2,r2,1
    2fcc:	d8c12015 	stw	r3,1152(sp)
    2fd0:	42c00015 	stw	r11,0(r8)
    2fd4:	44400115 	stw	r17,4(r8)
    2fd8:	d8811f15 	stw	r2,1148(sp)
    2fdc:	00c001c4 	movi	r3,7
    2fe0:	1880b416 	blt	r3,r2,32b4 <___vfprintf_internal_r+0x428>
    2fe4:	42000204 	addi	r8,r8,8
    2fe8:	db012f17 	ldw	r12,1212(sp)
    2fec:	6459883a 	add	r12,r12,r17
    2ff0:	db012f15 	stw	r12,1212(sp)
    2ff4:	80800007 	ldb	r2,0(r16)
    2ff8:	1000b526 	beq	r2,zero,32d0 <___vfprintf_internal_r+0x444>
    2ffc:	80800044 	addi	r2,r16,1
    3000:	84000047 	ldb	r16,1(r16)
    3004:	d8012785 	stb	zero,1182(sp)
    3008:	000d883a 	mov	r6,zero
    300c:	027fffc4 	movi	r9,-1
    3010:	d8012e15 	stw	zero,1208(sp)
    3014:	0023883a 	mov	r17,zero
    3018:	01001604 	movi	r4,88
    301c:	01400244 	movi	r5,9
    3020:	02800a84 	movi	r10,42
    3024:	01c01b04 	movi	r7,108
    3028:	10c00044 	addi	r3,r2,1
    302c:	80bff804 	addi	r2,r16,-32
    3030:	2082f236 	bltu	r4,r2,3bfc <___vfprintf_internal_r+0xd70>
    3034:	100490ba 	slli	r2,r2,2
    3038:	02c00034 	movhi	r11,0
    303c:	5acc1304 	addi	r11,r11,12364
    3040:	12c5883a 	add	r2,r2,r11
    3044:	10800017 	ldw	r2,0(r2)
    3048:	1000683a 	jmp	r2
    304c:	00003a44 	movi	zero,233
    3050:	00003bfc 	xorhi	zero,zero,239
    3054:	00003bfc 	xorhi	zero,zero,239
    3058:	00003a64 	muli	zero,zero,233
    305c:	00003bfc 	xorhi	zero,zero,239
    3060:	00003bfc 	xorhi	zero,zero,239
    3064:	00003bfc 	xorhi	zero,zero,239
    3068:	00003bfc 	xorhi	zero,zero,239
    306c:	00003bfc 	xorhi	zero,zero,239
    3070:	00003bfc 	xorhi	zero,zero,239
    3074:	00003bc0 	call	3bc <GetInputString+0x7c>
    3078:	00003bec 	andhi	zero,zero,239
    307c:	00003bfc 	xorhi	zero,zero,239
    3080:	00003310 	cmplti	zero,zero,204
    3084:	00003320 	cmpeqi	zero,zero,204
    3088:	00003bfc 	xorhi	zero,zero,239
    308c:	00003360 	cmpeqi	zero,zero,205
    3090:	00003854 	movui	zero,225
    3094:	00003854 	movui	zero,225
    3098:	00003854 	movui	zero,225
    309c:	00003854 	movui	zero,225
    30a0:	00003854 	movui	zero,225
    30a4:	00003854 	movui	zero,225
    30a8:	00003854 	movui	zero,225
    30ac:	00003854 	movui	zero,225
    30b0:	00003854 	movui	zero,225
    30b4:	00003bfc 	xorhi	zero,zero,239
    30b8:	00003bfc 	xorhi	zero,zero,239
    30bc:	00003bfc 	xorhi	zero,zero,239
    30c0:	00003bfc 	xorhi	zero,zero,239
    30c4:	00003bfc 	xorhi	zero,zero,239
    30c8:	00003bfc 	xorhi	zero,zero,239
    30cc:	00003bfc 	xorhi	zero,zero,239
    30d0:	00003bfc 	xorhi	zero,zero,239
    30d4:	00003bfc 	xorhi	zero,zero,239
    30d8:	00003bfc 	xorhi	zero,zero,239
    30dc:	00003888 	cmpgei	zero,zero,226
    30e0:	00003370 	cmpltui	zero,zero,205
    30e4:	00003bfc 	xorhi	zero,zero,239
    30e8:	00003370 	cmpltui	zero,zero,205
    30ec:	00003bfc 	xorhi	zero,zero,239
    30f0:	00003bfc 	xorhi	zero,zero,239
    30f4:	00003bfc 	xorhi	zero,zero,239
    30f8:	00003bfc 	xorhi	zero,zero,239
    30fc:	00003414 	movui	zero,208
    3100:	00003bfc 	xorhi	zero,zero,239
    3104:	00003bfc 	xorhi	zero,zero,239
    3108:	00003424 	muli	zero,zero,208
    310c:	00003bfc 	xorhi	zero,zero,239
    3110:	00003bfc 	xorhi	zero,zero,239
    3114:	00003bfc 	xorhi	zero,zero,239
    3118:	00003bfc 	xorhi	zero,zero,239
    311c:	00003bfc 	xorhi	zero,zero,239
    3120:	00003820 	cmpeqi	zero,zero,224
    3124:	00003bfc 	xorhi	zero,zero,239
    3128:	00003bfc 	xorhi	zero,zero,239
    312c:	000038d0 	cmplti	zero,zero,227
    3130:	00003bfc 	xorhi	zero,zero,239
    3134:	00003bfc 	xorhi	zero,zero,239
    3138:	00003bfc 	xorhi	zero,zero,239
    313c:	00003bfc 	xorhi	zero,zero,239
    3140:	00003bfc 	xorhi	zero,zero,239
    3144:	00003bfc 	xorhi	zero,zero,239
    3148:	00003bfc 	xorhi	zero,zero,239
    314c:	00003bfc 	xorhi	zero,zero,239
    3150:	00003bfc 	xorhi	zero,zero,239
    3154:	00003bfc 	xorhi	zero,zero,239
    3158:	00003ac4 	movi	zero,235
    315c:	00003a74 	movhi	zero,233
    3160:	00003370 	cmpltui	zero,zero,205
    3164:	00003370 	cmpltui	zero,zero,205
    3168:	00003370 	cmpltui	zero,zero,205
    316c:	00003ab4 	movhi	zero,234
    3170:	00003a74 	movhi	zero,233
    3174:	00003bfc 	xorhi	zero,zero,239
    3178:	00003bfc 	xorhi	zero,zero,239
    317c:	000039bc 	xorhi	zero,zero,230
    3180:	00003bfc 	xorhi	zero,zero,239
    3184:	000039d0 	cmplti	zero,zero,231
    3188:	00003a04 	movi	zero,232
    318c:	00003b04 	movi	zero,236
    3190:	0000392c 	andhi	zero,zero,228
    3194:	00003bfc 	xorhi	zero,zero,239
    3198:	00003b4c 	andi	zero,zero,237
    319c:	00003bfc 	xorhi	zero,zero,239
    31a0:	0000393c 	xorhi	zero,zero,228
    31a4:	00003bfc 	xorhi	zero,zero,239
    31a8:	00003bfc 	xorhi	zero,zero,239
    31ac:	0000397c 	xorhi	zero,zero,229
    31b0:	db012a17 	ldw	r12,1192(sp)
    31b4:	8323c83a 	sub	r17,r16,r12
    31b8:	003f7e06 	br	2fb4 <__alt_data_end+0xf8002fb4>
    31bc:	b009883a 	mov	r4,r22
    31c0:	b80b883a 	mov	r5,r23
    31c4:	0004f080 	call	4f08 <__swsetup_r>
    31c8:	10002d1e 	bne	r2,zero,3280 <___vfprintf_internal_r+0x3f4>
    31cc:	b8c0030b 	ldhu	r3,12(r23)
    31d0:	01000284 	movi	r4,10
    31d4:	1805883a 	mov	r2,r3
    31d8:	1080068c 	andi	r2,r2,26
    31dc:	113f551e 	bne	r2,r4,2f34 <__alt_data_end+0xf8002f34>
    31e0:	b880038b 	ldhu	r2,14(r23)
    31e4:	113fffcc 	andi	r4,r2,65535
    31e8:	2120001c 	xori	r4,r4,32768
    31ec:	21200004 	addi	r4,r4,-32768
    31f0:	203f5016 	blt	r4,zero,2f34 <__alt_data_end+0xf8002f34>
    31f4:	bac01917 	ldw	r11,100(r23)
    31f8:	ba800717 	ldw	r10,28(r23)
    31fc:	ba400917 	ldw	r9,36(r23)
    3200:	d9812a17 	ldw	r6,1192(sp)
    3204:	d9c12d17 	ldw	r7,1204(sp)
    3208:	02010004 	movi	r8,1024
    320c:	18ffff4c 	andi	r3,r3,65533
    3210:	d881078d 	sth	r2,1054(sp)
    3214:	b009883a 	mov	r4,r22
    3218:	d8800404 	addi	r2,sp,16
    321c:	d9410404 	addi	r5,sp,1040
    3220:	d8c1070d 	sth	r3,1052(sp)
    3224:	dac11d15 	stw	r11,1140(sp)
    3228:	da810b15 	stw	r10,1068(sp)
    322c:	da410d15 	stw	r9,1076(sp)
    3230:	d8810415 	stw	r2,1040(sp)
    3234:	d8810815 	stw	r2,1056(sp)
    3238:	da010615 	stw	r8,1048(sp)
    323c:	da010915 	stw	r8,1060(sp)
    3240:	d8010a15 	stw	zero,1064(sp)
    3244:	0002e8c0 	call	2e8c <___vfprintf_internal_r>
    3248:	1021883a 	mov	r16,r2
    324c:	10000416 	blt	r2,zero,3260 <___vfprintf_internal_r+0x3d4>
    3250:	b009883a 	mov	r4,r22
    3254:	d9410404 	addi	r5,sp,1040
    3258:	00069b40 	call	69b4 <_fflush_r>
    325c:	1006ee1e 	bne	r2,zero,4e18 <___vfprintf_internal_r+0x1f8c>
    3260:	d881070b 	ldhu	r2,1052(sp)
    3264:	1080100c 	andi	r2,r2,64
    3268:	10000326 	beq	r2,zero,3278 <___vfprintf_internal_r+0x3ec>
    326c:	b880030b 	ldhu	r2,12(r23)
    3270:	10801014 	ori	r2,r2,64
    3274:	b880030d 	sth	r2,12(r23)
    3278:	8005883a 	mov	r2,r16
    327c:	00000106 	br	3284 <___vfprintf_internal_r+0x3f8>
    3280:	00bfffc4 	movi	r2,-1
    3284:	dfc14917 	ldw	ra,1316(sp)
    3288:	df014817 	ldw	fp,1312(sp)
    328c:	ddc14717 	ldw	r23,1308(sp)
    3290:	dd814617 	ldw	r22,1304(sp)
    3294:	dd414517 	ldw	r21,1300(sp)
    3298:	dd014417 	ldw	r20,1296(sp)
    329c:	dcc14317 	ldw	r19,1292(sp)
    32a0:	dc814217 	ldw	r18,1288(sp)
    32a4:	dc414117 	ldw	r17,1284(sp)
    32a8:	dc014017 	ldw	r16,1280(sp)
    32ac:	dec14a04 	addi	sp,sp,1320
    32b0:	f800283a 	ret
    32b4:	b009883a 	mov	r4,r22
    32b8:	b80b883a 	mov	r5,r23
    32bc:	d9811e04 	addi	r6,sp,1144
    32c0:	000ff240 	call	ff24 <__sprint_r>
    32c4:	1000081e 	bne	r2,zero,32e8 <___vfprintf_internal_r+0x45c>
    32c8:	da000404 	addi	r8,sp,16
    32cc:	003f4606 	br	2fe8 <__alt_data_end+0xf8002fe8>
    32d0:	d8812017 	ldw	r2,1152(sp)
    32d4:	10000426 	beq	r2,zero,32e8 <___vfprintf_internal_r+0x45c>
    32d8:	b009883a 	mov	r4,r22
    32dc:	b80b883a 	mov	r5,r23
    32e0:	d9811e04 	addi	r6,sp,1144
    32e4:	000ff240 	call	ff24 <__sprint_r>
    32e8:	b880030b 	ldhu	r2,12(r23)
    32ec:	1080100c 	andi	r2,r2,64
    32f0:	103fe31e 	bne	r2,zero,3280 <__alt_data_end+0xf8003280>
    32f4:	d8812f17 	ldw	r2,1212(sp)
    32f8:	003fe206 	br	3284 <__alt_data_end+0xf8003284>
    32fc:	b009883a 	mov	r4,r22
    3300:	0006f5c0 	call	6f5c <__sinit>
    3304:	003ef906 	br	2eec <__alt_data_end+0xf8002eec>
    3308:	dc012a17 	ldw	r16,1192(sp)
    330c:	003f3906 	br	2ff4 <__alt_data_end+0xf8002ff4>
    3310:	1805883a 	mov	r2,r3
    3314:	8c400114 	ori	r17,r17,4
    3318:	1c000007 	ldb	r16,0(r3)
    331c:	003f4206 	br	3028 <__alt_data_end+0xf8003028>
    3320:	1c000007 	ldb	r16,0(r3)
    3324:	18800044 	addi	r2,r3,1
    3328:	8286b326 	beq	r16,r10,4df8 <___vfprintf_internal_r+0x1f6c>
    332c:	82fff404 	addi	r11,r16,-48
    3330:	1007883a 	mov	r3,r2
    3334:	0013883a 	mov	r9,zero
    3338:	2aff3c36 	bltu	r5,r11,302c <__alt_data_end+0xf800302c>
    333c:	1c000007 	ldb	r16,0(r3)
    3340:	4a4002a4 	muli	r9,r9,10
    3344:	18c00044 	addi	r3,r3,1
    3348:	5a53883a 	add	r9,r11,r9
    334c:	82fff404 	addi	r11,r16,-48
    3350:	2afffa2e 	bgeu	r5,r11,333c <__alt_data_end+0xf800333c>
    3354:	483f350e 	bge	r9,zero,302c <__alt_data_end+0xf800302c>
    3358:	027fffc4 	movi	r9,-1
    335c:	003f3306 	br	302c <__alt_data_end+0xf800302c>
    3360:	8c402014 	ori	r17,r17,128
    3364:	1805883a 	mov	r2,r3
    3368:	1c000007 	ldb	r16,0(r3)
    336c:	003f2e06 	br	3028 <__alt_data_end+0xf8003028>
    3370:	db012d17 	ldw	r12,1204(sp)
    3374:	dac12d17 	ldw	r11,1204(sp)
    3378:	d8c12a15 	stw	r3,1192(sp)
    337c:	63000017 	ldw	r12,0(r12)
    3380:	5ac00117 	ldw	r11,4(r11)
    3384:	d9812785 	stb	r6,1182(sp)
    3388:	6009883a 	mov	r4,r12
    338c:	580b883a 	mov	r5,r11
    3390:	db013715 	stw	r12,1244(sp)
    3394:	da013f15 	stw	r8,1276(sp)
    3398:	da413e15 	stw	r9,1272(sp)
    339c:	dac13915 	stw	r11,1252(sp)
    33a0:	000a4300 	call	a430 <__fpclassifyd>
    33a4:	db012d17 	ldw	r12,1204(sp)
    33a8:	04800044 	movi	r18,1
    33ac:	da013f17 	ldw	r8,1276(sp)
    33b0:	64c00204 	addi	r19,r12,8
    33b4:	da413e17 	ldw	r9,1272(sp)
    33b8:	d9013717 	ldw	r4,1244(sp)
    33bc:	d9413917 	ldw	r5,1252(sp)
    33c0:	1484581e 	bne	r2,r18,4524 <___vfprintf_internal_r+0x1698>
    33c4:	000d883a 	mov	r6,zero
    33c8:	000f883a 	mov	r7,zero
    33cc:	0015bb00 	call	15bb0 <__ledf2>
    33d0:	da013f17 	ldw	r8,1276(sp)
    33d4:	1005ef16 	blt	r2,zero,4b94 <___vfprintf_internal_r+0x1d08>
    33d8:	dd412783 	ldbu	r21,1182(sp)
    33dc:	008011c4 	movi	r2,71
    33e0:	14053b0e 	bge	r2,r16,48d0 <___vfprintf_internal_r+0x1a44>
    33e4:	00c000b4 	movhi	r3,2
    33e8:	18e78204 	addi	r3,r3,-25080
    33ec:	d8c13115 	stw	r3,1220(sp)
    33f0:	02c000c4 	movi	r11,3
    33f4:	00bfdfc4 	movi	r2,-129
    33f8:	dac12b15 	stw	r11,1196(sp)
    33fc:	88a2703a 	and	r17,r17,r2
    3400:	dcc12d15 	stw	r19,1204(sp)
    3404:	5825883a 	mov	r18,r11
    3408:	d8013215 	stw	zero,1224(sp)
    340c:	d8013415 	stw	zero,1232(sp)
    3410:	00003206 	br	34dc <___vfprintf_internal_r+0x650>
    3414:	8c400214 	ori	r17,r17,8
    3418:	1805883a 	mov	r2,r3
    341c:	1c000007 	ldb	r16,0(r3)
    3420:	003f0106 	br	3028 <__alt_data_end+0xf8003028>
    3424:	8c400414 	ori	r17,r17,16
    3428:	d8c12a15 	stw	r3,1192(sp)
    342c:	88c0080c 	andi	r3,r17,32
    3430:	d8812d17 	ldw	r2,1204(sp)
    3434:	18017726 	beq	r3,zero,3a14 <___vfprintf_internal_r+0xb88>
    3438:	db012d17 	ldw	r12,1204(sp)
    343c:	14c00017 	ldw	r19,0(r2)
    3440:	17000117 	ldw	fp,4(r2)
    3444:	63000204 	addi	r12,r12,8
    3448:	db012d15 	stw	r12,1204(sp)
    344c:	0005883a 	mov	r2,zero
    3450:	9f06b03a 	or	r3,r19,fp
    3454:	d8012785 	stb	zero,1182(sp)
    3458:	da413215 	stw	r9,1224(sp)
    345c:	002b883a 	mov	r21,zero
    3460:	48000216 	blt	r9,zero,346c <___vfprintf_internal_r+0x5e0>
    3464:	013fdfc4 	movi	r4,-129
    3468:	8922703a 	and	r17,r17,r4
    346c:	1801ed1e 	bne	r3,zero,3c24 <___vfprintf_internal_r+0xd98>
    3470:	4802e026 	beq	r9,zero,3ff4 <___vfprintf_internal_r+0x1168>
    3474:	10803fcc 	andi	r2,r2,255
    3478:	00c00044 	movi	r3,1
    347c:	10c20f26 	beq	r2,r3,3cbc <___vfprintf_internal_r+0xe30>
    3480:	00c00084 	movi	r3,2
    3484:	10c2fd26 	beq	r2,r3,407c <___vfprintf_internal_r+0x11f0>
    3488:	d8c10e04 	addi	r3,sp,1080
    348c:	9808d0fa 	srli	r4,r19,3
    3490:	e00a977a 	slli	r5,fp,29
    3494:	e038d0fa 	srli	fp,fp,3
    3498:	9cc001cc 	andi	r19,r19,7
    349c:	98800c04 	addi	r2,r19,48
    34a0:	18ffffc4 	addi	r3,r3,-1
    34a4:	2926b03a 	or	r19,r5,r4
    34a8:	18800005 	stb	r2,0(r3)
    34ac:	9f08b03a 	or	r4,r19,fp
    34b0:	203ff61e 	bne	r4,zero,348c <__alt_data_end+0xf800348c>
    34b4:	8900004c 	andi	r4,r17,1
    34b8:	d8c13115 	stw	r3,1220(sp)
    34bc:	2003791e 	bne	r4,zero,42a4 <___vfprintf_internal_r+0x1418>
    34c0:	dac12817 	ldw	r11,1184(sp)
    34c4:	58e5c83a 	sub	r18,r11,r3
    34c8:	9005883a 	mov	r2,r18
    34cc:	9240010e 	bge	r18,r9,34d4 <___vfprintf_internal_r+0x648>
    34d0:	4805883a 	mov	r2,r9
    34d4:	d8812b15 	stw	r2,1196(sp)
    34d8:	d8013415 	stw	zero,1232(sp)
    34dc:	a8803fcc 	andi	r2,r21,255
    34e0:	1080201c 	xori	r2,r2,128
    34e4:	10bfe004 	addi	r2,r2,-128
    34e8:	10000326 	beq	r2,zero,34f8 <___vfprintf_internal_r+0x66c>
    34ec:	db012b17 	ldw	r12,1196(sp)
    34f0:	63000044 	addi	r12,r12,1
    34f4:	db012b15 	stw	r12,1196(sp)
    34f8:	88c0008c 	andi	r3,r17,2
    34fc:	d8c12c15 	stw	r3,1200(sp)
    3500:	18000326 	beq	r3,zero,3510 <___vfprintf_internal_r+0x684>
    3504:	dac12b17 	ldw	r11,1196(sp)
    3508:	5ac00084 	addi	r11,r11,2
    350c:	dac12b15 	stw	r11,1196(sp)
    3510:	8b00210c 	andi	r12,r17,132
    3514:	db013015 	stw	r12,1216(sp)
    3518:	6001c01e 	bne	r12,zero,3c1c <___vfprintf_internal_r+0xd90>
    351c:	dac12e17 	ldw	r11,1208(sp)
    3520:	db012b17 	ldw	r12,1196(sp)
    3524:	5b39c83a 	sub	fp,r11,r12
    3528:	0701bc0e 	bge	zero,fp,3c1c <___vfprintf_internal_r+0xd90>
    352c:	02400404 	movi	r9,16
    3530:	d8c12017 	ldw	r3,1152(sp)
    3534:	d8811f17 	ldw	r2,1148(sp)
    3538:	4f05220e 	bge	r9,fp,49c4 <___vfprintf_internal_r+0x1b38>
    353c:	014000b4 	movhi	r5,2
    3540:	29679584 	addi	r5,r5,-25002
    3544:	d9413615 	stw	r5,1240(sp)
    3548:	482b883a 	mov	r21,r9
    354c:	04c001c4 	movi	r19,7
    3550:	00000306 	br	3560 <___vfprintf_internal_r+0x6d4>
    3554:	e73ffc04 	addi	fp,fp,-16
    3558:	42000204 	addi	r8,r8,8
    355c:	af00130e 	bge	r21,fp,35ac <___vfprintf_internal_r+0x720>
    3560:	02c000b4 	movhi	r11,2
    3564:	18c00404 	addi	r3,r3,16
    3568:	10800044 	addi	r2,r2,1
    356c:	5ae79584 	addi	r11,r11,-25002
    3570:	42c00015 	stw	r11,0(r8)
    3574:	45400115 	stw	r21,4(r8)
    3578:	d8c12015 	stw	r3,1152(sp)
    357c:	d8811f15 	stw	r2,1148(sp)
    3580:	98bff40e 	bge	r19,r2,3554 <__alt_data_end+0xf8003554>
    3584:	b009883a 	mov	r4,r22
    3588:	b80b883a 	mov	r5,r23
    358c:	d9811e04 	addi	r6,sp,1144
    3590:	000ff240 	call	ff24 <__sprint_r>
    3594:	103f541e 	bne	r2,zero,32e8 <__alt_data_end+0xf80032e8>
    3598:	e73ffc04 	addi	fp,fp,-16
    359c:	d8c12017 	ldw	r3,1152(sp)
    35a0:	d8811f17 	ldw	r2,1148(sp)
    35a4:	da000404 	addi	r8,sp,16
    35a8:	af3fed16 	blt	r21,fp,3560 <__alt_data_end+0xf8003560>
    35ac:	db013617 	ldw	r12,1240(sp)
    35b0:	e0c7883a 	add	r3,fp,r3
    35b4:	10800044 	addi	r2,r2,1
    35b8:	43000015 	stw	r12,0(r8)
    35bc:	47000115 	stw	fp,4(r8)
    35c0:	d8c12015 	stw	r3,1152(sp)
    35c4:	d8811f15 	stw	r2,1148(sp)
    35c8:	010001c4 	movi	r4,7
    35cc:	2082f416 	blt	r4,r2,41a0 <___vfprintf_internal_r+0x1314>
    35d0:	d8812787 	ldb	r2,1182(sp)
    35d4:	42000204 	addi	r8,r8,8
    35d8:	10000c26 	beq	r2,zero,360c <___vfprintf_internal_r+0x780>
    35dc:	d8811f17 	ldw	r2,1148(sp)
    35e0:	d9012784 	addi	r4,sp,1182
    35e4:	18c00044 	addi	r3,r3,1
    35e8:	10800044 	addi	r2,r2,1
    35ec:	41000015 	stw	r4,0(r8)
    35f0:	01000044 	movi	r4,1
    35f4:	41000115 	stw	r4,4(r8)
    35f8:	d8c12015 	stw	r3,1152(sp)
    35fc:	d8811f15 	stw	r2,1148(sp)
    3600:	010001c4 	movi	r4,7
    3604:	20828d16 	blt	r4,r2,403c <___vfprintf_internal_r+0x11b0>
    3608:	42000204 	addi	r8,r8,8
    360c:	dac12c17 	ldw	r11,1200(sp)
    3610:	58000c26 	beq	r11,zero,3644 <___vfprintf_internal_r+0x7b8>
    3614:	d8811f17 	ldw	r2,1148(sp)
    3618:	d9012704 	addi	r4,sp,1180
    361c:	18c00084 	addi	r3,r3,2
    3620:	10800044 	addi	r2,r2,1
    3624:	41000015 	stw	r4,0(r8)
    3628:	01000084 	movi	r4,2
    362c:	41000115 	stw	r4,4(r8)
    3630:	d8c12015 	stw	r3,1152(sp)
    3634:	d8811f15 	stw	r2,1148(sp)
    3638:	010001c4 	movi	r4,7
    363c:	20828716 	blt	r4,r2,405c <___vfprintf_internal_r+0x11d0>
    3640:	42000204 	addi	r8,r8,8
    3644:	db013017 	ldw	r12,1216(sp)
    3648:	00802004 	movi	r2,128
    364c:	6081e926 	beq	r12,r2,3df4 <___vfprintf_internal_r+0xf68>
    3650:	db013217 	ldw	r12,1224(sp)
    3654:	64abc83a 	sub	r21,r12,r18
    3658:	0540260e 	bge	zero,r21,36f4 <___vfprintf_internal_r+0x868>
    365c:	07000404 	movi	fp,16
    3660:	d8811f17 	ldw	r2,1148(sp)
    3664:	e5443d0e 	bge	fp,r21,475c <___vfprintf_internal_r+0x18d0>
    3668:	014000b4 	movhi	r5,2
    366c:	29679184 	addi	r5,r5,-25018
    3670:	d9412c15 	stw	r5,1200(sp)
    3674:	04c001c4 	movi	r19,7
    3678:	00000306 	br	3688 <___vfprintf_internal_r+0x7fc>
    367c:	ad7ffc04 	addi	r21,r21,-16
    3680:	42000204 	addi	r8,r8,8
    3684:	e540110e 	bge	fp,r21,36cc <___vfprintf_internal_r+0x840>
    3688:	18c00404 	addi	r3,r3,16
    368c:	10800044 	addi	r2,r2,1
    3690:	45000015 	stw	r20,0(r8)
    3694:	47000115 	stw	fp,4(r8)
    3698:	d8c12015 	stw	r3,1152(sp)
    369c:	d8811f15 	stw	r2,1148(sp)
    36a0:	98bff60e 	bge	r19,r2,367c <__alt_data_end+0xf800367c>
    36a4:	b009883a 	mov	r4,r22
    36a8:	b80b883a 	mov	r5,r23
    36ac:	d9811e04 	addi	r6,sp,1144
    36b0:	000ff240 	call	ff24 <__sprint_r>
    36b4:	103f0c1e 	bne	r2,zero,32e8 <__alt_data_end+0xf80032e8>
    36b8:	ad7ffc04 	addi	r21,r21,-16
    36bc:	d8c12017 	ldw	r3,1152(sp)
    36c0:	d8811f17 	ldw	r2,1148(sp)
    36c4:	da000404 	addi	r8,sp,16
    36c8:	e57fef16 	blt	fp,r21,3688 <__alt_data_end+0xf8003688>
    36cc:	dac12c17 	ldw	r11,1200(sp)
    36d0:	1d47883a 	add	r3,r3,r21
    36d4:	10800044 	addi	r2,r2,1
    36d8:	42c00015 	stw	r11,0(r8)
    36dc:	45400115 	stw	r21,4(r8)
    36e0:	d8c12015 	stw	r3,1152(sp)
    36e4:	d8811f15 	stw	r2,1148(sp)
    36e8:	010001c4 	movi	r4,7
    36ec:	20824b16 	blt	r4,r2,401c <___vfprintf_internal_r+0x1190>
    36f0:	42000204 	addi	r8,r8,8
    36f4:	8880400c 	andi	r2,r17,256
    36f8:	1001761e 	bne	r2,zero,3cd4 <___vfprintf_internal_r+0xe48>
    36fc:	d8811f17 	ldw	r2,1148(sp)
    3700:	db013117 	ldw	r12,1220(sp)
    3704:	1c87883a 	add	r3,r3,r18
    3708:	10800044 	addi	r2,r2,1
    370c:	43000015 	stw	r12,0(r8)
    3710:	44800115 	stw	r18,4(r8)
    3714:	d8c12015 	stw	r3,1152(sp)
    3718:	d8811f15 	stw	r2,1148(sp)
    371c:	010001c4 	movi	r4,7
    3720:	20822616 	blt	r4,r2,3fbc <___vfprintf_internal_r+0x1130>
    3724:	42000204 	addi	r8,r8,8
    3728:	8c40010c 	andi	r17,r17,4
    372c:	88003126 	beq	r17,zero,37f4 <___vfprintf_internal_r+0x968>
    3730:	db012e17 	ldw	r12,1208(sp)
    3734:	dac12b17 	ldw	r11,1196(sp)
    3738:	62e1c83a 	sub	r16,r12,r11
    373c:	04002d0e 	bge	zero,r16,37f4 <___vfprintf_internal_r+0x968>
    3740:	04400404 	movi	r17,16
    3744:	d8811f17 	ldw	r2,1148(sp)
    3748:	8c04df0e 	bge	r17,r16,4ac8 <___vfprintf_internal_r+0x1c3c>
    374c:	010000b4 	movhi	r4,2
    3750:	21279584 	addi	r4,r4,-25002
    3754:	d9013615 	stw	r4,1240(sp)
    3758:	048001c4 	movi	r18,7
    375c:	00000306 	br	376c <___vfprintf_internal_r+0x8e0>
    3760:	843ffc04 	addi	r16,r16,-16
    3764:	42000204 	addi	r8,r8,8
    3768:	8c00130e 	bge	r17,r16,37b8 <___vfprintf_internal_r+0x92c>
    376c:	014000b4 	movhi	r5,2
    3770:	18c00404 	addi	r3,r3,16
    3774:	10800044 	addi	r2,r2,1
    3778:	29679584 	addi	r5,r5,-25002
    377c:	41400015 	stw	r5,0(r8)
    3780:	44400115 	stw	r17,4(r8)
    3784:	d8c12015 	stw	r3,1152(sp)
    3788:	d8811f15 	stw	r2,1148(sp)
    378c:	90bff40e 	bge	r18,r2,3760 <__alt_data_end+0xf8003760>
    3790:	b009883a 	mov	r4,r22
    3794:	b80b883a 	mov	r5,r23
    3798:	d9811e04 	addi	r6,sp,1144
    379c:	000ff240 	call	ff24 <__sprint_r>
    37a0:	103ed11e 	bne	r2,zero,32e8 <__alt_data_end+0xf80032e8>
    37a4:	843ffc04 	addi	r16,r16,-16
    37a8:	d8c12017 	ldw	r3,1152(sp)
    37ac:	d8811f17 	ldw	r2,1148(sp)
    37b0:	da000404 	addi	r8,sp,16
    37b4:	8c3fed16 	blt	r17,r16,376c <__alt_data_end+0xf800376c>
    37b8:	dac13617 	ldw	r11,1240(sp)
    37bc:	1c07883a 	add	r3,r3,r16
    37c0:	10800044 	addi	r2,r2,1
    37c4:	42c00015 	stw	r11,0(r8)
    37c8:	44000115 	stw	r16,4(r8)
    37cc:	d8c12015 	stw	r3,1152(sp)
    37d0:	d8811f15 	stw	r2,1148(sp)
    37d4:	010001c4 	movi	r4,7
    37d8:	2080060e 	bge	r4,r2,37f4 <___vfprintf_internal_r+0x968>
    37dc:	b009883a 	mov	r4,r22
    37e0:	b80b883a 	mov	r5,r23
    37e4:	d9811e04 	addi	r6,sp,1144
    37e8:	000ff240 	call	ff24 <__sprint_r>
    37ec:	103ebe1e 	bne	r2,zero,32e8 <__alt_data_end+0xf80032e8>
    37f0:	d8c12017 	ldw	r3,1152(sp)
    37f4:	d8812b17 	ldw	r2,1196(sp)
    37f8:	db012e17 	ldw	r12,1208(sp)
    37fc:	1300010e 	bge	r2,r12,3804 <___vfprintf_internal_r+0x978>
    3800:	6005883a 	mov	r2,r12
    3804:	dac12f17 	ldw	r11,1212(sp)
    3808:	5897883a 	add	r11,r11,r2
    380c:	dac12f15 	stw	r11,1212(sp)
    3810:	1801f21e 	bne	r3,zero,3fdc <___vfprintf_internal_r+0x1150>
    3814:	d8011f15 	stw	zero,1148(sp)
    3818:	da000404 	addi	r8,sp,16
    381c:	003dd806 	br	2f80 <__alt_data_end+0xf8002f80>
    3820:	8c400414 	ori	r17,r17,16
    3824:	d8c12a15 	stw	r3,1192(sp)
    3828:	88c0080c 	andi	r3,r17,32
    382c:	d8812d17 	ldw	r2,1204(sp)
    3830:	18004626 	beq	r3,zero,394c <___vfprintf_internal_r+0xac0>
    3834:	dac12d17 	ldw	r11,1204(sp)
    3838:	14c00017 	ldw	r19,0(r2)
    383c:	17000117 	ldw	fp,4(r2)
    3840:	5ac00204 	addi	r11,r11,8
    3844:	dac12d15 	stw	r11,1204(sp)
    3848:	00800044 	movi	r2,1
    384c:	9f06b03a 	or	r3,r19,fp
    3850:	003f0006 	br	3454 <__alt_data_end+0xf8003454>
    3854:	1805883a 	mov	r2,r3
    3858:	d8012e15 	stw	zero,1208(sp)
    385c:	82fff404 	addi	r11,r16,-48
    3860:	0019883a 	mov	r12,zero
    3864:	14000007 	ldb	r16,0(r2)
    3868:	630002a4 	muli	r12,r12,10
    386c:	18c00044 	addi	r3,r3,1
    3870:	1805883a 	mov	r2,r3
    3874:	62d9883a 	add	r12,r12,r11
    3878:	82fff404 	addi	r11,r16,-48
    387c:	2afff92e 	bgeu	r5,r11,3864 <__alt_data_end+0xf8003864>
    3880:	db012e15 	stw	r12,1208(sp)
    3884:	003de906 	br	302c <__alt_data_end+0xf800302c>
    3888:	8c400414 	ori	r17,r17,16
    388c:	d8c12a15 	stw	r3,1192(sp)
    3890:	d9812785 	stb	r6,1182(sp)
    3894:	8880080c 	andi	r2,r17,32
    3898:	d8c12d17 	ldw	r3,1204(sp)
    389c:	10007a26 	beq	r2,zero,3a88 <___vfprintf_internal_r+0xbfc>
    38a0:	db012d17 	ldw	r12,1204(sp)
    38a4:	18800117 	ldw	r2,4(r3)
    38a8:	1cc00017 	ldw	r19,0(r3)
    38ac:	63000204 	addi	r12,r12,8
    38b0:	db012d15 	stw	r12,1204(sp)
    38b4:	1039883a 	mov	fp,r2
    38b8:	10031016 	blt	r2,zero,44fc <___vfprintf_internal_r+0x1670>
    38bc:	dd412783 	ldbu	r21,1182(sp)
    38c0:	da413215 	stw	r9,1224(sp)
    38c4:	00800044 	movi	r2,1
    38c8:	9f06b03a 	or	r3,r19,fp
    38cc:	003ee406 	br	3460 <__alt_data_end+0xf8003460>
    38d0:	030000b4 	movhi	r12,2
    38d4:	63278504 	addi	r12,r12,-25068
    38d8:	d8c12a15 	stw	r3,1192(sp)
    38dc:	d9812785 	stb	r6,1182(sp)
    38e0:	db013b15 	stw	r12,1260(sp)
    38e4:	88c0080c 	andi	r3,r17,32
    38e8:	d8812d17 	ldw	r2,1204(sp)
    38ec:	18002b26 	beq	r3,zero,399c <___vfprintf_internal_r+0xb10>
    38f0:	dac12d17 	ldw	r11,1204(sp)
    38f4:	14c00017 	ldw	r19,0(r2)
    38f8:	17000117 	ldw	fp,4(r2)
    38fc:	5ac00204 	addi	r11,r11,8
    3900:	dac12d15 	stw	r11,1204(sp)
    3904:	8880004c 	andi	r2,r17,1
    3908:	10025b26 	beq	r2,zero,4278 <___vfprintf_internal_r+0x13ec>
    390c:	9f06b03a 	or	r3,r19,fp
    3910:	18037026 	beq	r3,zero,46d4 <___vfprintf_internal_r+0x1848>
    3914:	00800c04 	movi	r2,48
    3918:	d8812705 	stb	r2,1180(sp)
    391c:	dc012745 	stb	r16,1181(sp)
    3920:	8c400094 	ori	r17,r17,2
    3924:	00800084 	movi	r2,2
    3928:	003eca06 	br	3454 <__alt_data_end+0xf8003454>
    392c:	8c400814 	ori	r17,r17,32
    3930:	1805883a 	mov	r2,r3
    3934:	1c000007 	ldb	r16,0(r3)
    3938:	003dbb06 	br	3028 <__alt_data_end+0xf8003028>
    393c:	d8c12a15 	stw	r3,1192(sp)
    3940:	88c0080c 	andi	r3,r17,32
    3944:	d8812d17 	ldw	r2,1204(sp)
    3948:	183fba1e 	bne	r3,zero,3834 <__alt_data_end+0xf8003834>
    394c:	88c0040c 	andi	r3,r17,16
    3950:	18024c1e 	bne	r3,zero,4284 <___vfprintf_internal_r+0x13f8>
    3954:	88c0100c 	andi	r3,r17,64
    3958:	18024a26 	beq	r3,zero,4284 <___vfprintf_internal_r+0x13f8>
    395c:	dac12d17 	ldw	r11,1204(sp)
    3960:	14c0000b 	ldhu	r19,0(r2)
    3964:	0039883a 	mov	fp,zero
    3968:	5ac00104 	addi	r11,r11,4
    396c:	dac12d15 	stw	r11,1204(sp)
    3970:	00800044 	movi	r2,1
    3974:	9807883a 	mov	r3,r19
    3978:	003eb606 	br	3454 <__alt_data_end+0xf8003454>
    397c:	008000b4 	movhi	r2,2
    3980:	10a78a04 	addi	r2,r2,-25048
    3984:	d8c12a15 	stw	r3,1192(sp)
    3988:	d8813b15 	stw	r2,1260(sp)
    398c:	d9812785 	stb	r6,1182(sp)
    3990:	88c0080c 	andi	r3,r17,32
    3994:	d8812d17 	ldw	r2,1204(sp)
    3998:	183fd51e 	bne	r3,zero,38f0 <__alt_data_end+0xf80038f0>
    399c:	88c0040c 	andi	r3,r17,16
    39a0:	18034126 	beq	r3,zero,46a8 <___vfprintf_internal_r+0x181c>
    39a4:	db012d17 	ldw	r12,1204(sp)
    39a8:	14c00017 	ldw	r19,0(r2)
    39ac:	0039883a 	mov	fp,zero
    39b0:	63000104 	addi	r12,r12,4
    39b4:	db012d15 	stw	r12,1204(sp)
    39b8:	003fd206 	br	3904 <__alt_data_end+0xf8003904>
    39bc:	1c000007 	ldb	r16,0(r3)
    39c0:	81c3d626 	beq	r16,r7,491c <___vfprintf_internal_r+0x1a90>
    39c4:	8c400414 	ori	r17,r17,16
    39c8:	1805883a 	mov	r2,r3
    39cc:	003d9606 	br	3028 <__alt_data_end+0xf8003028>
    39d0:	d8c12a15 	stw	r3,1192(sp)
    39d4:	d9812785 	stb	r6,1182(sp)
    39d8:	8880080c 	andi	r2,r17,32
    39dc:	10033f26 	beq	r2,zero,46dc <___vfprintf_internal_r+0x1850>
    39e0:	db012d17 	ldw	r12,1204(sp)
    39e4:	dac12f17 	ldw	r11,1212(sp)
    39e8:	60800017 	ldw	r2,0(r12)
    39ec:	5807d7fa 	srai	r3,r11,31
    39f0:	63000104 	addi	r12,r12,4
    39f4:	db012d15 	stw	r12,1204(sp)
    39f8:	12c00015 	stw	r11,0(r2)
    39fc:	10c00115 	stw	r3,4(r2)
    3a00:	003d5f06 	br	2f80 <__alt_data_end+0xf8002f80>
    3a04:	d8c12a15 	stw	r3,1192(sp)
    3a08:	88c0080c 	andi	r3,r17,32
    3a0c:	d8812d17 	ldw	r2,1204(sp)
    3a10:	183e891e 	bne	r3,zero,3438 <__alt_data_end+0xf8003438>
    3a14:	88c0040c 	andi	r3,r17,16
    3a18:	1801ea1e 	bne	r3,zero,41c4 <___vfprintf_internal_r+0x1338>
    3a1c:	88c0100c 	andi	r3,r17,64
    3a20:	1801e826 	beq	r3,zero,41c4 <___vfprintf_internal_r+0x1338>
    3a24:	db012d17 	ldw	r12,1204(sp)
    3a28:	14c0000b 	ldhu	r19,0(r2)
    3a2c:	0039883a 	mov	fp,zero
    3a30:	63000104 	addi	r12,r12,4
    3a34:	db012d15 	stw	r12,1204(sp)
    3a38:	0005883a 	mov	r2,zero
    3a3c:	9807883a 	mov	r3,r19
    3a40:	003e8406 	br	3454 <__alt_data_end+0xf8003454>
    3a44:	30803fcc 	andi	r2,r6,255
    3a48:	1080201c 	xori	r2,r2,128
    3a4c:	10bfe004 	addi	r2,r2,-128
    3a50:	10031d1e 	bne	r2,zero,46c8 <___vfprintf_internal_r+0x183c>
    3a54:	1805883a 	mov	r2,r3
    3a58:	01800804 	movi	r6,32
    3a5c:	1c000007 	ldb	r16,0(r3)
    3a60:	003d7106 	br	3028 <__alt_data_end+0xf8003028>
    3a64:	8c400054 	ori	r17,r17,1
    3a68:	1805883a 	mov	r2,r3
    3a6c:	1c000007 	ldb	r16,0(r3)
    3a70:	003d6d06 	br	3028 <__alt_data_end+0xf8003028>
    3a74:	d8c12a15 	stw	r3,1192(sp)
    3a78:	d9812785 	stb	r6,1182(sp)
    3a7c:	8880080c 	andi	r2,r17,32
    3a80:	d8c12d17 	ldw	r3,1204(sp)
    3a84:	103f861e 	bne	r2,zero,38a0 <__alt_data_end+0xf80038a0>
    3a88:	8880040c 	andi	r2,r17,16
    3a8c:	1001f31e 	bne	r2,zero,425c <___vfprintf_internal_r+0x13d0>
    3a90:	8880100c 	andi	r2,r17,64
    3a94:	1001f126 	beq	r2,zero,425c <___vfprintf_internal_r+0x13d0>
    3a98:	1cc0000f 	ldh	r19,0(r3)
    3a9c:	db012d17 	ldw	r12,1204(sp)
    3aa0:	9839d7fa 	srai	fp,r19,31
    3aa4:	63000104 	addi	r12,r12,4
    3aa8:	db012d15 	stw	r12,1204(sp)
    3aac:	e005883a 	mov	r2,fp
    3ab0:	003f8106 	br	38b8 <__alt_data_end+0xf80038b8>
    3ab4:	8c401014 	ori	r17,r17,64
    3ab8:	1805883a 	mov	r2,r3
    3abc:	1c000007 	ldb	r16,0(r3)
    3ac0:	003d5906 	br	3028 <__alt_data_end+0xf8003028>
    3ac4:	db012d17 	ldw	r12,1204(sp)
    3ac8:	d8c12a15 	stw	r3,1192(sp)
    3acc:	00c00044 	movi	r3,1
    3ad0:	60800017 	ldw	r2,0(r12)
    3ad4:	63000104 	addi	r12,r12,4
    3ad8:	d8c12b15 	stw	r3,1196(sp)
    3adc:	d8012785 	stb	zero,1182(sp)
    3ae0:	d8810405 	stb	r2,1040(sp)
    3ae4:	db012d15 	stw	r12,1204(sp)
    3ae8:	dac10404 	addi	r11,sp,1040
    3aec:	1825883a 	mov	r18,r3
    3af0:	d8013215 	stw	zero,1224(sp)
    3af4:	d8013415 	stw	zero,1232(sp)
    3af8:	dac13115 	stw	r11,1220(sp)
    3afc:	0005883a 	mov	r2,zero
    3b00:	003e7d06 	br	34f8 <__alt_data_end+0xf80034f8>
    3b04:	db012d17 	ldw	r12,1204(sp)
    3b08:	00800c04 	movi	r2,48
    3b0c:	d8812705 	stb	r2,1180(sp)
    3b10:	64c00017 	ldw	r19,0(r12)
    3b14:	00801e04 	movi	r2,120
    3b18:	d8812745 	stb	r2,1181(sp)
    3b1c:	008000b4 	movhi	r2,2
    3b20:	10a78a04 	addi	r2,r2,-25048
    3b24:	63000104 	addi	r12,r12,4
    3b28:	d8c12a15 	stw	r3,1192(sp)
    3b2c:	d8813b15 	stw	r2,1260(sp)
    3b30:	0039883a 	mov	fp,zero
    3b34:	8c400094 	ori	r17,r17,2
    3b38:	db012d15 	stw	r12,1204(sp)
    3b3c:	00800084 	movi	r2,2
    3b40:	04001e04 	movi	r16,120
    3b44:	9807883a 	mov	r3,r19
    3b48:	003e4206 	br	3454 <__alt_data_end+0xf8003454>
    3b4c:	dac12d17 	ldw	r11,1204(sp)
    3b50:	db012d17 	ldw	r12,1204(sp)
    3b54:	d8c12a15 	stw	r3,1192(sp)
    3b58:	5ac00017 	ldw	r11,0(r11)
    3b5c:	d8012785 	stb	zero,1182(sp)
    3b60:	64c00104 	addi	r19,r12,4
    3b64:	dac13115 	stw	r11,1220(sp)
    3b68:	5803e826 	beq	r11,zero,4b0c <___vfprintf_internal_r+0x1c80>
    3b6c:	d9013117 	ldw	r4,1220(sp)
    3b70:	48037a16 	blt	r9,zero,495c <___vfprintf_internal_r+0x1ad0>
    3b74:	480d883a 	mov	r6,r9
    3b78:	000b883a 	mov	r5,zero
    3b7c:	da013f15 	stw	r8,1276(sp)
    3b80:	da413e15 	stw	r9,1272(sp)
    3b84:	00086dc0 	call	86dc <memchr>
    3b88:	da013f17 	ldw	r8,1276(sp)
    3b8c:	da413e17 	ldw	r9,1272(sp)
    3b90:	10044426 	beq	r2,zero,4ca4 <___vfprintf_internal_r+0x1e18>
    3b94:	d8c13117 	ldw	r3,1220(sp)
    3b98:	10e5c83a 	sub	r18,r2,r3
    3b9c:	4c834416 	blt	r9,r18,48b0 <___vfprintf_internal_r+0x1a24>
    3ba0:	9005883a 	mov	r2,r18
    3ba4:	90037216 	blt	r18,zero,4970 <___vfprintf_internal_r+0x1ae4>
    3ba8:	dd412783 	ldbu	r21,1182(sp)
    3bac:	d8812b15 	stw	r2,1196(sp)
    3bb0:	dcc12d15 	stw	r19,1204(sp)
    3bb4:	d8013215 	stw	zero,1224(sp)
    3bb8:	d8013415 	stw	zero,1232(sp)
    3bbc:	003e4706 	br	34dc <__alt_data_end+0xf80034dc>
    3bc0:	dac12d17 	ldw	r11,1204(sp)
    3bc4:	db012d17 	ldw	r12,1204(sp)
    3bc8:	5ac00017 	ldw	r11,0(r11)
    3bcc:	dac12e15 	stw	r11,1208(sp)
    3bd0:	62c00104 	addi	r11,r12,4
    3bd4:	db012e17 	ldw	r12,1208(sp)
    3bd8:	60034a16 	blt	r12,zero,4904 <___vfprintf_internal_r+0x1a78>
    3bdc:	dac12d15 	stw	r11,1204(sp)
    3be0:	1805883a 	mov	r2,r3
    3be4:	1c000007 	ldb	r16,0(r3)
    3be8:	003d0f06 	br	3028 <__alt_data_end+0xf8003028>
    3bec:	1805883a 	mov	r2,r3
    3bf0:	01800ac4 	movi	r6,43
    3bf4:	1c000007 	ldb	r16,0(r3)
    3bf8:	003d0b06 	br	3028 <__alt_data_end+0xf8003028>
    3bfc:	d8c12a15 	stw	r3,1192(sp)
    3c00:	d9812785 	stb	r6,1182(sp)
    3c04:	803db226 	beq	r16,zero,32d0 <__alt_data_end+0xf80032d0>
    3c08:	00c00044 	movi	r3,1
    3c0c:	d8c12b15 	stw	r3,1196(sp)
    3c10:	dc010405 	stb	r16,1040(sp)
    3c14:	d8012785 	stb	zero,1182(sp)
    3c18:	003fb306 	br	3ae8 <__alt_data_end+0xf8003ae8>
    3c1c:	d8c12017 	ldw	r3,1152(sp)
    3c20:	003e6d06 	br	35d8 <__alt_data_end+0xf80035d8>
    3c24:	10803fcc 	andi	r2,r2,255
    3c28:	00c00044 	movi	r3,1
    3c2c:	10fe141e 	bne	r2,r3,3480 <__alt_data_end+0xf8003480>
    3c30:	e000021e 	bne	fp,zero,3c3c <___vfprintf_internal_r+0xdb0>
    3c34:	00800244 	movi	r2,9
    3c38:	14c0202e 	bgeu	r2,r19,3cbc <___vfprintf_internal_r+0xe30>
    3c3c:	dc012b15 	stw	r16,1196(sp)
    3c40:	dc412c15 	stw	r17,1200(sp)
    3c44:	9821883a 	mov	r16,r19
    3c48:	e023883a 	mov	r17,fp
    3c4c:	dc810e04 	addi	r18,sp,1080
    3c50:	4027883a 	mov	r19,r8
    3c54:	4839883a 	mov	fp,r9
    3c58:	8009883a 	mov	r4,r16
    3c5c:	880b883a 	mov	r5,r17
    3c60:	01800284 	movi	r6,10
    3c64:	000f883a 	mov	r7,zero
    3c68:	00140440 	call	14044 <__umoddi3>
    3c6c:	10800c04 	addi	r2,r2,48
    3c70:	94bfffc4 	addi	r18,r18,-1
    3c74:	8009883a 	mov	r4,r16
    3c78:	880b883a 	mov	r5,r17
    3c7c:	01800284 	movi	r6,10
    3c80:	000f883a 	mov	r7,zero
    3c84:	90800005 	stb	r2,0(r18)
    3c88:	0013a840 	call	13a84 <__udivdi3>
    3c8c:	1021883a 	mov	r16,r2
    3c90:	10c4b03a 	or	r2,r2,r3
    3c94:	1823883a 	mov	r17,r3
    3c98:	103fef1e 	bne	r2,zero,3c58 <__alt_data_end+0xf8003c58>
    3c9c:	dac12817 	ldw	r11,1184(sp)
    3ca0:	dc813115 	stw	r18,1220(sp)
    3ca4:	dc012b17 	ldw	r16,1196(sp)
    3ca8:	9811883a 	mov	r8,r19
    3cac:	dc412c17 	ldw	r17,1200(sp)
    3cb0:	e013883a 	mov	r9,fp
    3cb4:	5ca5c83a 	sub	r18,r11,r18
    3cb8:	003e0306 	br	34c8 <__alt_data_end+0xf80034c8>
    3cbc:	9cc00c04 	addi	r19,r19,48
    3cc0:	d8c10dc4 	addi	r3,sp,1079
    3cc4:	dcc10dc5 	stb	r19,1079(sp)
    3cc8:	dc813c17 	ldw	r18,1264(sp)
    3ccc:	d8c13115 	stw	r3,1220(sp)
    3cd0:	003dfd06 	br	34c8 <__alt_data_end+0xf80034c8>
    3cd4:	00801944 	movi	r2,101
    3cd8:	1400710e 	bge	r2,r16,3ea0 <___vfprintf_internal_r+0x1014>
    3cdc:	d9013717 	ldw	r4,1244(sp)
    3ce0:	d9413917 	ldw	r5,1252(sp)
    3ce4:	000d883a 	mov	r6,zero
    3ce8:	000f883a 	mov	r7,zero
    3cec:	d8c13d15 	stw	r3,1268(sp)
    3cf0:	da013f15 	stw	r8,1276(sp)
    3cf4:	0015a4c0 	call	15a4c <__eqdf2>
    3cf8:	d8c13d17 	ldw	r3,1268(sp)
    3cfc:	da013f17 	ldw	r8,1276(sp)
    3d00:	1000ef1e 	bne	r2,zero,40c0 <___vfprintf_internal_r+0x1234>
    3d04:	d8811f17 	ldw	r2,1148(sp)
    3d08:	010000b4 	movhi	r4,2
    3d0c:	21279104 	addi	r4,r4,-25020
    3d10:	18c00044 	addi	r3,r3,1
    3d14:	10800044 	addi	r2,r2,1
    3d18:	41000015 	stw	r4,0(r8)
    3d1c:	01000044 	movi	r4,1
    3d20:	41000115 	stw	r4,4(r8)
    3d24:	d8c12015 	stw	r3,1152(sp)
    3d28:	d8811f15 	stw	r2,1148(sp)
    3d2c:	010001c4 	movi	r4,7
    3d30:	20828e16 	blt	r4,r2,476c <___vfprintf_internal_r+0x18e0>
    3d34:	42000204 	addi	r8,r8,8
    3d38:	d8812617 	ldw	r2,1176(sp)
    3d3c:	dac13317 	ldw	r11,1228(sp)
    3d40:	12c00216 	blt	r2,r11,3d4c <___vfprintf_internal_r+0xec0>
    3d44:	8880004c 	andi	r2,r17,1
    3d48:	103e7726 	beq	r2,zero,3728 <__alt_data_end+0xf8003728>
    3d4c:	db013817 	ldw	r12,1248(sp)
    3d50:	d8811f17 	ldw	r2,1148(sp)
    3d54:	dac13517 	ldw	r11,1236(sp)
    3d58:	1b07883a 	add	r3,r3,r12
    3d5c:	10800044 	addi	r2,r2,1
    3d60:	42c00015 	stw	r11,0(r8)
    3d64:	43000115 	stw	r12,4(r8)
    3d68:	d8c12015 	stw	r3,1152(sp)
    3d6c:	d8811f15 	stw	r2,1148(sp)
    3d70:	010001c4 	movi	r4,7
    3d74:	2082ed16 	blt	r4,r2,492c <___vfprintf_internal_r+0x1aa0>
    3d78:	42000204 	addi	r8,r8,8
    3d7c:	db013317 	ldw	r12,1228(sp)
    3d80:	643fffc4 	addi	r16,r12,-1
    3d84:	043e680e 	bge	zero,r16,3728 <__alt_data_end+0xf8003728>
    3d88:	04800404 	movi	r18,16
    3d8c:	d8811f17 	ldw	r2,1148(sp)
    3d90:	94007e0e 	bge	r18,r16,3f8c <___vfprintf_internal_r+0x1100>
    3d94:	014000b4 	movhi	r5,2
    3d98:	29679184 	addi	r5,r5,-25018
    3d9c:	d9412c15 	stw	r5,1200(sp)
    3da0:	054001c4 	movi	r21,7
    3da4:	00000306 	br	3db4 <___vfprintf_internal_r+0xf28>
    3da8:	42000204 	addi	r8,r8,8
    3dac:	843ffc04 	addi	r16,r16,-16
    3db0:	9400790e 	bge	r18,r16,3f98 <___vfprintf_internal_r+0x110c>
    3db4:	18c00404 	addi	r3,r3,16
    3db8:	10800044 	addi	r2,r2,1
    3dbc:	45000015 	stw	r20,0(r8)
    3dc0:	44800115 	stw	r18,4(r8)
    3dc4:	d8c12015 	stw	r3,1152(sp)
    3dc8:	d8811f15 	stw	r2,1148(sp)
    3dcc:	a8bff60e 	bge	r21,r2,3da8 <__alt_data_end+0xf8003da8>
    3dd0:	b009883a 	mov	r4,r22
    3dd4:	b80b883a 	mov	r5,r23
    3dd8:	d9811e04 	addi	r6,sp,1144
    3ddc:	000ff240 	call	ff24 <__sprint_r>
    3de0:	103d411e 	bne	r2,zero,32e8 <__alt_data_end+0xf80032e8>
    3de4:	d8c12017 	ldw	r3,1152(sp)
    3de8:	d8811f17 	ldw	r2,1148(sp)
    3dec:	da000404 	addi	r8,sp,16
    3df0:	003fee06 	br	3dac <__alt_data_end+0xf8003dac>
    3df4:	dac12e17 	ldw	r11,1208(sp)
    3df8:	db012b17 	ldw	r12,1196(sp)
    3dfc:	5b2bc83a 	sub	r21,r11,r12
    3e00:	057e130e 	bge	zero,r21,3650 <__alt_data_end+0xf8003650>
    3e04:	07000404 	movi	fp,16
    3e08:	d8811f17 	ldw	r2,1148(sp)
    3e0c:	e543640e 	bge	fp,r21,4ba0 <___vfprintf_internal_r+0x1d14>
    3e10:	014000b4 	movhi	r5,2
    3e14:	29679184 	addi	r5,r5,-25018
    3e18:	d9412c15 	stw	r5,1200(sp)
    3e1c:	04c001c4 	movi	r19,7
    3e20:	00000306 	br	3e30 <___vfprintf_internal_r+0xfa4>
    3e24:	ad7ffc04 	addi	r21,r21,-16
    3e28:	42000204 	addi	r8,r8,8
    3e2c:	e540110e 	bge	fp,r21,3e74 <___vfprintf_internal_r+0xfe8>
    3e30:	18c00404 	addi	r3,r3,16
    3e34:	10800044 	addi	r2,r2,1
    3e38:	45000015 	stw	r20,0(r8)
    3e3c:	47000115 	stw	fp,4(r8)
    3e40:	d8c12015 	stw	r3,1152(sp)
    3e44:	d8811f15 	stw	r2,1148(sp)
    3e48:	98bff60e 	bge	r19,r2,3e24 <__alt_data_end+0xf8003e24>
    3e4c:	b009883a 	mov	r4,r22
    3e50:	b80b883a 	mov	r5,r23
    3e54:	d9811e04 	addi	r6,sp,1144
    3e58:	000ff240 	call	ff24 <__sprint_r>
    3e5c:	103d221e 	bne	r2,zero,32e8 <__alt_data_end+0xf80032e8>
    3e60:	ad7ffc04 	addi	r21,r21,-16
    3e64:	d8c12017 	ldw	r3,1152(sp)
    3e68:	d8811f17 	ldw	r2,1148(sp)
    3e6c:	da000404 	addi	r8,sp,16
    3e70:	e57fef16 	blt	fp,r21,3e30 <__alt_data_end+0xf8003e30>
    3e74:	dac12c17 	ldw	r11,1200(sp)
    3e78:	1d47883a 	add	r3,r3,r21
    3e7c:	10800044 	addi	r2,r2,1
    3e80:	42c00015 	stw	r11,0(r8)
    3e84:	45400115 	stw	r21,4(r8)
    3e88:	d8c12015 	stw	r3,1152(sp)
    3e8c:	d8811f15 	stw	r2,1148(sp)
    3e90:	010001c4 	movi	r4,7
    3e94:	20819116 	blt	r4,r2,44dc <___vfprintf_internal_r+0x1650>
    3e98:	42000204 	addi	r8,r8,8
    3e9c:	003dec06 	br	3650 <__alt_data_end+0xf8003650>
    3ea0:	db013317 	ldw	r12,1228(sp)
    3ea4:	00800044 	movi	r2,1
    3ea8:	18c00044 	addi	r3,r3,1
    3eac:	1301530e 	bge	r2,r12,43fc <___vfprintf_internal_r+0x1570>
    3eb0:	dc011f17 	ldw	r16,1148(sp)
    3eb4:	dac13117 	ldw	r11,1220(sp)
    3eb8:	00800044 	movi	r2,1
    3ebc:	84000044 	addi	r16,r16,1
    3ec0:	40800115 	stw	r2,4(r8)
    3ec4:	42c00015 	stw	r11,0(r8)
    3ec8:	d8c12015 	stw	r3,1152(sp)
    3ecc:	dc011f15 	stw	r16,1148(sp)
    3ed0:	008001c4 	movi	r2,7
    3ed4:	14016b16 	blt	r2,r16,4484 <___vfprintf_internal_r+0x15f8>
    3ed8:	42000204 	addi	r8,r8,8
    3edc:	db013817 	ldw	r12,1248(sp)
    3ee0:	dac13517 	ldw	r11,1236(sp)
    3ee4:	84000044 	addi	r16,r16,1
    3ee8:	1b07883a 	add	r3,r3,r12
    3eec:	42c00015 	stw	r11,0(r8)
    3ef0:	43000115 	stw	r12,4(r8)
    3ef4:	d8c12015 	stw	r3,1152(sp)
    3ef8:	dc011f15 	stw	r16,1148(sp)
    3efc:	008001c4 	movi	r2,7
    3f00:	14016916 	blt	r2,r16,44a8 <___vfprintf_internal_r+0x161c>
    3f04:	44800204 	addi	r18,r8,8
    3f08:	d9013717 	ldw	r4,1244(sp)
    3f0c:	d9413917 	ldw	r5,1252(sp)
    3f10:	000d883a 	mov	r6,zero
    3f14:	000f883a 	mov	r7,zero
    3f18:	d8c13d15 	stw	r3,1268(sp)
    3f1c:	0015a4c0 	call	15a4c <__eqdf2>
    3f20:	d8c13d17 	ldw	r3,1268(sp)
    3f24:	db013317 	ldw	r12,1228(sp)
    3f28:	1000ae26 	beq	r2,zero,41e4 <___vfprintf_internal_r+0x1358>
    3f2c:	dac13117 	ldw	r11,1220(sp)
    3f30:	60bfffc4 	addi	r2,r12,-1
    3f34:	1887883a 	add	r3,r3,r2
    3f38:	59000044 	addi	r4,r11,1
    3f3c:	84000044 	addi	r16,r16,1
    3f40:	90800115 	stw	r2,4(r18)
    3f44:	91000015 	stw	r4,0(r18)
    3f48:	d8c12015 	stw	r3,1152(sp)
    3f4c:	dc011f15 	stw	r16,1148(sp)
    3f50:	008001c4 	movi	r2,7
    3f54:	14014216 	blt	r2,r16,4460 <___vfprintf_internal_r+0x15d4>
    3f58:	94800204 	addi	r18,r18,8
    3f5c:	dac13a17 	ldw	r11,1256(sp)
    3f60:	dd4122c4 	addi	r21,sp,1163
    3f64:	84000044 	addi	r16,r16,1
    3f68:	58c7883a 	add	r3,r11,r3
    3f6c:	95400015 	stw	r21,0(r18)
    3f70:	92c00115 	stw	r11,4(r18)
    3f74:	d8c12015 	stw	r3,1152(sp)
    3f78:	dc011f15 	stw	r16,1148(sp)
    3f7c:	008001c4 	movi	r2,7
    3f80:	14000e16 	blt	r2,r16,3fbc <___vfprintf_internal_r+0x1130>
    3f84:	92000204 	addi	r8,r18,8
    3f88:	003de706 	br	3728 <__alt_data_end+0xf8003728>
    3f8c:	010000b4 	movhi	r4,2
    3f90:	21279184 	addi	r4,r4,-25018
    3f94:	d9012c15 	stw	r4,1200(sp)
    3f98:	dac12c17 	ldw	r11,1200(sp)
    3f9c:	1c07883a 	add	r3,r3,r16
    3fa0:	44000115 	stw	r16,4(r8)
    3fa4:	42c00015 	stw	r11,0(r8)
    3fa8:	10800044 	addi	r2,r2,1
    3fac:	d8c12015 	stw	r3,1152(sp)
    3fb0:	d8811f15 	stw	r2,1148(sp)
    3fb4:	010001c4 	movi	r4,7
    3fb8:	20bdda0e 	bge	r4,r2,3724 <__alt_data_end+0xf8003724>
    3fbc:	b009883a 	mov	r4,r22
    3fc0:	b80b883a 	mov	r5,r23
    3fc4:	d9811e04 	addi	r6,sp,1144
    3fc8:	000ff240 	call	ff24 <__sprint_r>
    3fcc:	103cc61e 	bne	r2,zero,32e8 <__alt_data_end+0xf80032e8>
    3fd0:	d8c12017 	ldw	r3,1152(sp)
    3fd4:	da000404 	addi	r8,sp,16
    3fd8:	003dd306 	br	3728 <__alt_data_end+0xf8003728>
    3fdc:	b009883a 	mov	r4,r22
    3fe0:	b80b883a 	mov	r5,r23
    3fe4:	d9811e04 	addi	r6,sp,1144
    3fe8:	000ff240 	call	ff24 <__sprint_r>
    3fec:	103e0926 	beq	r2,zero,3814 <__alt_data_end+0xf8003814>
    3ff0:	003cbd06 	br	32e8 <__alt_data_end+0xf80032e8>
    3ff4:	10803fcc 	andi	r2,r2,255
    3ff8:	1000651e 	bne	r2,zero,4190 <___vfprintf_internal_r+0x1304>
    3ffc:	8880004c 	andi	r2,r17,1
    4000:	10013226 	beq	r2,zero,44cc <___vfprintf_internal_r+0x1640>
    4004:	00800c04 	movi	r2,48
    4008:	d8c10dc4 	addi	r3,sp,1079
    400c:	d8810dc5 	stb	r2,1079(sp)
    4010:	dc813c17 	ldw	r18,1264(sp)
    4014:	d8c13115 	stw	r3,1220(sp)
    4018:	003d2b06 	br	34c8 <__alt_data_end+0xf80034c8>
    401c:	b009883a 	mov	r4,r22
    4020:	b80b883a 	mov	r5,r23
    4024:	d9811e04 	addi	r6,sp,1144
    4028:	000ff240 	call	ff24 <__sprint_r>
    402c:	103cae1e 	bne	r2,zero,32e8 <__alt_data_end+0xf80032e8>
    4030:	d8c12017 	ldw	r3,1152(sp)
    4034:	da000404 	addi	r8,sp,16
    4038:	003dae06 	br	36f4 <__alt_data_end+0xf80036f4>
    403c:	b009883a 	mov	r4,r22
    4040:	b80b883a 	mov	r5,r23
    4044:	d9811e04 	addi	r6,sp,1144
    4048:	000ff240 	call	ff24 <__sprint_r>
    404c:	103ca61e 	bne	r2,zero,32e8 <__alt_data_end+0xf80032e8>
    4050:	d8c12017 	ldw	r3,1152(sp)
    4054:	da000404 	addi	r8,sp,16
    4058:	003d6c06 	br	360c <__alt_data_end+0xf800360c>
    405c:	b009883a 	mov	r4,r22
    4060:	b80b883a 	mov	r5,r23
    4064:	d9811e04 	addi	r6,sp,1144
    4068:	000ff240 	call	ff24 <__sprint_r>
    406c:	103c9e1e 	bne	r2,zero,32e8 <__alt_data_end+0xf80032e8>
    4070:	d8c12017 	ldw	r3,1152(sp)
    4074:	da000404 	addi	r8,sp,16
    4078:	003d7206 	br	3644 <__alt_data_end+0xf8003644>
    407c:	d9413b17 	ldw	r5,1260(sp)
    4080:	d8c10e04 	addi	r3,sp,1080
    4084:	988003cc 	andi	r2,r19,15
    4088:	e008973a 	slli	r4,fp,28
    408c:	2885883a 	add	r2,r5,r2
    4090:	9826d13a 	srli	r19,r19,4
    4094:	10800003 	ldbu	r2,0(r2)
    4098:	e038d13a 	srli	fp,fp,4
    409c:	18ffffc4 	addi	r3,r3,-1
    40a0:	24e6b03a 	or	r19,r4,r19
    40a4:	18800005 	stb	r2,0(r3)
    40a8:	9f04b03a 	or	r2,r19,fp
    40ac:	103ff51e 	bne	r2,zero,4084 <__alt_data_end+0xf8004084>
    40b0:	db012817 	ldw	r12,1184(sp)
    40b4:	d8c13115 	stw	r3,1220(sp)
    40b8:	60e5c83a 	sub	r18,r12,r3
    40bc:	003d0206 	br	34c8 <__alt_data_end+0xf80034c8>
    40c0:	dc012617 	ldw	r16,1176(sp)
    40c4:	0401b10e 	bge	zero,r16,478c <___vfprintf_internal_r+0x1900>
    40c8:	db013117 	ldw	r12,1220(sp)
    40cc:	dac13317 	ldw	r11,1228(sp)
    40d0:	62e1883a 	add	r16,r12,r11
    40d4:	db013417 	ldw	r12,1232(sp)
    40d8:	5825883a 	mov	r18,r11
    40dc:	62c0010e 	bge	r12,r11,40e4 <___vfprintf_internal_r+0x1258>
    40e0:	6025883a 	mov	r18,r12
    40e4:	04800b0e 	bge	zero,r18,4114 <___vfprintf_internal_r+0x1288>
    40e8:	d8811f17 	ldw	r2,1148(sp)
    40ec:	dac13117 	ldw	r11,1220(sp)
    40f0:	1c87883a 	add	r3,r3,r18
    40f4:	10800044 	addi	r2,r2,1
    40f8:	42c00015 	stw	r11,0(r8)
    40fc:	44800115 	stw	r18,4(r8)
    4100:	d8c12015 	stw	r3,1152(sp)
    4104:	d8811f15 	stw	r2,1148(sp)
    4108:	010001c4 	movi	r4,7
    410c:	20824f16 	blt	r4,r2,4a4c <___vfprintf_internal_r+0x1bc0>
    4110:	42000204 	addi	r8,r8,8
    4114:	90024b16 	blt	r18,zero,4a44 <___vfprintf_internal_r+0x1bb8>
    4118:	db013417 	ldw	r12,1232(sp)
    411c:	64a5c83a 	sub	r18,r12,r18
    4120:	0480730e 	bge	zero,r18,42f0 <___vfprintf_internal_r+0x1464>
    4124:	05400404 	movi	r21,16
    4128:	d8811f17 	ldw	r2,1148(sp)
    412c:	ac817d0e 	bge	r21,r18,4724 <___vfprintf_internal_r+0x1898>
    4130:	014000b4 	movhi	r5,2
    4134:	29679184 	addi	r5,r5,-25018
    4138:	d9412c15 	stw	r5,1200(sp)
    413c:	070001c4 	movi	fp,7
    4140:	00000306 	br	4150 <___vfprintf_internal_r+0x12c4>
    4144:	42000204 	addi	r8,r8,8
    4148:	94bffc04 	addi	r18,r18,-16
    414c:	ac81780e 	bge	r21,r18,4730 <___vfprintf_internal_r+0x18a4>
    4150:	18c00404 	addi	r3,r3,16
    4154:	10800044 	addi	r2,r2,1
    4158:	45000015 	stw	r20,0(r8)
    415c:	45400115 	stw	r21,4(r8)
    4160:	d8c12015 	stw	r3,1152(sp)
    4164:	d8811f15 	stw	r2,1148(sp)
    4168:	e0bff60e 	bge	fp,r2,4144 <__alt_data_end+0xf8004144>
    416c:	b009883a 	mov	r4,r22
    4170:	b80b883a 	mov	r5,r23
    4174:	d9811e04 	addi	r6,sp,1144
    4178:	000ff240 	call	ff24 <__sprint_r>
    417c:	103c5a1e 	bne	r2,zero,32e8 <__alt_data_end+0xf80032e8>
    4180:	d8c12017 	ldw	r3,1152(sp)
    4184:	d8811f17 	ldw	r2,1148(sp)
    4188:	da000404 	addi	r8,sp,16
    418c:	003fee06 	br	4148 <__alt_data_end+0xf8004148>
    4190:	dac10e04 	addi	r11,sp,1080
    4194:	0025883a 	mov	r18,zero
    4198:	dac13115 	stw	r11,1220(sp)
    419c:	003cca06 	br	34c8 <__alt_data_end+0xf80034c8>
    41a0:	b009883a 	mov	r4,r22
    41a4:	b80b883a 	mov	r5,r23
    41a8:	d9811e04 	addi	r6,sp,1144
    41ac:	000ff240 	call	ff24 <__sprint_r>
    41b0:	103c4d1e 	bne	r2,zero,32e8 <__alt_data_end+0xf80032e8>
    41b4:	d8c12017 	ldw	r3,1152(sp)
    41b8:	d8812787 	ldb	r2,1182(sp)
    41bc:	da000404 	addi	r8,sp,16
    41c0:	003d0506 	br	35d8 <__alt_data_end+0xf80035d8>
    41c4:	dac12d17 	ldw	r11,1204(sp)
    41c8:	14c00017 	ldw	r19,0(r2)
    41cc:	0039883a 	mov	fp,zero
    41d0:	5ac00104 	addi	r11,r11,4
    41d4:	dac12d15 	stw	r11,1204(sp)
    41d8:	0005883a 	mov	r2,zero
    41dc:	9807883a 	mov	r3,r19
    41e0:	003c9c06 	br	3454 <__alt_data_end+0xf8003454>
    41e4:	657fffc4 	addi	r21,r12,-1
    41e8:	057f5c0e 	bge	zero,r21,3f5c <__alt_data_end+0xf8003f5c>
    41ec:	07000404 	movi	fp,16
    41f0:	e5408f0e 	bge	fp,r21,4430 <___vfprintf_internal_r+0x15a4>
    41f4:	010000b4 	movhi	r4,2
    41f8:	21279184 	addi	r4,r4,-25018
    41fc:	d9012c15 	stw	r4,1200(sp)
    4200:	01c001c4 	movi	r7,7
    4204:	00000306 	br	4214 <___vfprintf_internal_r+0x1388>
    4208:	94800204 	addi	r18,r18,8
    420c:	ad7ffc04 	addi	r21,r21,-16
    4210:	e5408a0e 	bge	fp,r21,443c <___vfprintf_internal_r+0x15b0>
    4214:	18c00404 	addi	r3,r3,16
    4218:	84000044 	addi	r16,r16,1
    421c:	95000015 	stw	r20,0(r18)
    4220:	97000115 	stw	fp,4(r18)
    4224:	d8c12015 	stw	r3,1152(sp)
    4228:	dc011f15 	stw	r16,1148(sp)
    422c:	3c3ff60e 	bge	r7,r16,4208 <__alt_data_end+0xf8004208>
    4230:	b009883a 	mov	r4,r22
    4234:	b80b883a 	mov	r5,r23
    4238:	d9811e04 	addi	r6,sp,1144
    423c:	d9c13d15 	stw	r7,1268(sp)
    4240:	000ff240 	call	ff24 <__sprint_r>
    4244:	d9c13d17 	ldw	r7,1268(sp)
    4248:	103c271e 	bne	r2,zero,32e8 <__alt_data_end+0xf80032e8>
    424c:	d8c12017 	ldw	r3,1152(sp)
    4250:	dc011f17 	ldw	r16,1148(sp)
    4254:	dc800404 	addi	r18,sp,16
    4258:	003fec06 	br	420c <__alt_data_end+0xf800420c>
    425c:	1cc00017 	ldw	r19,0(r3)
    4260:	dac12d17 	ldw	r11,1204(sp)
    4264:	9839d7fa 	srai	fp,r19,31
    4268:	5ac00104 	addi	r11,r11,4
    426c:	dac12d15 	stw	r11,1204(sp)
    4270:	e005883a 	mov	r2,fp
    4274:	003d9006 	br	38b8 <__alt_data_end+0xf80038b8>
    4278:	00800084 	movi	r2,2
    427c:	9f06b03a 	or	r3,r19,fp
    4280:	003c7406 	br	3454 <__alt_data_end+0xf8003454>
    4284:	db012d17 	ldw	r12,1204(sp)
    4288:	14c00017 	ldw	r19,0(r2)
    428c:	0039883a 	mov	fp,zero
    4290:	63000104 	addi	r12,r12,4
    4294:	db012d15 	stw	r12,1204(sp)
    4298:	00800044 	movi	r2,1
    429c:	9807883a 	mov	r3,r19
    42a0:	003c6c06 	br	3454 <__alt_data_end+0xf8003454>
    42a4:	10803fcc 	andi	r2,r2,255
    42a8:	1080201c 	xori	r2,r2,128
    42ac:	10bfe004 	addi	r2,r2,-128
    42b0:	01000c04 	movi	r4,48
    42b4:	1101a526 	beq	r2,r4,494c <___vfprintf_internal_r+0x1ac0>
    42b8:	dac13117 	ldw	r11,1220(sp)
    42bc:	db012817 	ldw	r12,1184(sp)
    42c0:	193fffc5 	stb	r4,-1(r3)
    42c4:	5affffc4 	addi	r11,r11,-1
    42c8:	dac13115 	stw	r11,1220(sp)
    42cc:	62e5c83a 	sub	r18,r12,r11
    42d0:	003c7d06 	br	34c8 <__alt_data_end+0xf80034c8>
    42d4:	b009883a 	mov	r4,r22
    42d8:	b80b883a 	mov	r5,r23
    42dc:	d9811e04 	addi	r6,sp,1144
    42e0:	000ff240 	call	ff24 <__sprint_r>
    42e4:	103c001e 	bne	r2,zero,32e8 <__alt_data_end+0xf80032e8>
    42e8:	d8c12017 	ldw	r3,1152(sp)
    42ec:	da000404 	addi	r8,sp,16
    42f0:	db013117 	ldw	r12,1220(sp)
    42f4:	dac13417 	ldw	r11,1232(sp)
    42f8:	d8812617 	ldw	r2,1176(sp)
    42fc:	62e5883a 	add	r18,r12,r11
    4300:	db013317 	ldw	r12,1228(sp)
    4304:	13000216 	blt	r2,r12,4310 <___vfprintf_internal_r+0x1484>
    4308:	8900004c 	andi	r4,r17,1
    430c:	20000c26 	beq	r4,zero,4340 <___vfprintf_internal_r+0x14b4>
    4310:	dac13817 	ldw	r11,1248(sp)
    4314:	d9011f17 	ldw	r4,1148(sp)
    4318:	db013517 	ldw	r12,1236(sp)
    431c:	1ac7883a 	add	r3,r3,r11
    4320:	21000044 	addi	r4,r4,1
    4324:	43000015 	stw	r12,0(r8)
    4328:	42c00115 	stw	r11,4(r8)
    432c:	d8c12015 	stw	r3,1152(sp)
    4330:	d9011f15 	stw	r4,1148(sp)
    4334:	014001c4 	movi	r5,7
    4338:	2901cc16 	blt	r5,r4,4a6c <___vfprintf_internal_r+0x1be0>
    433c:	42000204 	addi	r8,r8,8
    4340:	dac13317 	ldw	r11,1228(sp)
    4344:	8489c83a 	sub	r4,r16,r18
    4348:	5885c83a 	sub	r2,r11,r2
    434c:	1021883a 	mov	r16,r2
    4350:	2080010e 	bge	r4,r2,4358 <___vfprintf_internal_r+0x14cc>
    4354:	2021883a 	mov	r16,r4
    4358:	04000a0e 	bge	zero,r16,4384 <___vfprintf_internal_r+0x14f8>
    435c:	d9011f17 	ldw	r4,1148(sp)
    4360:	1c07883a 	add	r3,r3,r16
    4364:	44800015 	stw	r18,0(r8)
    4368:	21000044 	addi	r4,r4,1
    436c:	44000115 	stw	r16,4(r8)
    4370:	d8c12015 	stw	r3,1152(sp)
    4374:	d9011f15 	stw	r4,1148(sp)
    4378:	014001c4 	movi	r5,7
    437c:	2901d616 	blt	r5,r4,4ad8 <___vfprintf_internal_r+0x1c4c>
    4380:	42000204 	addi	r8,r8,8
    4384:	8001df16 	blt	r16,zero,4b04 <___vfprintf_internal_r+0x1c78>
    4388:	1421c83a 	sub	r16,r2,r16
    438c:	043ce60e 	bge	zero,r16,3728 <__alt_data_end+0xf8003728>
    4390:	04800404 	movi	r18,16
    4394:	d8811f17 	ldw	r2,1148(sp)
    4398:	943efc0e 	bge	r18,r16,3f8c <__alt_data_end+0xf8003f8c>
    439c:	014000b4 	movhi	r5,2
    43a0:	29679184 	addi	r5,r5,-25018
    43a4:	d9412c15 	stw	r5,1200(sp)
    43a8:	054001c4 	movi	r21,7
    43ac:	00000306 	br	43bc <___vfprintf_internal_r+0x1530>
    43b0:	42000204 	addi	r8,r8,8
    43b4:	843ffc04 	addi	r16,r16,-16
    43b8:	943ef70e 	bge	r18,r16,3f98 <__alt_data_end+0xf8003f98>
    43bc:	18c00404 	addi	r3,r3,16
    43c0:	10800044 	addi	r2,r2,1
    43c4:	45000015 	stw	r20,0(r8)
    43c8:	44800115 	stw	r18,4(r8)
    43cc:	d8c12015 	stw	r3,1152(sp)
    43d0:	d8811f15 	stw	r2,1148(sp)
    43d4:	a8bff60e 	bge	r21,r2,43b0 <__alt_data_end+0xf80043b0>
    43d8:	b009883a 	mov	r4,r22
    43dc:	b80b883a 	mov	r5,r23
    43e0:	d9811e04 	addi	r6,sp,1144
    43e4:	000ff240 	call	ff24 <__sprint_r>
    43e8:	103bbf1e 	bne	r2,zero,32e8 <__alt_data_end+0xf80032e8>
    43ec:	d8c12017 	ldw	r3,1152(sp)
    43f0:	d8811f17 	ldw	r2,1148(sp)
    43f4:	da000404 	addi	r8,sp,16
    43f8:	003fee06 	br	43b4 <__alt_data_end+0xf80043b4>
    43fc:	8888703a 	and	r4,r17,r2
    4400:	203eab1e 	bne	r4,zero,3eb0 <__alt_data_end+0xf8003eb0>
    4404:	dc011f17 	ldw	r16,1148(sp)
    4408:	db013117 	ldw	r12,1220(sp)
    440c:	40800115 	stw	r2,4(r8)
    4410:	84000044 	addi	r16,r16,1
    4414:	43000015 	stw	r12,0(r8)
    4418:	d8c12015 	stw	r3,1152(sp)
    441c:	dc011f15 	stw	r16,1148(sp)
    4420:	008001c4 	movi	r2,7
    4424:	14000e16 	blt	r2,r16,4460 <___vfprintf_internal_r+0x15d4>
    4428:	44800204 	addi	r18,r8,8
    442c:	003ecb06 	br	3f5c <__alt_data_end+0xf8003f5c>
    4430:	008000b4 	movhi	r2,2
    4434:	10a79184 	addi	r2,r2,-25018
    4438:	d8812c15 	stw	r2,1200(sp)
    443c:	dac12c17 	ldw	r11,1200(sp)
    4440:	1d47883a 	add	r3,r3,r21
    4444:	84000044 	addi	r16,r16,1
    4448:	92c00015 	stw	r11,0(r18)
    444c:	95400115 	stw	r21,4(r18)
    4450:	d8c12015 	stw	r3,1152(sp)
    4454:	dc011f15 	stw	r16,1148(sp)
    4458:	008001c4 	movi	r2,7
    445c:	143ebe0e 	bge	r2,r16,3f58 <__alt_data_end+0xf8003f58>
    4460:	b009883a 	mov	r4,r22
    4464:	b80b883a 	mov	r5,r23
    4468:	d9811e04 	addi	r6,sp,1144
    446c:	000ff240 	call	ff24 <__sprint_r>
    4470:	103b9d1e 	bne	r2,zero,32e8 <__alt_data_end+0xf80032e8>
    4474:	d8c12017 	ldw	r3,1152(sp)
    4478:	dc011f17 	ldw	r16,1148(sp)
    447c:	dc800404 	addi	r18,sp,16
    4480:	003eb606 	br	3f5c <__alt_data_end+0xf8003f5c>
    4484:	b009883a 	mov	r4,r22
    4488:	b80b883a 	mov	r5,r23
    448c:	d9811e04 	addi	r6,sp,1144
    4490:	000ff240 	call	ff24 <__sprint_r>
    4494:	103b941e 	bne	r2,zero,32e8 <__alt_data_end+0xf80032e8>
    4498:	d8c12017 	ldw	r3,1152(sp)
    449c:	dc011f17 	ldw	r16,1148(sp)
    44a0:	da000404 	addi	r8,sp,16
    44a4:	003e8d06 	br	3edc <__alt_data_end+0xf8003edc>
    44a8:	b009883a 	mov	r4,r22
    44ac:	b80b883a 	mov	r5,r23
    44b0:	d9811e04 	addi	r6,sp,1144
    44b4:	000ff240 	call	ff24 <__sprint_r>
    44b8:	103b8b1e 	bne	r2,zero,32e8 <__alt_data_end+0xf80032e8>
    44bc:	d8c12017 	ldw	r3,1152(sp)
    44c0:	dc011f17 	ldw	r16,1148(sp)
    44c4:	dc800404 	addi	r18,sp,16
    44c8:	003e8f06 	br	3f08 <__alt_data_end+0xf8003f08>
    44cc:	db010e04 	addi	r12,sp,1080
    44d0:	0025883a 	mov	r18,zero
    44d4:	db013115 	stw	r12,1220(sp)
    44d8:	003bfb06 	br	34c8 <__alt_data_end+0xf80034c8>
    44dc:	b009883a 	mov	r4,r22
    44e0:	b80b883a 	mov	r5,r23
    44e4:	d9811e04 	addi	r6,sp,1144
    44e8:	000ff240 	call	ff24 <__sprint_r>
    44ec:	103b7e1e 	bne	r2,zero,32e8 <__alt_data_end+0xf80032e8>
    44f0:	d8c12017 	ldw	r3,1152(sp)
    44f4:	da000404 	addi	r8,sp,16
    44f8:	003c5506 	br	3650 <__alt_data_end+0xf8003650>
    44fc:	04e7c83a 	sub	r19,zero,r19
    4500:	9804c03a 	cmpne	r2,r19,zero
    4504:	0739c83a 	sub	fp,zero,fp
    4508:	e0b9c83a 	sub	fp,fp,r2
    450c:	05400b44 	movi	r21,45
    4510:	dd412785 	stb	r21,1182(sp)
    4514:	da413215 	stw	r9,1224(sp)
    4518:	00800044 	movi	r2,1
    451c:	9f06b03a 	or	r3,r19,fp
    4520:	003bcf06 	br	3460 <__alt_data_end+0xf8003460>
    4524:	da013f15 	stw	r8,1276(sp)
    4528:	da413e15 	stw	r9,1272(sp)
    452c:	000a4300 	call	a430 <__fpclassifyd>
    4530:	da013f17 	ldw	r8,1276(sp)
    4534:	da413e17 	ldw	r9,1272(sp)
    4538:	1000ce26 	beq	r2,zero,4874 <___vfprintf_internal_r+0x19e8>
    453c:	057ff7c4 	movi	r21,-33
    4540:	00bfffc4 	movi	r2,-1
    4544:	856a703a 	and	r21,r16,r21
    4548:	4881f026 	beq	r9,r2,4d0c <___vfprintf_internal_r+0x1e80>
    454c:	008011c4 	movi	r2,71
    4550:	a881e526 	beq	r21,r2,4ce8 <___vfprintf_internal_r+0x1e5c>
    4554:	db013917 	ldw	r12,1252(sp)
    4558:	8ac04014 	ori	r11,r17,256
    455c:	dac12d15 	stw	r11,1204(sp)
    4560:	6001e416 	blt	r12,zero,4cf4 <___vfprintf_internal_r+0x1e68>
    4564:	dc813917 	ldw	r18,1252(sp)
    4568:	d8012b05 	stb	zero,1196(sp)
    456c:	00801984 	movi	r2,102
    4570:	80811826 	beq	r16,r2,49d4 <___vfprintf_internal_r+0x1b48>
    4574:	00801184 	movi	r2,70
    4578:	80811626 	beq	r16,r2,49d4 <___vfprintf_internal_r+0x1b48>
    457c:	00801144 	movi	r2,69
    4580:	a881e026 	beq	r21,r2,4d04 <___vfprintf_internal_r+0x1e78>
    4584:	4839883a 	mov	fp,r9
    4588:	d8812604 	addi	r2,sp,1176
    458c:	d8800115 	stw	r2,4(sp)
    4590:	d9413717 	ldw	r5,1244(sp)
    4594:	d8812504 	addi	r2,sp,1172
    4598:	d8800215 	stw	r2,8(sp)
    459c:	d8812104 	addi	r2,sp,1156
    45a0:	df000015 	stw	fp,0(sp)
    45a4:	d8800315 	stw	r2,12(sp)
    45a8:	b009883a 	mov	r4,r22
    45ac:	900d883a 	mov	r6,r18
    45b0:	01c00084 	movi	r7,2
    45b4:	da013f15 	stw	r8,1276(sp)
    45b8:	da413e15 	stw	r9,1272(sp)
    45bc:	000528c0 	call	528c <_dtoa_r>
    45c0:	d8813115 	stw	r2,1220(sp)
    45c4:	008019c4 	movi	r2,103
    45c8:	da013f17 	ldw	r8,1276(sp)
    45cc:	da413e17 	ldw	r9,1272(sp)
    45d0:	80800226 	beq	r16,r2,45dc <___vfprintf_internal_r+0x1750>
    45d4:	008011c4 	movi	r2,71
    45d8:	8081101e 	bne	r16,r2,4a1c <___vfprintf_internal_r+0x1b90>
    45dc:	8880004c 	andi	r2,r17,1
    45e0:	1001df26 	beq	r2,zero,4d60 <___vfprintf_internal_r+0x1ed4>
    45e4:	db013117 	ldw	r12,1220(sp)
    45e8:	6715883a 	add	r10,r12,fp
    45ec:	d9013717 	ldw	r4,1244(sp)
    45f0:	900b883a 	mov	r5,r18
    45f4:	000d883a 	mov	r6,zero
    45f8:	000f883a 	mov	r7,zero
    45fc:	da013f15 	stw	r8,1276(sp)
    4600:	da413e15 	stw	r9,1272(sp)
    4604:	da813d15 	stw	r10,1268(sp)
    4608:	0015a4c0 	call	15a4c <__eqdf2>
    460c:	da013f17 	ldw	r8,1276(sp)
    4610:	da413e17 	ldw	r9,1272(sp)
    4614:	da813d17 	ldw	r10,1268(sp)
    4618:	10016526 	beq	r2,zero,4bb0 <___vfprintf_internal_r+0x1d24>
    461c:	d8812117 	ldw	r2,1156(sp)
    4620:	1280062e 	bgeu	r2,r10,463c <___vfprintf_internal_r+0x17b0>
    4624:	01000c04 	movi	r4,48
    4628:	10c00044 	addi	r3,r2,1
    462c:	d8c12115 	stw	r3,1156(sp)
    4630:	11000005 	stb	r4,0(r2)
    4634:	d8812117 	ldw	r2,1156(sp)
    4638:	12bffb36 	bltu	r2,r10,4628 <__alt_data_end+0xf8004628>
    463c:	db013117 	ldw	r12,1220(sp)
    4640:	1305c83a 	sub	r2,r2,r12
    4644:	d8813315 	stw	r2,1228(sp)
    4648:	008011c4 	movi	r2,71
    464c:	a8814a26 	beq	r21,r2,4b78 <___vfprintf_internal_r+0x1cec>
    4650:	00801944 	movi	r2,101
    4654:	14020a0e 	bge	r2,r16,4e80 <___vfprintf_internal_r+0x1ff4>
    4658:	00801984 	movi	r2,102
    465c:	8081b626 	beq	r16,r2,4d38 <___vfprintf_internal_r+0x1eac>
    4660:	db012617 	ldw	r12,1176(sp)
    4664:	db013415 	stw	r12,1232(sp)
    4668:	db013417 	ldw	r12,1232(sp)
    466c:	dac13317 	ldw	r11,1228(sp)
    4670:	62c1a816 	blt	r12,r11,4d14 <___vfprintf_internal_r+0x1e88>
    4674:	8c40004c 	andi	r17,r17,1
    4678:	8801ca1e 	bne	r17,zero,4da4 <___vfprintf_internal_r+0x1f18>
    467c:	6005883a 	mov	r2,r12
    4680:	6001b516 	blt	r12,zero,4d58 <___vfprintf_internal_r+0x1ecc>
    4684:	dc813417 	ldw	r18,1232(sp)
    4688:	df012b07 	ldb	fp,1196(sp)
    468c:	e001321e 	bne	fp,zero,4b58 <___vfprintf_internal_r+0x1ccc>
    4690:	dc412d17 	ldw	r17,1204(sp)
    4694:	dd412783 	ldbu	r21,1182(sp)
    4698:	d8812b15 	stw	r2,1196(sp)
    469c:	dcc12d15 	stw	r19,1204(sp)
    46a0:	d8013215 	stw	zero,1224(sp)
    46a4:	003b8d06 	br	34dc <__alt_data_end+0xf80034dc>
    46a8:	88c0100c 	andi	r3,r17,64
    46ac:	18008226 	beq	r3,zero,48b8 <___vfprintf_internal_r+0x1a2c>
    46b0:	dac12d17 	ldw	r11,1204(sp)
    46b4:	14c0000b 	ldhu	r19,0(r2)
    46b8:	0039883a 	mov	fp,zero
    46bc:	5ac00104 	addi	r11,r11,4
    46c0:	dac12d15 	stw	r11,1204(sp)
    46c4:	003c8f06 	br	3904 <__alt_data_end+0xf8003904>
    46c8:	1c000007 	ldb	r16,0(r3)
    46cc:	1805883a 	mov	r2,r3
    46d0:	003a5506 	br	3028 <__alt_data_end+0xf8003028>
    46d4:	00800084 	movi	r2,2
    46d8:	003b5e06 	br	3454 <__alt_data_end+0xf8003454>
    46dc:	8880040c 	andi	r2,r17,16
    46e0:	1000091e 	bne	r2,zero,4708 <___vfprintf_internal_r+0x187c>
    46e4:	8c40100c 	andi	r17,r17,64
    46e8:	88000726 	beq	r17,zero,4708 <___vfprintf_internal_r+0x187c>
    46ec:	db012d17 	ldw	r12,1204(sp)
    46f0:	dac12f17 	ldw	r11,1212(sp)
    46f4:	60800017 	ldw	r2,0(r12)
    46f8:	63000104 	addi	r12,r12,4
    46fc:	db012d15 	stw	r12,1204(sp)
    4700:	12c0000d 	sth	r11,0(r2)
    4704:	003a1e06 	br	2f80 <__alt_data_end+0xf8002f80>
    4708:	db012d17 	ldw	r12,1204(sp)
    470c:	dac12f17 	ldw	r11,1212(sp)
    4710:	60800017 	ldw	r2,0(r12)
    4714:	63000104 	addi	r12,r12,4
    4718:	db012d15 	stw	r12,1204(sp)
    471c:	12c00015 	stw	r11,0(r2)
    4720:	003a1706 	br	2f80 <__alt_data_end+0xf8002f80>
    4724:	010000b4 	movhi	r4,2
    4728:	21279184 	addi	r4,r4,-25018
    472c:	d9012c15 	stw	r4,1200(sp)
    4730:	dac12c17 	ldw	r11,1200(sp)
    4734:	1c87883a 	add	r3,r3,r18
    4738:	10800044 	addi	r2,r2,1
    473c:	42c00015 	stw	r11,0(r8)
    4740:	44800115 	stw	r18,4(r8)
    4744:	d8c12015 	stw	r3,1152(sp)
    4748:	d8811f15 	stw	r2,1148(sp)
    474c:	010001c4 	movi	r4,7
    4750:	20bee016 	blt	r4,r2,42d4 <__alt_data_end+0xf80042d4>
    4754:	42000204 	addi	r8,r8,8
    4758:	003ee506 	br	42f0 <__alt_data_end+0xf80042f0>
    475c:	010000b4 	movhi	r4,2
    4760:	21279184 	addi	r4,r4,-25018
    4764:	d9012c15 	stw	r4,1200(sp)
    4768:	003bd806 	br	36cc <__alt_data_end+0xf80036cc>
    476c:	b009883a 	mov	r4,r22
    4770:	b80b883a 	mov	r5,r23
    4774:	d9811e04 	addi	r6,sp,1144
    4778:	000ff240 	call	ff24 <__sprint_r>
    477c:	103ada1e 	bne	r2,zero,32e8 <__alt_data_end+0xf80032e8>
    4780:	d8c12017 	ldw	r3,1152(sp)
    4784:	da000404 	addi	r8,sp,16
    4788:	003d6b06 	br	3d38 <__alt_data_end+0xf8003d38>
    478c:	d8811f17 	ldw	r2,1148(sp)
    4790:	030000b4 	movhi	r12,2
    4794:	01000044 	movi	r4,1
    4798:	18c00044 	addi	r3,r3,1
    479c:	10800044 	addi	r2,r2,1
    47a0:	63279104 	addi	r12,r12,-25020
    47a4:	41000115 	stw	r4,4(r8)
    47a8:	43000015 	stw	r12,0(r8)
    47ac:	d8c12015 	stw	r3,1152(sp)
    47b0:	d8811f15 	stw	r2,1148(sp)
    47b4:	010001c4 	movi	r4,7
    47b8:	20804916 	blt	r4,r2,48e0 <___vfprintf_internal_r+0x1a54>
    47bc:	42000204 	addi	r8,r8,8
    47c0:	8000041e 	bne	r16,zero,47d4 <___vfprintf_internal_r+0x1948>
    47c4:	dac13317 	ldw	r11,1228(sp)
    47c8:	5800021e 	bne	r11,zero,47d4 <___vfprintf_internal_r+0x1948>
    47cc:	8880004c 	andi	r2,r17,1
    47d0:	103bd526 	beq	r2,zero,3728 <__alt_data_end+0xf8003728>
    47d4:	db013817 	ldw	r12,1248(sp)
    47d8:	d8811f17 	ldw	r2,1148(sp)
    47dc:	dac13517 	ldw	r11,1236(sp)
    47e0:	1b07883a 	add	r3,r3,r12
    47e4:	10800044 	addi	r2,r2,1
    47e8:	42c00015 	stw	r11,0(r8)
    47ec:	43000115 	stw	r12,4(r8)
    47f0:	d8c12015 	stw	r3,1152(sp)
    47f4:	d8811f15 	stw	r2,1148(sp)
    47f8:	010001c4 	movi	r4,7
    47fc:	20813016 	blt	r4,r2,4cc0 <___vfprintf_internal_r+0x1e34>
    4800:	42000204 	addi	r8,r8,8
    4804:	0421c83a 	sub	r16,zero,r16
    4808:	0400630e 	bge	zero,r16,4998 <___vfprintf_internal_r+0x1b0c>
    480c:	04800404 	movi	r18,16
    4810:	94009f0e 	bge	r18,r16,4a90 <___vfprintf_internal_r+0x1c04>
    4814:	010000b4 	movhi	r4,2
    4818:	21279184 	addi	r4,r4,-25018
    481c:	d9012c15 	stw	r4,1200(sp)
    4820:	054001c4 	movi	r21,7
    4824:	00000306 	br	4834 <___vfprintf_internal_r+0x19a8>
    4828:	42000204 	addi	r8,r8,8
    482c:	843ffc04 	addi	r16,r16,-16
    4830:	94009a0e 	bge	r18,r16,4a9c <___vfprintf_internal_r+0x1c10>
    4834:	18c00404 	addi	r3,r3,16
    4838:	10800044 	addi	r2,r2,1
    483c:	45000015 	stw	r20,0(r8)
    4840:	44800115 	stw	r18,4(r8)
    4844:	d8c12015 	stw	r3,1152(sp)
    4848:	d8811f15 	stw	r2,1148(sp)
    484c:	a8bff60e 	bge	r21,r2,4828 <__alt_data_end+0xf8004828>
    4850:	b009883a 	mov	r4,r22
    4854:	b80b883a 	mov	r5,r23
    4858:	d9811e04 	addi	r6,sp,1144
    485c:	000ff240 	call	ff24 <__sprint_r>
    4860:	103aa11e 	bne	r2,zero,32e8 <__alt_data_end+0xf80032e8>
    4864:	d8c12017 	ldw	r3,1152(sp)
    4868:	d8811f17 	ldw	r2,1148(sp)
    486c:	da000404 	addi	r8,sp,16
    4870:	003fee06 	br	482c <__alt_data_end+0xf800482c>
    4874:	008011c4 	movi	r2,71
    4878:	1400b316 	blt	r2,r16,4b48 <___vfprintf_internal_r+0x1cbc>
    487c:	030000b4 	movhi	r12,2
    4880:	63278304 	addi	r12,r12,-25076
    4884:	db013115 	stw	r12,1220(sp)
    4888:	00c000c4 	movi	r3,3
    488c:	00bfdfc4 	movi	r2,-129
    4890:	d8c12b15 	stw	r3,1196(sp)
    4894:	88a2703a 	and	r17,r17,r2
    4898:	dd412783 	ldbu	r21,1182(sp)
    489c:	dcc12d15 	stw	r19,1204(sp)
    48a0:	1825883a 	mov	r18,r3
    48a4:	d8013215 	stw	zero,1224(sp)
    48a8:	d8013415 	stw	zero,1232(sp)
    48ac:	003b0b06 	br	34dc <__alt_data_end+0xf80034dc>
    48b0:	4825883a 	mov	r18,r9
    48b4:	003cba06 	br	3ba0 <__alt_data_end+0xf8003ba0>
    48b8:	db012d17 	ldw	r12,1204(sp)
    48bc:	14c00017 	ldw	r19,0(r2)
    48c0:	0039883a 	mov	fp,zero
    48c4:	63000104 	addi	r12,r12,4
    48c8:	db012d15 	stw	r12,1204(sp)
    48cc:	003c0d06 	br	3904 <__alt_data_end+0xf8003904>
    48d0:	008000b4 	movhi	r2,2
    48d4:	10a78104 	addi	r2,r2,-25084
    48d8:	d8813115 	stw	r2,1220(sp)
    48dc:	003ac406 	br	33f0 <__alt_data_end+0xf80033f0>
    48e0:	b009883a 	mov	r4,r22
    48e4:	b80b883a 	mov	r5,r23
    48e8:	d9811e04 	addi	r6,sp,1144
    48ec:	000ff240 	call	ff24 <__sprint_r>
    48f0:	103a7d1e 	bne	r2,zero,32e8 <__alt_data_end+0xf80032e8>
    48f4:	dc012617 	ldw	r16,1176(sp)
    48f8:	d8c12017 	ldw	r3,1152(sp)
    48fc:	da000404 	addi	r8,sp,16
    4900:	003faf06 	br	47c0 <__alt_data_end+0xf80047c0>
    4904:	db012e17 	ldw	r12,1208(sp)
    4908:	1805883a 	mov	r2,r3
    490c:	dac12d15 	stw	r11,1204(sp)
    4910:	0319c83a 	sub	r12,zero,r12
    4914:	db012e15 	stw	r12,1208(sp)
    4918:	003a7e06 	br	3314 <__alt_data_end+0xf8003314>
    491c:	18800044 	addi	r2,r3,1
    4920:	8c400814 	ori	r17,r17,32
    4924:	1c000047 	ldb	r16,1(r3)
    4928:	0039bf06 	br	3028 <__alt_data_end+0xf8003028>
    492c:	b009883a 	mov	r4,r22
    4930:	b80b883a 	mov	r5,r23
    4934:	d9811e04 	addi	r6,sp,1144
    4938:	000ff240 	call	ff24 <__sprint_r>
    493c:	103a6a1e 	bne	r2,zero,32e8 <__alt_data_end+0xf80032e8>
    4940:	d8c12017 	ldw	r3,1152(sp)
    4944:	da000404 	addi	r8,sp,16
    4948:	003d0c06 	br	3d7c <__alt_data_end+0xf8003d7c>
    494c:	db012817 	ldw	r12,1184(sp)
    4950:	d8c13117 	ldw	r3,1220(sp)
    4954:	60e5c83a 	sub	r18,r12,r3
    4958:	003adb06 	br	34c8 <__alt_data_end+0xf80034c8>
    495c:	da013f15 	stw	r8,1276(sp)
    4960:	000168c0 	call	168c <strlen>
    4964:	1025883a 	mov	r18,r2
    4968:	da013f17 	ldw	r8,1276(sp)
    496c:	903c8e0e 	bge	r18,zero,3ba8 <__alt_data_end+0xf8003ba8>
    4970:	0005883a 	mov	r2,zero
    4974:	003c8c06 	br	3ba8 <__alt_data_end+0xf8003ba8>
    4978:	b009883a 	mov	r4,r22
    497c:	b80b883a 	mov	r5,r23
    4980:	d9811e04 	addi	r6,sp,1144
    4984:	000ff240 	call	ff24 <__sprint_r>
    4988:	103a571e 	bne	r2,zero,32e8 <__alt_data_end+0xf80032e8>
    498c:	d8c12017 	ldw	r3,1152(sp)
    4990:	d8811f17 	ldw	r2,1148(sp)
    4994:	da000404 	addi	r8,sp,16
    4998:	db013317 	ldw	r12,1228(sp)
    499c:	dac13117 	ldw	r11,1220(sp)
    49a0:	10800044 	addi	r2,r2,1
    49a4:	60c7883a 	add	r3,r12,r3
    49a8:	42c00015 	stw	r11,0(r8)
    49ac:	43000115 	stw	r12,4(r8)
    49b0:	d8c12015 	stw	r3,1152(sp)
    49b4:	d8811f15 	stw	r2,1148(sp)
    49b8:	010001c4 	movi	r4,7
    49bc:	20bb590e 	bge	r4,r2,3724 <__alt_data_end+0xf8003724>
    49c0:	003d7e06 	br	3fbc <__alt_data_end+0xf8003fbc>
    49c4:	010000b4 	movhi	r4,2
    49c8:	21279584 	addi	r4,r4,-25002
    49cc:	d9013615 	stw	r4,1240(sp)
    49d0:	003af606 	br	35ac <__alt_data_end+0xf80035ac>
    49d4:	d8812604 	addi	r2,sp,1176
    49d8:	d8800115 	stw	r2,4(sp)
    49dc:	d9413717 	ldw	r5,1244(sp)
    49e0:	d8812504 	addi	r2,sp,1172
    49e4:	d8800215 	stw	r2,8(sp)
    49e8:	d8812104 	addi	r2,sp,1156
    49ec:	da400015 	stw	r9,0(sp)
    49f0:	d8800315 	stw	r2,12(sp)
    49f4:	b009883a 	mov	r4,r22
    49f8:	900d883a 	mov	r6,r18
    49fc:	01c000c4 	movi	r7,3
    4a00:	da013f15 	stw	r8,1276(sp)
    4a04:	da413e15 	stw	r9,1272(sp)
    4a08:	000528c0 	call	528c <_dtoa_r>
    4a0c:	da413e17 	ldw	r9,1272(sp)
    4a10:	da013f17 	ldw	r8,1276(sp)
    4a14:	d8813115 	stw	r2,1220(sp)
    4a18:	4839883a 	mov	fp,r9
    4a1c:	dac13117 	ldw	r11,1220(sp)
    4a20:	00801184 	movi	r2,70
    4a24:	5f15883a 	add	r10,r11,fp
    4a28:	a8bef01e 	bne	r21,r2,45ec <__alt_data_end+0xf80045ec>
    4a2c:	59000007 	ldb	r4,0(r11)
    4a30:	00800c04 	movi	r2,48
    4a34:	2080e026 	beq	r4,r2,4db8 <___vfprintf_internal_r+0x1f2c>
    4a38:	d8c12617 	ldw	r3,1176(sp)
    4a3c:	50d5883a 	add	r10,r10,r3
    4a40:	003eea06 	br	45ec <__alt_data_end+0xf80045ec>
    4a44:	0025883a 	mov	r18,zero
    4a48:	003db306 	br	4118 <__alt_data_end+0xf8004118>
    4a4c:	b009883a 	mov	r4,r22
    4a50:	b80b883a 	mov	r5,r23
    4a54:	d9811e04 	addi	r6,sp,1144
    4a58:	000ff240 	call	ff24 <__sprint_r>
    4a5c:	103a221e 	bne	r2,zero,32e8 <__alt_data_end+0xf80032e8>
    4a60:	d8c12017 	ldw	r3,1152(sp)
    4a64:	da000404 	addi	r8,sp,16
    4a68:	003daa06 	br	4114 <__alt_data_end+0xf8004114>
    4a6c:	b009883a 	mov	r4,r22
    4a70:	b80b883a 	mov	r5,r23
    4a74:	d9811e04 	addi	r6,sp,1144
    4a78:	000ff240 	call	ff24 <__sprint_r>
    4a7c:	103a1a1e 	bne	r2,zero,32e8 <__alt_data_end+0xf80032e8>
    4a80:	d8812617 	ldw	r2,1176(sp)
    4a84:	d8c12017 	ldw	r3,1152(sp)
    4a88:	da000404 	addi	r8,sp,16
    4a8c:	003e2c06 	br	4340 <__alt_data_end+0xf8004340>
    4a90:	030000b4 	movhi	r12,2
    4a94:	63279184 	addi	r12,r12,-25018
    4a98:	db012c15 	stw	r12,1200(sp)
    4a9c:	dac12c17 	ldw	r11,1200(sp)
    4aa0:	1c07883a 	add	r3,r3,r16
    4aa4:	10800044 	addi	r2,r2,1
    4aa8:	42c00015 	stw	r11,0(r8)
    4aac:	44000115 	stw	r16,4(r8)
    4ab0:	d8c12015 	stw	r3,1152(sp)
    4ab4:	d8811f15 	stw	r2,1148(sp)
    4ab8:	010001c4 	movi	r4,7
    4abc:	20bfae16 	blt	r4,r2,4978 <__alt_data_end+0xf8004978>
    4ac0:	42000204 	addi	r8,r8,8
    4ac4:	003fb406 	br	4998 <__alt_data_end+0xf8004998>
    4ac8:	030000b4 	movhi	r12,2
    4acc:	63279584 	addi	r12,r12,-25002
    4ad0:	db013615 	stw	r12,1240(sp)
    4ad4:	003b3806 	br	37b8 <__alt_data_end+0xf80037b8>
    4ad8:	b009883a 	mov	r4,r22
    4adc:	b80b883a 	mov	r5,r23
    4ae0:	d9811e04 	addi	r6,sp,1144
    4ae4:	000ff240 	call	ff24 <__sprint_r>
    4ae8:	1039ff1e 	bne	r2,zero,32e8 <__alt_data_end+0xf80032e8>
    4aec:	d8812617 	ldw	r2,1176(sp)
    4af0:	db013317 	ldw	r12,1228(sp)
    4af4:	d8c12017 	ldw	r3,1152(sp)
    4af8:	da000404 	addi	r8,sp,16
    4afc:	6085c83a 	sub	r2,r12,r2
    4b00:	003e2006 	br	4384 <__alt_data_end+0xf8004384>
    4b04:	0021883a 	mov	r16,zero
    4b08:	003e1f06 	br	4388 <__alt_data_end+0xf8004388>
    4b0c:	00800184 	movi	r2,6
    4b10:	1240012e 	bgeu	r2,r9,4b18 <___vfprintf_internal_r+0x1c8c>
    4b14:	1013883a 	mov	r9,r2
    4b18:	4825883a 	mov	r18,r9
    4b1c:	4805883a 	mov	r2,r9
    4b20:	48009e16 	blt	r9,zero,4d9c <___vfprintf_internal_r+0x1f10>
    4b24:	d8812b15 	stw	r2,1196(sp)
    4b28:	008000b4 	movhi	r2,2
    4b2c:	10a78f04 	addi	r2,r2,-25028
    4b30:	d8813115 	stw	r2,1220(sp)
    4b34:	dcc12d15 	stw	r19,1204(sp)
    4b38:	d8013215 	stw	zero,1224(sp)
    4b3c:	d8013415 	stw	zero,1232(sp)
    4b40:	0005883a 	mov	r2,zero
    4b44:	003a6c06 	br	34f8 <__alt_data_end+0xf80034f8>
    4b48:	008000b4 	movhi	r2,2
    4b4c:	10a78404 	addi	r2,r2,-25072
    4b50:	d8813115 	stw	r2,1220(sp)
    4b54:	003f4c06 	br	4888 <__alt_data_end+0xf8004888>
    4b58:	00c00b44 	movi	r3,45
    4b5c:	d8812b15 	stw	r2,1196(sp)
    4b60:	dc412d17 	ldw	r17,1204(sp)
    4b64:	d8c12785 	stb	r3,1182(sp)
    4b68:	dcc12d15 	stw	r19,1204(sp)
    4b6c:	d8013215 	stw	zero,1224(sp)
    4b70:	00800b44 	movi	r2,45
    4b74:	003a5d06 	br	34ec <__alt_data_end+0xf80034ec>
    4b78:	d8c12617 	ldw	r3,1176(sp)
    4b7c:	00bfff44 	movi	r2,-3
    4b80:	18800d16 	blt	r3,r2,4bb8 <___vfprintf_internal_r+0x1d2c>
    4b84:	48c00c16 	blt	r9,r3,4bb8 <___vfprintf_internal_r+0x1d2c>
    4b88:	d8c13415 	stw	r3,1232(sp)
    4b8c:	040019c4 	movi	r16,103
    4b90:	003eb506 	br	4668 <__alt_data_end+0xf8004668>
    4b94:	05400b44 	movi	r21,45
    4b98:	dd412785 	stb	r21,1182(sp)
    4b9c:	003a0f06 	br	33dc <__alt_data_end+0xf80033dc>
    4ba0:	010000b4 	movhi	r4,2
    4ba4:	21279184 	addi	r4,r4,-25018
    4ba8:	d9012c15 	stw	r4,1200(sp)
    4bac:	003cb106 	br	3e74 <__alt_data_end+0xf8003e74>
    4bb0:	5005883a 	mov	r2,r10
    4bb4:	003ea106 	br	463c <__alt_data_end+0xf800463c>
    4bb8:	843fff84 	addi	r16,r16,-2
    4bbc:	1f3fffc4 	addi	fp,r3,-1
    4bc0:	df012615 	stw	fp,1176(sp)
    4bc4:	dc0122c5 	stb	r16,1163(sp)
    4bc8:	e0009516 	blt	fp,zero,4e20 <___vfprintf_internal_r+0x1f94>
    4bcc:	00800ac4 	movi	r2,43
    4bd0:	d8812305 	stb	r2,1164(sp)
    4bd4:	00800244 	movi	r2,9
    4bd8:	1700690e 	bge	r2,fp,4d80 <___vfprintf_internal_r+0x1ef4>
    4bdc:	dd4122c4 	addi	r21,sp,1163
    4be0:	dc012c15 	stw	r16,1200(sp)
    4be4:	8825883a 	mov	r18,r17
    4be8:	a821883a 	mov	r16,r21
    4bec:	4023883a 	mov	r17,r8
    4bf0:	e009883a 	mov	r4,fp
    4bf4:	01400284 	movi	r5,10
    4bf8:	00146940 	call	14694 <__modsi3>
    4bfc:	10800c04 	addi	r2,r2,48
    4c00:	843fffc4 	addi	r16,r16,-1
    4c04:	e009883a 	mov	r4,fp
    4c08:	01400284 	movi	r5,10
    4c0c:	80800005 	stb	r2,0(r16)
    4c10:	00146400 	call	14640 <__divsi3>
    4c14:	1039883a 	mov	fp,r2
    4c18:	00800244 	movi	r2,9
    4c1c:	173ff416 	blt	r2,fp,4bf0 <__alt_data_end+0xf8004bf0>
    4c20:	8811883a 	mov	r8,r17
    4c24:	e0800c04 	addi	r2,fp,48
    4c28:	9023883a 	mov	r17,r18
    4c2c:	8025883a 	mov	r18,r16
    4c30:	913fffc4 	addi	r4,r18,-1
    4c34:	90bfffc5 	stb	r2,-1(r18)
    4c38:	dc012c17 	ldw	r16,1200(sp)
    4c3c:	25408e2e 	bgeu	r4,r21,4e78 <___vfprintf_internal_r+0x1fec>
    4c40:	d9412384 	addi	r5,sp,1166
    4c44:	2c8bc83a 	sub	r5,r5,r18
    4c48:	d8c12344 	addi	r3,sp,1165
    4c4c:	a94b883a 	add	r5,r21,r5
    4c50:	00000106 	br	4c58 <___vfprintf_internal_r+0x1dcc>
    4c54:	20800003 	ldbu	r2,0(r4)
    4c58:	18800005 	stb	r2,0(r3)
    4c5c:	18c00044 	addi	r3,r3,1
    4c60:	21000044 	addi	r4,r4,1
    4c64:	197ffb1e 	bne	r3,r5,4c54 <__alt_data_end+0xf8004c54>
    4c68:	d8812304 	addi	r2,sp,1164
    4c6c:	1485c83a 	sub	r2,r2,r18
    4c70:	d8c12344 	addi	r3,sp,1165
    4c74:	1885883a 	add	r2,r3,r2
    4c78:	dac13317 	ldw	r11,1228(sp)
    4c7c:	156bc83a 	sub	r21,r2,r21
    4c80:	dd413a15 	stw	r21,1256(sp)
    4c84:	00800044 	movi	r2,1
    4c88:	5d65883a 	add	r18,r11,r21
    4c8c:	12c0770e 	bge	r2,r11,4e6c <___vfprintf_internal_r+0x1fe0>
    4c90:	94800044 	addi	r18,r18,1
    4c94:	9005883a 	mov	r2,r18
    4c98:	90007216 	blt	r18,zero,4e64 <___vfprintf_internal_r+0x1fd8>
    4c9c:	d8013415 	stw	zero,1232(sp)
    4ca0:	003e7906 	br	4688 <__alt_data_end+0xf8004688>
    4ca4:	da412b15 	stw	r9,1196(sp)
    4ca8:	dd412783 	ldbu	r21,1182(sp)
    4cac:	4825883a 	mov	r18,r9
    4cb0:	dcc12d15 	stw	r19,1204(sp)
    4cb4:	d8013215 	stw	zero,1224(sp)
    4cb8:	d8013415 	stw	zero,1232(sp)
    4cbc:	003a0706 	br	34dc <__alt_data_end+0xf80034dc>
    4cc0:	b009883a 	mov	r4,r22
    4cc4:	b80b883a 	mov	r5,r23
    4cc8:	d9811e04 	addi	r6,sp,1144
    4ccc:	000ff240 	call	ff24 <__sprint_r>
    4cd0:	1039851e 	bne	r2,zero,32e8 <__alt_data_end+0xf80032e8>
    4cd4:	dc012617 	ldw	r16,1176(sp)
    4cd8:	d8c12017 	ldw	r3,1152(sp)
    4cdc:	d8811f17 	ldw	r2,1148(sp)
    4ce0:	da000404 	addi	r8,sp,16
    4ce4:	003ec706 	br	4804 <__alt_data_end+0xf8004804>
    4ce8:	483e1a1e 	bne	r9,zero,4554 <__alt_data_end+0xf8004554>
    4cec:	9013883a 	mov	r9,r18
    4cf0:	003e1806 	br	4554 <__alt_data_end+0xf8004554>
    4cf4:	00c00b44 	movi	r3,45
    4cf8:	64a0003c 	xorhi	r18,r12,32768
    4cfc:	d8c12b05 	stb	r3,1196(sp)
    4d00:	003e1a06 	br	456c <__alt_data_end+0xf800456c>
    4d04:	4f000044 	addi	fp,r9,1
    4d08:	003e1f06 	br	4588 <__alt_data_end+0xf8004588>
    4d0c:	02400184 	movi	r9,6
    4d10:	003e1006 	br	4554 <__alt_data_end+0xf8004554>
    4d14:	d8c13417 	ldw	r3,1232(sp)
    4d18:	00c04b0e 	bge	zero,r3,4e48 <___vfprintf_internal_r+0x1fbc>
    4d1c:	04800044 	movi	r18,1
    4d20:	dac13317 	ldw	r11,1228(sp)
    4d24:	92e5883a 	add	r18,r18,r11
    4d28:	9005883a 	mov	r2,r18
    4d2c:	903e560e 	bge	r18,zero,4688 <__alt_data_end+0xf8004688>
    4d30:	0005883a 	mov	r2,zero
    4d34:	003e5406 	br	4688 <__alt_data_end+0xf8004688>
    4d38:	d8c12617 	ldw	r3,1176(sp)
    4d3c:	d8c13415 	stw	r3,1232(sp)
    4d40:	00c03b0e 	bge	zero,r3,4e30 <___vfprintf_internal_r+0x1fa4>
    4d44:	4800081e 	bne	r9,zero,4d68 <___vfprintf_internal_r+0x1edc>
    4d48:	8c40004c 	andi	r17,r17,1
    4d4c:	8800061e 	bne	r17,zero,4d68 <___vfprintf_internal_r+0x1edc>
    4d50:	1805883a 	mov	r2,r3
    4d54:	183e4b0e 	bge	r3,zero,4684 <__alt_data_end+0xf8004684>
    4d58:	0005883a 	mov	r2,zero
    4d5c:	003e4906 	br	4684 <__alt_data_end+0xf8004684>
    4d60:	d8812117 	ldw	r2,1156(sp)
    4d64:	003e3506 	br	463c <__alt_data_end+0xf800463c>
    4d68:	dac13417 	ldw	r11,1232(sp)
    4d6c:	4a400044 	addi	r9,r9,1
    4d70:	5a65883a 	add	r18,r11,r9
    4d74:	9005883a 	mov	r2,r18
    4d78:	903e430e 	bge	r18,zero,4688 <__alt_data_end+0xf8004688>
    4d7c:	003fec06 	br	4d30 <__alt_data_end+0xf8004d30>
    4d80:	00800c04 	movi	r2,48
    4d84:	e0c00c04 	addi	r3,fp,48
    4d88:	d8812345 	stb	r2,1165(sp)
    4d8c:	d8c12385 	stb	r3,1166(sp)
    4d90:	d88123c4 	addi	r2,sp,1167
    4d94:	dd4122c4 	addi	r21,sp,1163
    4d98:	003fb706 	br	4c78 <__alt_data_end+0xf8004c78>
    4d9c:	0005883a 	mov	r2,zero
    4da0:	003f6006 	br	4b24 <__alt_data_end+0xf8004b24>
    4da4:	db013417 	ldw	r12,1232(sp)
    4da8:	64800044 	addi	r18,r12,1
    4dac:	9005883a 	mov	r2,r18
    4db0:	903e350e 	bge	r18,zero,4688 <__alt_data_end+0xf8004688>
    4db4:	003fde06 	br	4d30 <__alt_data_end+0xf8004d30>
    4db8:	d9013717 	ldw	r4,1244(sp)
    4dbc:	900b883a 	mov	r5,r18
    4dc0:	000d883a 	mov	r6,zero
    4dc4:	000f883a 	mov	r7,zero
    4dc8:	da013f15 	stw	r8,1276(sp)
    4dcc:	da413e15 	stw	r9,1272(sp)
    4dd0:	da813d15 	stw	r10,1268(sp)
    4dd4:	0015a4c0 	call	15a4c <__eqdf2>
    4dd8:	da013f17 	ldw	r8,1276(sp)
    4ddc:	da413e17 	ldw	r9,1272(sp)
    4de0:	da813d17 	ldw	r10,1268(sp)
    4de4:	103f1426 	beq	r2,zero,4a38 <__alt_data_end+0xf8004a38>
    4de8:	00800044 	movi	r2,1
    4dec:	1707c83a 	sub	r3,r2,fp
    4df0:	d8c12615 	stw	r3,1176(sp)
    4df4:	003f1106 	br	4a3c <__alt_data_end+0xf8004a3c>
    4df8:	dac12d17 	ldw	r11,1204(sp)
    4dfc:	5a400017 	ldw	r9,0(r11)
    4e00:	5ac00104 	addi	r11,r11,4
    4e04:	dac12d15 	stw	r11,1204(sp)
    4e08:	483ec60e 	bge	r9,zero,4924 <__alt_data_end+0xf8004924>
    4e0c:	027fffc4 	movi	r9,-1
    4e10:	1c000047 	ldb	r16,1(r3)
    4e14:	00388406 	br	3028 <__alt_data_end+0xf8003028>
    4e18:	043fffc4 	movi	r16,-1
    4e1c:	00391006 	br	3260 <__alt_data_end+0xf8003260>
    4e20:	00800b44 	movi	r2,45
    4e24:	0739c83a 	sub	fp,zero,fp
    4e28:	d8812305 	stb	r2,1164(sp)
    4e2c:	003f6906 	br	4bd4 <__alt_data_end+0xf8004bd4>
    4e30:	4800081e 	bne	r9,zero,4e54 <___vfprintf_internal_r+0x1fc8>
    4e34:	8c40004c 	andi	r17,r17,1
    4e38:	8800061e 	bne	r17,zero,4e54 <___vfprintf_internal_r+0x1fc8>
    4e3c:	00800044 	movi	r2,1
    4e40:	1025883a 	mov	r18,r2
    4e44:	003e1006 	br	4688 <__alt_data_end+0xf8004688>
    4e48:	04800084 	movi	r18,2
    4e4c:	90e5c83a 	sub	r18,r18,r3
    4e50:	003fb306 	br	4d20 <__alt_data_end+0xf8004d20>
    4e54:	4c800084 	addi	r18,r9,2
    4e58:	9005883a 	mov	r2,r18
    4e5c:	903e0a0e 	bge	r18,zero,4688 <__alt_data_end+0xf8004688>
    4e60:	003fb306 	br	4d30 <__alt_data_end+0xf8004d30>
    4e64:	0005883a 	mov	r2,zero
    4e68:	003f8c06 	br	4c9c <__alt_data_end+0xf8004c9c>
    4e6c:	88a2703a 	and	r17,r17,r2
    4e70:	883f8826 	beq	r17,zero,4c94 <__alt_data_end+0xf8004c94>
    4e74:	003f8606 	br	4c90 <__alt_data_end+0xf8004c90>
    4e78:	d8812344 	addi	r2,sp,1165
    4e7c:	003f7e06 	br	4c78 <__alt_data_end+0xf8004c78>
    4e80:	d8c12617 	ldw	r3,1176(sp)
    4e84:	003f4d06 	br	4bbc <__alt_data_end+0xf8004bbc>

00004e88 <__vfprintf_internal>:
    4e88:	2007883a 	mov	r3,r4
    4e8c:	010000b4 	movhi	r4,2
    4e90:	21303704 	addi	r4,r4,-16164
    4e94:	21000017 	ldw	r4,0(r4)
    4e98:	2805883a 	mov	r2,r5
    4e9c:	300f883a 	mov	r7,r6
    4ea0:	180b883a 	mov	r5,r3
    4ea4:	100d883a 	mov	r6,r2
    4ea8:	0002e8c1 	jmpi	2e8c <___vfprintf_internal_r>

00004eac <_write_r>:
    4eac:	defffd04 	addi	sp,sp,-12
    4eb0:	dc000015 	stw	r16,0(sp)
    4eb4:	040000b4 	movhi	r16,2
    4eb8:	dc400115 	stw	r17,4(sp)
    4ebc:	84376704 	addi	r16,r16,-8804
    4ec0:	2023883a 	mov	r17,r4
    4ec4:	2809883a 	mov	r4,r5
    4ec8:	300b883a 	mov	r5,r6
    4ecc:	380d883a 	mov	r6,r7
    4ed0:	dfc00215 	stw	ra,8(sp)
    4ed4:	80000015 	stw	zero,0(r16)
    4ed8:	0017b080 	call	17b08 <write>
    4edc:	00ffffc4 	movi	r3,-1
    4ee0:	10c00526 	beq	r2,r3,4ef8 <_write_r+0x4c>
    4ee4:	dfc00217 	ldw	ra,8(sp)
    4ee8:	dc400117 	ldw	r17,4(sp)
    4eec:	dc000017 	ldw	r16,0(sp)
    4ef0:	dec00304 	addi	sp,sp,12
    4ef4:	f800283a 	ret
    4ef8:	80c00017 	ldw	r3,0(r16)
    4efc:	183ff926 	beq	r3,zero,4ee4 <__alt_data_end+0xf8004ee4>
    4f00:	88c00015 	stw	r3,0(r17)
    4f04:	003ff706 	br	4ee4 <__alt_data_end+0xf8004ee4>

00004f08 <__swsetup_r>:
    4f08:	008000b4 	movhi	r2,2
    4f0c:	defffd04 	addi	sp,sp,-12
    4f10:	10b03704 	addi	r2,r2,-16164
    4f14:	dc400115 	stw	r17,4(sp)
    4f18:	2023883a 	mov	r17,r4
    4f1c:	11000017 	ldw	r4,0(r2)
    4f20:	dc000015 	stw	r16,0(sp)
    4f24:	dfc00215 	stw	ra,8(sp)
    4f28:	2821883a 	mov	r16,r5
    4f2c:	20000226 	beq	r4,zero,4f38 <__swsetup_r+0x30>
    4f30:	20c00e17 	ldw	r3,56(r4)
    4f34:	18002e26 	beq	r3,zero,4ff0 <__swsetup_r+0xe8>
    4f38:	8080030b 	ldhu	r2,12(r16)
    4f3c:	10c0020c 	andi	r3,r2,8
    4f40:	100d883a 	mov	r6,r2
    4f44:	18000f26 	beq	r3,zero,4f84 <__swsetup_r+0x7c>
    4f48:	80c00417 	ldw	r3,16(r16)
    4f4c:	18001526 	beq	r3,zero,4fa4 <__swsetup_r+0x9c>
    4f50:	1100004c 	andi	r4,r2,1
    4f54:	20001c1e 	bne	r4,zero,4fc8 <__swsetup_r+0xc0>
    4f58:	1080008c 	andi	r2,r2,2
    4f5c:	1000261e 	bne	r2,zero,4ff8 <__swsetup_r+0xf0>
    4f60:	80800517 	ldw	r2,20(r16)
    4f64:	80800215 	stw	r2,8(r16)
    4f68:	18001c26 	beq	r3,zero,4fdc <__swsetup_r+0xd4>
    4f6c:	0005883a 	mov	r2,zero
    4f70:	dfc00217 	ldw	ra,8(sp)
    4f74:	dc400117 	ldw	r17,4(sp)
    4f78:	dc000017 	ldw	r16,0(sp)
    4f7c:	dec00304 	addi	sp,sp,12
    4f80:	f800283a 	ret
    4f84:	3080040c 	andi	r2,r6,16
    4f88:	10001726 	beq	r2,zero,4fe8 <__swsetup_r+0xe0>
    4f8c:	3080010c 	andi	r2,r6,4
    4f90:	10001b1e 	bne	r2,zero,5000 <__swsetup_r+0xf8>
    4f94:	80c00417 	ldw	r3,16(r16)
    4f98:	30800214 	ori	r2,r6,8
    4f9c:	8080030d 	sth	r2,12(r16)
    4fa0:	183feb1e 	bne	r3,zero,4f50 <__alt_data_end+0xf8004f50>
    4fa4:	1140a00c 	andi	r5,r2,640
    4fa8:	01008004 	movi	r4,512
    4fac:	293fe826 	beq	r5,r4,4f50 <__alt_data_end+0xf8004f50>
    4fb0:	8809883a 	mov	r4,r17
    4fb4:	800b883a 	mov	r5,r16
    4fb8:	0007b400 	call	7b40 <__smakebuf_r>
    4fbc:	8080030b 	ldhu	r2,12(r16)
    4fc0:	80c00417 	ldw	r3,16(r16)
    4fc4:	003fe206 	br	4f50 <__alt_data_end+0xf8004f50>
    4fc8:	80800517 	ldw	r2,20(r16)
