
memTest.elf:     file format elf32-littlenios2
memTest.elf
architecture: nios2:r1, flags 0x00000112:
EXEC_P, HAS_SYMS, D_PAGED
start address 0x08000240

Program Header:
    LOAD off    0x00001000 vaddr 0x00000000 paddr 0x00000000 align 2**12
         filesz 0x00000000 memsz 0x00000000 flags r-x
    LOAD off    0x00001020 vaddr 0x08000020 paddr 0x08000020 align 2**12
         filesz 0x0001eb04 memsz 0x0001ed6c flags rwx

Sections:
Idx Name          Size      VMA       LMA       File off  Algn
  0 .entry        00000000  00000000  00000000  00001000  2**5
                  CONTENTS, ALLOC, LOAD, READONLY, CODE
  1 .exceptions   00000220  08000020  08000020  00001020  2**2
                  CONTENTS, ALLOC, LOAD, READONLY, CODE
  2 .text         0001bb5c  08000240  08000240  00001240  2**2
                  CONTENTS, ALLOC, LOAD, READONLY, CODE
  3 .rodata       0000116c  0801bd9c  0801bd9c  0001cd9c  2**2
                  CONTENTS, ALLOC, LOAD, READONLY, DATA
  4 .rwdata       00001c1c  0801cf08  0801cf08  0001df08  2**2
                  CONTENTS, ALLOC, LOAD, DATA, SMALL_DATA
  5 .bss          00000268  0801eb24  0801eb24  0001fb24  2**2
                  ALLOC, SMALL_DATA
  6 .epcs         00000000  00000020  00000020  0001fb24  2**0
                  CONTENTS
  7 .sdram        00000000  0801ed8c  0801ed8c  0001fb24  2**0
                  CONTENTS
  8 .comment      00000023  00000000  00000000  0001fb24  2**0
                  CONTENTS, READONLY
  9 .debug_aranges 00001120  00000000  00000000  0001fb48  2**3
                  CONTENTS, READONLY, DEBUGGING
 10 .debug_info   0003764f  00000000  00000000  00020c68  2**0
                  CONTENTS, READONLY, DEBUGGING
 11 .debug_abbrev 0000d203  00000000  00000000  000582b7  2**0
                  CONTENTS, READONLY, DEBUGGING
 12 .debug_line   00011095  00000000  00000000  000654ba  2**0
                  CONTENTS, READONLY, DEBUGGING
 13 .debug_frame  000030cc  00000000  00000000  00076550  2**2
                  CONTENTS, READONLY, DEBUGGING
 14 .debug_str    00004875  00000000  00000000  0007961c  2**0
                  CONTENTS, READONLY, DEBUGGING
 15 .debug_loc    00023a1e  00000000  00000000  0007de91  2**0
                  CONTENTS, READONLY, DEBUGGING
 16 .debug_alt_sim_info 00000020  00000000  00000000  000a18b0  2**2
                  CONTENTS, READONLY, DEBUGGING
 17 .debug_ranges 00001a60  00000000  00000000  000a18d0  2**3
                  CONTENTS, READONLY, DEBUGGING
 18 .thread_model 00000003  00000000  00000000  000a7404  2**0
                  CONTENTS, READONLY
 19 .cpu          00000003  00000000  00000000  000a7407  2**0
                  CONTENTS, READONLY
 20 .qsys         00000001  00000000  00000000  000a740a  2**0
                  CONTENTS, READONLY
 21 .simulation_enabled 00000001  00000000  00000000  000a740b  2**0
                  CONTENTS, READONLY
 22 .sysid_hash   00000004  00000000  00000000  000a740c  2**0
                  CONTENTS, READONLY
 23 .sysid_base   00000004  00000000  00000000  000a7410  2**0
                  CONTENTS, READONLY
 24 .sysid_time   00000004  00000000  00000000  000a7414  2**0
                  CONTENTS, READONLY
 25 .stderr_dev   00000009  00000000  00000000  000a7418  2**0
                  CONTENTS, READONLY
 26 .stdin_dev    00000009  00000000  00000000  000a7421  2**0
                  CONTENTS, READONLY
 27 .stdout_dev   00000009  00000000  00000000  000a742a  2**0
                  CONTENTS, READONLY
 28 .sopc_system_name 0000000b  00000000  00000000  000a7433  2**0
                  CONTENTS, READONLY
 29 .quartus_project_dir 00000036  00000000  00000000  000a743e  2**0
                  CONTENTS, READONLY
 30 .sopcinfo     00074e3b  00000000  00000000  000a7474  2**0
                  CONTENTS, READONLY
SYMBOL TABLE:
00000000 l    d  .entry	00000000 .entry
08000020 l    d  .exceptions	00000000 .exceptions
08000240 l    d  .text	00000000 .text
0801bd9c l    d  .rodata	00000000 .rodata
0801cf08 l    d  .rwdata	00000000 .rwdata
0801eb24 l    d  .bss	00000000 .bss
00000020 l    d  .epcs	00000000 .epcs
0801ed8c l    d  .sdram	00000000 .sdram
00000000 l    d  .comment	00000000 .comment
00000000 l    d  .debug_aranges	00000000 .debug_aranges
00000000 l    d  .debug_info	00000000 .debug_info
00000000 l    d  .debug_abbrev	00000000 .debug_abbrev
00000000 l    d  .debug_line	00000000 .debug_line
00000000 l    d  .debug_frame	00000000 .debug_frame
00000000 l    d  .debug_str	00000000 .debug_str
00000000 l    d  .debug_loc	00000000 .debug_loc
00000000 l    d  .debug_alt_sim_info	00000000 .debug_alt_sim_info
00000000 l    d  .debug_ranges	00000000 .debug_ranges
00000000 l    df *ABS*	00000000 ../memTest_bsp//obj/HAL/src/crt0.o
08000284 l       .text	00000000 alt_after_alt_main
00000000 l    df *ABS*	00000000 alt_irq_handler.c
00000000 l    df *ABS*	00000000 alt_instruction_exception_entry.c
00000000 l    df *ABS*	00000000 memtest.c
08000288 l     F .text	00000078 MenuHeader
08000300 l     F .text	00000054 MenuBegin
08000354 l     F .text	00000048 MenuItem
08000428 l     F .text	0000010c MenuEnd
0801eb24 l     O .bss	00000004 entry.3180
0801eb28 l     O .bss	00000001 ch.3181
08000534 l     F .text	00000124 MemGetAddressRange
08000658 l     F .text	00000074 MemTestDataBus
080006cc l     F .text	000001e0 MemTestAddressBus
080008ac l     F .text	00000220 MemTest8_16BitAccess
08000acc l     F .text	000001a4 MemTestDevice
08000c70 l     F .text	000001ac TestRam
08000e1c l     F .text	00000144 FlashCheckIfBlockErased
08000f60 l     F .text	00000384 FlashTestBlockWrite
080012e4 l     F .text	000002fc FlashTestReadWrite
080015e0 l     F .text	00000118 FlashTestBlockErase
080016f8 l     F .text	00000150 FlashRunTests
08001848 l     F .text	00000184 GetFlashName
080019cc l     F .text	0000038c FlashErase
08001d58 l     F .text	0000027c FlashFindErasedBlocks
08001fd4 l     F .text	000001d4 TestFlash
080021a8 l     F .text	00000178 TopMenu
00000000 l    df *ABS*	00000000 lib2-divmod.c
08002374 l     F .text	0000006c udivmodsi4
00000000 l    df *ABS*	00000000 getc.c
00000000 l    df *ABS*	00000000 impure.c
0801cf08 l     O .rwdata	00000424 impure_data
00000000 l    df *ABS*	00000000 malloc.c
00000000 l    df *ABS*	00000000 mallocr.c
00000000 l    df *ABS*	00000000 memcmp.c
00000000 l    df *ABS*	00000000 memcpy.c
00000000 l    df *ABS*	00000000 printf.c
00000000 l    df *ABS*	00000000 putchar.c
00000000 l    df *ABS*	00000000 puts.c
00000000 l    df *ABS*	00000000 rget.c
00000000 l    df *ABS*	00000000 sbrkr.c
00000000 l    df *ABS*	00000000 sscanf.c
00000000 l    df *ABS*	00000000 stdio.c
00000000 l    df *ABS*	00000000 strlen.c
00000000 l    df *ABS*	00000000 vfscanf.c
0801c886 l     O .rodata	00000022 basefix.4082
00000000 l    df *ABS*	00000000 vfprintf.c
0801c8ea l     O .rodata	00000010 zeroes.4181
0801c8fa l     O .rodata	00000010 blanks.4180
00000000 l    df *ABS*	00000000 writer.c
00000000 l    df *ABS*	00000000 wsetup.c
00000000 l    df *ABS*	00000000 closer.c
00000000 l    df *ABS*	00000000 ctype_.c
0801ca0b l     O .rodata	00000180 _ctype_b
00000000 l    df *ABS*	00000000 dtoa.c
08006d8c l     F .text	00000200 quorem
00000000 l    df *ABS*	00000000 fflush.c
00000000 l    df *ABS*	00000000 findfp.c
0800890c l     F .text	00000008 __fp_lock
08008914 l     F .text	00000008 __fp_unlock
08008928 l     F .text	000001a0 __sinit.part.1
00000000 l    df *ABS*	00000000 mallocr.c
00000000 l    df *ABS*	00000000 fvwrite.c
00000000 l    df *ABS*	00000000 fwalk.c
00000000 l    df *ABS*	00000000 int_errno.c
00000000 l    df *ABS*	00000000 iswspace.c
00000000 l    df *ABS*	00000000 locale.c
0801d754 l     O .rwdata	00000020 lc_ctype_charset
0801d734 l     O .rwdata	00000020 lc_message_charset
0801d774 l     O .rwdata	00000038 lconv
00000000 l    df *ABS*	00000000 lseekr.c
00000000 l    df *ABS*	00000000 makebuf.c
00000000 l    df *ABS*	00000000 mbrtowc.c
00000000 l    df *ABS*	00000000 mbtowc_r.c
00000000 l    df *ABS*	00000000 memchr.c
00000000 l    df *ABS*	00000000 memmove.c
00000000 l    df *ABS*	00000000 memset.c
00000000 l    df *ABS*	00000000 mprec.c
0801cba8 l     O .rodata	0000000c p05.2678
00000000 l    df *ABS*	00000000 putc.c
00000000 l    df *ABS*	00000000 readr.c
00000000 l    df *ABS*	00000000 mallocr.c
00000000 l    df *ABS*	00000000 refill.c
0800b68c l     F .text	0000001c lflush
00000000 l    df *ABS*	00000000 s_fpclassify.c
00000000 l    df *ABS*	00000000 sccl.c
00000000 l    df *ABS*	00000000 sf_nan.c
00000000 l    df *ABS*	00000000 sprintf.c
00000000 l    df *ABS*	00000000 strcmp.c
00000000 l    df *ABS*	00000000 strtod.c
0801d7c0 l     O .rwdata	00000014 fpi.2638
0801ccdc l     O .rodata	00000028 tinytens
0801d7ac l     O .rwdata	00000014 fpinan.2674
00000000 l    df *ABS*	00000000 strtol.c
00000000 l    df *ABS*	00000000 strtoll_r.c
00000000 l    df *ABS*	00000000 strtoul.c
00000000 l    df *ABS*	00000000 strtoull_r.c
00000000 l    df *ABS*	00000000 vfscanf.c
0801cd04 l     O .rodata	00000022 basefix.3580
00000000 l    df *ABS*	00000000 vfprintf.c
0801cd26 l     O .rodata	00000010 zeroes.4166
0801cd36 l     O .rodata	00000010 blanks.4165
00000000 l    df *ABS*	00000000 ungetc.c
00000000 l    df *ABS*	00000000 vfprintf.c
080111f4 l     F .text	000000fc __sprint_r.part.0
0801cd56 l     O .rodata	00000010 blanks.4125
0801cd46 l     O .rodata	00000010 zeroes.4126
00000000 l    df *ABS*	00000000 wbuf.c
00000000 l    df *ABS*	00000000 mallocr.c
00000000 l    df *ABS*	00000000 fclose.c
00000000 l    df *ABS*	00000000 fputwc.c
00000000 l    df *ABS*	00000000 fstatr.c
00000000 l    df *ABS*	00000000 gdtoa-gethex.c
08012c04 l     F .text	00000100 rshift
00000000 l    df *ABS*	00000000 gdtoa-hexnan.c
00000000 l    df *ABS*	00000000 isattyr.c
00000000 l    df *ABS*	00000000 strncmp.c
00000000 l    df *ABS*	00000000 vfprintf.c
0801cd84 l     O .rodata	00000010 zeroes.4110
0801cd94 l     O .rodata	00000010 blanks.4109
00000000 l    df *ABS*	00000000 wcrtomb.c
00000000 l    df *ABS*	00000000 wctomb_r.c
00000000 l    df *ABS*	00000000 libgcc2.c
00000000 l    df *ABS*	00000000 libgcc2.c
00000000 l    df *ABS*	00000000 libgcc2.c
00000000 l    df *ABS*	00000000 libgcc2.c
00000000 l    df *ABS*	00000000 eqsf2.c
00000000 l    df *ABS*	00000000 gesf2.c
00000000 l    df *ABS*	00000000 lesf2.c
00000000 l    df *ABS*	00000000 adddf3.c
00000000 l    df *ABS*	00000000 divdf3.c
00000000 l    df *ABS*	00000000 eqdf2.c
00000000 l    df *ABS*	00000000 gedf2.c
00000000 l    df *ABS*	00000000 ledf2.c
00000000 l    df *ABS*	00000000 muldf3.c
00000000 l    df *ABS*	00000000 subdf3.c
00000000 l    df *ABS*	00000000 fixdfsi.c
00000000 l    df *ABS*	00000000 floatsidf.c
00000000 l    df *ABS*	00000000 floatunsidf.c
00000000 l    df *ABS*	00000000 truncdfsf2.c
00000000 l    df *ABS*	00000000 libgcc2.c
00000000 l    df *ABS*	00000000 libgcc2.c
00000000 l    df *ABS*	00000000 alt_close.c
0801831c l     F .text	00000050 alt_get_errno
00000000 l    df *ABS*	00000000 alt_dcache_flush.c
00000000 l    df *ABS*	00000000 alt_dev.c
080184b0 l     F .text	0000002c alt_dev_null_write
00000000 l    df *ABS*	00000000 alt_errno.c
00000000 l    df *ABS*	00000000 alt_flash_dev.c
00000000 l    df *ABS*	00000000 alt_fstat.c
08018594 l     F .text	00000050 alt_get_errno
00000000 l    df *ABS*	00000000 alt_isatty.c
08018694 l     F .text	00000050 alt_get_errno
00000000 l    df *ABS*	00000000 alt_lseek.c
08018788 l     F .text	00000050 alt_get_errno
00000000 l    df *ABS*	00000000 alt_main.c
00000000 l    df *ABS*	00000000 alt_malloc_lock.c
00000000 l    df *ABS*	00000000 alt_read.c
08018964 l     F .text	00000050 alt_get_errno
00000000 l    df *ABS*	00000000 alt_release_fd.c
00000000 l    df *ABS*	00000000 alt_sbrk.c
0801eb14 l     O .rwdata	00000004 heap_end
00000000 l    df *ABS*	00000000 alt_write.c
08018bc0 l     F .text	00000050 alt_get_errno
00000000 l    df *ABS*	00000000 alt_sys_init.c
08018d08 l     F .text	00000038 alt_dev_reg
0801d97c l     O .rwdata	000000cc epcs
0801da48 l     O .rwdata	00001060 jtag_uart
0801eaa8 l     O .rwdata	0000002c Altera_UP_SD_Card_Avalon_Interface_0
00000000 l    df *ABS*	00000000 altera_avalon_epcs_flash_controller.c
08018dec l     F .text	00000038 alt_flash_device_register
08018e78 l     F .text	000003f8 alt_epcs_flash_query
08019270 l     F .text	000000e8 alt_epcs_flash_memcmp
08019644 l     F .text	00000094 alt_epcs_test_address
00000000 l    df *ABS*	00000000 altera_avalon_jtag_uart_fd.c
00000000 l    df *ABS*	00000000 altera_avalon_jtag_uart_init.c
08019b0c l     F .text	00000204 altera_avalon_jtag_uart_irq
08019d10 l     F .text	000000a8 altera_avalon_jtag_uart_timeout
00000000 l    df *ABS*	00000000 altera_avalon_jtag_uart_ioctl.c
00000000 l    df *ABS*	00000000 altera_avalon_jtag_uart_read.c
00000000 l    df *ABS*	00000000 altera_avalon_jtag_uart_write.c
00000000 l    df *ABS*	00000000 altera_avalon_timer_sc.c
0801a330 l     F .text	00000074 alt_avalon_timer_sc_irq
00000000 l    df *ABS*	00000000 epcs_commands.c
0801a488 l     F .text	00000038 epcs_test_wip
0801a4c0 l     F .text	00000038 epcs_await_wip_released
00000000 l    df *ABS*	00000000 alt_alarm_start.c
00000000 l    df *ABS*	00000000 alt_dev_llist_insert.c
0801ab98 l     F .text	00000050 alt_get_errno
00000000 l    df *ABS*	00000000 alt_do_ctors.c
00000000 l    df *ABS*	00000000 alt_do_dtors.c
00000000 l    df *ABS*	00000000 alt_find_dev.c
00000000 l    df *ABS*	00000000 alt_iic.c
00000000 l    df *ABS*	00000000 alt_iic_isr_register.c
00000000 l    df *ABS*	00000000 alt_io_redirect.c
0801b0a4 l     F .text	000000c0 alt_open_fd
00000000 l    df *ABS*	00000000 alt_irq_vars.c
00000000 l    df *ABS*	00000000 alt_open.c
0801b1dc l     F .text	00000050 alt_get_errno
0801b22c l     F .text	000000cc alt_file_locked
00000000 l    df *ABS*	00000000 alt_tick.c
00000000 l    df *ABS*	00000000 altera_nios2_gen2_irq.c
00000000 l    df *ABS*	00000000 altera_avalon_spi.c
00000000 l    df *ABS*	00000000 alt_find_file.c
00000000 l    df *ABS*	00000000 alt_get_fd.c
00000000 l    df *ABS*	00000000 atexit.c
00000000 l    df *ABS*	00000000 exit.c
00000000 l    df *ABS*	00000000 __atexit.c
00000000 l    df *ABS*	00000000 __call_atexit.c
00000000 l    df *ABS*	00000000 alt_exit.c
0801eb60 g     O .bss	00000004 alt_instruction_exception_handler
08002f9c g     F .text	00000018 putchar
0800adb0 g     F .text	00000074 _mprec_log10
080195b8 g     F .text	0000008c alt_epcs_flash_get_info
0800ae9c g     F .text	0000008c __any_on
08013838 g     F .text	00000054 _isatty_r
0801cbb4 g     O .rodata	00000028 __mprec_tinytens
080188ac g     F .text	00000078 alt_main
08002fb4 g     F .text	000000b8 _puts_r
0801ec8c g     O .bss	00000100 alt_irq
080097e4 g     F .text	0000005c _lseek_r
08016cec g     F .text	00000084 .hidden __eqdf2
0801ed8c g       *ABS*	00000000 __alt_heap_start
08002f58 g     F .text	0000003c printf
08014b7c g     F .text	0000009c _wcrtomb_r
08003328 g     F .text	0000005c __sseek
08008c5c g     F .text	00000010 __sinit
08012688 g     F .text	00000154 __swbuf_r
08009704 g     F .text	0000007c _setlocale_r
08008ac8 g     F .text	00000064 __sfmoreglue
080111d8 g     F .text	0000001c ungetc
08018944 g     F .text	00000020 __malloc_unlock
0800baf4 g     F .text	00001540 _strtod_r
0800039c g     F .text	0000008c GetInputString
0800de54 g     F .text	000000f4 _sfread_r
08009d1c g     F .text	0000015c memmove
08008c44 g     F .text	00000018 _cleanup
08009f9c g     F .text	000000a8 _Balloc
08016d70 g     F .text	000000e0 .hidden __gtdf2
0801b5ec g     F .text	00000020 altera_nios2_gen2_irq_init
00000000  w      *UND*	00000000 __errno
0801a4f8 g     F .text	000000f8 epcs_sector_erase
00000000 g     F .entry	00000000 __reset
08012bac g     F .text	00000058 _fstat_r
0801eb38 g     O .bss	00000004 errno
080030f4 g     F .text	00000014 __srget
080032a4 g     F .text	00000008 __seofread
08013b14 g     F .text	00001068 ___svfiprintf_internal_r
0801eb4c g     O .bss	00000004 alt_argv
08026ad4 g       *ABS*	00000000 _gp
0801d7fc g     O .rwdata	00000180 alt_fd_list
080024a0 g     F .text	00000080 _getc_r
08002520 g     F .text	00000088 getc
08002f94 g     F .text	00000008 _putchar_r
0801a734 g     F .text	00000068 epcs_write_status_register
0801ad44 g     F .text	00000090 alt_find_dev
08002df4 g     F .text	00000138 memcpy
080135a4 g     F .text	00000294 __hexnan
0800891c g     F .text	0000000c _cleanup_r
08017fac g     F .text	000000d0 .hidden __floatsidf
0801b164 g     F .text	00000078 alt_io_redirect
08016e50 g     F .text	000000e0 .hidden __ltdf2
0801bd9c g       *ABS*	00000000 __DTOR_END__
0800306c g     F .text	00000014 puts
0801b9d8 g     F .text	0000009c alt_exception_cause_generated_bad_addr
08009aa4 g     F .text	000000f0 mbrtowc
0801974c g     F .text	00000100 alt_epcs_flash_write_block
0800b850 g     F .text	00000074 __fpclassifyd
0800ad0c g     F .text	000000a4 __ratio
08012664 g     F .text	00000024 __vfiprintf_internal
08019f0c g     F .text	0000020c altera_avalon_jtag_uart_read
080025a8 g     F .text	00000014 malloc
08002f2c g     F .text	0000002c _printf_r
08002490 g     F .text	00000008 .hidden __udivsi3
080186e4 g     F .text	000000a4 isatty
080096d4 g     F .text	00000030 iswspace
0801cc04 g     O .rodata	000000c8 __mprec_tens
08009780 g     F .text	0000000c __locale_charset
08015acc g     F .text	000000b8 .hidden __lesf2
08014ddc g     F .text	00000074 .hidden __fixunsdfsi
0801eb34 g     O .bss	00000004 __malloc_top_pad
0800dde4 g     F .text	00000070 __ssrefill_r
0800d974 g     F .text	00000024 strtoul
0801eae8 g     O .rwdata	00000004 __mb_cur_max
080097b0 g     F .text	0000000c _localeconv_r
0800d998 g     F .text	00000354 _strtoull_r
0800a39c g     F .text	0000003c __i2b
080090c0 g     F .text	000004a4 __sfvwrite_r
08003108 g     F .text	00000054 _sbrk_r
0800b090 g     F .text	0000005c _read_r
0801843c g     F .text	00000074 alt_dcache_flush
0801eb04 g     O .rwdata	00000004 alt_max_fd
080128bc g     F .text	00000100 _fclose_r
080088dc g     F .text	00000030 fflush
0801eb30 g     O .bss	00000004 __malloc_max_sbrked_mem
08003424 g     F .text	00001768 __ssvfscanf_r
08015b84 g     F .text	0000089c .hidden __adddf3
080159a0 g     F .text	00000074 .hidden __nesf2
080196d8 g     F .text	00000074 alt_epcs_flash_erase_block
0800aab4 g     F .text	0000011c __b2d
08015410 g     F .text	00000590 .hidden __umoddi3
080187d8 g     F .text	000000d4 lseek
0801ead4 g     O .rwdata	00000004 _global_impure_ptr
0801a9fc g     F .text	0000005c epcs_exit_4_bytes_mode
0800b0ec g     F .text	000005a0 _realloc_r
0801ed8c g       *ABS*	00000000 __bss_end
0801afb4 g     F .text	000000f0 alt_iic_isr_register
0801b4e8 g     F .text	00000104 alt_tick
0801eb8c g     O .bss	00000100 __hexdig
08014e50 g     F .text	000005c0 .hidden __udivdi3
080129d0 g     F .text	00000184 _fputwc_r
0801cbdc g     O .rodata	00000028 __mprec_bigtens
0800a180 g     F .text	00000104 __s2b
0801807c g     F .text	000000a4 .hidden __floatunsidf
0800a85c g     F .text	00000060 __mcmp
08008c7c g     F .text	00000018 __fp_lock_all
0801af68 g     F .text	0000004c alt_ic_irq_enabled
0801b450 g     F .text	00000098 alt_alarm_stop
0800d3b4 g     F .text	00000024 strtol
0801eb54 g     O .bss	00000004 alt_irq_active
080000fc g     F .exceptions	000000d0 alt_irq_handler
0801d7d4 g     O .rwdata	00000028 alt_dev_null
0800a284 g     F .text	00000068 __hi0bits
08017f24 g     F .text	00000088 .hidden __fixdfsi
0800d034 g     F .text	0000001c strtod
0801eafc g     O .rwdata	00000008 alt_dev_list
08018c10 g     F .text	000000f8 write
0800af28 g     F .text	000000a0 _putc_r
08015a14 g     F .text	000000b8 .hidden __gtsf2
080185e4 g     F .text	000000b0 fstat
08016e50 g     F .text	000000e0 .hidden __ledf2
0800a5d4 g     F .text	00000140 __pow5mult
08011308 g     F .text	0000135c ___vfiprintf_internal_r
0801eb44 g     O .bss	00000004 __nlocale_changed
08002498 g     F .text	00000008 .hidden __umodsi3
0801a8b8 g     F .text	00000068 epcs_read_electronic_signature
0801ed8c g       *ABS*	00000000 end
08019a48 g     F .text	000000c4 altera_avalon_jtag_uart_init
080001cc g     F .exceptions	00000074 alt_instruction_exception_entry
0801bd9c g       *ABS*	00000000 __CTOR_LIST__
10000000 g       *ABS*	00000000 __alt_stack_pointer
0801a3a4 g     F .text	00000088 alt_avalon_timer_sc_init
080182b8 g     F .text	00000064 .hidden __clzsi2
0801a118 g     F .text	00000218 altera_avalon_jtag_uart_write
08008c6c g     F .text	00000004 __sfp_lock_acquire
08009c34 g     F .text	000000e8 memchr
08004b8c g     F .text	00001ffc ___vfprintf_internal_r
0800b98c g     F .text	00000058 _sprintf_r
08008dd0 g     F .text	000002f0 _free_r
0800978c g     F .text	00000010 __locale_mb_cur_max
0801bbd4 g     F .text	00000194 __call_exitprocs
08003080 g     F .text	00000074 __srget_r
0800dcec g     F .text	000000f8 _sungetc_r
0801eb40 g     O .bss	00000004 __mlocale_changed
0801eadc g     O .rwdata	00000004 __malloc_sbrk_base
08000240 g     F .text	00000048 _start
0801eb58 g     O .bss	00000004 _alt_tick_rate
0800d3d8 g     F .text	00000314 _strtoll_r
0800a714 g     F .text	00000148 __lshift
0801b60c g     F .text	00000204 alt_avalon_spi_command
0801eb5c g     O .bss	00000004 _alt_nticks
080189b4 g     F .text	000000fc read
08018d74 g     F .text	00000078 alt_sys_init
0801394c g     F .text	000001c8 __ssprint_r
0801bac0 g     F .text	00000114 __register_exitproc
0801388c g     F .text	000000c0 strncmp
0800a3d8 g     F .text	000001fc __multiply
08019db8 g     F .text	00000068 altera_avalon_jtag_uart_close
0801eb64 g     O .bss	00000028 __malloc_current_mallinfo
080159a0 g     F .text	00000074 .hidden __eqsf2
0800abd0 g     F .text	0000013c __d2b
0801a42c g     F .text	0000005c epcs_read_status_register
080198e4 g     F .text	00000060 altera_avalon_jtag_uart_read_fd
0800d6ec g     F .text	00000288 _strtoul_r
0801b924 g     F .text	000000b4 alt_get_fd
08006d38 g     F .text	00000054 _close_r
0801a920 g     F .text	00000080 epcs_read_device_id
08002d78 g     F .text	0000007c memcmp
080199a4 g     F .text	00000050 altera_avalon_jtag_uart_close_fd
0801ed8c g       *ABS*	00000000 __alt_stack_base
080199f4 g     F .text	00000054 altera_avalon_jtag_uart_ioctl_fd
0800315c g     F .text	0000007c sscanf
08006c08 g     F .text	00000130 __swsetup_r
08016420 g     F .text	000008cc .hidden __divdf3
08008b2c g     F .text	00000118 __sfp
0800ae24 g     F .text	00000078 __copybits
0801d32c g     O .rwdata	00000408 __malloc_av_
08008c78 g     F .text	00000004 __sinit_lock_release
08016f30 g     F .text	00000724 .hidden __muldf3
08003250 g     F .text	00000054 __sread
0801b810 g     F .text	00000114 alt_find_file
0801abe8 g     F .text	000000a4 alt_dev_llist_insert
08018924 g     F .text	00000020 __malloc_lock
08018b10 g     F .text	000000b0 sbrk
0800efec g     F .text	00001f90 ___svfprintf_internal_r
080086b4 g     F .text	00000228 _fflush_r
080127f8 g     F .text	000000c4 _calloc_r
0801eb0c g     O .rwdata	00000008 alt_flash_dev_list
0801eb24 g       *ABS*	00000000 __bss_start
08009e78 g     F .text	00000124 memset
08002320 g     F .text	00000054 main
0801eb50 g     O .bss	00000004 alt_envp
0801eb2c g     O .bss	00000004 __malloc_max_total_mem
08019944 g     F .text	00000060 altera_avalon_jtag_uart_write_fd
080127dc g     F .text	0000001c __swbuf
08015acc g     F .text	000000b8 .hidden __ltsf2
08003384 g     F .text	00000008 __sclose
10000000 g       *ABS*	00000000 __alt_heap_limit
080129bc g     F .text	00000014 fclose
0800d154 g     F .text	00000260 _strtol_r
08018120 g     F .text	00000198 .hidden __truncdfsf2
08006f8c g     F .text	00001728 _dtoa_r
080025d0 g     F .text	000007a8 _malloc_r
08014cf0 g     F .text	00000030 __ascii_wctomb
0801eb08 g     O .rwdata	00000004 alt_errno
08010f7c g     F .text	000000d4 __submore
08009564 g     F .text	000000b8 _fwalk
08009bd8 g     F .text	0000005c _mbtowc_r
0800afc8 g     F .text	000000c8 putc
080023e0 g     F .text	00000054 .hidden __divsi3
08008cac g     F .text	00000124 _malloc_trim_r
0801bd9c g       *ABS*	00000000 __CTOR_END__
08019358 g     F .text	00000260 alt_epcs_flash_write
0800ba50 g     F .text	000000a4 strcmp
0801bd9c g       *ABS*	00000000 __DTOR_LIST__
08016cec g     F .text	00000084 .hidden __nedf2
08018d40 g     F .text	00000034 alt_irq_init
08018ab0 g     F .text	00000060 alt_release_fd
0800b9e4 g     F .text	0000006c sprintf
0801cda4 g     O .rodata	00000100 .hidden __clz_tab
0801eb3c g     O .bss	00000004 _PathLocale
0800d050 g     F .text	00000104 strtof
0801ba74 g     F .text	00000014 atexit
08015a14 g     F .text	000000b8 .hidden __gesf2
08006bac g     F .text	0000005c _write_r
080097bc g     F .text	0000001c setlocale
0800b984 g     F .text	00000008 nanf
0801ead8 g     O .rwdata	00000004 _impure_ptr
0801eb48 g     O .bss	00000004 alt_argc
080099f8 g     F .text	000000ac _mbrtowc_r
0801ace8 g     F .text	0000005c _do_dtors
080097a8 g     F .text	00000008 __locale_cjk_lang
0800b6a8 g     F .text	000001a8 __srefill_r
08000020 g       .exceptions	00000000 alt_irq_entry
08009b94 g     F .text	00000044 __ascii_mbtowc
0800aa54 g     F .text	00000060 __ulp
08008c94 g     F .text	00000018 __fp_unlock_all
0801eaf4 g     O .rwdata	00000008 alt_fs_list
0800df48 g     F .text	000010a4 __ssvfiscanf_r
080097d8 g     F .text	0000000c localeconv
0801a5f0 g     F .text	000000f4 epcs_read_buffer
08018e24 g     F .text	00000054 alt_epcs_flash_init
0801add4 g     F .text	00000050 alt_ic_isr_register
08012d04 g     F .text	00000084 __hexdig_init
080031d8 g     F .text	00000078 _sscanf_r
0801eb24 g       *ABS*	00000000 _edata
0801ed8c g       *ABS*	00000000 _end
080184dc g     F .text	00000068 alt_flash_open_dev
08019e20 g     F .text	000000ec altera_avalon_jtag_uart_ioctl
0801aec4 g     F .text	000000a4 alt_ic_irq_disable
0801a9a0 g     F .text	0000005c epcs_enter_4_bytes_mode
080032ac g     F .text	0000007c __swrite
0801eae0 g     O .rwdata	00000004 __malloc_trim_threshold
0800979c g     F .text	0000000c __locale_msgcharset
0801ba88 g     F .text	00000038 exit
0800961c g     F .text	000000b8 _fwalk_reent
0800a8bc g     F .text	00000198 __mdiff
08018544 g     F .text	00000050 alt_flash_close_dev
08002434 g     F .text	0000005c .hidden __modsi3
0801eae4 g     O .rwdata	00000004 __ctype_ptr__
10000000 g       *ABS*	00000000 __alt_data_end
08000020 g     F .exceptions	00000000 alt_exception
08008c70 g     F .text	00000004 __sfp_lock_release
08000000 g       *ABS*	00000000 __alt_mem_sdram
0800b8c4 g     F .text	000000c0 __sccl
0801c90a g     O .rodata	00000101 _ctype_
0801eaec g     O .rwdata	00000004 __mbtowc
0801bd68 g     F .text	00000034 _exit
0801aa58 g     F .text	00000140 alt_alarm_start
08014d7c g     F .text	00000060 .hidden __muldi3
08009840 g     F .text	000001b8 __smakebuf_r
0800338c g     F .text	00000098 strlen
0801a6e4 g     F .text	00000050 epcs_write_enable
0801b2f8 g     F .text	00000158 open
08016d70 g     F .text	000000e0 .hidden __gedf2
08012d88 g     F .text	0000081c __gethex
0801eaf0 g     O .rwdata	00000004 __wctomb
080112f0 g     F .text	00000018 __sprint_r
0801eb18 g     O .rwdata	00000004 alt_priority_mask
0801ae24 g     F .text	000000a0 alt_ic_irq_enable
08006b88 g     F .text	00000024 __vfprintf_internal
00000000 g       *ABS*	00000000 __alt_mem_epcs
08014d20 g     F .text	0000005c _wctomb_r
08017654 g     F .text	000008d0 .hidden __subdf3
0801984c g     F .text	00000098 alt_epcs_flash_read
0800a2ec g     F .text	000000b0 __lo0bits
0801eb1c g     O .rwdata	00000008 alt_alarm_list
08011050 g     F .text	00000188 _ungetc_r
0801ac8c g     F .text	0000005c _do_ctors
08014c18 g     F .text	000000d8 wcrtomb
0801836c g     F .text	000000d0 close
08012b54 g     F .text	00000058 fputwc
080025bc g     F .text	00000014 free
08008c74 g     F .text	00000004 __sinit_lock_acquire
0801a79c g     F .text	0000011c epcs_write_buffer
0800a06c g     F .text	00000114 __multadd
0800a044 g     F .text	00000028 _Bfree



Disassembly of section .exceptions:

08000020 <alt_exception>:

#else /* ALT_EXCEPTION_STACK disabled */
        /* 
         * Reserve space on normal stack for registers about to be pushed.
         */
        addi  sp, sp, -76
 8000020:	deffed04 	addi	sp,sp,-76
         * documentation for details).
         *
         * Leave a gap in the stack frame at 4(sp) for the muldiv handler to
         * store zero into.
         */
        stw   ra,  0(sp)
 8000024:	dfc00015 	stw	ra,0(sp)
        stw   r1,   8(sp)
 8000028:	d8400215 	stw	at,8(sp)
        stw   r2,  12(sp)
 800002c:	d8800315 	stw	r2,12(sp)
        stw   r3,  16(sp)
 8000030:	d8c00415 	stw	r3,16(sp)
        stw   r4,  20(sp)
 8000034:	d9000515 	stw	r4,20(sp)
        stw   r5,  24(sp)
 8000038:	d9400615 	stw	r5,24(sp)
        stw   r6,  28(sp)
 800003c:	d9800715 	stw	r6,28(sp)
        stw   r7,  32(sp)
 8000040:	d9c00815 	stw	r7,32(sp)
        rdctl r5, estatus   /* Read early to avoid usage stall */
 8000044:	000b307a 	rdctl	r5,estatus
        stw   r8,  36(sp)
 8000048:	da000915 	stw	r8,36(sp)
        stw   r9,  40(sp)
 800004c:	da400a15 	stw	r9,40(sp)
        stw   r10, 44(sp)
 8000050:	da800b15 	stw	r10,44(sp)
        stw   r11, 48(sp)
 8000054:	dac00c15 	stw	r11,48(sp)
        stw   r12, 52(sp)
 8000058:	db000d15 	stw	r12,52(sp)
        stw   r13, 56(sp)
 800005c:	db400e15 	stw	r13,56(sp)
        stw   r14, 60(sp)
 8000060:	db800f15 	stw	r14,60(sp)
        stw   r15, 64(sp)
 8000064:	dbc01015 	stw	r15,64(sp)
        /*
         * ea-4 contains the address of the instruction being executed
         * when the exception occured. For interrupt exceptions, we will
         * will be re-issue the isntruction. Store it in 72(sp)
         */
        stw   r5,  68(sp)  /* estatus */
 8000068:	d9401115 	stw	r5,68(sp)
        addi  r15, ea, -4  /* instruction that caused exception */
 800006c:	ebffff04 	addi	r15,ea,-4
        stw   r15,  72(sp)
 8000070:	dbc01215 	stw	r15,72(sp)
#else
        /*
         * Test to see if the exception was a software exception or caused 
         * by an external interrupt, and vector accordingly.
         */
        rdctl r4, ipending
 8000074:	0009313a 	rdctl	r4,ipending
        andi  r2, r5, 1
 8000078:	2880004c 	andi	r2,r5,1
        beq   r2, zero, .Lnot_irq
 800007c:	10000326 	beq	r2,zero,800008c <alt_exception+0x6c>
        beq   r4, zero, .Lnot_irq
 8000080:	20000226 	beq	r4,zero,800008c <alt_exception+0x6c>
        /*
         * Now that all necessary registers have been preserved, call 
         * alt_irq_handler() to process the interrupts.
         */

        call alt_irq_handler
 8000084:	80000fc0 	call	80000fc <alt_irq_handler>

        .section .exceptions.irqreturn, "xa"

        br    .Lexception_exit
 8000088:	00000706 	br	80000a8 <alt_exception+0x88>
         * upon completion, so we write ea (address of instruction *after*
         * the one where the exception occured) into 72(sp). The actual
         * instruction that caused the exception is written in r2, which these
         * handlers will utilize.
         */
        stw   ea,  72(sp)  /* Don't re-issue */
 800008c:	df401215 	stw	ea,72(sp)
        ldhu.n  r2, 0(r4)
        ldhu.n  r3, 2(r4)
        slli.n  r3, r3, 16
        or.n    r2, r2, r3 /* Instruction that caused exception */
#else
        ldw   r2, -4(ea)   /* Instruction that caused exception */
 8000090:	e8bfff17 	ldw	r2,-4(ea)
         * debugger is present) or go into an infinite loop since the
         * handling behavior is undefined; in that case we will not return here.
         */

        /* Load exception-causing address as first argument (r4) */
        addi   r4, ea, -4
 8000094:	e93fff04 	addi	r4,ea,-4

        /* Call the instruction-exception entry */
        call   alt_instruction_exception_entry
 8000098:	80001cc0 	call	80001cc <alt_instruction_exception_entry>
         * instruction
         *
         * Return code was 0: Skip. The instruction after the exception is
         * already stored in 72(sp).
         */
        bne   r2, r0, .Lexception_exit
 800009c:	1000021e 	bne	r2,zero,80000a8 <alt_exception+0x88>

        /*
         * Otherwise, modify 72(sp) to re-issue the instruction that caused the
         * exception.
         */
        addi  r15, ea, -4  /* instruction that caused exception */
 80000a0:	ebffff04 	addi	r15,ea,-4
        stw   r15,  72(sp)
 80000a4:	dbc01215 	stw	r15,72(sp)
        /* 
         * Restore the saved registers, so that all general purpose registers 
         * have been restored to their state at the time the interrupt occured.
         */

        ldw   r5,  68(sp)
 80000a8:	d9401117 	ldw	r5,68(sp)
        ldw   ea,  72(sp)  /* This becomes the PC once eret is executed */
 80000ac:	df401217 	ldw	ea,72(sp)
        ldw   ra,   0(sp)
 80000b0:	dfc00017 	ldw	ra,0(sp)

        wrctl estatus, r5
 80000b4:	2801707a 	wrctl	estatus,r5

        ldw   r1,   8(sp)
 80000b8:	d8400217 	ldw	at,8(sp)
        ldw   r2,  12(sp)
 80000bc:	d8800317 	ldw	r2,12(sp)
        ldw   r3,  16(sp)
 80000c0:	d8c00417 	ldw	r3,16(sp)
        ldw   r4,  20(sp)
 80000c4:	d9000517 	ldw	r4,20(sp)
        ldw   r5,  24(sp)
 80000c8:	d9400617 	ldw	r5,24(sp)
        ldw   r6,  28(sp)
 80000cc:	d9800717 	ldw	r6,28(sp)
        ldw   r7,  32(sp)
 80000d0:	d9c00817 	ldw	r7,32(sp)

#if defined(ALT_EXCEPTION_STACK) && defined(ALT_STACK_CHECK)
        ldw   et, %gprel(alt_exception_old_stack_limit)(gp)
#endif

        ldw   r8,  36(sp)
 80000d4:	da000917 	ldw	r8,36(sp)
        ldw   r9,  40(sp)
 80000d8:	da400a17 	ldw	r9,40(sp)
        ldw   r10, 44(sp)
 80000dc:	da800b17 	ldw	r10,44(sp)
        ldw   r11, 48(sp)
 80000e0:	dac00c17 	ldw	r11,48(sp)
        ldw   r12, 52(sp)
 80000e4:	db000d17 	ldw	r12,52(sp)
        ldw   r13, 56(sp)
 80000e8:	db400e17 	ldw	r13,56(sp)
        ldw   r14, 60(sp)
 80000ec:	db800f17 	ldw	r14,60(sp)
        ldw   r15, 64(sp)
 80000f0:	dbc01017 	ldw	r15,64(sp)
        stw   et, %gprel(alt_stack_limit_value)(gp)
        stw   zero, %gprel(alt_exception_old_stack_limit)(gp)
#endif /* ALT_STACK_CHECK */
        ldw   sp,  76(sp)
#else /* ALT_EXCEPTION_STACK disabled */
        addi  sp, sp, 76
 80000f4:	dec01304 	addi	sp,sp,76

        /*
         * Return to the interrupted instruction.
         */

        eret
 80000f8:	ef80083a 	eret

080000fc <alt_irq_handler>:
 * instruction is present if the macro ALT_CI_INTERRUPT_VECTOR defined.
 */

void alt_irq_handler (void) __attribute__ ((section (".exceptions")));
void alt_irq_handler (void)
{
 80000fc:	defff904 	addi	sp,sp,-28
 8000100:	dfc00615 	stw	ra,24(sp)
 8000104:	df000515 	stw	fp,20(sp)
 8000108:	df000504 	addi	fp,sp,20
  
  /*
   * Notify the operating system that we are at interrupt level.
   */ 
  
  ALT_OS_INT_ENTER();
 800010c:	0001883a 	nop
#ifndef NIOS2_EIC_PRESENT
static ALT_INLINE alt_u32 ALT_ALWAYS_INLINE alt_irq_pending (void)
{
  alt_u32 active;

  NIOS2_READ_IPENDING (active);
 8000110:	0005313a 	rdctl	r2,ipending
 8000114:	e0bffe15 	stw	r2,-8(fp)

  return active;
 8000118:	e0bffe17 	ldw	r2,-8(fp)
   * Consider the case where the high priority interupt is asserted during
   * the interrupt entry sequence for a lower priority interrupt to see why
   * this is the case.
   */

  active = alt_irq_pending ();
 800011c:	e0bffb15 	stw	r2,-20(fp)

  do
  {
    i = 0;
 8000120:	e03ffd15 	stw	zero,-12(fp)
    mask = 1;
 8000124:	00800044 	movi	r2,1
 8000128:	e0bffc15 	stw	r2,-16(fp)
     * called to clear the interrupt condition.
     */

    do
    {
      if (active & mask)
 800012c:	e0fffb17 	ldw	r3,-20(fp)
 8000130:	e0bffc17 	ldw	r2,-16(fp)
 8000134:	1884703a 	and	r2,r3,r2
 8000138:	10001426 	beq	r2,zero,800018c <alt_irq_handler+0x90>
      { 
#ifdef ALT_ENHANCED_INTERRUPT_API_PRESENT
        alt_irq[i].handler(alt_irq[i].context); 
 800013c:	008200b4 	movhi	r2,2050
 8000140:	10bb2304 	addi	r2,r2,-4980
 8000144:	e0fffd17 	ldw	r3,-12(fp)
 8000148:	180690fa 	slli	r3,r3,3
 800014c:	10c5883a 	add	r2,r2,r3
 8000150:	10c00017 	ldw	r3,0(r2)
 8000154:	008200b4 	movhi	r2,2050
 8000158:	10bb2304 	addi	r2,r2,-4980
 800015c:	e13ffd17 	ldw	r4,-12(fp)
 8000160:	200890fa 	slli	r4,r4,3
 8000164:	1105883a 	add	r2,r2,r4
 8000168:	10800104 	addi	r2,r2,4
 800016c:	10800017 	ldw	r2,0(r2)
 8000170:	1009883a 	mov	r4,r2
 8000174:	183ee83a 	callr	r3
#else
        alt_irq[i].handler(alt_irq[i].context, i); 
#endif
        break;
 8000178:	0001883a 	nop
#ifndef NIOS2_EIC_PRESENT
static ALT_INLINE alt_u32 ALT_ALWAYS_INLINE alt_irq_pending (void)
{
  alt_u32 active;

  NIOS2_READ_IPENDING (active);
 800017c:	0005313a 	rdctl	r2,ipending
 8000180:	e0bfff15 	stw	r2,-4(fp)

  return active;
 8000184:	e0bfff17 	ldw	r2,-4(fp)
 8000188:	00000706 	br	80001a8 <alt_irq_handler+0xac>
      }
      mask <<= 1;
 800018c:	e0bffc17 	ldw	r2,-16(fp)
 8000190:	1085883a 	add	r2,r2,r2
 8000194:	e0bffc15 	stw	r2,-16(fp)
      i++;
 8000198:	e0bffd17 	ldw	r2,-12(fp)
 800019c:	10800044 	addi	r2,r2,1
 80001a0:	e0bffd15 	stw	r2,-12(fp)

    } while (1);
 80001a4:	003fe106 	br	800012c <__alt_data_end+0xf800012c>

    active = alt_irq_pending ();
 80001a8:	e0bffb15 	stw	r2,-20(fp)
    
  } while (active);
 80001ac:	e0bffb17 	ldw	r2,-20(fp)
 80001b0:	103fdb1e 	bne	r2,zero,8000120 <__alt_data_end+0xf8000120>

  /*
   * Notify the operating system that interrupt processing is complete.
   */ 

  ALT_OS_INT_EXIT();
 80001b4:	0001883a 	nop
}
 80001b8:	e037883a 	mov	sp,fp
 80001bc:	dfc00117 	ldw	ra,4(sp)
 80001c0:	df000017 	ldw	fp,0(sp)
 80001c4:	dec00204 	addi	sp,sp,8
 80001c8:	f800283a 	ret

080001cc <alt_instruction_exception_entry>:
 * that handler if it has been registered. Absent a handler, it will
 * break break or hang as discussed below.
 */
int 
alt_instruction_exception_entry (alt_u32 exception_pc)
{
 80001cc:	defffb04 	addi	sp,sp,-20
 80001d0:	dfc00415 	stw	ra,16(sp)
 80001d4:	df000315 	stw	fp,12(sp)
 80001d8:	df000304 	addi	fp,sp,12
 80001dc:	e13fff15 	stw	r4,-4(fp)
 * NIOS2_EXCEPTION_CAUSE_NOT_PRESENT. Your handling routine should
 * check the validity of the cause argument before proceeding.
 */
#ifdef NIOS2_HAS_EXTRA_EXCEPTION_INFO
  /* Get exception cause & "badaddr" */
  NIOS2_READ_EXCEPTION(cause);
 80001e0:	000531fa 	rdctl	r2,exception
 80001e4:	e0bffd15 	stw	r2,-12(fp)
  cause = ( (cause & NIOS2_EXCEPTION_REG_CAUSE_MASK) >>
 80001e8:	e0bffd17 	ldw	r2,-12(fp)
 80001ec:	10801f0c 	andi	r2,r2,124
 80001f0:	1004d0ba 	srli	r2,r2,2
 80001f4:	e0bffd15 	stw	r2,-12(fp)
              NIOS2_EXCEPTION_REG_CAUSE_OFST );

  NIOS2_READ_BADADDR(badaddr);
 80001f8:	0005333a 	rdctl	r2,badaddr
 80001fc:	e0bffe15 	stw	r2,-8(fp)
#else
  cause = NIOS2_EXCEPTION_CAUSE_NOT_PRESENT;
  badaddr = 0;
#endif /* NIOS2_HAS_EXTRA_EXCEPTION_INFO */

  if(alt_instruction_exception_handler) {
 8000200:	d0a02317 	ldw	r2,-32628(gp)
 8000204:	10000726 	beq	r2,zero,8000224 <alt_instruction_exception_entry+0x58>
     * Call handler. Its return value indicates whether the exception-causing
     * instruction should be re-issued. The code that called us,
     * alt_eceptions_entry.S, will look at this value and adjust the ea
     * register as necessary
     */
    return alt_instruction_exception_handler(cause, exception_pc, badaddr);
 8000208:	d0a02317 	ldw	r2,-32628(gp)
 800020c:	e0fffd17 	ldw	r3,-12(fp)
 8000210:	1809883a 	mov	r4,r3
 8000214:	e17fff17 	ldw	r5,-4(fp)
 8000218:	e1bffe17 	ldw	r6,-8(fp)
 800021c:	103ee83a 	callr	r2
 8000220:	00000206 	br	800022c <alt_instruction_exception_entry+0x60>
   *    (a peripheral which negates its interrupt output before its
   *    interrupt handler has been executed will cause spurious interrupts)
   */
  else {
#ifdef NIOS2_HAS_DEBUG_STUB
    NIOS2_BREAK();
 8000224:	003da03a 	break	0
      ;
#endif /* NIOS2_HAS_DEBUG_STUB */
  }

  /* We should not get here. Remove compiler warning. */
  return NIOS2_EXCEPTION_RETURN_REISSUE_INST;
 8000228:	0005883a 	mov	r2,zero
}
 800022c:	e037883a 	mov	sp,fp
 8000230:	dfc00117 	ldw	ra,4(sp)
 8000234:	df000017 	ldw	fp,0(sp)
 8000238:	dec00204 	addi	sp,sp,8
 800023c:	f800283a 	ret

Disassembly of section .text:

08000240 <_start>:

    /* Assume the data cache size is always a power of two. */
#if NIOS2_DCACHE_SIZE > 0x8000
    movhi r2, %hi(NIOS2_DCACHE_SIZE)
#else
    movui r2, NIOS2_DCACHE_SIZE
 8000240:	00820014 	movui	r2,2048
#endif

0:
    initd 0(r2)
 8000244:	10000033 	initd	0(r2)
#ifdef NIOS2_ECC_PRESENT
    addi r2, r2, -4
#else
    addi r2, r2, -NIOS2_DCACHE_LINE_SIZE
 8000248:	10bff804 	addi	r2,r2,-32
#endif
    bgt r2, zero, 0b
 800024c:	00bffd16 	blt	zero,r2,8000244 <__alt_data_end+0xf8000244>

    /*
     * Now that the caches are initialized, set up the stack pointer and global pointer.
     * The values provided by the linker are assumed to be correctly aligned.
     */
    movhi sp, %hi(__alt_stack_pointer)
 8000250:	06c40034 	movhi	sp,4096
    ori sp, sp, %lo(__alt_stack_pointer)
 8000254:	dec00014 	ori	sp,sp,0
    movhi gp, %hi(_gp)
 8000258:	068200b4 	movhi	gp,2050
    ori gp, gp, %lo(_gp)
 800025c:	d69ab514 	ori	gp,gp,27348
 */
#ifndef ALT_SIM_OPTIMIZE
    /* Log that the BSS is about to be cleared. */
    ALT_LOG_PUTS(alt_log_msg_bss)

    movhi r2, %hi(__bss_start)
 8000260:	00820074 	movhi	r2,2049
    ori r2, r2, %lo(__bss_start)
 8000264:	10bac914 	ori	r2,r2,60196

    movhi r3, %hi(__bss_end)
 8000268:	00c20074 	movhi	r3,2049
    ori r3, r3, %lo(__bss_end)
 800026c:	18fb6314 	ori	r3,r3,60812

    beq r2, r3, 1f
 8000270:	10c00326 	beq	r2,r3,8000280 <_start+0x40>

0:
    stw zero, (r2)
 8000274:	10000015 	stw	zero,0(r2)
    addi r2, r2, 4
 8000278:	10800104 	addi	r2,r2,4
    bltu r2, r3, 0b
 800027c:	10fffd36 	bltu	r2,r3,8000274 <__alt_data_end+0xf8000274>

    /* Log that alt_main is about to be called. */
    ALT_LOG_PUTS(alt_log_msg_alt_main)

    /* Call the C entry point. It should never return. */
    call alt_main
 8000280:	80188ac0 	call	80188ac <alt_main>

08000284 <alt_after_alt_main>:

    /* Wait in infinite loop in case alt_main does return. */
alt_after_alt_main:
    br alt_after_alt_main
 8000284:	003fff06 	br	8000284 <__alt_data_end+0xf8000284>

08000288 <MenuHeader>:
*
*  Purpose: Prints the menu header.
*
******************************************************************/
static void MenuHeader(void)
{
 8000288:	defffe04 	addi	sp,sp,-8
 800028c:	dfc00115 	stw	ra,4(sp)
 8000290:	df000015 	stw	fp,0(sp)
 8000294:	d839883a 	mov	fp,sp
  printf("\n\n");
 8000298:	010200b4 	movhi	r4,2050
 800029c:	212f6704 	addi	r4,r4,-16996
 80002a0:	800306c0 	call	800306c <puts>
  printf("             <---->   Nios II Memory Test.   <---->\n");
 80002a4:	010200b4 	movhi	r4,2050
 80002a8:	212f6804 	addi	r4,r4,-16992
 80002ac:	800306c0 	call	800306c <puts>
  printf("This software example tests the memory in your system to assure it\n");
 80002b0:	010200b4 	movhi	r4,2050
 80002b4:	212f7504 	addi	r4,r4,-16940
 80002b8:	800306c0 	call	800306c <puts>
  printf("is working properly.  This test is destructive to the contents of\n");
 80002bc:	010200b4 	movhi	r4,2050
 80002c0:	212f8604 	addi	r4,r4,-16872
 80002c4:	800306c0 	call	800306c <puts>
  printf("the memory it tests. Assure the memory being tested does not contain\n");
 80002c8:	010200b4 	movhi	r4,2050
 80002cc:	212f9704 	addi	r4,r4,-16804
 80002d0:	800306c0 	call	800306c <puts>
  printf("the executable or data sections of this code or the exception address\n");
 80002d4:	010200b4 	movhi	r4,2050
 80002d8:	212fa904 	addi	r4,r4,-16732
 80002dc:	800306c0 	call	800306c <puts>
  printf("of the system.\n");
 80002e0:	010200b4 	movhi	r4,2050
 80002e4:	212fbb04 	addi	r4,r4,-16660
 80002e8:	800306c0 	call	800306c <puts>
}
 80002ec:	e037883a 	mov	sp,fp
 80002f0:	dfc00117 	ldw	ra,4(sp)
 80002f4:	df000017 	ldw	fp,0(sp)
 80002f8:	dec00204 	addi	sp,sp,8
 80002fc:	f800283a 	ret

08000300 <MenuBegin>:
*
*  Purpose: Prints the top portion of the menu.
*
******************************************************************/
static void MenuBegin( char *title )
{
 8000300:	defffd04 	addi	sp,sp,-12
 8000304:	dfc00215 	stw	ra,8(sp)
 8000308:	df000115 	stw	fp,4(sp)
 800030c:	df000104 	addi	fp,sp,4
 8000310:	e13fff15 	stw	r4,-4(fp)
  printf("\n\n");
 8000314:	010200b4 	movhi	r4,2050
 8000318:	212f6704 	addi	r4,r4,-16996
 800031c:	800306c0 	call	800306c <puts>
  printf("----------------------------------\n");
 8000320:	010200b4 	movhi	r4,2050
 8000324:	212fbf04 	addi	r4,r4,-16644
 8000328:	800306c0 	call	800306c <puts>
  printf("%s\n",title);
 800032c:	e13fff17 	ldw	r4,-4(fp)
 8000330:	800306c0 	call	800306c <puts>
  printf("----------------------------------\n");
 8000334:	010200b4 	movhi	r4,2050
 8000338:	212fbf04 	addi	r4,r4,-16644
 800033c:	800306c0 	call	800306c <puts>
}
 8000340:	e037883a 	mov	sp,fp
 8000344:	dfc00117 	ldw	ra,4(sp)
 8000348:	df000017 	ldw	fp,0(sp)
 800034c:	dec00204 	addi	sp,sp,8
 8000350:	f800283a 	ret

08000354 <MenuItem>:
*  Purpose: Prints selection items in the menu, enumerated by the 
*           specified letter.
*
******************************************************************/
static void MenuItem( char letter, char *name )
{
 8000354:	defffc04 	addi	sp,sp,-16
 8000358:	dfc00315 	stw	ra,12(sp)
 800035c:	df000215 	stw	fp,8(sp)
 8000360:	df000204 	addi	fp,sp,8
 8000364:	2005883a 	mov	r2,r4
 8000368:	e17fff15 	stw	r5,-4(fp)
 800036c:	e0bffe05 	stb	r2,-8(fp)
  printf("     %c:  %s\n" ,letter, name);
 8000370:	e0bffe07 	ldb	r2,-8(fp)
 8000374:	010200b4 	movhi	r4,2050
 8000378:	212fc804 	addi	r4,r4,-16608
 800037c:	100b883a 	mov	r5,r2
 8000380:	e1bfff17 	ldw	r6,-4(fp)
 8000384:	8002f580 	call	8002f58 <printf>
}
 8000388:	e037883a 	mov	sp,fp
 800038c:	dfc00117 	ldw	ra,4(sp)
 8000390:	df000017 	ldw	fp,0(sp)
 8000394:	dec00204 	addi	sp,sp,8
 8000398:	f800283a 	ret

0800039c <GetInputString>:
*           returns the string, minus any '\r' characters it 
*           encounters.
*
******************************************************************/
void GetInputString( char* entry, int size, FILE * stream )
{
 800039c:	defff904 	addi	sp,sp,-28
 80003a0:	dfc00615 	stw	ra,24(sp)
 80003a4:	df000515 	stw	fp,20(sp)
 80003a8:	df000504 	addi	fp,sp,20
 80003ac:	e13ffd15 	stw	r4,-12(fp)
 80003b0:	e17ffe15 	stw	r5,-8(fp)
 80003b4:	e1bfff15 	stw	r6,-4(fp)
  int i;
  int ch = 0;
 80003b8:	e03ffc15 	stw	zero,-16(fp)
  
  for(i = 0; (ch != '\n') && (i < size); )
 80003bc:	e03ffb15 	stw	zero,-20(fp)
 80003c0:	00000e06 	br	80003fc <GetInputString+0x60>
  {
    if( (ch = getc(stream)) != '\r')
 80003c4:	e13fff17 	ldw	r4,-4(fp)
 80003c8:	80025200 	call	8002520 <getc>
 80003cc:	e0bffc15 	stw	r2,-16(fp)
 80003d0:	e0bffc17 	ldw	r2,-16(fp)
 80003d4:	10800360 	cmpeqi	r2,r2,13
 80003d8:	1000081e 	bne	r2,zero,80003fc <GetInputString+0x60>
    {
      entry[i] = ch;
 80003dc:	e0bffb17 	ldw	r2,-20(fp)
 80003e0:	e0fffd17 	ldw	r3,-12(fp)
 80003e4:	1885883a 	add	r2,r3,r2
 80003e8:	e0fffc17 	ldw	r3,-16(fp)
 80003ec:	10c00005 	stb	r3,0(r2)
      i++;
 80003f0:	e0bffb17 	ldw	r2,-20(fp)
 80003f4:	10800044 	addi	r2,r2,1
 80003f8:	e0bffb15 	stw	r2,-20(fp)
void GetInputString( char* entry, int size, FILE * stream )
{
  int i;
  int ch = 0;
  
  for(i = 0; (ch != '\n') && (i < size); )
 80003fc:	e0bffc17 	ldw	r2,-16(fp)
 8000400:	108002a0 	cmpeqi	r2,r2,10
 8000404:	1000031e 	bne	r2,zero,8000414 <GetInputString+0x78>
 8000408:	e0fffb17 	ldw	r3,-20(fp)
 800040c:	e0bffe17 	ldw	r2,-8(fp)
 8000410:	18bfec16 	blt	r3,r2,80003c4 <__alt_data_end+0xf80003c4>
    {
      entry[i] = ch;
      i++;
    }
  }
}
 8000414:	e037883a 	mov	sp,fp
 8000418:	dfc00117 	ldw	ra,4(sp)
 800041c:	df000017 	ldw	fp,0(sp)
 8000420:	dec00204 	addi	sp,sp,8
 8000424:	f800283a 	ret

08000428 <MenuEnd>:
*  Purpose: Prints the end of the menu, then captures and returns
*           the user's selection.
*
******************************************************************/
static int MenuEnd( char lowLetter, char highLetter )
{
 8000428:	defffc04 	addi	sp,sp,-16
 800042c:	dfc00315 	stw	ra,12(sp)
 8000430:	df000215 	stw	fp,8(sp)
 8000434:	df000204 	addi	fp,sp,8
 8000438:	2007883a 	mov	r3,r4
 800043c:	2805883a 	mov	r2,r5
 8000440:	e0fffe05 	stb	r3,-8(fp)
 8000444:	e0bfff05 	stb	r2,-4(fp)
  static char entry[4];
  static char ch;

  printf("     q:  Exit\n");
 8000448:	010200b4 	movhi	r4,2050
 800044c:	212fcc04 	addi	r4,r4,-16592
 8000450:	800306c0 	call	800306c <puts>
  printf("----------------------------------\n");
 8000454:	010200b4 	movhi	r4,2050
 8000458:	212fbf04 	addi	r4,r4,-16644
 800045c:	800306c0 	call	800306c <puts>
  printf("\nSelect Choice (%c-%c): [Followed by <enter>]",lowLetter,highLetter);
 8000460:	e0fffe07 	ldb	r3,-8(fp)
 8000464:	e0bfff07 	ldb	r2,-4(fp)
 8000468:	010200b4 	movhi	r4,2050
 800046c:	212fd004 	addi	r4,r4,-16576
 8000470:	180b883a 	mov	r5,r3
 8000474:	100d883a 	mov	r6,r2
 8000478:	8002f580 	call	8002f58 <printf>

  GetInputString( entry, sizeof(entry), stdin );
 800047c:	008200b4 	movhi	r2,2050
 8000480:	10bab604 	addi	r2,r2,-5416
 8000484:	10800017 	ldw	r2,0(r2)
 8000488:	10800117 	ldw	r2,4(r2)
 800048c:	d1201404 	addi	r4,gp,-32688
 8000490:	01400104 	movi	r5,4
 8000494:	100d883a 	mov	r6,r2
 8000498:	800039c0 	call	800039c <GetInputString>
  if(sscanf(entry, "%c\n", &ch))
 800049c:	d1201404 	addi	r4,gp,-32688
 80004a0:	014200b4 	movhi	r5,2050
 80004a4:	296fdc04 	addi	r5,r5,-16528
 80004a8:	d1a01504 	addi	r6,gp,-32684
 80004ac:	800315c0 	call	800315c <sscanf>
 80004b0:	10001726 	beq	r2,zero,8000510 <MenuEnd+0xe8>
  {
    if( ch >= 'A' && ch <= 'Z' )
 80004b4:	d0a01503 	ldbu	r2,-32684(gp)
 80004b8:	10803fcc 	andi	r2,r2,255
 80004bc:	1080201c 	xori	r2,r2,128
 80004c0:	10bfe004 	addi	r2,r2,-128
 80004c4:	10801050 	cmplti	r2,r2,65
 80004c8:	1000091e 	bne	r2,zero,80004f0 <MenuEnd+0xc8>
 80004cc:	d0a01503 	ldbu	r2,-32684(gp)
 80004d0:	10803fcc 	andi	r2,r2,255
 80004d4:	1080201c 	xori	r2,r2,128
 80004d8:	10bfe004 	addi	r2,r2,-128
 80004dc:	108016c8 	cmpgei	r2,r2,91
 80004e0:	1000031e 	bne	r2,zero,80004f0 <MenuEnd+0xc8>
      ch += 'a' - 'A';
 80004e4:	d0a01503 	ldbu	r2,-32684(gp)
 80004e8:	10800804 	addi	r2,r2,32
 80004ec:	d0a01505 	stb	r2,-32684(gp)
    if( ch == 27 )
 80004f0:	d0a01503 	ldbu	r2,-32684(gp)
 80004f4:	10803fcc 	andi	r2,r2,255
 80004f8:	1080201c 	xori	r2,r2,128
 80004fc:	10bfe004 	addi	r2,r2,-128
 8000500:	108006d8 	cmpnei	r2,r2,27
 8000504:	1000021e 	bne	r2,zero,8000510 <MenuEnd+0xe8>
      ch = 'q';
 8000508:	00801c44 	movi	r2,113
 800050c:	d0a01505 	stb	r2,-32684(gp)
  }
  return ch;
 8000510:	d0a01503 	ldbu	r2,-32684(gp)
 8000514:	10803fcc 	andi	r2,r2,255
 8000518:	1080201c 	xori	r2,r2,128
 800051c:	10bfe004 	addi	r2,r2,-128
}
 8000520:	e037883a 	mov	sp,fp
 8000524:	dfc00117 	ldw	ra,4(sp)
 8000528:	df000017 	ldw	fp,0(sp)
 800052c:	dec00204 	addi	sp,sp,8
 8000530:	f800283a 	ret

08000534 <MemGetAddressRange>:
*
*  Purpose: Gathers a range of memory from the user.
*
******************************************************************/
static int MemGetAddressRange(int* base_address, int* end_address)
{
 8000534:	defff904 	addi	sp,sp,-28
 8000538:	dfc00615 	stw	ra,24(sp)
 800053c:	df000515 	stw	fp,20(sp)
 8000540:	df000504 	addi	fp,sp,20
 8000544:	e13ffe15 	stw	r4,-8(fp)
 8000548:	e17fff15 	stw	r5,-4(fp)
  char line[12];

  while(1)
  {
    /* Get the base address */
    printf("Base address to start memory test: (i.e. 0x800000)\n");
 800054c:	010200b4 	movhi	r4,2050
 8000550:	212fdd04 	addi	r4,r4,-16524
 8000554:	800306c0 	call	800306c <puts>
    printf(">");
 8000558:	01000f84 	movi	r4,62
 800055c:	8002f9c0 	call	8002f9c <putchar>

    GetInputString( line, sizeof(line), stdin );
 8000560:	008200b4 	movhi	r2,2050
 8000564:	10bab604 	addi	r2,r2,-5416
 8000568:	10800017 	ldw	r2,0(r2)
 800056c:	10800117 	ldw	r2,4(r2)
 8000570:	e13ffb04 	addi	r4,fp,-20
 8000574:	01400304 	movi	r5,12
 8000578:	100d883a 	mov	r6,r2
 800057c:	800039c0 	call	800039c <GetInputString>
   
    /* Check the format to make sure it was entered as hex */
    if(sscanf(line, "0x%X", base_address) != 1)
 8000580:	e13ffb04 	addi	r4,fp,-20
 8000584:	014200b4 	movhi	r5,2050
 8000588:	296fea04 	addi	r5,r5,-16472
 800058c:	e1bffe17 	ldw	r6,-8(fp)
 8000590:	800315c0 	call	800315c <sscanf>
 8000594:	10800060 	cmpeqi	r2,r2,1
 8000598:	1000061e 	bne	r2,zero,80005b4 <MemGetAddressRange+0x80>
    {
      printf("%s\n", line);
 800059c:	e13ffb04 	addi	r4,fp,-20
 80005a0:	800306c0 	call	800306c <puts>
      printf(" -ERROR: Invalid base address entered.  Address must be in the form '0x800000'\n\n");
 80005a4:	010200b4 	movhi	r4,2050
 80005a8:	212fec04 	addi	r4,r4,-16464
 80005ac:	800306c0 	call	800306c <puts>
      continue;
 80005b0:	00002206 	br	800063c <MemGetAddressRange+0x108>
    }
    
    /* Get the end address */
    printf("End Address:\n");
 80005b4:	010200b4 	movhi	r4,2050
 80005b8:	21300004 	addi	r4,r4,-16384
 80005bc:	800306c0 	call	800306c <puts>
    printf(">");
 80005c0:	01000f84 	movi	r4,62
 80005c4:	8002f9c0 	call	8002f9c <putchar>

    GetInputString( line, sizeof(line), stdin );
 80005c8:	008200b4 	movhi	r2,2050
 80005cc:	10bab604 	addi	r2,r2,-5416
 80005d0:	10800017 	ldw	r2,0(r2)
 80005d4:	10800117 	ldw	r2,4(r2)
 80005d8:	e13ffb04 	addi	r4,fp,-20
 80005dc:	01400304 	movi	r5,12
 80005e0:	100d883a 	mov	r6,r2
 80005e4:	800039c0 	call	800039c <GetInputString>
    
    /* Check the format to make sure it was entered as hex */
    if(sscanf(line, "0x%X", end_address) != 1)
 80005e8:	e13ffb04 	addi	r4,fp,-20
 80005ec:	014200b4 	movhi	r5,2050
 80005f0:	296fea04 	addi	r5,r5,-16472
 80005f4:	e1bfff17 	ldw	r6,-4(fp)
 80005f8:	800315c0 	call	800315c <sscanf>
 80005fc:	10800060 	cmpeqi	r2,r2,1
 8000600:	1000041e 	bne	r2,zero,8000614 <MemGetAddressRange+0xe0>
    {
      printf(" -ERROR: Invalid end address entered.  Address must be in the form '0x8FFFFF'\n\n");
 8000604:	010200b4 	movhi	r4,2050
 8000608:	21300404 	addi	r4,r4,-16368
 800060c:	800306c0 	call	800306c <puts>
      continue;
 8000610:	00000a06 	br	800063c <MemGetAddressRange+0x108>
    }
    
    /* Make sure end address is greater than base address. */
    if (*end_address <= *base_address)
 8000614:	e0bfff17 	ldw	r2,-4(fp)
 8000618:	10800017 	ldw	r2,0(r2)
 800061c:	e0fffe17 	ldw	r3,-8(fp)
 8000620:	18c00017 	ldw	r3,0(r3)
 8000624:	18800416 	blt	r3,r2,8000638 <MemGetAddressRange+0x104>
    {
      printf(" -ERROR: End address must be greater than the start address\n\n");
 8000628:	010200b4 	movhi	r4,2050
 800062c:	21301804 	addi	r4,r4,-16288
 8000630:	800306c0 	call	800306c <puts>

      continue;
 8000634:	00000106 	br	800063c <MemGetAddressRange+0x108>
    }
    break;
 8000638:	00000106 	br	8000640 <MemGetAddressRange+0x10c>
  }
 800063c:	003fc306 	br	800054c <__alt_data_end+0xf800054c>

  return(0);
 8000640:	0005883a 	mov	r2,zero
}
 8000644:	e037883a 	mov	sp,fp
 8000648:	dfc00117 	ldw	ra,4(sp)
 800064c:	df000017 	ldw	fp,0(sp)
 8000650:	dec00204 	addi	sp,sp,8
 8000654:	f800283a 	ret

08000658 <MemTestDataBus>:
*  Purpose: Tests that the data bus is connected with no 
*           stuck-at's, shorts, or open circuits.
*
******************************************************************/
static int MemTestDataBus(unsigned int address)
{
 8000658:	defffc04 	addi	sp,sp,-16
 800065c:	df000315 	stw	fp,12(sp)
 8000660:	df000304 	addi	fp,sp,12
 8000664:	e13fff15 	stw	r4,-4(fp)
  unsigned int pattern;
  unsigned int ret_code = 0x0;
 8000668:	e03ffe15 	stw	zero,-8(fp)

  /* Perform a walking 1's test at the given address. */
  for (pattern = 1; pattern != 0; pattern <<= 1)
 800066c:	00800044 	movi	r2,1
 8000670:	e0bffd15 	stw	r2,-12(fp)
 8000674:	00000e06 	br	80006b0 <MemTestDataBus+0x58>
  {
    /* Write the test pattern. */
    IOWR_32DIRECT(address, 0, pattern);
 8000678:	e0bfff17 	ldw	r2,-4(fp)
 800067c:	e0fffd17 	ldw	r3,-12(fp)
 8000680:	10c00035 	stwio	r3,0(r2)

    /* Read it back (immediately is okay for this test). */
    if (IORD_32DIRECT(address, 0) != pattern)
 8000684:	e0bfff17 	ldw	r2,-4(fp)
 8000688:	10800037 	ldwio	r2,0(r2)
 800068c:	1007883a 	mov	r3,r2
 8000690:	e0bffd17 	ldw	r2,-12(fp)
 8000694:	18800326 	beq	r3,r2,80006a4 <MemTestDataBus+0x4c>
    {
      ret_code = pattern;
 8000698:	e0bffd17 	ldw	r2,-12(fp)
 800069c:	e0bffe15 	stw	r2,-8(fp)
      break;
 80006a0:	00000506 	br	80006b8 <MemTestDataBus+0x60>
{
  unsigned int pattern;
  unsigned int ret_code = 0x0;

  /* Perform a walking 1's test at the given address. */
  for (pattern = 1; pattern != 0; pattern <<= 1)
 80006a4:	e0bffd17 	ldw	r2,-12(fp)
 80006a8:	1085883a 	add	r2,r2,r2
 80006ac:	e0bffd15 	stw	r2,-12(fp)
 80006b0:	e0bffd17 	ldw	r2,-12(fp)
 80006b4:	103ff01e 	bne	r2,zero,8000678 <__alt_data_end+0xf8000678>
    {
      ret_code = pattern;
      break;
    }
  }
  return ret_code;
 80006b8:	e0bffe17 	ldw	r2,-8(fp)
}
 80006bc:	e037883a 	mov	sp,fp
 80006c0:	df000017 	ldw	fp,0(sp)
 80006c4:	dec00104 	addi	sp,sp,4
 80006c8:	f800283a 	ret

080006cc <MemTestAddressBus>:
*  Purpose: Tests that the address bus is connected with no 
*           stuck-at's, shorts, or open circuits.
*
******************************************************************/
static int MemTestAddressBus(unsigned int memory_base, unsigned int nBytes)
{
 80006cc:	defff704 	addi	sp,sp,-36
 80006d0:	df000815 	stw	fp,32(sp)
 80006d4:	df000804 	addi	fp,sp,32
 80006d8:	e13ffe15 	stw	r4,-8(fp)
 80006dc:	e17fff15 	stw	r5,-4(fp)
  unsigned int address_mask = (nBytes - 1);
 80006e0:	e0bfff17 	ldw	r2,-4(fp)
 80006e4:	10bfffc4 	addi	r2,r2,-1
 80006e8:	e0bffb15 	stw	r2,-20(fp)
  unsigned int offset;
  unsigned int test_offset;

  unsigned int pattern     = 0xAAAAAAAA;
 80006ec:	00aaaaf4 	movhi	r2,43691
 80006f0:	10aaaa84 	addi	r2,r2,-21846
 80006f4:	e0bffc15 	stw	r2,-16(fp)
  unsigned int antipattern  = 0x55555555;
 80006f8:	00955574 	movhi	r2,21845
 80006fc:	10955544 	addi	r2,r2,21845
 8000700:	e0bffd15 	stw	r2,-12(fp)

  unsigned int ret_code = 0x0;
 8000704:	e03ffa15 	stw	zero,-24(fp)

  /* Write the default pattern at each of the power-of-two offsets. */
  for (offset = sizeof(unsigned int); (offset & address_mask) != 0; offset <<= 1)
 8000708:	00800104 	movi	r2,4
 800070c:	e0bff815 	stw	r2,-32(fp)
 8000710:	00000906 	br	8000738 <MemTestAddressBus+0x6c>
  {
    IOWR_32DIRECT(memory_base, offset, pattern);
 8000714:	e0fff817 	ldw	r3,-32(fp)
 8000718:	e0bffe17 	ldw	r2,-8(fp)
 800071c:	1885883a 	add	r2,r3,r2
 8000720:	1007883a 	mov	r3,r2
 8000724:	e0bffc17 	ldw	r2,-16(fp)
 8000728:	18800035 	stwio	r2,0(r3)
  unsigned int antipattern  = 0x55555555;

  unsigned int ret_code = 0x0;

  /* Write the default pattern at each of the power-of-two offsets. */
  for (offset = sizeof(unsigned int); (offset & address_mask) != 0; offset <<= 1)
 800072c:	e0bff817 	ldw	r2,-32(fp)
 8000730:	1085883a 	add	r2,r2,r2
 8000734:	e0bff815 	stw	r2,-32(fp)
 8000738:	e0fff817 	ldw	r3,-32(fp)
 800073c:	e0bffb17 	ldw	r2,-20(fp)
 8000740:	1884703a 	and	r2,r3,r2
 8000744:	103ff31e 	bne	r2,zero,8000714 <__alt_data_end+0xf8000714>
  {
    IOWR_32DIRECT(memory_base, offset, pattern);
  }

  /* Check for address bits stuck high. */
  test_offset = 0;
 8000748:	e03ff915 	stw	zero,-28(fp)
  IOWR_32DIRECT(memory_base, test_offset, antipattern);
 800074c:	e0fff917 	ldw	r3,-28(fp)
 8000750:	e0bffe17 	ldw	r2,-8(fp)
 8000754:	1885883a 	add	r2,r3,r2
 8000758:	1007883a 	mov	r3,r2
 800075c:	e0bffd17 	ldw	r2,-12(fp)
 8000760:	18800035 	stwio	r2,0(r3)
  for (offset = sizeof(unsigned int); (offset & address_mask) != 0; offset <<= 1)
 8000764:	00800104 	movi	r2,4
 8000768:	e0bff815 	stw	r2,-32(fp)
 800076c:	00000f06 	br	80007ac <MemTestAddressBus+0xe0>
  {
     if (IORD_32DIRECT(memory_base, offset) != pattern)
 8000770:	e0fff817 	ldw	r3,-32(fp)
 8000774:	e0bffe17 	ldw	r2,-8(fp)
 8000778:	1885883a 	add	r2,r3,r2
 800077c:	10800037 	ldwio	r2,0(r2)
 8000780:	1007883a 	mov	r3,r2
 8000784:	e0bffc17 	ldw	r2,-16(fp)
 8000788:	18800526 	beq	r3,r2,80007a0 <MemTestAddressBus+0xd4>
     {
        ret_code = (memory_base+offset);
 800078c:	e0fffe17 	ldw	r3,-8(fp)
 8000790:	e0bff817 	ldw	r2,-32(fp)
 8000794:	1885883a 	add	r2,r3,r2
 8000798:	e0bffa15 	stw	r2,-24(fp)
        break;
 800079c:	00000706 	br	80007bc <MemTestAddressBus+0xf0>
  }

  /* Check for address bits stuck high. */
  test_offset = 0;
  IOWR_32DIRECT(memory_base, test_offset, antipattern);
  for (offset = sizeof(unsigned int); (offset & address_mask) != 0; offset <<= 1)
 80007a0:	e0bff817 	ldw	r2,-32(fp)
 80007a4:	1085883a 	add	r2,r2,r2
 80007a8:	e0bff815 	stw	r2,-32(fp)
 80007ac:	e0fff817 	ldw	r3,-32(fp)
 80007b0:	e0bffb17 	ldw	r2,-20(fp)
 80007b4:	1884703a 	and	r2,r3,r2
 80007b8:	103fed1e 	bne	r2,zero,8000770 <__alt_data_end+0xf8000770>
        break;
     }
  }

  /* Check for address bits stuck low or shorted. */
  IOWR_32DIRECT(memory_base, test_offset, pattern);
 80007bc:	e0fff917 	ldw	r3,-28(fp)
 80007c0:	e0bffe17 	ldw	r2,-8(fp)
 80007c4:	1885883a 	add	r2,r3,r2
 80007c8:	1007883a 	mov	r3,r2
 80007cc:	e0bffc17 	ldw	r2,-16(fp)
 80007d0:	18800035 	stwio	r2,0(r3)
  for (test_offset = sizeof(unsigned int); (test_offset & address_mask) != 0; test_offset <<= 1)
 80007d4:	00800104 	movi	r2,4
 80007d8:	e0bff915 	stw	r2,-28(fp)
 80007dc:	00002a06 	br	8000888 <MemTestAddressBus+0x1bc>
  {
    if (!ret_code)
 80007e0:	e0bffa17 	ldw	r2,-24(fp)
 80007e4:	1000251e 	bne	r2,zero,800087c <MemTestAddressBus+0x1b0>
    {
      IOWR_32DIRECT(memory_base, test_offset, antipattern);
 80007e8:	e0fff917 	ldw	r3,-28(fp)
 80007ec:	e0bffe17 	ldw	r2,-8(fp)
 80007f0:	1885883a 	add	r2,r3,r2
 80007f4:	1007883a 	mov	r3,r2
 80007f8:	e0bffd17 	ldw	r2,-12(fp)
 80007fc:	18800035 	stwio	r2,0(r3)
      for (offset = sizeof(unsigned int); (offset & address_mask) != 0; offset <<= 1)
 8000800:	00800104 	movi	r2,4
 8000804:	e0bff815 	stw	r2,-32(fp)
 8000808:	00001206 	br	8000854 <MemTestAddressBus+0x188>
      {
        if ((IORD_32DIRECT(memory_base, offset) != pattern) && (offset != test_offset))
 800080c:	e0fff817 	ldw	r3,-32(fp)
 8000810:	e0bffe17 	ldw	r2,-8(fp)
 8000814:	1885883a 	add	r2,r3,r2
 8000818:	10800037 	ldwio	r2,0(r2)
 800081c:	1007883a 	mov	r3,r2
 8000820:	e0bffc17 	ldw	r2,-16(fp)
 8000824:	18800826 	beq	r3,r2,8000848 <MemTestAddressBus+0x17c>
 8000828:	e0fff817 	ldw	r3,-32(fp)
 800082c:	e0bff917 	ldw	r2,-28(fp)
 8000830:	18800526 	beq	r3,r2,8000848 <MemTestAddressBus+0x17c>
        {
          ret_code = (memory_base + test_offset);
 8000834:	e0fffe17 	ldw	r3,-8(fp)
 8000838:	e0bff917 	ldw	r2,-28(fp)
 800083c:	1885883a 	add	r2,r3,r2
 8000840:	e0bffa15 	stw	r2,-24(fp)
          break;
 8000844:	00000706 	br	8000864 <MemTestAddressBus+0x198>
  for (test_offset = sizeof(unsigned int); (test_offset & address_mask) != 0; test_offset <<= 1)
  {
    if (!ret_code)
    {
      IOWR_32DIRECT(memory_base, test_offset, antipattern);
      for (offset = sizeof(unsigned int); (offset & address_mask) != 0; offset <<= 1)
 8000848:	e0bff817 	ldw	r2,-32(fp)
 800084c:	1085883a 	add	r2,r2,r2
 8000850:	e0bff815 	stw	r2,-32(fp)
 8000854:	e0fff817 	ldw	r3,-32(fp)
 8000858:	e0bffb17 	ldw	r2,-20(fp)
 800085c:	1884703a 	and	r2,r3,r2
 8000860:	103fea1e 	bne	r2,zero,800080c <__alt_data_end+0xf800080c>
        {
          ret_code = (memory_base + test_offset);
          break;
        }
      }
      IOWR_32DIRECT(memory_base, test_offset, pattern);
 8000864:	e0fff917 	ldw	r3,-28(fp)
 8000868:	e0bffe17 	ldw	r2,-8(fp)
 800086c:	1885883a 	add	r2,r3,r2
 8000870:	1007883a 	mov	r3,r2
 8000874:	e0bffc17 	ldw	r2,-16(fp)
 8000878:	18800035 	stwio	r2,0(r3)
     }
  }

  /* Check for address bits stuck low or shorted. */
  IOWR_32DIRECT(memory_base, test_offset, pattern);
  for (test_offset = sizeof(unsigned int); (test_offset & address_mask) != 0; test_offset <<= 1)
 800087c:	e0bff917 	ldw	r2,-28(fp)
 8000880:	1085883a 	add	r2,r2,r2
 8000884:	e0bff915 	stw	r2,-28(fp)
 8000888:	e0fff917 	ldw	r3,-28(fp)
 800088c:	e0bffb17 	ldw	r2,-20(fp)
 8000890:	1884703a 	and	r2,r3,r2
 8000894:	103fd21e 	bne	r2,zero,80007e0 <__alt_data_end+0xf80007e0>
      }
      IOWR_32DIRECT(memory_base, test_offset, pattern);
    }
  }

  return ret_code;
 8000898:	e0bffa17 	ldw	r2,-24(fp)
}
 800089c:	e037883a 	mov	sp,fp
 80008a0:	df000017 	ldw	fp,0(sp)
 80008a4:	dec00104 	addi	sp,sp,4
 80008a8:	f800283a 	ret

080008ac <MemTest8_16BitAccess>:
*           can be read and written in both byte and half-word 
*           modes.
*
******************************************************************/
static int MemTest8_16BitAccess(unsigned int memory_base)
{
 80008ac:	defffd04 	addi	sp,sp,-12
 80008b0:	df000215 	stw	fp,8(sp)
 80008b4:	df000204 	addi	fp,sp,8
 80008b8:	e13fff15 	stw	r4,-4(fp)
  int ret_code = 0x0;
 80008bc:	e03ffe15 	stw	zero,-8(fp)

  /* Write 4 bytes */
  IOWR_8DIRECT(memory_base, 0, 0x0A);
 80008c0:	e0bfff17 	ldw	r2,-4(fp)
 80008c4:	00c00284 	movi	r3,10
 80008c8:	10c00025 	stbio	r3,0(r2)
  IOWR_8DIRECT(memory_base, 1, 0x05);
 80008cc:	e0bfff17 	ldw	r2,-4(fp)
 80008d0:	10800044 	addi	r2,r2,1
 80008d4:	1007883a 	mov	r3,r2
 80008d8:	00800144 	movi	r2,5
 80008dc:	18800025 	stbio	r2,0(r3)
  IOWR_8DIRECT(memory_base, 2, 0xA0);
 80008e0:	e0bfff17 	ldw	r2,-4(fp)
 80008e4:	10800084 	addi	r2,r2,2
 80008e8:	1007883a 	mov	r3,r2
 80008ec:	00bfe804 	movi	r2,-96
 80008f0:	18800025 	stbio	r2,0(r3)
  IOWR_8DIRECT(memory_base, 3, 0x50);
 80008f4:	e0bfff17 	ldw	r2,-4(fp)
 80008f8:	108000c4 	addi	r2,r2,3
 80008fc:	1007883a 	mov	r3,r2
 8000900:	00801404 	movi	r2,80
 8000904:	18800025 	stbio	r2,0(r3)

  /* Read it back as one word */
  if(IORD_32DIRECT(memory_base, 0) != 0x50A0050A)
 8000908:	e0bfff17 	ldw	r2,-4(fp)
 800090c:	10c00037 	ldwio	r3,0(r2)
 8000910:	00942834 	movhi	r2,20640
 8000914:	10814284 	addi	r2,r2,1290
 8000918:	18800226 	beq	r3,r2,8000924 <MemTest8_16BitAccess+0x78>
  {
    ret_code = memory_base;
 800091c:	e0bfff17 	ldw	r2,-4(fp)
 8000920:	e0bffe15 	stw	r2,-8(fp)
  }

  /* Read it back as two half-words */
  if (!ret_code)
 8000924:	e0bffe17 	ldw	r2,-8(fp)
 8000928:	10000d1e 	bne	r2,zero,8000960 <MemTest8_16BitAccess+0xb4>
  {
    if ((IORD_16DIRECT(memory_base, 2) != 0x50A0) ||
 800092c:	e0bfff17 	ldw	r2,-4(fp)
 8000930:	10800084 	addi	r2,r2,2
 8000934:	1080002b 	ldhuio	r2,0(r2)
 8000938:	10bfffcc 	andi	r2,r2,65535
 800093c:	10942818 	cmpnei	r2,r2,20640
 8000940:	1000051e 	bne	r2,zero,8000958 <MemTest8_16BitAccess+0xac>
        (IORD_16DIRECT(memory_base, 0) != 0x050A))
 8000944:	e0bfff17 	ldw	r2,-4(fp)
 8000948:	1080002b 	ldhuio	r2,0(r2)
 800094c:	10bfffcc 	andi	r2,r2,65535
  }

  /* Read it back as two half-words */
  if (!ret_code)
  {
    if ((IORD_16DIRECT(memory_base, 2) != 0x50A0) ||
 8000950:	108142a0 	cmpeqi	r2,r2,1290
 8000954:	1000021e 	bne	r2,zero,8000960 <MemTest8_16BitAccess+0xb4>
        (IORD_16DIRECT(memory_base, 0) != 0x050A))
    {
      ret_code = memory_base;
 8000958:	e0bfff17 	ldw	r2,-4(fp)
 800095c:	e0bffe15 	stw	r2,-8(fp)
    }
  }

  /* Read it back as 4 bytes */
  if (!ret_code)
 8000960:	e0bffe17 	ldw	r2,-8(fp)
 8000964:	1000191e 	bne	r2,zero,80009cc <MemTest8_16BitAccess+0x120>
  {
    if ((IORD_8DIRECT(memory_base, 3) != 0x50) ||
 8000968:	e0bfff17 	ldw	r2,-4(fp)
 800096c:	108000c4 	addi	r2,r2,3
 8000970:	10800023 	ldbuio	r2,0(r2)
 8000974:	10803fcc 	andi	r2,r2,255
 8000978:	10801418 	cmpnei	r2,r2,80
 800097c:	1000111e 	bne	r2,zero,80009c4 <MemTest8_16BitAccess+0x118>
        (IORD_8DIRECT(memory_base, 2) != 0xA0) ||
 8000980:	e0bfff17 	ldw	r2,-4(fp)
 8000984:	10800084 	addi	r2,r2,2
 8000988:	10800023 	ldbuio	r2,0(r2)
 800098c:	10803fcc 	andi	r2,r2,255
  }

  /* Read it back as 4 bytes */
  if (!ret_code)
  {
    if ((IORD_8DIRECT(memory_base, 3) != 0x50) ||
 8000990:	10802818 	cmpnei	r2,r2,160
 8000994:	10000b1e 	bne	r2,zero,80009c4 <MemTest8_16BitAccess+0x118>
        (IORD_8DIRECT(memory_base, 2) != 0xA0) ||
        (IORD_8DIRECT(memory_base, 1) != 0x05) ||
 8000998:	e0bfff17 	ldw	r2,-4(fp)
 800099c:	10800044 	addi	r2,r2,1
 80009a0:	10800023 	ldbuio	r2,0(r2)
 80009a4:	10803fcc 	andi	r2,r2,255

  /* Read it back as 4 bytes */
  if (!ret_code)
  {
    if ((IORD_8DIRECT(memory_base, 3) != 0x50) ||
        (IORD_8DIRECT(memory_base, 2) != 0xA0) ||
 80009a8:	10800158 	cmpnei	r2,r2,5
 80009ac:	1000051e 	bne	r2,zero,80009c4 <MemTest8_16BitAccess+0x118>
        (IORD_8DIRECT(memory_base, 1) != 0x05) ||
        (IORD_8DIRECT(memory_base, 0) != 0x0A))
 80009b0:	e0bfff17 	ldw	r2,-4(fp)
 80009b4:	10800023 	ldbuio	r2,0(r2)
 80009b8:	10803fcc 	andi	r2,r2,255
  /* Read it back as 4 bytes */
  if (!ret_code)
  {
    if ((IORD_8DIRECT(memory_base, 3) != 0x50) ||
        (IORD_8DIRECT(memory_base, 2) != 0xA0) ||
        (IORD_8DIRECT(memory_base, 1) != 0x05) ||
 80009bc:	108002a0 	cmpeqi	r2,r2,10
 80009c0:	1000021e 	bne	r2,zero,80009cc <MemTest8_16BitAccess+0x120>
        (IORD_8DIRECT(memory_base, 0) != 0x0A))
    {
    ret_code = memory_base;
 80009c4:	e0bfff17 	ldw	r2,-4(fp)
 80009c8:	e0bffe15 	stw	r2,-8(fp)
    }
  }

  /* Write 2 half-words */
  if (!ret_code)
 80009cc:	e0bffe17 	ldw	r2,-8(fp)
 80009d0:	10000f1e 	bne	r2,zero,8000a10 <MemTest8_16BitAccess+0x164>
  {
    IOWR_16DIRECT(memory_base, 0, 0x50A0);
 80009d4:	e0bfff17 	ldw	r2,-4(fp)
 80009d8:	00d42804 	movi	r3,20640
 80009dc:	10c0002d 	sthio	r3,0(r2)
    IOWR_16DIRECT(memory_base, 2, 0x050A);
 80009e0:	e0bfff17 	ldw	r2,-4(fp)
 80009e4:	10800084 	addi	r2,r2,2
 80009e8:	1007883a 	mov	r3,r2
 80009ec:	00814284 	movi	r2,1290
 80009f0:	1880002d 	sthio	r2,0(r3)

    /* Read it back as one word */
    if(IORD_32DIRECT(memory_base, 0) != 0x050A50A0)
 80009f4:	e0bfff17 	ldw	r2,-4(fp)
 80009f8:	10c00037 	ldwio	r3,0(r2)
 80009fc:	008142b4 	movhi	r2,1290
 8000a00:	10942804 	addi	r2,r2,20640
 8000a04:	18800226 	beq	r3,r2,8000a10 <MemTest8_16BitAccess+0x164>
    {
      ret_code = memory_base;
 8000a08:	e0bfff17 	ldw	r2,-4(fp)
 8000a0c:	e0bffe15 	stw	r2,-8(fp)
    }
  }

  /* Read it back as two half-words */
  if (!ret_code)
 8000a10:	e0bffe17 	ldw	r2,-8(fp)
 8000a14:	10000d1e 	bne	r2,zero,8000a4c <MemTest8_16BitAccess+0x1a0>
  {
    if ((IORD_16DIRECT(memory_base, 2) != 0x050A) ||
 8000a18:	e0bfff17 	ldw	r2,-4(fp)
 8000a1c:	10800084 	addi	r2,r2,2
 8000a20:	1080002b 	ldhuio	r2,0(r2)
 8000a24:	10bfffcc 	andi	r2,r2,65535
 8000a28:	10814298 	cmpnei	r2,r2,1290
 8000a2c:	1000051e 	bne	r2,zero,8000a44 <MemTest8_16BitAccess+0x198>
        (IORD_16DIRECT(memory_base, 0) != 0x50A0))
 8000a30:	e0bfff17 	ldw	r2,-4(fp)
 8000a34:	1080002b 	ldhuio	r2,0(r2)
 8000a38:	10bfffcc 	andi	r2,r2,65535
  }

  /* Read it back as two half-words */
  if (!ret_code)
  {
    if ((IORD_16DIRECT(memory_base, 2) != 0x050A) ||
 8000a3c:	10942820 	cmpeqi	r2,r2,20640
 8000a40:	1000021e 	bne	r2,zero,8000a4c <MemTest8_16BitAccess+0x1a0>
        (IORD_16DIRECT(memory_base, 0) != 0x50A0))
    {
      ret_code = memory_base;
 8000a44:	e0bfff17 	ldw	r2,-4(fp)
 8000a48:	e0bffe15 	stw	r2,-8(fp)
    }
  }

  /* Read it back as 4 bytes */
  if (!ret_code)
 8000a4c:	e0bffe17 	ldw	r2,-8(fp)
 8000a50:	1000191e 	bne	r2,zero,8000ab8 <MemTest8_16BitAccess+0x20c>
  {
    if ((IORD_8DIRECT(memory_base, 3) != 0x05) ||
 8000a54:	e0bfff17 	ldw	r2,-4(fp)
 8000a58:	108000c4 	addi	r2,r2,3
 8000a5c:	10800023 	ldbuio	r2,0(r2)
 8000a60:	10803fcc 	andi	r2,r2,255
 8000a64:	10800158 	cmpnei	r2,r2,5
 8000a68:	1000111e 	bne	r2,zero,8000ab0 <MemTest8_16BitAccess+0x204>
        (IORD_8DIRECT(memory_base, 2) != 0x0A) ||
 8000a6c:	e0bfff17 	ldw	r2,-4(fp)
 8000a70:	10800084 	addi	r2,r2,2
 8000a74:	10800023 	ldbuio	r2,0(r2)
 8000a78:	10803fcc 	andi	r2,r2,255
  }

  /* Read it back as 4 bytes */
  if (!ret_code)
  {
    if ((IORD_8DIRECT(memory_base, 3) != 0x05) ||
 8000a7c:	10800298 	cmpnei	r2,r2,10
 8000a80:	10000b1e 	bne	r2,zero,8000ab0 <MemTest8_16BitAccess+0x204>
        (IORD_8DIRECT(memory_base, 2) != 0x0A) ||
        (IORD_8DIRECT(memory_base, 1) != 0x50) ||
 8000a84:	e0bfff17 	ldw	r2,-4(fp)
 8000a88:	10800044 	addi	r2,r2,1
 8000a8c:	10800023 	ldbuio	r2,0(r2)
 8000a90:	10803fcc 	andi	r2,r2,255

  /* Read it back as 4 bytes */
  if (!ret_code)
  {
    if ((IORD_8DIRECT(memory_base, 3) != 0x05) ||
        (IORD_8DIRECT(memory_base, 2) != 0x0A) ||
 8000a94:	10801418 	cmpnei	r2,r2,80
 8000a98:	1000051e 	bne	r2,zero,8000ab0 <MemTest8_16BitAccess+0x204>
        (IORD_8DIRECT(memory_base, 1) != 0x50) ||
        (IORD_8DIRECT(memory_base, 0) != 0xA0))
 8000a9c:	e0bfff17 	ldw	r2,-4(fp)
 8000aa0:	10800023 	ldbuio	r2,0(r2)
 8000aa4:	10803fcc 	andi	r2,r2,255
  /* Read it back as 4 bytes */
  if (!ret_code)
  {
    if ((IORD_8DIRECT(memory_base, 3) != 0x05) ||
        (IORD_8DIRECT(memory_base, 2) != 0x0A) ||
        (IORD_8DIRECT(memory_base, 1) != 0x50) ||
 8000aa8:	10802820 	cmpeqi	r2,r2,160
 8000aac:	1000021e 	bne	r2,zero,8000ab8 <MemTest8_16BitAccess+0x20c>
        (IORD_8DIRECT(memory_base, 0) != 0xA0))
    {
      ret_code = memory_base;
 8000ab0:	e0bfff17 	ldw	r2,-4(fp)
 8000ab4:	e0bffe15 	stw	r2,-8(fp)
    }
  }

  return(ret_code);
 8000ab8:	e0bffe17 	ldw	r2,-8(fp)
}
 8000abc:	e037883a 	mov	sp,fp
 8000ac0:	df000017 	ldw	fp,0(sp)
 8000ac4:	dec00104 	addi	sp,sp,4
 8000ac8:	f800283a 	ret

08000acc <MemTestDevice>:
*  Purpose: Tests that every bit in the memory device within the 
*           specified address range can store both a '1' and a '0'.
*
******************************************************************/
static int MemTestDevice(unsigned int memory_base, unsigned int nBytes)
{
 8000acc:	defff804 	addi	sp,sp,-32
 8000ad0:	dfc00715 	stw	ra,28(sp)
 8000ad4:	df000615 	stw	fp,24(sp)
 8000ad8:	df000604 	addi	fp,sp,24
 8000adc:	e13ffe15 	stw	r4,-8(fp)
 8000ae0:	e17fff15 	stw	r5,-4(fp)
  unsigned int offset;
  unsigned int pattern;
  unsigned int antipattern;
  unsigned int ret_code = 0x0;
 8000ae4:	e03ffc15 	stw	zero,-16(fp)

  /* Fill memory with a known pattern. */
  for (pattern = 1, offset = 0; offset < nBytes; pattern++, offset+=4)
 8000ae8:	00800044 	movi	r2,1
 8000aec:	e0bffb15 	stw	r2,-20(fp)
 8000af0:	e03ffa15 	stw	zero,-24(fp)
 8000af4:	00000c06 	br	8000b28 <MemTestDevice+0x5c>
  {
    IOWR_32DIRECT(memory_base, offset, pattern);
 8000af8:	e0fffa17 	ldw	r3,-24(fp)
 8000afc:	e0bffe17 	ldw	r2,-8(fp)
 8000b00:	1885883a 	add	r2,r3,r2
 8000b04:	1007883a 	mov	r3,r2
 8000b08:	e0bffb17 	ldw	r2,-20(fp)
 8000b0c:	18800035 	stwio	r2,0(r3)
  unsigned int pattern;
  unsigned int antipattern;
  unsigned int ret_code = 0x0;

  /* Fill memory with a known pattern. */
  for (pattern = 1, offset = 0; offset < nBytes; pattern++, offset+=4)
 8000b10:	e0bffb17 	ldw	r2,-20(fp)
 8000b14:	10800044 	addi	r2,r2,1
 8000b18:	e0bffb15 	stw	r2,-20(fp)
 8000b1c:	e0bffa17 	ldw	r2,-24(fp)
 8000b20:	10800104 	addi	r2,r2,4
 8000b24:	e0bffa15 	stw	r2,-24(fp)
 8000b28:	e0fffa17 	ldw	r3,-24(fp)
 8000b2c:	e0bfff17 	ldw	r2,-4(fp)
 8000b30:	18bff136 	bltu	r3,r2,8000af8 <__alt_data_end+0xf8000af8>
  {
    IOWR_32DIRECT(memory_base, offset, pattern);
  }

  printf(" .");
 8000b34:	010200b4 	movhi	r4,2050
 8000b38:	21302804 	addi	r4,r4,-16224
 8000b3c:	8002f580 	call	8002f58 <printf>

  /* Check each location and invert it for the second pass. */
  for (pattern = 1, offset = 0; offset < nBytes; pattern++, offset+=4)
 8000b40:	00800044 	movi	r2,1
 8000b44:	e0bffb15 	stw	r2,-20(fp)
 8000b48:	e03ffa15 	stw	zero,-24(fp)
 8000b4c:	00001b06 	br	8000bbc <MemTestDevice+0xf0>
  {
    if (IORD_32DIRECT(memory_base, offset) != pattern)
 8000b50:	e0fffa17 	ldw	r3,-24(fp)
 8000b54:	e0bffe17 	ldw	r2,-8(fp)
 8000b58:	1885883a 	add	r2,r3,r2
 8000b5c:	10800037 	ldwio	r2,0(r2)
 8000b60:	1007883a 	mov	r3,r2
 8000b64:	e0bffb17 	ldw	r2,-20(fp)
 8000b68:	18800526 	beq	r3,r2,8000b80 <MemTestDevice+0xb4>
    {
      ret_code = (memory_base + offset);
 8000b6c:	e0fffe17 	ldw	r3,-8(fp)
 8000b70:	e0bffa17 	ldw	r2,-24(fp)
 8000b74:	1885883a 	add	r2,r3,r2
 8000b78:	e0bffc15 	stw	r2,-16(fp)
      break;
 8000b7c:	00001206 	br	8000bc8 <MemTestDevice+0xfc>
    }
    antipattern = ~pattern;
 8000b80:	e0bffb17 	ldw	r2,-20(fp)
 8000b84:	0084303a 	nor	r2,zero,r2
 8000b88:	e0bffd15 	stw	r2,-12(fp)
    IOWR_32DIRECT(memory_base, offset, antipattern);
 8000b8c:	e0fffa17 	ldw	r3,-24(fp)
 8000b90:	e0bffe17 	ldw	r2,-8(fp)
 8000b94:	1885883a 	add	r2,r3,r2
 8000b98:	1007883a 	mov	r3,r2
 8000b9c:	e0bffd17 	ldw	r2,-12(fp)
 8000ba0:	18800035 	stwio	r2,0(r3)
  }

  printf(" .");

  /* Check each location and invert it for the second pass. */
  for (pattern = 1, offset = 0; offset < nBytes; pattern++, offset+=4)
 8000ba4:	e0bffb17 	ldw	r2,-20(fp)
 8000ba8:	10800044 	addi	r2,r2,1
 8000bac:	e0bffb15 	stw	r2,-20(fp)
 8000bb0:	e0bffa17 	ldw	r2,-24(fp)
 8000bb4:	10800104 	addi	r2,r2,4
 8000bb8:	e0bffa15 	stw	r2,-24(fp)
 8000bbc:	e0fffa17 	ldw	r3,-24(fp)
 8000bc0:	e0bfff17 	ldw	r2,-4(fp)
 8000bc4:	18bfe236 	bltu	r3,r2,8000b50 <__alt_data_end+0xf8000b50>
    }
    antipattern = ~pattern;
    IOWR_32DIRECT(memory_base, offset, antipattern);
  }

  printf(" .");
 8000bc8:	010200b4 	movhi	r4,2050
 8000bcc:	21302804 	addi	r4,r4,-16224
 8000bd0:	8002f580 	call	8002f58 <printf>

  /* Check each location for the inverted pattern and zero it. */
  for (pattern = 1, offset = 0; offset < nBytes; pattern++, offset+=4)
 8000bd4:	00800044 	movi	r2,1
 8000bd8:	e0bffb15 	stw	r2,-20(fp)
 8000bdc:	e03ffa15 	stw	zero,-24(fp)
 8000be0:	00001a06 	br	8000c4c <MemTestDevice+0x180>
  {
    antipattern = ~pattern;
 8000be4:	e0bffb17 	ldw	r2,-20(fp)
 8000be8:	0084303a 	nor	r2,zero,r2
 8000bec:	e0bffd15 	stw	r2,-12(fp)
    if (IORD_32DIRECT(memory_base, offset) != antipattern)
 8000bf0:	e0fffa17 	ldw	r3,-24(fp)
 8000bf4:	e0bffe17 	ldw	r2,-8(fp)
 8000bf8:	1885883a 	add	r2,r3,r2
 8000bfc:	10800037 	ldwio	r2,0(r2)
 8000c00:	1007883a 	mov	r3,r2
 8000c04:	e0bffd17 	ldw	r2,-12(fp)
 8000c08:	18800526 	beq	r3,r2,8000c20 <MemTestDevice+0x154>
    {
      ret_code = (memory_base + offset);
 8000c0c:	e0fffe17 	ldw	r3,-8(fp)
 8000c10:	e0bffa17 	ldw	r2,-24(fp)
 8000c14:	1885883a 	add	r2,r3,r2
 8000c18:	e0bffc15 	stw	r2,-16(fp)
      break;
 8000c1c:	00000e06 	br	8000c58 <MemTestDevice+0x18c>
    }
    IOWR_32DIRECT(memory_base, offset, 0x0);
 8000c20:	e0fffa17 	ldw	r3,-24(fp)
 8000c24:	e0bffe17 	ldw	r2,-8(fp)
 8000c28:	1885883a 	add	r2,r3,r2
 8000c2c:	0007883a 	mov	r3,zero
 8000c30:	10c00035 	stwio	r3,0(r2)
  }

  printf(" .");

  /* Check each location for the inverted pattern and zero it. */
  for (pattern = 1, offset = 0; offset < nBytes; pattern++, offset+=4)
 8000c34:	e0bffb17 	ldw	r2,-20(fp)
 8000c38:	10800044 	addi	r2,r2,1
 8000c3c:	e0bffb15 	stw	r2,-20(fp)
 8000c40:	e0bffa17 	ldw	r2,-24(fp)
 8000c44:	10800104 	addi	r2,r2,4
 8000c48:	e0bffa15 	stw	r2,-24(fp)
 8000c4c:	e0fffa17 	ldw	r3,-24(fp)
 8000c50:	e0bfff17 	ldw	r2,-4(fp)
 8000c54:	18bfe336 	bltu	r3,r2,8000be4 <__alt_data_end+0xf8000be4>
      ret_code = (memory_base + offset);
      break;
    }
    IOWR_32DIRECT(memory_base, offset, 0x0);
  }
  return ret_code;
 8000c58:	e0bffc17 	ldw	r2,-16(fp)
}
 8000c5c:	e037883a 	mov	sp,fp
 8000c60:	dfc00117 	ldw	ra,4(sp)
 8000c64:	df000017 	ldw	fp,0(sp)
 8000c68:	dec00204 	addi	sp,sp,8
 8000c6c:	f800283a 	ret

08000c70 <TestRam>:
*             - MemTestDevice
*             - MemDMATest
*
******************************************************************/
static void TestRam(void)
{
 8000c70:	defffa04 	addi	sp,sp,-24
 8000c74:	dfc00515 	stw	ra,20(sp)
 8000c78:	df000415 	stw	fp,16(sp)
 8000c7c:	df000404 	addi	fp,sp,16
  
  int memory_base, memory_end, memory_size;
  int ret_code = 0x0;
 8000c80:	e03ffc15 	stw	zero,-16(fp)

  /* Find out what range of memory we are testing */
  MemGetAddressRange(&memory_base, &memory_end);
 8000c84:	e0fffe04 	addi	r3,fp,-8
 8000c88:	e0bfff04 	addi	r2,fp,-4
 8000c8c:	1809883a 	mov	r4,r3
 8000c90:	100b883a 	mov	r5,r2
 8000c94:	80005340 	call	8000534 <MemGetAddressRange>
  memory_size = (memory_end - memory_base);
 8000c98:	e0ffff17 	ldw	r3,-4(fp)
 8000c9c:	e0bffe17 	ldw	r2,-8(fp)
 8000ca0:	1885c83a 	sub	r2,r3,r2
 8000ca4:	e0bffd15 	stw	r2,-12(fp)

  printf("\n");
 8000ca8:	01000284 	movi	r4,10
 8000cac:	8002f9c0 	call	8002f9c <putchar>
  printf("Testing RAM from 0x%X to 0x%X\n", memory_base, (memory_base + memory_size));
 8000cb0:	e17ffe17 	ldw	r5,-8(fp)
 8000cb4:	e0fffe17 	ldw	r3,-8(fp)
 8000cb8:	e0bffd17 	ldw	r2,-12(fp)
 8000cbc:	1885883a 	add	r2,r3,r2
 8000cc0:	010200b4 	movhi	r4,2050
 8000cc4:	21302904 	addi	r4,r4,-16220
 8000cc8:	100d883a 	mov	r6,r2
 8000ccc:	8002f580 	call	8002f58 <printf>

  /* Test Data Bus. */
  ret_code = MemTestDataBus(memory_base);
 8000cd0:	e0bffe17 	ldw	r2,-8(fp)
 8000cd4:	1009883a 	mov	r4,r2
 8000cd8:	80006580 	call	8000658 <MemTestDataBus>
 8000cdc:	e0bffc15 	stw	r2,-16(fp)

  if (ret_code)
 8000ce0:	e0bffc17 	ldw	r2,-16(fp)
 8000ce4:	10000526 	beq	r2,zero,8000cfc <TestRam+0x8c>
   printf(" -Data bus test failed at bit 0x%X", (int)ret_code);
 8000ce8:	010200b4 	movhi	r4,2050
 8000cec:	21303104 	addi	r4,r4,-16188
 8000cf0:	e17ffc17 	ldw	r5,-16(fp)
 8000cf4:	8002f580 	call	8002f58 <printf>
 8000cf8:	00000306 	br	8000d08 <TestRam+0x98>
  else
    printf(" -Data bus test passed\n");
 8000cfc:	010200b4 	movhi	r4,2050
 8000d00:	21303a04 	addi	r4,r4,-16152
 8000d04:	800306c0 	call	800306c <puts>

  /* Test Address Bus. */
  if (!ret_code)
 8000d08:	e0bffc17 	ldw	r2,-16(fp)
 8000d0c:	1000111e 	bne	r2,zero,8000d54 <TestRam+0xe4>
  {
    ret_code  = MemTestAddressBus(memory_base, memory_size);
 8000d10:	e0bffe17 	ldw	r2,-8(fp)
 8000d14:	1007883a 	mov	r3,r2
 8000d18:	e0bffd17 	ldw	r2,-12(fp)
 8000d1c:	1809883a 	mov	r4,r3
 8000d20:	100b883a 	mov	r5,r2
 8000d24:	80006cc0 	call	80006cc <MemTestAddressBus>
 8000d28:	e0bffc15 	stw	r2,-16(fp)
    if  (ret_code)
 8000d2c:	e0bffc17 	ldw	r2,-16(fp)
 8000d30:	10000526 	beq	r2,zero,8000d48 <TestRam+0xd8>
      printf(" -Address bus test failed at address 0x%X", (int)ret_code);
 8000d34:	010200b4 	movhi	r4,2050
 8000d38:	21304004 	addi	r4,r4,-16128
 8000d3c:	e17ffc17 	ldw	r5,-16(fp)
 8000d40:	8002f580 	call	8002f58 <printf>
 8000d44:	00000306 	br	8000d54 <TestRam+0xe4>
    else
      printf(" -Address bus test passed\n");
 8000d48:	010200b4 	movhi	r4,2050
 8000d4c:	21304b04 	addi	r4,r4,-16084
 8000d50:	800306c0 	call	800306c <puts>
  }

  /* Test byte and half-word access. */
  if (!ret_code)
 8000d54:	e0bffc17 	ldw	r2,-16(fp)
 8000d58:	10000e1e 	bne	r2,zero,8000d94 <TestRam+0x124>
  {
    ret_code = MemTest8_16BitAccess(memory_base);
 8000d5c:	e0bffe17 	ldw	r2,-8(fp)
 8000d60:	1009883a 	mov	r4,r2
 8000d64:	80008ac0 	call	80008ac <MemTest8_16BitAccess>
 8000d68:	e0bffc15 	stw	r2,-16(fp)
    if  (ret_code)
 8000d6c:	e0bffc17 	ldw	r2,-16(fp)
 8000d70:	10000526 	beq	r2,zero,8000d88 <TestRam+0x118>
      printf(" -Byte and half-word access test failed at address 0x%X", (int)ret_code);
 8000d74:	010200b4 	movhi	r4,2050
 8000d78:	21305204 	addi	r4,r4,-16056
 8000d7c:	e17ffc17 	ldw	r5,-16(fp)
 8000d80:	8002f580 	call	8002f58 <printf>
 8000d84:	00000306 	br	8000d94 <TestRam+0x124>
    else
      printf(" -Byte and half-word access test passed\n");
 8000d88:	010200b4 	movhi	r4,2050
 8000d8c:	21306004 	addi	r4,r4,-16000
 8000d90:	800306c0 	call	800306c <puts>
  }

  /* Test that each bit in the device can store both 1 and 0. */
  if (!ret_code)
 8000d94:	e0bffc17 	ldw	r2,-16(fp)
 8000d98:	1000141e 	bne	r2,zero,8000dec <TestRam+0x17c>
  {
    printf(" -Testing each bit in memory device.");
 8000d9c:	010200b4 	movhi	r4,2050
 8000da0:	21306a04 	addi	r4,r4,-15960
 8000da4:	8002f580 	call	8002f58 <printf>
    ret_code = MemTestDevice(memory_base, memory_size);
 8000da8:	e0bffe17 	ldw	r2,-8(fp)
 8000dac:	1007883a 	mov	r3,r2
 8000db0:	e0bffd17 	ldw	r2,-12(fp)
 8000db4:	1809883a 	mov	r4,r3
 8000db8:	100b883a 	mov	r5,r2
 8000dbc:	8000acc0 	call	8000acc <MemTestDevice>
 8000dc0:	e0bffc15 	stw	r2,-16(fp)
    if  (ret_code)
 8000dc4:	e0bffc17 	ldw	r2,-16(fp)
 8000dc8:	10000526 	beq	r2,zero,8000de0 <TestRam+0x170>
      printf("  failed at address 0x%X", (int)ret_code);
 8000dcc:	010200b4 	movhi	r4,2050
 8000dd0:	21307404 	addi	r4,r4,-15920
 8000dd4:	e17ffc17 	ldw	r5,-16(fp)
 8000dd8:	8002f580 	call	8002f58 <printf>
 8000ddc:	00000306 	br	8000dec <TestRam+0x17c>
    else
      printf("  passed\n");
 8000de0:	010200b4 	movhi	r4,2050
 8000de4:	21307b04 	addi	r4,r4,-15892
 8000de8:	800306c0 	call	800306c <puts>
    else
      printf("  passed\n");
  }
#endif /* DMA_NAME */
      
  if (!ret_code)
 8000dec:	e0bffc17 	ldw	r2,-16(fp)
 8000df0:	1000051e 	bne	r2,zero,8000e08 <TestRam+0x198>
    printf("Memory at 0x%X Okay\n", memory_base);
 8000df4:	e0bffe17 	ldw	r2,-8(fp)
 8000df8:	010200b4 	movhi	r4,2050
 8000dfc:	21307e04 	addi	r4,r4,-15880
 8000e00:	100b883a 	mov	r5,r2
 8000e04:	8002f580 	call	8002f58 <printf>
}
 8000e08:	e037883a 	mov	sp,fp
 8000e0c:	dfc00117 	ldw	ra,4(sp)
 8000e10:	df000017 	ldw	fp,0(sp)
 8000e14:	dec00204 	addi	sp,sp,8
 8000e18:	f800283a 	ret

08000e1c <FlashCheckIfBlockErased>:
*  Purpose: Checks the specified flash block to see if it is 
*           completely erased (all 0xFFFFFFFF).
*
******************************************************************/
static int FlashCheckIfBlockErased(alt_flash_fd* fd, int block, flash_region* regions)
{
 8000e1c:	defff204 	addi	sp,sp,-56
 8000e20:	dfc00d15 	stw	ra,52(sp)
 8000e24:	df000c15 	stw	fp,48(sp)
 8000e28:	df000c04 	addi	fp,sp,48
 8000e2c:	e13ffd15 	stw	r4,-12(fp)
 8000e30:	e17ffe15 	stw	r5,-8(fp)
 8000e34:	e1bfff15 	stw	r6,-4(fp)
  int i, j;
  int ret_code = 0x0;
 8000e38:	e03ff615 	stw	zero,-40(fp)
  char block_is_erased = 0x1;
 8000e3c:	00800044 	movi	r2,1
 8000e40:	e0bff705 	stb	r2,-36(fp)
  alt_u8 *data_read;
 
  /* Get a buffer */
  data_read = malloc(64);
 8000e44:	01001004 	movi	r4,64
 8000e48:	80025a80 	call	80025a8 <malloc>
 8000e4c:	e0bff815 	stw	r2,-32(fp)
  
  /* Initialize the flag */
  block_is_erased = 0x1;
 8000e50:	00800044 	movi	r2,1
 8000e54:	e0bff705 	stb	r2,-36(fp)

  for(i = 0; i < regions->block_size; i += 64)
 8000e58:	e03ff415 	stw	zero,-48(fp)
 8000e5c:	00002c06 	br	8000f10 <FlashCheckIfBlockErased+0xf4>
  {
    ret_code = alt_read_flash(fd, ((block * regions->block_size) + i), data_read, 64);
 8000e60:	e0bfff17 	ldw	r2,-4(fp)
 8000e64:	10c00317 	ldw	r3,12(r2)
 8000e68:	e0bffe17 	ldw	r2,-8(fp)
 8000e6c:	1887383a 	mul	r3,r3,r2
 8000e70:	e0bff417 	ldw	r2,-48(fp)
 8000e74:	1885883a 	add	r2,r3,r2
 8000e78:	e0fffd17 	ldw	r3,-12(fp)
 8000e7c:	e0fff915 	stw	r3,-28(fp)
 8000e80:	e0bffa15 	stw	r2,-24(fp)
 8000e84:	e0bff817 	ldw	r2,-32(fp)
 8000e88:	e0bffb15 	stw	r2,-20(fp)
 8000e8c:	00801004 	movi	r2,64
 8000e90:	e0bffc15 	stw	r2,-16(fp)
 */
static __inline__ int __attribute__ ((always_inline)) alt_read_flash( 
                                      alt_flash_fd* fd, int offset, 
                                      void* dest_addr, int length )
{
  return fd->read( fd, offset, dest_addr, length );
 8000e94:	e0bff917 	ldw	r2,-28(fp)
 8000e98:	10800617 	ldw	r2,24(r2)
 8000e9c:	e13ff917 	ldw	r4,-28(fp)
 8000ea0:	e17ffa17 	ldw	r5,-24(fp)
 8000ea4:	e1bffb17 	ldw	r6,-20(fp)
 8000ea8:	e1fffc17 	ldw	r7,-16(fp)
 8000eac:	103ee83a 	callr	r2
 8000eb0:	e0bff615 	stw	r2,-40(fp)

    for(j=0; j < 64; j+=1)
 8000eb4:	e03ff515 	stw	zero,-44(fp)
 8000eb8:	00000c06 	br	8000eec <FlashCheckIfBlockErased+0xd0>
    {
      if(*(data_read+j) != 0xFF)
 8000ebc:	e0bff517 	ldw	r2,-44(fp)
 8000ec0:	e0fff817 	ldw	r3,-32(fp)
 8000ec4:	1885883a 	add	r2,r3,r2
 8000ec8:	10800003 	ldbu	r2,0(r2)
 8000ecc:	10803fcc 	andi	r2,r2,255
 8000ed0:	10803fe0 	cmpeqi	r2,r2,255
 8000ed4:	1000021e 	bne	r2,zero,8000ee0 <FlashCheckIfBlockErased+0xc4>
      {
        /* If this byte isn't erased, then neither is the block */
        block_is_erased = 0x0;
 8000ed8:	e03ff705 	stb	zero,-36(fp)
        break;
 8000edc:	00000606 	br	8000ef8 <FlashCheckIfBlockErased+0xdc>

  for(i = 0; i < regions->block_size; i += 64)
  {
    ret_code = alt_read_flash(fd, ((block * regions->block_size) + i), data_read, 64);

    for(j=0; j < 64; j+=1)
 8000ee0:	e0bff517 	ldw	r2,-44(fp)
 8000ee4:	10800044 	addi	r2,r2,1
 8000ee8:	e0bff515 	stw	r2,-44(fp)
 8000eec:	e0bff517 	ldw	r2,-44(fp)
 8000ef0:	10801010 	cmplti	r2,r2,64
 8000ef4:	103ff11e 	bne	r2,zero,8000ebc <__alt_data_end+0xf8000ebc>
        /* If this byte isn't erased, then neither is the block */
        block_is_erased = 0x0;
        break;
      }
    }
    if (block_is_erased == 0x0)
 8000ef8:	e0bff707 	ldb	r2,-36(fp)
 8000efc:	1000011e 	bne	r2,zero,8000f04 <FlashCheckIfBlockErased+0xe8>
      break;
 8000f00:	00000706 	br	8000f20 <FlashCheckIfBlockErased+0x104>
  data_read = malloc(64);
  
  /* Initialize the flag */
  block_is_erased = 0x1;

  for(i = 0; i < regions->block_size; i += 64)
 8000f04:	e0bff417 	ldw	r2,-48(fp)
 8000f08:	10801004 	addi	r2,r2,64
 8000f0c:	e0bff415 	stw	r2,-48(fp)
 8000f10:	e0bfff17 	ldw	r2,-4(fp)
 8000f14:	10800317 	ldw	r2,12(r2)
 8000f18:	e0fff417 	ldw	r3,-48(fp)
 8000f1c:	18bfd016 	blt	r3,r2,8000e60 <__alt_data_end+0xf8000e60>
    }
    if (block_is_erased == 0x0)
      break;
  }
  /* Block is erased if we indexed through all block locations */
  if(i == regions->block_size)
 8000f20:	e0bfff17 	ldw	r2,-4(fp)
 8000f24:	10c00317 	ldw	r3,12(r2)
 8000f28:	e0bff417 	ldw	r2,-48(fp)
 8000f2c:	1880031e 	bne	r3,r2,8000f3c <FlashCheckIfBlockErased+0x120>
    ret_code = 1;
 8000f30:	00800044 	movi	r2,1
 8000f34:	e0bff615 	stw	r2,-40(fp)
 8000f38:	00000106 	br	8000f40 <FlashCheckIfBlockErased+0x124>
  else
    ret_code = 0;
 8000f3c:	e03ff615 	stw	zero,-40(fp)
  
  free(data_read);
 8000f40:	e13ff817 	ldw	r4,-32(fp)
 8000f44:	80025bc0 	call	80025bc <free>
 
  return ret_code;
 8000f48:	e0bff617 	ldw	r2,-40(fp)
}
 8000f4c:	e037883a 	mov	sp,fp
 8000f50:	dfc00117 	ldw	ra,4(sp)
 8000f54:	df000017 	ldw	fp,0(sp)
 8000f58:	dec00204 	addi	sp,sp,8
 8000f5c:	f800283a 	ret

08000f60 <FlashTestBlockWrite>:
*  Purpose: Tests that the function alt_write_flash_block is
*           is working properly.
*
******************************************************************/
static int FlashTestBlockWrite(int block, int *error, alt_flash_fd* fd, flash_region* regions)
{
 8000f60:	deffdc04 	addi	sp,sp,-144
 8000f64:	dfc02315 	stw	ra,140(sp)
 8000f68:	df002215 	stw	fp,136(sp)
 8000f6c:	df002204 	addi	fp,sp,136
 8000f70:	e13ffc15 	stw	r4,-16(fp)
 8000f74:	e17ffd15 	stw	r5,-12(fp)
 8000f78:	e1bffe15 	stw	r6,-8(fp)
 8000f7c:	e1ffff15 	stw	r7,-4(fp)
  int i;
  int ret_code = 0x0;
 8000f80:	e03fe015 	stw	zero,-128(fp)
  alt_u8 *data_written;
  alt_u8 *data_read;


  /* Get a couple buffers for the test */
  data_written = malloc(100);
 8000f84:	01001904 	movi	r4,100
 8000f88:	80025a80 	call	80025a8 <malloc>
 8000f8c:	e0bfe115 	stw	r2,-124(fp)
  data_read = malloc(100);
 8000f90:	01001904 	movi	r4,100
 8000f94:	80025a80 	call	80025a8 <malloc>
 8000f98:	e0bfe215 	stw	r2,-120(fp)

  test_offset = (regions->offset + (block * regions->block_size));
 8000f9c:	e0bfff17 	ldw	r2,-4(fp)
 8000fa0:	10c00017 	ldw	r3,0(r2)
 8000fa4:	e0bfff17 	ldw	r2,-4(fp)
 8000fa8:	11000317 	ldw	r4,12(r2)
 8000fac:	e0bffc17 	ldw	r2,-16(fp)
 8000fb0:	2085383a 	mul	r2,r4,r2
 8000fb4:	1885883a 	add	r2,r3,r2
 8000fb8:	e0bfe315 	stw	r2,-116(fp)

  /* Fill write buffer with 100 values (incremented by 3) */
  for(i=0; i < 100; i++)
 8000fbc:	e03fdf15 	stw	zero,-132(fp)
 8000fc0:	00000c06 	br	8000ff4 <FlashTestBlockWrite+0x94>
    *(data_written + i) = (i * 3);
 8000fc4:	e0bfdf17 	ldw	r2,-132(fp)
 8000fc8:	e0ffe117 	ldw	r3,-124(fp)
 8000fcc:	1887883a 	add	r3,r3,r2
 8000fd0:	e0bfdf17 	ldw	r2,-132(fp)
 8000fd4:	1009883a 	mov	r4,r2
 8000fd8:	2005883a 	mov	r2,r4
 8000fdc:	1085883a 	add	r2,r2,r2
 8000fe0:	1105883a 	add	r2,r2,r4
 8000fe4:	18800005 	stb	r2,0(r3)
  data_read = malloc(100);

  test_offset = (regions->offset + (block * regions->block_size));

  /* Fill write buffer with 100 values (incremented by 3) */
  for(i=0; i < 100; i++)
 8000fe8:	e0bfdf17 	ldw	r2,-132(fp)
 8000fec:	10800044 	addi	r2,r2,1
 8000ff0:	e0bfdf15 	stw	r2,-132(fp)
 8000ff4:	e0bfdf17 	ldw	r2,-132(fp)
 8000ff8:	10801910 	cmplti	r2,r2,100
 8000ffc:	103ff11e 	bne	r2,zero,8000fc4 <__alt_data_end+0xf8000fc4>
    *(data_written + i) = (i * 3);

  /* Write the buffer to flash starting 0x40 bytes from the beginning of the block. */
  printf(" -Testing \"alt_write_flash_block\".");
 8001000:	010200b4 	movhi	r4,2050
 8001004:	21308404 	addi	r4,r4,-15856
 8001008:	8002f580 	call	8002f58 <printf>
  ret_code = alt_write_flash_block(fd, test_offset, (test_offset + 0x40), data_written, 100);
 800100c:	e0bfe317 	ldw	r2,-116(fp)
 8001010:	10801004 	addi	r2,r2,64
 8001014:	e0fffe17 	ldw	r3,-8(fp)
 8001018:	e0ffe415 	stw	r3,-112(fp)
 800101c:	e0ffe317 	ldw	r3,-116(fp)
 8001020:	e0ffe515 	stw	r3,-108(fp)
 8001024:	e0bfe615 	stw	r2,-104(fp)
 8001028:	e0bfe117 	ldw	r2,-124(fp)
 800102c:	e0bfe715 	stw	r2,-100(fp)
 8001030:	00801904 	movi	r2,100
 8001034:	e0bfe815 	stw	r2,-96(fp)
                                      int data_offset,
                                      const void *data, int length)
{

  int ret_code;
  ret_code = fd->write_block( fd, block_offset, data_offset, data, length );
 8001038:	e0bfe417 	ldw	r2,-112(fp)
 800103c:	10800917 	ldw	r2,36(r2)
 8001040:	e0ffe817 	ldw	r3,-96(fp)
 8001044:	d8c00015 	stw	r3,0(sp)
 8001048:	e13fe417 	ldw	r4,-112(fp)
 800104c:	e17fe517 	ldw	r5,-108(fp)
 8001050:	e1bfe617 	ldw	r6,-104(fp)
 8001054:	e1ffe717 	ldw	r7,-100(fp)
 8001058:	103ee83a 	callr	r2
 800105c:	e0bfe915 	stw	r2,-92(fp)

  if(!ret_code)
 8001060:	e0bfe917 	ldw	r2,-92(fp)
 8001064:	1000081e 	bne	r2,zero,8001088 <FlashTestBlockWrite+0x128>
      alt_dcache_flush((alt_u8*)fd->base_addr + data_offset, length);
 8001068:	e0bfe417 	ldw	r2,-112(fp)
 800106c:	10c00a17 	ldw	r3,40(r2)
 8001070:	e0bfe617 	ldw	r2,-104(fp)
 8001074:	1887883a 	add	r3,r3,r2
 8001078:	e0bfe817 	ldw	r2,-96(fp)
 800107c:	1809883a 	mov	r4,r3
 8001080:	100b883a 	mov	r5,r2
 8001084:	801843c0 	call	801843c <alt_dcache_flush>

  return ret_code;
 8001088:	e0bfe917 	ldw	r2,-92(fp)
 800108c:	e0bfe015 	stw	r2,-128(fp)
  if (!ret_code)
 8001090:	e0bfe017 	ldw	r2,-128(fp)
 8001094:	1000241e 	bne	r2,zero,8001128 <FlashTestBlockWrite+0x1c8>
  {
    /* Now read it back into the read_buffer */
    ret_code = alt_read_flash(fd, (test_offset + 0x40), data_read, 100);
 8001098:	e0bfe317 	ldw	r2,-116(fp)
 800109c:	10801004 	addi	r2,r2,64
 80010a0:	e0fffe17 	ldw	r3,-8(fp)
 80010a4:	e0ffea15 	stw	r3,-88(fp)
 80010a8:	e0bfeb15 	stw	r2,-84(fp)
 80010ac:	e0bfe217 	ldw	r2,-120(fp)
 80010b0:	e0bfec15 	stw	r2,-80(fp)
 80010b4:	00801904 	movi	r2,100
 80010b8:	e0bfed15 	stw	r2,-76(fp)
 */
static __inline__ int __attribute__ ((always_inline)) alt_read_flash( 
                                      alt_flash_fd* fd, int offset, 
                                      void* dest_addr, int length )
{
  return fd->read( fd, offset, dest_addr, length );
 80010bc:	e0bfea17 	ldw	r2,-88(fp)
 80010c0:	10800617 	ldw	r2,24(r2)
 80010c4:	e13fea17 	ldw	r4,-88(fp)
 80010c8:	e17feb17 	ldw	r5,-84(fp)
 80010cc:	e1bfec17 	ldw	r6,-80(fp)
 80010d0:	e1ffed17 	ldw	r7,-76(fp)
 80010d4:	103ee83a 	callr	r2
 80010d8:	e0bfe015 	stw	r2,-128(fp)
    if(!ret_code)
 80010dc:	e0bfe017 	ldw	r2,-128(fp)
 80010e0:	1000111e 	bne	r2,zero,8001128 <FlashTestBlockWrite+0x1c8>
    {
      /* See if they match */
      if (memcmp(data_written, data_read, 100))
 80010e4:	e13fe117 	ldw	r4,-124(fp)
 80010e8:	e17fe217 	ldw	r5,-120(fp)
 80010ec:	01801904 	movi	r6,100
 80010f0:	8002d780 	call	8002d78 <memcmp>
 80010f4:	10000926 	beq	r2,zero,800111c <FlashTestBlockWrite+0x1bc>
      {
        printf("  FAILED.\n");
 80010f8:	010200b4 	movhi	r4,2050
 80010fc:	21308d04 	addi	r4,r4,-15820
 8001100:	800306c0 	call	800306c <puts>
        (*error)++;
 8001104:	e0bffd17 	ldw	r2,-12(fp)
 8001108:	10800017 	ldw	r2,0(r2)
 800110c:	10c00044 	addi	r3,r2,1
 8001110:	e0bffd17 	ldw	r2,-12(fp)
 8001114:	10c00015 	stw	r3,0(r2)
 8001118:	00000306 	br	8001128 <FlashTestBlockWrite+0x1c8>
      }
      else
        printf("  passed.\n");
 800111c:	010200b4 	movhi	r4,2050
 8001120:	21309004 	addi	r4,r4,-15808
 8001124:	800306c0 	call	800306c <puts>
    }
  }

  /* Test unaligned writes */
  if(!ret_code)
 8001128:	e0bfe017 	ldw	r2,-128(fp)
 800112c:	1000631e 	bne	r2,zero,80012bc <FlashTestBlockWrite+0x35c>
  {
    /* Erase the block */
    ret_code = alt_erase_flash_block(fd, test_offset, regions->block_size);
 8001130:	e0bfff17 	ldw	r2,-4(fp)
 8001134:	10800317 	ldw	r2,12(r2)
 8001138:	e0fffe17 	ldw	r3,-8(fp)
 800113c:	e0ffee15 	stw	r3,-72(fp)
 8001140:	e0ffe317 	ldw	r3,-116(fp)
 8001144:	e0ffef15 	stw	r3,-68(fp)
 8001148:	e0bff015 	stw	r2,-64(fp)
 */
static __inline__ int __attribute__ ((always_inline)) alt_erase_flash_block( 
                                      alt_flash_fd* fd, int offset, int length) 
{
  int ret_code;
  ret_code = fd->erase_block( fd, offset );
 800114c:	e0bfee17 	ldw	r2,-72(fp)
 8001150:	10800817 	ldw	r2,32(r2)
 8001154:	e13fee17 	ldw	r4,-72(fp)
 8001158:	e17fef17 	ldw	r5,-68(fp)
 800115c:	103ee83a 	callr	r2
 8001160:	e0bff115 	stw	r2,-60(fp)
  
  if(!ret_code)
 8001164:	e0bff117 	ldw	r2,-60(fp)
 8001168:	1000081e 	bne	r2,zero,800118c <FlashTestBlockWrite+0x22c>
      alt_dcache_flush((alt_u8*)fd->base_addr + offset, length);
 800116c:	e0bfee17 	ldw	r2,-72(fp)
 8001170:	10c00a17 	ldw	r3,40(r2)
 8001174:	e0bfef17 	ldw	r2,-68(fp)
 8001178:	1887883a 	add	r3,r3,r2
 800117c:	e0bff017 	ldw	r2,-64(fp)
 8001180:	1809883a 	mov	r4,r3
 8001184:	100b883a 	mov	r5,r2
 8001188:	801843c0 	call	801843c <alt_dcache_flush>

  return ret_code;
 800118c:	e0bff117 	ldw	r2,-60(fp)
 8001190:	e0bfe015 	stw	r2,-128(fp)
  
    /* Write the buffer to flash on an unaligned address. */
    printf(" -Testing unaligned writes.");
 8001194:	010200b4 	movhi	r4,2050
 8001198:	21309304 	addi	r4,r4,-15796
 800119c:	8002f580 	call	8002f58 <printf>
    ret_code = alt_write_flash_block(fd, test_offset, (test_offset + 0x43), data_written, 100);
 80011a0:	e0bfe317 	ldw	r2,-116(fp)
 80011a4:	108010c4 	addi	r2,r2,67
 80011a8:	e0fffe17 	ldw	r3,-8(fp)
 80011ac:	e0fff215 	stw	r3,-56(fp)
 80011b0:	e0ffe317 	ldw	r3,-116(fp)
 80011b4:	e0fff315 	stw	r3,-52(fp)
 80011b8:	e0bff415 	stw	r2,-48(fp)
 80011bc:	e0bfe117 	ldw	r2,-124(fp)
 80011c0:	e0bff515 	stw	r2,-44(fp)
 80011c4:	00801904 	movi	r2,100
 80011c8:	e0bff615 	stw	r2,-40(fp)
                                      int data_offset,
                                      const void *data, int length)
{

  int ret_code;
  ret_code = fd->write_block( fd, block_offset, data_offset, data, length );
 80011cc:	e0bff217 	ldw	r2,-56(fp)
 80011d0:	10800917 	ldw	r2,36(r2)
 80011d4:	e0fff617 	ldw	r3,-40(fp)
 80011d8:	d8c00015 	stw	r3,0(sp)
 80011dc:	e13ff217 	ldw	r4,-56(fp)
 80011e0:	e17ff317 	ldw	r5,-52(fp)
 80011e4:	e1bff417 	ldw	r6,-48(fp)
 80011e8:	e1fff517 	ldw	r7,-44(fp)
 80011ec:	103ee83a 	callr	r2
 80011f0:	e0bff715 	stw	r2,-36(fp)

  if(!ret_code)
 80011f4:	e0bff717 	ldw	r2,-36(fp)
 80011f8:	1000081e 	bne	r2,zero,800121c <FlashTestBlockWrite+0x2bc>
      alt_dcache_flush((alt_u8*)fd->base_addr + data_offset, length);
 80011fc:	e0bff217 	ldw	r2,-56(fp)
 8001200:	10c00a17 	ldw	r3,40(r2)
 8001204:	e0bff417 	ldw	r2,-48(fp)
 8001208:	1887883a 	add	r3,r3,r2
 800120c:	e0bff617 	ldw	r2,-40(fp)
 8001210:	1809883a 	mov	r4,r3
 8001214:	100b883a 	mov	r5,r2
 8001218:	801843c0 	call	801843c <alt_dcache_flush>

  return ret_code;
 800121c:	e0bff717 	ldw	r2,-36(fp)
 8001220:	e0bfe015 	stw	r2,-128(fp)
    if (!ret_code)
 8001224:	e0bfe017 	ldw	r2,-128(fp)
 8001228:	1000241e 	bne	r2,zero,80012bc <FlashTestBlockWrite+0x35c>
    {
      /* Now read it back into the read_buffer */
      ret_code = alt_read_flash(fd, (test_offset + 0x43), data_read, 100);
 800122c:	e0bfe317 	ldw	r2,-116(fp)
 8001230:	108010c4 	addi	r2,r2,67
 8001234:	e0fffe17 	ldw	r3,-8(fp)
 8001238:	e0fff815 	stw	r3,-32(fp)
 800123c:	e0bff915 	stw	r2,-28(fp)
 8001240:	e0bfe217 	ldw	r2,-120(fp)
 8001244:	e0bffa15 	stw	r2,-24(fp)
 8001248:	00801904 	movi	r2,100
 800124c:	e0bffb15 	stw	r2,-20(fp)
 */
static __inline__ int __attribute__ ((always_inline)) alt_read_flash( 
                                      alt_flash_fd* fd, int offset, 
                                      void* dest_addr, int length )
{
  return fd->read( fd, offset, dest_addr, length );
 8001250:	e0bff817 	ldw	r2,-32(fp)
 8001254:	10800617 	ldw	r2,24(r2)
 8001258:	e13ff817 	ldw	r4,-32(fp)
 800125c:	e17ff917 	ldw	r5,-28(fp)
 8001260:	e1bffa17 	ldw	r6,-24(fp)
 8001264:	e1fffb17 	ldw	r7,-20(fp)
 8001268:	103ee83a 	callr	r2
 800126c:	e0bfe015 	stw	r2,-128(fp)
      if(!ret_code)
 8001270:	e0bfe017 	ldw	r2,-128(fp)
 8001274:	1000111e 	bne	r2,zero,80012bc <FlashTestBlockWrite+0x35c>
      {
        /* See if they match */
        if (memcmp(data_written, data_read, 100))
 8001278:	e13fe117 	ldw	r4,-124(fp)
 800127c:	e17fe217 	ldw	r5,-120(fp)
 8001280:	01801904 	movi	r6,100
 8001284:	8002d780 	call	8002d78 <memcmp>
 8001288:	10000926 	beq	r2,zero,80012b0 <FlashTestBlockWrite+0x350>
        {
          printf("  FAILED.\n");
 800128c:	010200b4 	movhi	r4,2050
 8001290:	21308d04 	addi	r4,r4,-15820
 8001294:	800306c0 	call	800306c <puts>
          (*error)++;
 8001298:	e0bffd17 	ldw	r2,-12(fp)
 800129c:	10800017 	ldw	r2,0(r2)
 80012a0:	10c00044 	addi	r3,r2,1
 80012a4:	e0bffd17 	ldw	r2,-12(fp)
 80012a8:	10c00015 	stw	r3,0(r2)
 80012ac:	00000306 	br	80012bc <FlashTestBlockWrite+0x35c>
        }
        else
          printf("  passed.\n");
 80012b0:	010200b4 	movhi	r4,2050
 80012b4:	21309004 	addi	r4,r4,-15808
 80012b8:	800306c0 	call	800306c <puts>
      }
    }
  }

  /* Free up the buffers we allocated. */
  free(data_written);
 80012bc:	e13fe117 	ldw	r4,-124(fp)
 80012c0:	80025bc0 	call	80025bc <free>
  free(data_read);
 80012c4:	e13fe217 	ldw	r4,-120(fp)
 80012c8:	80025bc0 	call	80025bc <free>
  
  return ret_code;
 80012cc:	e0bfe017 	ldw	r2,-128(fp)
}
 80012d0:	e037883a 	mov	sp,fp
 80012d4:	dfc00117 	ldw	ra,4(sp)
 80012d8:	df000017 	ldw	fp,0(sp)
 80012dc:	dec00204 	addi	sp,sp,8
 80012e0:	f800283a 	ret

080012e4 <FlashTestReadWrite>:
*           that every bit in the specified block can store both
*           a '1' and '0'.
*
******************************************************************/
static int FlashTestReadWrite(int block, int *error, alt_flash_fd* fd, flash_region* regions)
{
 80012e4:	deffe504 	addi	sp,sp,-108
 80012e8:	dfc01a15 	stw	ra,104(sp)
 80012ec:	df001915 	stw	fp,100(sp)
 80012f0:	df001904 	addi	fp,sp,100
 80012f4:	e13ffc15 	stw	r4,-16(fp)
 80012f8:	e17ffd15 	stw	r5,-12(fp)
 80012fc:	e1bffe15 	stw	r6,-8(fp)
 8001300:	e1ffff15 	stw	r7,-4(fp)
  int i;
  int ret_code = 0x0;
 8001304:	e03fe815 	stw	zero,-96(fp)
  alt_u8 *data_written;
  alt_u8 *data_read;
 

  /* Get a couple buffers for the tests */
  data_written = malloc(regions->block_size);
 8001308:	e0bfff17 	ldw	r2,-4(fp)
 800130c:	10800317 	ldw	r2,12(r2)
 8001310:	1009883a 	mov	r4,r2
 8001314:	80025a80 	call	80025a8 <malloc>
 8001318:	e0bfe915 	stw	r2,-92(fp)
  data_read = malloc(regions->block_size);
 800131c:	e0bfff17 	ldw	r2,-4(fp)
 8001320:	10800317 	ldw	r2,12(r2)
 8001324:	1009883a 	mov	r4,r2
 8001328:	80025a80 	call	80025a8 <malloc>
 800132c:	e0bfea15 	stw	r2,-88(fp)
 
  /* Calculate the offset at which the block lives */
  test_offset = (regions->offset + (block * regions->block_size));
 8001330:	e0bfff17 	ldw	r2,-4(fp)
 8001334:	10c00017 	ldw	r3,0(r2)
 8001338:	e0bfff17 	ldw	r2,-4(fp)
 800133c:	11000317 	ldw	r4,12(r2)
 8001340:	e0bffc17 	ldw	r2,-16(fp)
 8001344:	2085383a 	mul	r2,r4,r2
 8001348:	1885883a 	add	r2,r3,r2
 800134c:	e0bfeb15 	stw	r2,-84(fp)

  printf("\n -Starting Flash Test.\n");
 8001350:	010200b4 	movhi	r4,2050
 8001354:	21309a04 	addi	r4,r4,-15768
 8001358:	800306c0 	call	800306c <puts>
 
  printf(" -Testing \"alt_write_flash\" and \"alt_read_flash\".\n");
 800135c:	010200b4 	movhi	r4,2050
 8001360:	2130a004 	addi	r4,r4,-15744
 8001364:	800306c0 	call	800306c <puts>
  /* Fill buffer with incrementing values */
  for(i=0; i < regions->block_size; i++)
 8001368:	e03fe715 	stw	zero,-100(fp)
 800136c:	00000806 	br	8001390 <FlashTestReadWrite+0xac>
    *(data_written + i) = i;
 8001370:	e0bfe717 	ldw	r2,-100(fp)
 8001374:	e0ffe917 	ldw	r3,-92(fp)
 8001378:	1885883a 	add	r2,r3,r2
 800137c:	e0ffe717 	ldw	r3,-100(fp)
 8001380:	10c00005 	stb	r3,0(r2)

  printf("\n -Starting Flash Test.\n");
 
  printf(" -Testing \"alt_write_flash\" and \"alt_read_flash\".\n");
  /* Fill buffer with incrementing values */
  for(i=0; i < regions->block_size; i++)
 8001384:	e0bfe717 	ldw	r2,-100(fp)
 8001388:	10800044 	addi	r2,r2,1
 800138c:	e0bfe715 	stw	r2,-100(fp)
 8001390:	e0bfff17 	ldw	r2,-4(fp)
 8001394:	10800317 	ldw	r2,12(r2)
 8001398:	e0ffe717 	ldw	r3,-100(fp)
 800139c:	18bff416 	blt	r3,r2,8001370 <__alt_data_end+0xf8001370>
    *(data_written + i) = i;

  /* Write the buffer to flash block */
  ret_code = alt_write_flash(fd, test_offset, data_written, regions->block_size);
 80013a0:	e0bfff17 	ldw	r2,-4(fp)
 80013a4:	10800317 	ldw	r2,12(r2)
 80013a8:	e0fffe17 	ldw	r3,-8(fp)
 80013ac:	e0ffec15 	stw	r3,-80(fp)
 80013b0:	e0ffeb17 	ldw	r3,-84(fp)
 80013b4:	e0ffed15 	stw	r3,-76(fp)
 80013b8:	e0ffe917 	ldw	r3,-92(fp)
 80013bc:	e0ffee15 	stw	r3,-72(fp)
 80013c0:	e0bfef15 	stw	r2,-68(fp)
                                                           alt_flash_fd* fd, 
                                                           int offset, 
                                                           const void* src_addr, 
                                                           int length )
{
  return fd->write( fd, offset, src_addr, length );
 80013c4:	e0bfec17 	ldw	r2,-80(fp)
 80013c8:	10800517 	ldw	r2,20(r2)
 80013cc:	e13fec17 	ldw	r4,-80(fp)
 80013d0:	e17fed17 	ldw	r5,-76(fp)
 80013d4:	e1bfee17 	ldw	r6,-72(fp)
 80013d8:	e1ffef17 	ldw	r7,-68(fp)
 80013dc:	103ee83a 	callr	r2
 80013e0:	e0bfe815 	stw	r2,-96(fp)
     
  if (!ret_code)
 80013e4:	e0bfe817 	ldw	r2,-96(fp)
 80013e8:	1000731e 	bne	r2,zero,80015b8 <FlashTestReadWrite+0x2d4>
  {
    /* Read flash block into read buffer */
    ret_code = alt_read_flash(fd, test_offset, data_read, regions->block_size);
 80013ec:	e0bfff17 	ldw	r2,-4(fp)
 80013f0:	10800317 	ldw	r2,12(r2)
 80013f4:	e0fffe17 	ldw	r3,-8(fp)
 80013f8:	e0fff015 	stw	r3,-64(fp)
 80013fc:	e0ffeb17 	ldw	r3,-84(fp)
 8001400:	e0fff115 	stw	r3,-60(fp)
 8001404:	e0ffea17 	ldw	r3,-88(fp)
 8001408:	e0fff215 	stw	r3,-56(fp)
 800140c:	e0bff315 	stw	r2,-52(fp)
 */
static __inline__ int __attribute__ ((always_inline)) alt_read_flash( 
                                      alt_flash_fd* fd, int offset, 
                                      void* dest_addr, int length )
{
  return fd->read( fd, offset, dest_addr, length );
 8001410:	e0bff017 	ldw	r2,-64(fp)
 8001414:	10800617 	ldw	r2,24(r2)
 8001418:	e13ff017 	ldw	r4,-64(fp)
 800141c:	e17ff117 	ldw	r5,-60(fp)
 8001420:	e1bff217 	ldw	r6,-56(fp)
 8001424:	e1fff317 	ldw	r7,-52(fp)
 8001428:	103ee83a 	callr	r2
 800142c:	e0bfe815 	stw	r2,-96(fp)
    if(!ret_code)
 8001430:	e0bfe817 	ldw	r2,-96(fp)
 8001434:	1000131e 	bne	r2,zero,8001484 <FlashTestReadWrite+0x1a0>
    {
      /* See if they match */
      if (memcmp(data_written, data_read, regions->block_size))
 8001438:	e0bfff17 	ldw	r2,-4(fp)
 800143c:	10800317 	ldw	r2,12(r2)
 8001440:	e13fe917 	ldw	r4,-92(fp)
 8001444:	e17fea17 	ldw	r5,-88(fp)
 8001448:	100d883a 	mov	r6,r2
 800144c:	8002d780 	call	8002d78 <memcmp>
 8001450:	10000926 	beq	r2,zero,8001478 <FlashTestReadWrite+0x194>
      {
        printf("    pass 1 - FAILED.\n");
 8001454:	010200b4 	movhi	r4,2050
 8001458:	2130ad04 	addi	r4,r4,-15692
 800145c:	800306c0 	call	800306c <puts>
        (*error)++;
 8001460:	e0bffd17 	ldw	r2,-12(fp)
 8001464:	10800017 	ldw	r2,0(r2)
 8001468:	10c00044 	addi	r3,r2,1
 800146c:	e0bffd17 	ldw	r2,-12(fp)
 8001470:	10c00015 	stw	r3,0(r2)
 8001474:	00000306 	br	8001484 <FlashTestReadWrite+0x1a0>
      }
      else
        printf("    pass 1 - passed.\n");
 8001478:	010200b4 	movhi	r4,2050
 800147c:	2130b304 	addi	r4,r4,-15668
 8001480:	800306c0 	call	800306c <puts>
    }
  
    /* Now fill the buffer with decrementing values (invert the incrementing ones) */
    for(i=0; i < regions->block_size; i++)
 8001484:	e03fe715 	stw	zero,-100(fp)
 8001488:	00000906 	br	80014b0 <FlashTestReadWrite+0x1cc>
      *(data_written + i) = ~((alt_u8)(i));
 800148c:	e0bfe717 	ldw	r2,-100(fp)
 8001490:	e0ffe917 	ldw	r3,-92(fp)
 8001494:	1885883a 	add	r2,r3,r2
 8001498:	e0ffe717 	ldw	r3,-100(fp)
 800149c:	00c6303a 	nor	r3,zero,r3
 80014a0:	10c00005 	stb	r3,0(r2)
      else
        printf("    pass 1 - passed.\n");
    }
  
    /* Now fill the buffer with decrementing values (invert the incrementing ones) */
    for(i=0; i < regions->block_size; i++)
 80014a4:	e0bfe717 	ldw	r2,-100(fp)
 80014a8:	10800044 	addi	r2,r2,1
 80014ac:	e0bfe715 	stw	r2,-100(fp)
 80014b0:	e0bfff17 	ldw	r2,-4(fp)
 80014b4:	10800317 	ldw	r2,12(r2)
 80014b8:	e0ffe717 	ldw	r3,-100(fp)
 80014bc:	18bff316 	blt	r3,r2,800148c <__alt_data_end+0xf800148c>
      *(data_written + i) = ~((alt_u8)(i));
 
    /* Write the buffer to flash block */
    ret_code = alt_write_flash(fd, test_offset, data_written, regions->block_size);
 80014c0:	e0bfff17 	ldw	r2,-4(fp)
 80014c4:	10800317 	ldw	r2,12(r2)
 80014c8:	e0fffe17 	ldw	r3,-8(fp)
 80014cc:	e0fff415 	stw	r3,-48(fp)
 80014d0:	e0ffeb17 	ldw	r3,-84(fp)
 80014d4:	e0fff515 	stw	r3,-44(fp)
 80014d8:	e0ffe917 	ldw	r3,-92(fp)
 80014dc:	e0fff615 	stw	r3,-40(fp)
 80014e0:	e0bff715 	stw	r2,-36(fp)
                                                           alt_flash_fd* fd, 
                                                           int offset, 
                                                           const void* src_addr, 
                                                           int length )
{
  return fd->write( fd, offset, src_addr, length );
 80014e4:	e0bff417 	ldw	r2,-48(fp)
 80014e8:	10800517 	ldw	r2,20(r2)
 80014ec:	e13ff417 	ldw	r4,-48(fp)
 80014f0:	e17ff517 	ldw	r5,-44(fp)
 80014f4:	e1bff617 	ldw	r6,-40(fp)
 80014f8:	e1fff717 	ldw	r7,-36(fp)
 80014fc:	103ee83a 	callr	r2
 8001500:	e0bfe815 	stw	r2,-96(fp)
    
    if (!ret_code)
 8001504:	e0bfe817 	ldw	r2,-96(fp)
 8001508:	1000261e 	bne	r2,zero,80015a4 <FlashTestReadWrite+0x2c0>
    {
      /* Read flash block into read buffer */
      ret_code = alt_read_flash(fd, test_offset, data_read, regions->block_size);
 800150c:	e0bfff17 	ldw	r2,-4(fp)
 8001510:	10800317 	ldw	r2,12(r2)
 8001514:	e0fffe17 	ldw	r3,-8(fp)
 8001518:	e0fff815 	stw	r3,-32(fp)
 800151c:	e0ffeb17 	ldw	r3,-84(fp)
 8001520:	e0fff915 	stw	r3,-28(fp)
 8001524:	e0ffea17 	ldw	r3,-88(fp)
 8001528:	e0fffa15 	stw	r3,-24(fp)
 800152c:	e0bffb15 	stw	r2,-20(fp)
 */
static __inline__ int __attribute__ ((always_inline)) alt_read_flash( 
                                      alt_flash_fd* fd, int offset, 
                                      void* dest_addr, int length )
{
  return fd->read( fd, offset, dest_addr, length );
 8001530:	e0bff817 	ldw	r2,-32(fp)
 8001534:	10800617 	ldw	r2,24(r2)
 8001538:	e13ff817 	ldw	r4,-32(fp)
 800153c:	e17ff917 	ldw	r5,-28(fp)
 8001540:	e1bffa17 	ldw	r6,-24(fp)
 8001544:	e1fffb17 	ldw	r7,-20(fp)
 8001548:	103ee83a 	callr	r2
 800154c:	e0bfe815 	stw	r2,-96(fp)
      if(!ret_code)
 8001550:	e0bfe817 	ldw	r2,-96(fp)
 8001554:	1000131e 	bne	r2,zero,80015a4 <FlashTestReadWrite+0x2c0>
      {
        /* See if they match */
        if (memcmp(data_written, data_read, regions->block_size))
 8001558:	e0bfff17 	ldw	r2,-4(fp)
 800155c:	10800317 	ldw	r2,12(r2)
 8001560:	e13fe917 	ldw	r4,-92(fp)
 8001564:	e17fea17 	ldw	r5,-88(fp)
 8001568:	100d883a 	mov	r6,r2
 800156c:	8002d780 	call	8002d78 <memcmp>
 8001570:	10000926 	beq	r2,zero,8001598 <FlashTestReadWrite+0x2b4>
        {
          printf("    pass 2 - FAILED.\n");
 8001574:	010200b4 	movhi	r4,2050
 8001578:	2130b904 	addi	r4,r4,-15644
 800157c:	800306c0 	call	800306c <puts>
          (*error)++;
 8001580:	e0bffd17 	ldw	r2,-12(fp)
 8001584:	10800017 	ldw	r2,0(r2)
 8001588:	10c00044 	addi	r3,r2,1
 800158c:	e0bffd17 	ldw	r2,-12(fp)
 8001590:	10c00015 	stw	r3,0(r2)
 8001594:	00000306 	br	80015a4 <FlashTestReadWrite+0x2c0>
        }
        else
          printf("    pass 2 - passed.\n");
 8001598:	010200b4 	movhi	r4,2050
 800159c:	2130bf04 	addi	r4,r4,-15620
 80015a0:	800306c0 	call	800306c <puts>
      }
    }
    if (*error)
 80015a4:	e0bffd17 	ldw	r2,-12(fp)
 80015a8:	10800017 	ldw	r2,0(r2)
 80015ac:	10000226 	beq	r2,zero,80015b8 <FlashTestReadWrite+0x2d4>
      ret_code = 1;
 80015b0:	00800044 	movi	r2,1
 80015b4:	e0bfe815 	stw	r2,-96(fp)
  }

  /* Free up the buffers we allocated */
  free(data_written);
 80015b8:	e13fe917 	ldw	r4,-92(fp)
 80015bc:	80025bc0 	call	80025bc <free>
  free(data_read);
 80015c0:	e13fea17 	ldw	r4,-88(fp)
 80015c4:	80025bc0 	call	80025bc <free>
  
  return ret_code;
 80015c8:	e0bfe817 	ldw	r2,-96(fp)
}
 80015cc:	e037883a 	mov	sp,fp
 80015d0:	dfc00117 	ldw	ra,4(sp)
 80015d4:	df000017 	ldw	fp,0(sp)
 80015d8:	dec00204 	addi	sp,sp,8
 80015dc:	f800283a 	ret

080015e0 <FlashTestBlockErase>:
*           flash block contains some non-0xFFFFFFFF data before
*           this function is called.
*
******************************************************************/
static int FlashTestBlockErase(int block, int *error, alt_flash_fd* fd, flash_region* regions)
{
 80015e0:	defff404 	addi	sp,sp,-48
 80015e4:	dfc00b15 	stw	ra,44(sp)
 80015e8:	df000a15 	stw	fp,40(sp)
 80015ec:	df000a04 	addi	fp,sp,40
 80015f0:	e13ffc15 	stw	r4,-16(fp)
 80015f4:	e17ffd15 	stw	r5,-12(fp)
 80015f8:	e1bffe15 	stw	r6,-8(fp)
 80015fc:	e1ffff15 	stw	r7,-4(fp)

  int ret_code = 0x0;
 8001600:	e03ff615 	stw	zero,-40(fp)
  int test_offset;

  /* Calculate the offset of the block */
  test_offset = (regions->offset + (block * regions->block_size));
 8001604:	e0bfff17 	ldw	r2,-4(fp)
 8001608:	10c00017 	ldw	r3,0(r2)
 800160c:	e0bfff17 	ldw	r2,-4(fp)
 8001610:	11000317 	ldw	r4,12(r2)
 8001614:	e0bffc17 	ldw	r2,-16(fp)
 8001618:	2085383a 	mul	r2,r4,r2
 800161c:	1885883a 	add	r2,r3,r2
 8001620:	e0bff715 	stw	r2,-36(fp)

  printf(" -Testing \"alt_erase_flash_block\".");
 8001624:	010200b4 	movhi	r4,2050
 8001628:	2130c504 	addi	r4,r4,-15596
 800162c:	8002f580 	call	8002f58 <printf>
  ret_code = alt_erase_flash_block(fd, test_offset, regions->block_size);
 8001630:	e0bfff17 	ldw	r2,-4(fp)
 8001634:	10800317 	ldw	r2,12(r2)
 8001638:	e0fffe17 	ldw	r3,-8(fp)
 800163c:	e0fff815 	stw	r3,-32(fp)
 8001640:	e0fff717 	ldw	r3,-36(fp)
 8001644:	e0fff915 	stw	r3,-28(fp)
 8001648:	e0bffa15 	stw	r2,-24(fp)
 */
static __inline__ int __attribute__ ((always_inline)) alt_erase_flash_block( 
                                      alt_flash_fd* fd, int offset, int length) 
{
  int ret_code;
  ret_code = fd->erase_block( fd, offset );
 800164c:	e0bff817 	ldw	r2,-32(fp)
 8001650:	10800817 	ldw	r2,32(r2)
 8001654:	e13ff817 	ldw	r4,-32(fp)
 8001658:	e17ff917 	ldw	r5,-28(fp)
 800165c:	103ee83a 	callr	r2
 8001660:	e0bffb15 	stw	r2,-20(fp)
  
  if(!ret_code)
 8001664:	e0bffb17 	ldw	r2,-20(fp)
 8001668:	1000081e 	bne	r2,zero,800168c <FlashTestBlockErase+0xac>
      alt_dcache_flush((alt_u8*)fd->base_addr + offset, length);
 800166c:	e0bff817 	ldw	r2,-32(fp)
 8001670:	10c00a17 	ldw	r3,40(r2)
 8001674:	e0bff917 	ldw	r2,-28(fp)
 8001678:	1887883a 	add	r3,r3,r2
 800167c:	e0bffa17 	ldw	r2,-24(fp)
 8001680:	1809883a 	mov	r4,r3
 8001684:	100b883a 	mov	r5,r2
 8001688:	801843c0 	call	801843c <alt_dcache_flush>

  return ret_code;
 800168c:	e0bffb17 	ldw	r2,-20(fp)
 8001690:	e0bff615 	stw	r2,-40(fp)
  /* Check that the erase was successful. */
  if (!ret_code)
 8001694:	e0bff617 	ldw	r2,-40(fp)
 8001698:	1000111e 	bne	r2,zero,80016e0 <FlashTestBlockErase+0x100>
  {
    if(FlashCheckIfBlockErased(fd, block, regions))
 800169c:	e13ffe17 	ldw	r4,-8(fp)
 80016a0:	e17ffc17 	ldw	r5,-16(fp)
 80016a4:	e1bfff17 	ldw	r6,-4(fp)
 80016a8:	8000e1c0 	call	8000e1c <FlashCheckIfBlockErased>
 80016ac:	10000426 	beq	r2,zero,80016c0 <FlashTestBlockErase+0xe0>
      printf("  passed.\n");
 80016b0:	010200b4 	movhi	r4,2050
 80016b4:	21309004 	addi	r4,r4,-15808
 80016b8:	800306c0 	call	800306c <puts>
 80016bc:	00000806 	br	80016e0 <FlashTestBlockErase+0x100>
    else
    {
      printf("  FAILED\n");  
 80016c0:	010200b4 	movhi	r4,2050
 80016c4:	2130ce04 	addi	r4,r4,-15560
 80016c8:	800306c0 	call	800306c <puts>
      (*error)++;
 80016cc:	e0bffd17 	ldw	r2,-12(fp)
 80016d0:	10800017 	ldw	r2,0(r2)
 80016d4:	10c00044 	addi	r3,r2,1
 80016d8:	e0bffd17 	ldw	r2,-12(fp)
 80016dc:	10c00015 	stw	r3,0(r2)
    }
  }
  
  return ret_code;
 80016e0:	e0bff617 	ldw	r2,-40(fp)
}
 80016e4:	e037883a 	mov	sp,fp
 80016e8:	dfc00117 	ldw	ra,4(sp)
 80016ec:	df000017 	ldw	fp,0(sp)
 80016f0:	dec00204 	addi	sp,sp,8
 80016f4:	f800283a 	ret

080016f8 <FlashRunTests>:
*             - alt_erase_flash_block
*             - alt_write_flash_block
* 
******************************************************************/
static void FlashRunTests(alt_flash_fd* fd, int block, flash_region* regions)
{
 80016f8:	defff404 	addi	sp,sp,-48
 80016fc:	dfc00b15 	stw	ra,44(sp)
 8001700:	df000a15 	stw	fp,40(sp)
 8001704:	df000a04 	addi	fp,sp,40
 8001708:	e13ffd15 	stw	r4,-12(fp)
 800170c:	e17ffe15 	stw	r5,-8(fp)
 8001710:	e1bfff15 	stw	r6,-4(fp)
  int ret_code = 0x0;
 8001714:	e03ff615 	stw	zero,-40(fp)
  int error = 0x0;
 8001718:	e03ffc15 	stw	zero,-16(fp)
  int test_offset;

  /* Calculate the offset of the block */
  test_offset = (regions->offset + (block * regions->block_size));
 800171c:	e0bfff17 	ldw	r2,-4(fp)
 8001720:	10c00017 	ldw	r3,0(r2)
 8001724:	e0bfff17 	ldw	r2,-4(fp)
 8001728:	11000317 	ldw	r4,12(r2)
 800172c:	e0bffe17 	ldw	r2,-8(fp)
 8001730:	2085383a 	mul	r2,r4,r2
 8001734:	1885883a 	add	r2,r3,r2
 8001738:	e0bff715 	stw	r2,-36(fp)
  
  /* Test reading and writing functions */
  ret_code = FlashTestReadWrite(block, &error, fd, regions);
 800173c:	e0bffc04 	addi	r2,fp,-16
 8001740:	e13ffe17 	ldw	r4,-8(fp)
 8001744:	100b883a 	mov	r5,r2
 8001748:	e1bffd17 	ldw	r6,-12(fp)
 800174c:	e1ffff17 	ldw	r7,-4(fp)
 8001750:	80012e40 	call	80012e4 <FlashTestReadWrite>
 8001754:	e0bff615 	stw	r2,-40(fp)
 
  /* Test the erase function */
  if (!ret_code)
 8001758:	e0bff617 	ldw	r2,-40(fp)
 800175c:	1000071e 	bne	r2,zero,800177c <FlashRunTests+0x84>
  {
    ret_code = FlashTestBlockErase(block, &error, fd, regions);
 8001760:	e0bffc04 	addi	r2,fp,-16
 8001764:	e13ffe17 	ldw	r4,-8(fp)
 8001768:	100b883a 	mov	r5,r2
 800176c:	e1bffd17 	ldw	r6,-12(fp)
 8001770:	e1ffff17 	ldw	r7,-4(fp)
 8001774:	80015e00 	call	80015e0 <FlashTestBlockErase>
 8001778:	e0bff615 	stw	r2,-40(fp)
  }
  /* Test the block write function */
  if (!ret_code)
 800177c:	e0bff617 	ldw	r2,-40(fp)
 8001780:	1000071e 	bne	r2,zero,80017a0 <FlashRunTests+0xa8>
  {
    ret_code = FlashTestBlockWrite(block, &error, fd, regions);
 8001784:	e0bffc04 	addi	r2,fp,-16
 8001788:	e13ffe17 	ldw	r4,-8(fp)
 800178c:	100b883a 	mov	r5,r2
 8001790:	e1bffd17 	ldw	r6,-12(fp)
 8001794:	e1ffff17 	ldw	r7,-4(fp)
 8001798:	8000f600 	call	8000f60 <FlashTestBlockWrite>
 800179c:	e0bff615 	stw	r2,-40(fp)
  }

  /* Erase the block so we dont fill one up each time we run the test */
  printf(" -Returning block %d to its erased state.\n", block);
 80017a0:	010200b4 	movhi	r4,2050
 80017a4:	2130d104 	addi	r4,r4,-15548
 80017a8:	e17ffe17 	ldw	r5,-8(fp)
 80017ac:	8002f580 	call	8002f58 <printf>
  alt_erase_flash_block(fd, test_offset, regions->block_size);
 80017b0:	e0bfff17 	ldw	r2,-4(fp)
 80017b4:	10800317 	ldw	r2,12(r2)
 80017b8:	e0fffd17 	ldw	r3,-12(fp)
 80017bc:	e0fff815 	stw	r3,-32(fp)
 80017c0:	e0fff717 	ldw	r3,-36(fp)
 80017c4:	e0fff915 	stw	r3,-28(fp)
 80017c8:	e0bffa15 	stw	r2,-24(fp)
 */
static __inline__ int __attribute__ ((always_inline)) alt_erase_flash_block( 
                                      alt_flash_fd* fd, int offset, int length) 
{
  int ret_code;
  ret_code = fd->erase_block( fd, offset );
 80017cc:	e0bff817 	ldw	r2,-32(fp)
 80017d0:	10800817 	ldw	r2,32(r2)
 80017d4:	e13ff817 	ldw	r4,-32(fp)
 80017d8:	e17ff917 	ldw	r5,-28(fp)
 80017dc:	103ee83a 	callr	r2
 80017e0:	e0bffb15 	stw	r2,-20(fp)
  
  if(!ret_code)
 80017e4:	e0bffb17 	ldw	r2,-20(fp)
 80017e8:	1000081e 	bne	r2,zero,800180c <FlashRunTests+0x114>
      alt_dcache_flush((alt_u8*)fd->base_addr + offset, length);
 80017ec:	e0bff817 	ldw	r2,-32(fp)
 80017f0:	10c00a17 	ldw	r3,40(r2)
 80017f4:	e0bff917 	ldw	r2,-28(fp)
 80017f8:	1887883a 	add	r3,r3,r2
 80017fc:	e0bffa17 	ldw	r2,-24(fp)
 8001800:	1809883a 	mov	r4,r3
 8001804:	100b883a 	mov	r5,r2
 8001808:	801843c0 	call	801843c <alt_dcache_flush>
 
  printf(" -Flash tests complete.\n");
 800180c:	010200b4 	movhi	r4,2050
 8001810:	2130dc04 	addi	r4,r4,-15504
 8001814:	800306c0 	call	800306c <puts>
  if(ret_code || error)
 8001818:	e0bff617 	ldw	r2,-40(fp)
 800181c:	1000021e 	bne	r2,zero,8001828 <FlashRunTests+0x130>
 8001820:	e0bffc17 	ldw	r2,-16(fp)
 8001824:	10000326 	beq	r2,zero,8001834 <FlashRunTests+0x13c>
  {
    printf(" -At least one test failed.\n\n");
 8001828:	010200b4 	movhi	r4,2050
 800182c:	2130e204 	addi	r4,r4,-15480
 8001830:	800306c0 	call	800306c <puts>
  }
}
 8001834:	e037883a 	mov	sp,fp
 8001838:	dfc00117 	ldw	ra,4(sp)
 800183c:	df000017 	ldw	fp,0(sp)
 8001840:	dec00204 	addi	sp,sp,8
 8001844:	f800283a 	ret

08001848 <GetFlashName>:
*           Defaults to "/dev/ext_flash", the name of the flash
*           component in the Nios II example designs.
* 
******************************************************************/
static int GetFlashName(char line[30], int flash_type)
{
 8001848:	defffa04 	addi	sp,sp,-24
 800184c:	dfc00515 	stw	ra,20(sp)
 8001850:	df000415 	stw	fp,16(sp)
 8001854:	df000404 	addi	fp,sp,16
 8001858:	e13ffe15 	stw	r4,-8(fp)
 800185c:	e17fff15 	stw	r5,-4(fp)

  char ch = 0x0;
 8001860:	e03ffc05 	stb	zero,-16(fp)
  int i;

  if (flash_type == CFI)
 8001864:	e0bfff17 	ldw	r2,-4(fp)
 8001868:	108000d8 	cmpnei	r2,r2,3
 800186c:	1000091e 	bne	r2,zero,8001894 <GetFlashName+0x4c>
  { 
    printf("\nEnter the name of the CFI flash device to be opened,\n");
 8001870:	010200b4 	movhi	r4,2050
 8001874:	2130ea04 	addi	r4,r4,-15448
 8001878:	800306c0 	call	800306c <puts>
    printf("or just press <enter> to open \"/dev/ext_flash\"\n");
 800187c:	010200b4 	movhi	r4,2050
 8001880:	2130f804 	addi	r4,r4,-15392
 8001884:	800306c0 	call	800306c <puts>
    printf(">");
 8001888:	01000f84 	movi	r4,62
 800188c:	8002f9c0 	call	8002f9c <putchar>
 8001890:	00000b06 	br	80018c0 <GetFlashName+0x78>
  }
  else if (flash_type == EPCS)
 8001894:	e0bfff17 	ldw	r2,-4(fp)
 8001898:	10800118 	cmpnei	r2,r2,4
 800189c:	1000081e 	bne	r2,zero,80018c0 <GetFlashName+0x78>
  {
    printf("\nEnter the name of the EPCS flash device to be opened,\n");
 80018a0:	010200b4 	movhi	r4,2050
 80018a4:	21310404 	addi	r4,r4,-15344
 80018a8:	800306c0 	call	800306c <puts>
    printf("or just press <enter> to open \"/dev/epcs_controller\"\n");
 80018ac:	010200b4 	movhi	r4,2050
 80018b0:	21311204 	addi	r4,r4,-15288
 80018b4:	800306c0 	call	800306c <puts>
    printf(">");
 80018b8:	01000f84 	movi	r4,62
 80018bc:	8002f9c0 	call	8002f9c <putchar>
  }
 
  for(i = 0; ch != '\n'; i++)
 80018c0:	e03ffd15 	stw	zero,-12(fp)
 80018c4:	00003806 	br	80019a8 <GetFlashName+0x160>
  {
    ch = getc(stdin);
 80018c8:	008200b4 	movhi	r2,2050
 80018cc:	10bab604 	addi	r2,r2,-5416
 80018d0:	10800017 	ldw	r2,0(r2)
 80018d4:	10800117 	ldw	r2,4(r2)
 80018d8:	1009883a 	mov	r4,r2
 80018dc:	80025200 	call	8002520 <getc>
 80018e0:	e0bffc05 	stb	r2,-16(fp)
    if(ch == '\r' || ch == '\n')
 80018e4:	e0bffc07 	ldb	r2,-16(fp)
 80018e8:	10800360 	cmpeqi	r2,r2,13
 80018ec:	1000031e 	bne	r2,zero,80018fc <GetFlashName+0xb4>
 80018f0:	e0bffc07 	ldb	r2,-16(fp)
 80018f4:	10800298 	cmpnei	r2,r2,10
 80018f8:	1000231e 	bne	r2,zero,8001988 <GetFlashName+0x140>
    {
      /* Hitting <enter> defaults to the standard component name */
      if( i <= 1 )
 80018fc:	e0bffd17 	ldw	r2,-12(fp)
 8001900:	10800088 	cmpgei	r2,r2,2
 8001904:	10001a1e 	bne	r2,zero,8001970 <GetFlashName+0x128>
      {
        if (flash_type == CFI)
 8001908:	e0bfff17 	ldw	r2,-4(fp)
 800190c:	108000d8 	cmpnei	r2,r2,3
 8001910:	10000a1e 	bne	r2,zero,800193c <GetFlashName+0xf4>
          strcpy(line, "/dev/ext_flash\0");
 8001914:	e0fffe17 	ldw	r3,-8(fp)
 8001918:	008200b4 	movhi	r2,2050
 800191c:	10b12004 	addi	r2,r2,-15232
 8001920:	1809883a 	mov	r4,r3
 8001924:	1007883a 	mov	r3,r2
 8001928:	008003c4 	movi	r2,15
 800192c:	180b883a 	mov	r5,r3
 8001930:	100d883a 	mov	r6,r2
 8001934:	8002df40 	call	8002df4 <memcpy>
 8001938:	00001206 	br	8001984 <GetFlashName+0x13c>
        else if (flash_type == EPCS)
 800193c:	e0bfff17 	ldw	r2,-4(fp)
 8001940:	10800118 	cmpnei	r2,r2,4
 8001944:	10000f1e 	bne	r2,zero,8001984 <GetFlashName+0x13c>
          strcpy(line, "/dev/epcs_controller\0");
 8001948:	e0fffe17 	ldw	r3,-8(fp)
 800194c:	008200b4 	movhi	r2,2050
 8001950:	10b12404 	addi	r2,r2,-15216
 8001954:	1809883a 	mov	r4,r3
 8001958:	1007883a 	mov	r3,r2
 800195c:	00800544 	movi	r2,21
 8001960:	180b883a 	mov	r5,r3
 8001964:	100d883a 	mov	r6,r2
 8001968:	8002df40 	call	8002df4 <memcpy>
  {
    ch = getc(stdin);
    if(ch == '\r' || ch == '\n')
    {
      /* Hitting <enter> defaults to the standard component name */
      if( i <= 1 )
 800196c:	00000b06 	br	800199c <GetFlashName+0x154>
          strcpy(line, "/dev/epcs_controller\0");
      }
         
      else
        /* Properly terminate the string. */
        line[i] = '\0';
 8001970:	e0bffd17 	ldw	r2,-12(fp)
 8001974:	e0fffe17 	ldw	r3,-8(fp)
 8001978:	1885883a 	add	r2,r3,r2
 800197c:	10000005 	stb	zero,0(r2)
  {
    ch = getc(stdin);
    if(ch == '\r' || ch == '\n')
    {
      /* Hitting <enter> defaults to the standard component name */
      if( i <= 1 )
 8001980:	00000606 	br	800199c <GetFlashName+0x154>
 8001984:	00000506 	br	800199c <GetFlashName+0x154>
      else
        /* Properly terminate the string. */
        line[i] = '\0';
    }
    else
     line[i] = ch;
 8001988:	e0bffd17 	ldw	r2,-12(fp)
 800198c:	e0fffe17 	ldw	r3,-8(fp)
 8001990:	1885883a 	add	r2,r3,r2
 8001994:	e0fffc03 	ldbu	r3,-16(fp)
 8001998:	10c00005 	stb	r3,0(r2)
    printf("\nEnter the name of the EPCS flash device to be opened,\n");
    printf("or just press <enter> to open \"/dev/epcs_controller\"\n");
    printf(">");
  }
 
  for(i = 0; ch != '\n'; i++)
 800199c:	e0bffd17 	ldw	r2,-12(fp)
 80019a0:	10800044 	addi	r2,r2,1
 80019a4:	e0bffd15 	stw	r2,-12(fp)
 80019a8:	e0bffc07 	ldb	r2,-16(fp)
 80019ac:	10800298 	cmpnei	r2,r2,10
 80019b0:	103fc51e 	bne	r2,zero,80018c8 <__alt_data_end+0xf80018c8>
    }
    else
     line[i] = ch;
  }
 
  return 0;
 80019b4:	0005883a 	mov	r2,zero
}
 80019b8:	e037883a 	mov	sp,fp
 80019bc:	dfc00117 	ldw	ra,4(sp)
 80019c0:	df000017 	ldw	fp,0(sp)
 80019c4:	dec00204 	addi	sp,sp,8
 80019c8:	f800283a 	ret

080019cc <FlashErase>:
*
*  Purpose: Erases 1 or all blocks in the specified flash device.
* 
******************************************************************/
static void FlashErase(int flash_type)
{
 80019cc:	deffe304 	addi	sp,sp,-116
 80019d0:	dfc01c15 	stw	ra,112(sp)
 80019d4:	df001b15 	stw	fp,108(sp)
 80019d8:	df001b04 	addi	fp,sp,108
 80019dc:	e13fff15 	stw	r4,-4(fp)
  char entry[4];
  char flashname[30];
  unsigned int block;
 
  /* Get the name of the flash we are erasing */
  ret_code = GetFlashName(flashname, flash_type);
 80019e0:	e0bff604 	addi	r2,fp,-40
 80019e4:	1009883a 	mov	r4,r2
 80019e8:	e17fff17 	ldw	r5,-4(fp)
 80019ec:	80018480 	call	8001848 <GetFlashName>
 80019f0:	e0bfe515 	stw	r2,-108(fp)
 
  fd = alt_flash_open_dev(flashname);
 80019f4:	e0bff604 	addi	r2,fp,-40
 80019f8:	1009883a 	mov	r4,r2
 80019fc:	80184dc0 	call	80184dc <alt_flash_open_dev>
 8001a00:	e0bfe615 	stw	r2,-104(fp)
  if (fd)
 8001a04:	e0bfe617 	ldw	r2,-104(fp)
 8001a08:	1000ce26 	beq	r2,zero,8001d44 <FlashErase+0x378>
 8001a0c:	e0bfe617 	ldw	r2,-104(fp)
 8001a10:	e0bfe815 	stw	r2,-96(fp)
 8001a14:	e0bff304 	addi	r2,fp,-52
 8001a18:	e0bfe915 	stw	r2,-92(fp)
 8001a1c:	e0bff404 	addi	r2,fp,-48
 8001a20:	e0bfea15 	stw	r2,-88(fp)
 */
static __inline__ int __attribute__ ((always_inline)) alt_get_flash_info( 
                                      alt_flash_fd* fd, flash_region** info, 
                                      int* number_of_regions)
{
  return fd->get_info( fd, info, number_of_regions);
 8001a24:	e0bfe817 	ldw	r2,-96(fp)
 8001a28:	10800717 	ldw	r2,28(r2)
 8001a2c:	e13fe817 	ldw	r4,-96(fp)
 8001a30:	e17fe917 	ldw	r5,-92(fp)
 8001a34:	e1bfea17 	ldw	r6,-88(fp)
 8001a38:	103ee83a 	callr	r2
  {
    /* Find out some useful stuff about the flash */
    ret_code = alt_get_flash_info(fd, &regions, &number_of_regions);
 8001a3c:	e0bfe515 	stw	r2,-108(fp)
    if (!ret_code)
 8001a40:	e0bfe517 	ldw	r2,-108(fp)
 8001a44:	1000b81e 	bne	r2,zero,8001d28 <FlashErase+0x35c>
    {
      printf(" -Region has %d blocks.\n", regions->number_of_blocks);
 8001a48:	e0bff317 	ldw	r2,-52(fp)
 8001a4c:	10800217 	ldw	r2,8(r2)
 8001a50:	010200b4 	movhi	r4,2050
 8001a54:	21312a04 	addi	r4,r4,-15192
 8001a58:	100b883a 	mov	r5,r2
 8001a5c:	8002f580 	call	8002f58 <printf>
      printf(" -Which block would you like to erase?\n");
 8001a60:	010200b4 	movhi	r4,2050
 8001a64:	21313104 	addi	r4,r4,-15164
 8001a68:	800306c0 	call	800306c <puts>
      printf(" -> ");
 8001a6c:	010200b4 	movhi	r4,2050
 8001a70:	21313b04 	addi	r4,r4,-15124
 8001a74:	8002f580 	call	8002f58 <printf>
      
      GetInputString( entry, sizeof(entry), stdin );
 8001a78:	008200b4 	movhi	r2,2050
 8001a7c:	10bab604 	addi	r2,r2,-5416
 8001a80:	10800017 	ldw	r2,0(r2)
 8001a84:	10800117 	ldw	r2,4(r2)
 8001a88:	e0fff504 	addi	r3,fp,-44
 8001a8c:	1809883a 	mov	r4,r3
 8001a90:	01400104 	movi	r5,4
 8001a94:	100d883a 	mov	r6,r2
 8001a98:	800039c0 	call	800039c <GetInputString>

      if(entry[0] == 'a')
 8001a9c:	e0bff503 	ldbu	r2,-44(fp)
 8001aa0:	10803fcc 	andi	r2,r2,255
 8001aa4:	1080201c 	xori	r2,r2,128
 8001aa8:	10bfe004 	addi	r2,r2,-128
 8001aac:	10801858 	cmpnei	r2,r2,97
 8001ab0:	10005c1e 	bne	r2,zero,8001c24 <FlashErase+0x258>
      {
        printf(" -Erase ALL blocks? (y/n) ");
 8001ab4:	010200b4 	movhi	r4,2050
 8001ab8:	21313d04 	addi	r4,r4,-15116
 8001abc:	8002f580 	call	8002f58 <printf>

        GetInputString( entry, sizeof(entry), stdin );
 8001ac0:	008200b4 	movhi	r2,2050
 8001ac4:	10bab604 	addi	r2,r2,-5416
 8001ac8:	10800017 	ldw	r2,0(r2)
 8001acc:	10800117 	ldw	r2,4(r2)
 8001ad0:	e0fff504 	addi	r3,fp,-44
 8001ad4:	1809883a 	mov	r4,r3
 8001ad8:	01400104 	movi	r5,4
 8001adc:	100d883a 	mov	r6,r2
 8001ae0:	800039c0 	call	800039c <GetInputString>
        
        if(entry[0] == 'y')
 8001ae4:	e0bff503 	ldbu	r2,-44(fp)
 8001ae8:	10803fcc 	andi	r2,r2,255
 8001aec:	1080201c 	xori	r2,r2,128
 8001af0:	10bfe004 	addi	r2,r2,-128
 8001af4:	10801e58 	cmpnei	r2,r2,121
 8001af8:	1000471e 	bne	r2,zero,8001c18 <FlashErase+0x24c>
        {
          /* Erase all blocks */
          printf(" -Erasing %d blocks.  Please Wait.\n", (regions->number_of_blocks));
 8001afc:	e0bff317 	ldw	r2,-52(fp)
 8001b00:	10800217 	ldw	r2,8(r2)
 8001b04:	010200b4 	movhi	r4,2050
 8001b08:	21314404 	addi	r4,r4,-15088
 8001b0c:	100b883a 	mov	r5,r2
 8001b10:	8002f580 	call	8002f58 <printf>
          for(block = 0; block < regions->number_of_blocks; block++)
 8001b14:	e03ffe15 	stw	zero,-8(fp)
 8001b18:	00003606 	br	8001bf4 <FlashErase+0x228>
          {
            /* Dont erase it if it's already erased silly. */
            if ((FlashCheckIfBlockErased(fd, block, regions)) == 0)
 8001b1c:	e0bffe17 	ldw	r2,-8(fp)
 8001b20:	1007883a 	mov	r3,r2
 8001b24:	e0bff317 	ldw	r2,-52(fp)
 8001b28:	e13fe617 	ldw	r4,-104(fp)
 8001b2c:	180b883a 	mov	r5,r3
 8001b30:	100d883a 	mov	r6,r2
 8001b34:	8000e1c0 	call	8000e1c <FlashCheckIfBlockErased>
 8001b38:	1000211e 	bne	r2,zero,8001bc0 <FlashErase+0x1f4>
            {
              test_offset = (regions->offset + (block * regions->block_size));
 8001b3c:	e0bff317 	ldw	r2,-52(fp)
 8001b40:	10800017 	ldw	r2,0(r2)
 8001b44:	1007883a 	mov	r3,r2
 8001b48:	e0bff317 	ldw	r2,-52(fp)
 8001b4c:	10800317 	ldw	r2,12(r2)
 8001b50:	1009883a 	mov	r4,r2
 8001b54:	e0bffe17 	ldw	r2,-8(fp)
 8001b58:	2085383a 	mul	r2,r4,r2
 8001b5c:	1885883a 	add	r2,r3,r2
 8001b60:	e0bfe715 	stw	r2,-100(fp)
              alt_erase_flash_block(fd, test_offset, regions->block_size);
 8001b64:	e0bff317 	ldw	r2,-52(fp)
 8001b68:	10800317 	ldw	r2,12(r2)
 8001b6c:	e0ffe617 	ldw	r3,-104(fp)
 8001b70:	e0ffeb15 	stw	r3,-84(fp)
 8001b74:	e0ffe717 	ldw	r3,-100(fp)
 8001b78:	e0ffec15 	stw	r3,-80(fp)
 8001b7c:	e0bfed15 	stw	r2,-76(fp)
 */
static __inline__ int __attribute__ ((always_inline)) alt_erase_flash_block( 
                                      alt_flash_fd* fd, int offset, int length) 
{
  int ret_code;
  ret_code = fd->erase_block( fd, offset );
 8001b80:	e0bfeb17 	ldw	r2,-84(fp)
 8001b84:	10800817 	ldw	r2,32(r2)
 8001b88:	e13feb17 	ldw	r4,-84(fp)
 8001b8c:	e17fec17 	ldw	r5,-80(fp)
 8001b90:	103ee83a 	callr	r2
 8001b94:	e0bfee15 	stw	r2,-72(fp)
  
  if(!ret_code)
 8001b98:	e0bfee17 	ldw	r2,-72(fp)
 8001b9c:	1000081e 	bne	r2,zero,8001bc0 <FlashErase+0x1f4>
      alt_dcache_flush((alt_u8*)fd->base_addr + offset, length);
 8001ba0:	e0bfeb17 	ldw	r2,-84(fp)
 8001ba4:	10c00a17 	ldw	r3,40(r2)
 8001ba8:	e0bfec17 	ldw	r2,-80(fp)
 8001bac:	1887883a 	add	r3,r3,r2
 8001bb0:	e0bfed17 	ldw	r2,-76(fp)
 8001bb4:	1809883a 	mov	r4,r3
 8001bb8:	100b883a 	mov	r5,r2
 8001bbc:	801843c0 	call	801843c <alt_dcache_flush>
            }
            /* Just a simple progress meter so we dont get bored waiting for the flash to erase. */
            printf(".");
 8001bc0:	01000b84 	movi	r4,46
 8001bc4:	8002f9c0 	call	8002f9c <putchar>
            if(((block + 1) % 80) == 0)
 8001bc8:	e0bffe17 	ldw	r2,-8(fp)
 8001bcc:	10800044 	addi	r2,r2,1
 8001bd0:	1009883a 	mov	r4,r2
 8001bd4:	01401404 	movi	r5,80
 8001bd8:	80024980 	call	8002498 <__umodsi3>
 8001bdc:	1000021e 	bne	r2,zero,8001be8 <FlashErase+0x21c>
            {
              printf("\n");
 8001be0:	01000284 	movi	r4,10
 8001be4:	8002f9c0 	call	8002f9c <putchar>
        
        if(entry[0] == 'y')
        {
          /* Erase all blocks */
          printf(" -Erasing %d blocks.  Please Wait.\n", (regions->number_of_blocks));
          for(block = 0; block < regions->number_of_blocks; block++)
 8001be8:	e0bffe17 	ldw	r2,-8(fp)
 8001bec:	10800044 	addi	r2,r2,1
 8001bf0:	e0bffe15 	stw	r2,-8(fp)
 8001bf4:	e0bff317 	ldw	r2,-52(fp)
 8001bf8:	10800217 	ldw	r2,8(r2)
 8001bfc:	1007883a 	mov	r3,r2
 8001c00:	e0bffe17 	ldw	r2,-8(fp)
 8001c04:	10ffc536 	bltu	r2,r3,8001b1c <__alt_data_end+0xf8001b1c>
            if(((block + 1) % 80) == 0)
            {
              printf("\n");
            }
          }
          printf("\n -All Blocks Erased.\n");
 8001c08:	010200b4 	movhi	r4,2050
 8001c0c:	21314d04 	addi	r4,r4,-15052
 8001c10:	800306c0 	call	800306c <puts>
 8001c14:	00000306 	br	8001c24 <FlashErase+0x258>
        }
        else
        {
          printf("Erased zero blocks.\n");
 8001c18:	010200b4 	movhi	r4,2050
 8001c1c:	21315304 	addi	r4,r4,-15028
 8001c20:	800306c0 	call	800306c <puts>
        }
      }
      /* Just erase one block */
      if(sscanf(entry, "%d\n", &block))
 8001c24:	e0fff504 	addi	r3,fp,-44
 8001c28:	e0bffe04 	addi	r2,fp,-8
 8001c2c:	1809883a 	mov	r4,r3
 8001c30:	014200b4 	movhi	r5,2050
 8001c34:	29715804 	addi	r5,r5,-15008
 8001c38:	100d883a 	mov	r6,r2
 8001c3c:	800315c0 	call	800315c <sscanf>
 8001c40:	10003926 	beq	r2,zero,8001d28 <FlashErase+0x35c>
      {
        if ((block >= 0) && (block <= (regions->number_of_blocks - 1)))
 8001c44:	e0bff317 	ldw	r2,-52(fp)
 8001c48:	10800217 	ldw	r2,8(r2)
 8001c4c:	10bfffc4 	addi	r2,r2,-1
 8001c50:	1007883a 	mov	r3,r2
 8001c54:	e0bffe17 	ldw	r2,-8(fp)
 8001c58:	18802736 	bltu	r3,r2,8001cf8 <FlashErase+0x32c>
        {
          test_offset = (regions->offset + (block * regions->block_size));
 8001c5c:	e0bff317 	ldw	r2,-52(fp)
 8001c60:	10800017 	ldw	r2,0(r2)
 8001c64:	1007883a 	mov	r3,r2
 8001c68:	e0bff317 	ldw	r2,-52(fp)
 8001c6c:	10800317 	ldw	r2,12(r2)
 8001c70:	1009883a 	mov	r4,r2
 8001c74:	e0bffe17 	ldw	r2,-8(fp)
 8001c78:	2085383a 	mul	r2,r4,r2
 8001c7c:	1885883a 	add	r2,r3,r2
 8001c80:	e0bfe715 	stw	r2,-100(fp)
          alt_erase_flash_block(fd, test_offset, regions->block_size);
 8001c84:	e0bff317 	ldw	r2,-52(fp)
 8001c88:	10800317 	ldw	r2,12(r2)
 8001c8c:	e0ffe617 	ldw	r3,-104(fp)
 8001c90:	e0ffef15 	stw	r3,-68(fp)
 8001c94:	e0ffe717 	ldw	r3,-100(fp)
 8001c98:	e0fff015 	stw	r3,-64(fp)
 8001c9c:	e0bff115 	stw	r2,-60(fp)
 */
static __inline__ int __attribute__ ((always_inline)) alt_erase_flash_block( 
                                      alt_flash_fd* fd, int offset, int length) 
{
  int ret_code;
  ret_code = fd->erase_block( fd, offset );
 8001ca0:	e0bfef17 	ldw	r2,-68(fp)
 8001ca4:	10800817 	ldw	r2,32(r2)
 8001ca8:	e13fef17 	ldw	r4,-68(fp)
 8001cac:	e17ff017 	ldw	r5,-64(fp)
 8001cb0:	103ee83a 	callr	r2
 8001cb4:	e0bff215 	stw	r2,-56(fp)
  
  if(!ret_code)
 8001cb8:	e0bff217 	ldw	r2,-56(fp)
 8001cbc:	1000081e 	bne	r2,zero,8001ce0 <FlashErase+0x314>
      alt_dcache_flush((alt_u8*)fd->base_addr + offset, length);
 8001cc0:	e0bfef17 	ldw	r2,-68(fp)
 8001cc4:	10c00a17 	ldw	r3,40(r2)
 8001cc8:	e0bff017 	ldw	r2,-64(fp)
 8001ccc:	1887883a 	add	r3,r3,r2
 8001cd0:	e0bff117 	ldw	r2,-60(fp)
 8001cd4:	1809883a 	mov	r4,r3
 8001cd8:	100b883a 	mov	r5,r2
 8001cdc:	801843c0 	call	801843c <alt_dcache_flush>
          printf(" -Block %d erased.\n", block);
 8001ce0:	e0bffe17 	ldw	r2,-8(fp)
 8001ce4:	010200b4 	movhi	r4,2050
 8001ce8:	21315904 	addi	r4,r4,-15004
 8001cec:	100b883a 	mov	r5,r2
 8001cf0:	8002f580 	call	8002f58 <printf>
 8001cf4:	00000c06 	br	8001d28 <FlashErase+0x35c>
        }
        else
        {
          printf(" -Block number entered is %d\n", block);
 8001cf8:	e0bffe17 	ldw	r2,-8(fp)
 8001cfc:	010200b4 	movhi	r4,2050
 8001d00:	21315e04 	addi	r4,r4,-14984
 8001d04:	100b883a 	mov	r5,r2
 8001d08:	8002f580 	call	8002f58 <printf>
          printf(" -Block number must be between 0 and %d.\n", (regions->number_of_blocks - 1));
 8001d0c:	e0bff317 	ldw	r2,-52(fp)
 8001d10:	10800217 	ldw	r2,8(r2)
 8001d14:	10bfffc4 	addi	r2,r2,-1
 8001d18:	010200b4 	movhi	r4,2050
 8001d1c:	21316604 	addi	r4,r4,-14952
 8001d20:	100b883a 	mov	r5,r2
 8001d24:	8002f580 	call	8002f58 <printf>
        }
      }
    }
    printf(" -Closing flash \"%s\".\n", flashname);
 8001d28:	e0bff604 	addi	r2,fp,-40
 8001d2c:	010200b4 	movhi	r4,2050
 8001d30:	21317104 	addi	r4,r4,-14908
 8001d34:	100b883a 	mov	r5,r2
 8001d38:	8002f580 	call	8002f58 <printf>
    alt_flash_close_dev(fd);
 8001d3c:	e13fe617 	ldw	r4,-104(fp)
 8001d40:	80185440 	call	8018544 <alt_flash_close_dev>
  }
}
 8001d44:	e037883a 	mov	sp,fp
 8001d48:	dfc00117 	ldw	ra,4(sp)
 8001d4c:	df000017 	ldw	fp,0(sp)
 8001d50:	dec00204 	addi	sp,sp,8
 8001d54:	f800283a 	ret

08001d58 <FlashFindErasedBlocks>:
*           parameter is SHOWMAP, the function prints a list of 
*           all blocks, indicating which ones are erased.
* 
******************************************************************/
static int FlashFindErasedBlocks(alt_flash_fd* fd, flash_region* regions, int number_of_regions, int mode)
{ 
 8001d58:	defff404 	addi	sp,sp,-48
 8001d5c:	dfc00b15 	stw	ra,44(sp)
 8001d60:	df000a15 	stw	fp,40(sp)
 8001d64:	df000a04 	addi	fp,sp,40
 8001d68:	e13ffc15 	stw	r4,-16(fp)
 8001d6c:	e17ffd15 	stw	r5,-12(fp)
 8001d70:	e1bffe15 	stw	r6,-8(fp)
 8001d74:	e1ffff15 	stw	r7,-4(fp)
  int region_index, block_index;
  int block_erased = 0x0;
 8001d78:	e03ff815 	stw	zero,-32(fp)
  char entry[5];
  unsigned int block;

  /* Currently only supports flashes with 1 region, but region loop is left here for possible */
  /* future implementation */
  for(region_index = 0; region_index < number_of_regions; region_index++)
 8001d7c:	e03ff615 	stw	zero,-40(fp)
 8001d80:	00008b06 	br	8001fb0 <FlashFindErasedBlocks+0x258>
  {
    printf(" -Checking Region %d for erased blocks.\n", region_index);
 8001d84:	010200b4 	movhi	r4,2050
 8001d88:	21317704 	addi	r4,r4,-14884
 8001d8c:	e17ff617 	ldw	r5,-40(fp)
 8001d90:	8002f580 	call	8002f58 <printf>
    /* SHOWMAP mode has a legend reminding us what little plus and minus signs mean */
    if(mode == SHOWMAP)
 8001d94:	e0bfff17 	ldw	r2,-4(fp)
 8001d98:	10800098 	cmpnei	r2,r2,2
 8001d9c:	1000061e 	bne	r2,zero,8001db8 <FlashFindErasedBlocks+0x60>
    {
      printf("            erased block = '-'\n");     
 8001da0:	010200b4 	movhi	r4,2050
 8001da4:	21318204 	addi	r4,r4,-14840
 8001da8:	800306c0 	call	800306c <puts>
      printf("          unerased block = '+'\n\n");     
 8001dac:	010200b4 	movhi	r4,2050
 8001db0:	21318a04 	addi	r4,r4,-14808
 8001db4:	800306c0 	call	800306c <puts>
    }
    /* Check those blocks. */
    for(block_index = 0; block_index < (regions->number_of_blocks); block_index++)
 8001db8:	e03ff715 	stw	zero,-36(fp)
 8001dbc:	00003006 	br	8001e80 <FlashFindErasedBlocks+0x128>
    {
      block_erased = FlashCheckIfBlockErased(fd, block_index, regions);
 8001dc0:	e13ffc17 	ldw	r4,-16(fp)
 8001dc4:	e17ff717 	ldw	r5,-36(fp)
 8001dc8:	e1bffd17 	ldw	r6,-12(fp)
 8001dcc:	8000e1c0 	call	8000e1c <FlashCheckIfBlockErased>
 8001dd0:	e0bff815 	stw	r2,-32(fp)
      /* If it's erased and were running in TEST mode, we're done */
      if(block_erased && (mode == TEST))
 8001dd4:	e0bff817 	ldw	r2,-32(fp)
 8001dd8:	10000326 	beq	r2,zero,8001de8 <FlashFindErasedBlocks+0x90>
 8001ddc:	e0bfff17 	ldw	r2,-4(fp)
 8001de0:	10800060 	cmpeqi	r2,r2,1
 8001de4:	10002a1e 	bne	r2,zero,8001e90 <FlashFindErasedBlocks+0x138>
        break;
      /* If in SHOWMAP mode, mark block as either erased or not-erased. */
      else if(block_erased && (mode == SHOWMAP))
 8001de8:	e0bff817 	ldw	r2,-32(fp)
 8001dec:	10001026 	beq	r2,zero,8001e30 <FlashFindErasedBlocks+0xd8>
 8001df0:	e0bfff17 	ldw	r2,-4(fp)
 8001df4:	10800098 	cmpnei	r2,r2,2
 8001df8:	10000d1e 	bne	r2,zero,8001e30 <FlashFindErasedBlocks+0xd8>
        printf("  Block %3d @ 0x%8.8X:\t-\n", block_index, (regions->offset + (block_index * regions->block_size)));           
 8001dfc:	e0bffd17 	ldw	r2,-12(fp)
 8001e00:	10c00017 	ldw	r3,0(r2)
 8001e04:	e0bffd17 	ldw	r2,-12(fp)
 8001e08:	11000317 	ldw	r4,12(r2)
 8001e0c:	e0bff717 	ldw	r2,-36(fp)
 8001e10:	2085383a 	mul	r2,r4,r2
 8001e14:	1885883a 	add	r2,r3,r2
 8001e18:	010200b4 	movhi	r4,2050
 8001e1c:	21319204 	addi	r4,r4,-14776
 8001e20:	e17ff717 	ldw	r5,-36(fp)
 8001e24:	100d883a 	mov	r6,r2
 8001e28:	8002f580 	call	8002f58 <printf>
 8001e2c:	00001106 	br	8001e74 <FlashFindErasedBlocks+0x11c>
      else if(!block_erased && (mode == SHOWMAP))
 8001e30:	e0bff817 	ldw	r2,-32(fp)
 8001e34:	10000f1e 	bne	r2,zero,8001e74 <FlashFindErasedBlocks+0x11c>
 8001e38:	e0bfff17 	ldw	r2,-4(fp)
 8001e3c:	10800098 	cmpnei	r2,r2,2
 8001e40:	10000c1e 	bne	r2,zero,8001e74 <FlashFindErasedBlocks+0x11c>
        printf("  Block %3d @ 0x%8.8X:\t+\n", block_index, (regions->offset + (block_index * regions->block_size)));           
 8001e44:	e0bffd17 	ldw	r2,-12(fp)
 8001e48:	10c00017 	ldw	r3,0(r2)
 8001e4c:	e0bffd17 	ldw	r2,-12(fp)
 8001e50:	11000317 	ldw	r4,12(r2)
 8001e54:	e0bff717 	ldw	r2,-36(fp)
 8001e58:	2085383a 	mul	r2,r4,r2
 8001e5c:	1885883a 	add	r2,r3,r2
 8001e60:	010200b4 	movhi	r4,2050
 8001e64:	21319904 	addi	r4,r4,-14748
 8001e68:	e17ff717 	ldw	r5,-36(fp)
 8001e6c:	100d883a 	mov	r6,r2
 8001e70:	8002f580 	call	8002f58 <printf>
    {
      printf("            erased block = '-'\n");     
      printf("          unerased block = '+'\n\n");     
    }
    /* Check those blocks. */
    for(block_index = 0; block_index < (regions->number_of_blocks); block_index++)
 8001e74:	e0bff717 	ldw	r2,-36(fp)
 8001e78:	10800044 	addi	r2,r2,1
 8001e7c:	e0bff715 	stw	r2,-36(fp)
 8001e80:	e0bffd17 	ldw	r2,-12(fp)
 8001e84:	10800217 	ldw	r2,8(r2)
 8001e88:	e0fff717 	ldw	r3,-36(fp)
 8001e8c:	18bfcc16 	blt	r3,r2,8001dc0 <__alt_data_end+0xf8001dc0>
        printf("  Block %3d @ 0x%8.8X:\t-\n", block_index, (regions->offset + (block_index * regions->block_size)));           
      else if(!block_erased && (mode == SHOWMAP))
        printf("  Block %3d @ 0x%8.8X:\t+\n", block_index, (regions->offset + (block_index * regions->block_size)));           
    }
    /* Special case if no blocks are erased (TEST mode only)*/
    if(( block_index == ( regions->number_of_blocks )) && ( mode == TEST ))
 8001e90:	e0bffd17 	ldw	r2,-12(fp)
 8001e94:	10c00217 	ldw	r3,8(r2)
 8001e98:	e0bff717 	ldw	r2,-36(fp)
 8001e9c:	18803b1e 	bne	r3,r2,8001f8c <FlashFindErasedBlocks+0x234>
 8001ea0:	e0bfff17 	ldw	r2,-4(fp)
 8001ea4:	10800058 	cmpnei	r2,r2,1
 8001ea8:	1000381e 	bne	r2,zero,8001f8c <FlashFindErasedBlocks+0x234>
    {
      printf(" -Found no erased blocks.  Please enter the number of the block\n");
 8001eac:	010200b4 	movhi	r4,2050
 8001eb0:	2131a004 	addi	r4,r4,-14720
 8001eb4:	800306c0 	call	800306c <puts>
      printf("  you would like to test.  Enter 'q' to quit without testing flash.\n");
 8001eb8:	010200b4 	movhi	r4,2050
 8001ebc:	2131b004 	addi	r4,r4,-14656
 8001ec0:	800306c0 	call	800306c <puts>
      printf(" -> ");
 8001ec4:	010200b4 	movhi	r4,2050
 8001ec8:	21313b04 	addi	r4,r4,-15124
 8001ecc:	8002f580 	call	8002f58 <printf>

      GetInputString( entry, sizeof(entry), stdin );
 8001ed0:	008200b4 	movhi	r2,2050
 8001ed4:	10bab604 	addi	r2,r2,-5416
 8001ed8:	10800017 	ldw	r2,0(r2)
 8001edc:	10800117 	ldw	r2,4(r2)
 8001ee0:	e0fff904 	addi	r3,fp,-28
 8001ee4:	1809883a 	mov	r4,r3
 8001ee8:	01400144 	movi	r5,5
 8001eec:	100d883a 	mov	r6,r2
 8001ef0:	800039c0 	call	800039c <GetInputString>

      if(entry[0] == 'q')
 8001ef4:	e0bff903 	ldbu	r2,-28(fp)
 8001ef8:	10803fcc 	andi	r2,r2,255
 8001efc:	1080201c 	xori	r2,r2,128
 8001f00:	10bfe004 	addi	r2,r2,-128
 8001f04:	10801c58 	cmpnei	r2,r2,113
 8001f08:	1000031e 	bne	r2,zero,8001f18 <FlashFindErasedBlocks+0x1c0>
      {
    		block_index = QUIT_WITHOUT_TESTING;
 8001f0c:	00bfffc4 	movi	r2,-1
 8001f10:	e0bff715 	stw	r2,-36(fp)
    		break;
 8001f14:	00002906 	br	8001fbc <FlashFindErasedBlocks+0x264>
    	}
      else if(sscanf(entry, "%d\n", &block))
 8001f18:	e0fff904 	addi	r3,fp,-28
 8001f1c:	e0bffb04 	addi	r2,fp,-20
 8001f20:	1809883a 	mov	r4,r3
 8001f24:	014200b4 	movhi	r5,2050
 8001f28:	29715804 	addi	r5,r5,-15008
 8001f2c:	100d883a 	mov	r6,r2
 8001f30:	800315c0 	call	800315c <sscanf>
 8001f34:	10001526 	beq	r2,zero,8001f8c <FlashFindErasedBlocks+0x234>
      {
        if ((block >= 0) && (block <= (regions->number_of_blocks - 1)))
 8001f38:	e0bffd17 	ldw	r2,-12(fp)
 8001f3c:	10800217 	ldw	r2,8(r2)
 8001f40:	10bfffc4 	addi	r2,r2,-1
 8001f44:	1007883a 	mov	r3,r2
 8001f48:	e0bffb17 	ldw	r2,-20(fp)
 8001f4c:	18800336 	bltu	r3,r2,8001f5c <FlashFindErasedBlocks+0x204>
        {
        	block_index = block;
 8001f50:	e0bffb17 	ldw	r2,-20(fp)
 8001f54:	e0bff715 	stw	r2,-36(fp)
        	break;
 8001f58:	00001806 	br	8001fbc <FlashFindErasedBlocks+0x264>
        }
        else 
        {
          printf(" -Block number entered is %d\n", block);
 8001f5c:	e0bffb17 	ldw	r2,-20(fp)
 8001f60:	010200b4 	movhi	r4,2050
 8001f64:	21315e04 	addi	r4,r4,-14984
 8001f68:	100b883a 	mov	r5,r2
 8001f6c:	8002f580 	call	8002f58 <printf>
          printf(" -Block number must be between 0 and %d.\n", (regions->number_of_blocks - 1));
 8001f70:	e0bffd17 	ldw	r2,-12(fp)
 8001f74:	10800217 	ldw	r2,8(r2)
 8001f78:	10bfffc4 	addi	r2,r2,-1
 8001f7c:	010200b4 	movhi	r4,2050
 8001f80:	21316604 	addi	r4,r4,-14952
 8001f84:	100b883a 	mov	r5,r2
 8001f88:	8002f580 	call	8002f58 <printf>
        }
      }    	
    }
    /* Break out of the region loop if we've found an erased block to test. */
    if(block_erased && (mode == TEST))
 8001f8c:	e0bff817 	ldw	r2,-32(fp)
 8001f90:	10000426 	beq	r2,zero,8001fa4 <FlashFindErasedBlocks+0x24c>
 8001f94:	e0bfff17 	ldw	r2,-4(fp)
 8001f98:	10800058 	cmpnei	r2,r2,1
 8001f9c:	1000011e 	bne	r2,zero,8001fa4 <FlashFindErasedBlocks+0x24c>
      break;
 8001fa0:	00000606 	br	8001fbc <FlashFindErasedBlocks+0x264>
  char entry[5];
  unsigned int block;

  /* Currently only supports flashes with 1 region, but region loop is left here for possible */
  /* future implementation */
  for(region_index = 0; region_index < number_of_regions; region_index++)
 8001fa4:	e0bff617 	ldw	r2,-40(fp)
 8001fa8:	10800044 	addi	r2,r2,1
 8001fac:	e0bff615 	stw	r2,-40(fp)
 8001fb0:	e0fff617 	ldw	r3,-40(fp)
 8001fb4:	e0bffe17 	ldw	r2,-8(fp)
 8001fb8:	18bf7216 	blt	r3,r2,8001d84 <__alt_data_end+0xf8001d84>
    /* Break out of the region loop if we've found an erased block to test. */
    if(block_erased && (mode == TEST))
      break;
  }

  return block_index;
 8001fbc:	e0bff717 	ldw	r2,-36(fp)
}
 8001fc0:	e037883a 	mov	sp,fp
 8001fc4:	dfc00117 	ldw	ra,4(sp)
 8001fc8:	df000017 	ldw	fp,0(sp)
 8001fcc:	dec00204 	addi	sp,sp,8
 8001fd0:	f800283a 	ret

08001fd4 <TestFlash>:
*           indicates which ones are erased.  The flash is closed
*           at the end of the function.
* 
******************************************************************/
static void TestFlash(int mode, int flash_type)
{
 8001fd4:	deffeb04 	addi	sp,sp,-84
 8001fd8:	dfc01415 	stw	ra,80(sp)
 8001fdc:	df001315 	stw	fp,76(sp)
 8001fe0:	df001304 	addi	fp,sp,76
 8001fe4:	e13ffe15 	stw	r4,-8(fp)
 8001fe8:	e17fff15 	stw	r5,-4(fp)
  alt_flash_fd* fd;
  int number_of_regions;
  int block;
  flash_region* regions;
  int ret_code = 0x0;
 8001fec:	e03fed15 	stw	zero,-76(fp)
  char entry[4];
  char flashname[30];
  
  ret_code = GetFlashName(flashname, flash_type);
 8001ff0:	e0bff604 	addi	r2,fp,-40
 8001ff4:	1009883a 	mov	r4,r2
 8001ff8:	e17fff17 	ldw	r5,-4(fp)
 8001ffc:	80018480 	call	8001848 <GetFlashName>
 8002000:	e0bfed15 	stw	r2,-76(fp)

  fd = alt_flash_open_dev(flashname);
 8002004:	e0bff604 	addi	r2,fp,-40
 8002008:	1009883a 	mov	r4,r2
 800200c:	80184dc0 	call	80184dc <alt_flash_open_dev>
 8002010:	e0bfee15 	stw	r2,-72(fp)
  if (fd)
 8002014:	e0bfee17 	ldw	r2,-72(fp)
 8002018:	10005926 	beq	r2,zero,8002180 <TestFlash+0x1ac>
  {
    printf(" -Successfully opened %s\n", flashname);
 800201c:	e0bff604 	addi	r2,fp,-40
 8002020:	010200b4 	movhi	r4,2050
 8002024:	2131c104 	addi	r4,r4,-14588
 8002028:	100b883a 	mov	r5,r2
 800202c:	8002f580 	call	8002f58 <printf>
 8002030:	e0bfee17 	ldw	r2,-72(fp)
 8002034:	e0bff015 	stw	r2,-64(fp)
 8002038:	e0bff404 	addi	r2,fp,-48
 800203c:	e0bff115 	stw	r2,-60(fp)
 8002040:	e0bff304 	addi	r2,fp,-52
 8002044:	e0bff215 	stw	r2,-56(fp)
 */
static __inline__ int __attribute__ ((always_inline)) alt_get_flash_info( 
                                      alt_flash_fd* fd, flash_region** info, 
                                      int* number_of_regions)
{
  return fd->get_info( fd, info, number_of_regions);
 8002048:	e0bff017 	ldw	r2,-64(fp)
 800204c:	10800717 	ldw	r2,28(r2)
 8002050:	e13ff017 	ldw	r4,-64(fp)
 8002054:	e17ff117 	ldw	r5,-60(fp)
 8002058:	e1bff217 	ldw	r6,-56(fp)
 800205c:	103ee83a 	callr	r2
    
    /* Get some useful info about the flash */
    ret_code = alt_get_flash_info(fd, &regions, &number_of_regions);
 8002060:	e0bfed15 	stw	r2,-76(fp)
      
    if (!ret_code)
 8002064:	e0bfed17 	ldw	r2,-76(fp)
 8002068:	10004a1e 	bne	r2,zero,8002194 <TestFlash+0x1c0>
    {
      printf(" -Region 0 contains %d blocks.\n", regions->number_of_blocks);
 800206c:	e0bff417 	ldw	r2,-48(fp)
 8002070:	10800217 	ldw	r2,8(r2)
 8002074:	010200b4 	movhi	r4,2050
 8002078:	2131c804 	addi	r4,r4,-14560
 800207c:	100b883a 	mov	r5,r2
 8002080:	8002f580 	call	8002f58 <printf>
      
      block = FlashFindErasedBlocks(fd, regions, number_of_regions, mode);
 8002084:	e0fff417 	ldw	r3,-48(fp)
 8002088:	e0bff317 	ldw	r2,-52(fp)
 800208c:	e13fee17 	ldw	r4,-72(fp)
 8002090:	180b883a 	mov	r5,r3
 8002094:	100d883a 	mov	r6,r2
 8002098:	e1fffe17 	ldw	r7,-8(fp)
 800209c:	8001d580 	call	8001d58 <FlashFindErasedBlocks>
 80020a0:	e0bfef15 	stw	r2,-68(fp)

      /* If we're in TEST mode, ask if this block is okay to test. */
      if(( mode == TEST ) && ( block != QUIT_WITHOUT_TESTING ))
 80020a4:	e0bffe17 	ldw	r2,-8(fp)
 80020a8:	10800058 	cmpnei	r2,r2,1
 80020ac:	1000391e 	bne	r2,zero,8002194 <TestFlash+0x1c0>
 80020b0:	e0bfef17 	ldw	r2,-68(fp)
 80020b4:	10bfffe0 	cmpeqi	r2,r2,-1
 80020b8:	1000361e 	bne	r2,zero,8002194 <TestFlash+0x1c0>
      {
        printf(" -Block %d, at address 0x%X identified.\n", block, (regions->offset + (block * regions->block_size)));
 80020bc:	e0bff417 	ldw	r2,-48(fp)
 80020c0:	10c00017 	ldw	r3,0(r2)
 80020c4:	e0bff417 	ldw	r2,-48(fp)
 80020c8:	11000317 	ldw	r4,12(r2)
 80020cc:	e0bfef17 	ldw	r2,-68(fp)
 80020d0:	2085383a 	mul	r2,r4,r2
 80020d4:	1885883a 	add	r2,r3,r2
 80020d8:	010200b4 	movhi	r4,2050
 80020dc:	2131d004 	addi	r4,r4,-14528
 80020e0:	e17fef17 	ldw	r5,-68(fp)
 80020e4:	100d883a 	mov	r6,r2
 80020e8:	8002f580 	call	8002f58 <printf>
        printf(" -Would you like to test this block? (y/n)");
 80020ec:	010200b4 	movhi	r4,2050
 80020f0:	2131db04 	addi	r4,r4,-14484
 80020f4:	8002f580 	call	8002f58 <printf>

        GetInputString(entry, sizeof(entry), stdin);
 80020f8:	008200b4 	movhi	r2,2050
 80020fc:	10bab604 	addi	r2,r2,-5416
 8002100:	10800017 	ldw	r2,0(r2)
 8002104:	10800117 	ldw	r2,4(r2)
 8002108:	e0fff504 	addi	r3,fp,-44
 800210c:	1809883a 	mov	r4,r3
 8002110:	01400104 	movi	r5,4
 8002114:	100d883a 	mov	r6,r2
 8002118:	800039c0 	call	800039c <GetInputString>

        if ( entry[0] == 'y' && entry[1] == '\n' )
 800211c:	e0bff503 	ldbu	r2,-44(fp)
 8002120:	10803fcc 	andi	r2,r2,255
 8002124:	1080201c 	xori	r2,r2,128
 8002128:	10bfe004 	addi	r2,r2,-128
 800212c:	10801e58 	cmpnei	r2,r2,121
 8002130:	1000181e 	bne	r2,zero,8002194 <TestFlash+0x1c0>
 8002134:	e0bff543 	ldbu	r2,-43(fp)
 8002138:	10803fcc 	andi	r2,r2,255
 800213c:	1080201c 	xori	r2,r2,128
 8002140:	10bfe004 	addi	r2,r2,-128
 8002144:	10800298 	cmpnei	r2,r2,10
 8002148:	1000121e 	bne	r2,zero,8002194 <TestFlash+0x1c0>
        {
          /* Test that Flash! */
          FlashRunTests(fd, block, regions);
 800214c:	e0bff417 	ldw	r2,-48(fp)
 8002150:	e13fee17 	ldw	r4,-72(fp)
 8002154:	e17fef17 	ldw	r5,-68(fp)
 8002158:	100d883a 	mov	r6,r2
 800215c:	80016f80 	call	80016f8 <FlashRunTests>
          printf(" -Closing flash device \"%s\".\n", flashname);
 8002160:	e0bff604 	addi	r2,fp,-40
 8002164:	010200b4 	movhi	r4,2050
 8002168:	2131e604 	addi	r4,r4,-14440
 800216c:	100b883a 	mov	r5,r2
 8002170:	8002f580 	call	8002f58 <printf>
          alt_flash_close_dev(fd);
 8002174:	e13fee17 	ldw	r4,-72(fp)
 8002178:	80185440 	call	8018544 <alt_flash_close_dev>
 800217c:	00000506 	br	8002194 <TestFlash+0x1c0>
      }
    }
  }
  else
  {
    printf(" -ERROR: Could not open %s\n", flashname);   
 8002180:	e0bff604 	addi	r2,fp,-40
 8002184:	010200b4 	movhi	r4,2050
 8002188:	2131ee04 	addi	r4,r4,-14408
 800218c:	100b883a 	mov	r5,r2
 8002190:	8002f580 	call	8002f58 <printf>
  }
}
 8002194:	e037883a 	mov	sp,fp
 8002198:	dfc00117 	ldw	ra,4(sp)
 800219c:	df000017 	ldw	fp,0(sp)
 80021a0:	dec00204 	addi	sp,sp,8
 80021a4:	f800283a 	ret

080021a8 <TopMenu>:
*
*  Purpose: Generates the top level menu.
* 
******************************************************************/
static int TopMenu( void )
{
 80021a8:	defffd04 	addi	sp,sp,-12
 80021ac:	dfc00215 	stw	ra,8(sp)
 80021b0:	df000115 	stw	fp,4(sp)
 80021b4:	df000104 	addi	fp,sp,4
  char ch;

  /* Print the top-level menu to stdout */
  while (1)
  {
    MenuBegin("      Memory Test Main Menu");
 80021b8:	010200b4 	movhi	r4,2050
 80021bc:	2131f504 	addi	r4,r4,-14380
 80021c0:	80003000 	call	8000300 <MenuBegin>
    MenuItem( 'a', "Test RAM" );
 80021c4:	01001844 	movi	r4,97
 80021c8:	014200b4 	movhi	r5,2050
 80021cc:	2971fc04 	addi	r5,r5,-14352
 80021d0:	80003540 	call	8000354 <MenuItem>
    MenuItem( 'b', "Test Flash");
 80021d4:	01001884 	movi	r4,98
 80021d8:	014200b4 	movhi	r5,2050
 80021dc:	2971ff04 	addi	r5,r5,-14340
 80021e0:	80003540 	call	8000354 <MenuItem>
#ifdef EPCS_CONTROLLER_NAME    
    MenuItem( 'c', "Test EPCS Serial Flash");
    ch = MenuEnd( 'a', 'c' );    
#else
    ch = MenuEnd( 'a', 'b' );
 80021e4:	01001844 	movi	r4,97
 80021e8:	01401884 	movi	r5,98
 80021ec:	80004280 	call	8000428 <MenuEnd>
 80021f0:	e0bfff05 	stb	r2,-4(fp)
#endif /* EPCS_CONTROLLER_NAME */

    switch(ch)
 80021f4:	e0bfff07 	ldb	r2,-4(fp)
 80021f8:	10bfe7c4 	addi	r2,r2,-97
 80021fc:	10c00468 	cmpgeui	r3,r2,17
 8002200:	1800241e 	bne	r3,zero,8002294 <TopMenu+0xec>
 8002204:	100690ba 	slli	r3,r2,2
 8002208:	00820034 	movhi	r2,2048
 800220c:	10888704 	addi	r2,r2,8732
 8002210:	1885883a 	add	r2,r3,r2
 8002214:	10800017 	ldw	r2,0(r2)
 8002218:	1000683a 	jmp	r2
 800221c:	08002260 	cmpeqi	zero,at,137
 8002220:	08002268 	cmpgeui	zero,at,137
 8002224:	08002294 	ori	zero,at,138
 8002228:	08002294 	ori	zero,at,138
 800222c:	08002278 	rdprs	zero,at,137
 8002230:	08002294 	ori	zero,at,138
 8002234:	08002294 	ori	zero,at,138
 8002238:	08002294 	ori	zero,at,138
 800223c:	08002294 	ori	zero,at,138
 8002240:	08002294 	ori	zero,at,138
 8002244:	08002294 	ori	zero,at,138
 8002248:	08002294 	ori	zero,at,138
 800224c:	08002284 	addi	zero,at,138
 8002250:	08002294 	ori	zero,at,138
 8002254:	08002294 	ori	zero,at,138
 8002258:	08002294 	ori	zero,at,138
 800225c:	080022ac 	andhi	zero,at,138
    {
      MenuCase('a',TestRam());
 8002260:	8000c700 	call	8000c70 <TestRam>
 8002264:	00001206 	br	80022b0 <TopMenu+0x108>
      MenuCase('b',TestFlash(TEST, CFI));
 8002268:	01000044 	movi	r4,1
 800226c:	014000c4 	movi	r5,3
 8002270:	8001fd40 	call	8001fd4 <TestFlash>
 8002274:	00000e06 	br	80022b0 <TopMenu+0x108>
      MenuCase('e',FlashErase(CFI));       /* hidden option */
 8002278:	010000c4 	movi	r4,3
 800227c:	80019cc0 	call	80019cc <FlashErase>
 8002280:	00000b06 	br	80022b0 <TopMenu+0x108>
      MenuCase('m',TestFlash(SHOWMAP, CFI)); /* hidden option */
 8002284:	01000084 	movi	r4,2
 8002288:	014000c4 	movi	r5,3
 800228c:	8001fd40 	call	8001fd4 <TestFlash>
 8002290:	00000706 	br	80022b0 <TopMenu+0x108>
      MenuCase('c',TestFlash(TEST, EPCS));
      MenuCase('f',FlashErase(EPCS));       /* hidden option */
      MenuCase('s',TestFlash(SHOWMAP, EPCS)); /* hidden option */
#endif /* EPCS_CONTROLLER_NAME */
      case 'q':	break;
      default:	printf("\n -ERROR: %c is an invalid entry.  Please try again\n", ch); break;
 8002294:	e0bfff07 	ldb	r2,-4(fp)
 8002298:	010200b4 	movhi	r4,2050
 800229c:	21320204 	addi	r4,r4,-14328
 80022a0:	100b883a 	mov	r5,r2
 80022a4:	8002f580 	call	8002f58 <printf>
 80022a8:	00000106 	br	80022b0 <TopMenu+0x108>
#ifdef EPCS_CONTROLLER_NAME    
      MenuCase('c',TestFlash(TEST, EPCS));
      MenuCase('f',FlashErase(EPCS));       /* hidden option */
      MenuCase('s',TestFlash(SHOWMAP, EPCS)); /* hidden option */
#endif /* EPCS_CONTROLLER_NAME */
      case 'q':	break;
 80022ac:	0001883a 	nop
      default:	printf("\n -ERROR: %c is an invalid entry.  Please try again\n", ch); break;
    }
    if (ch == 'q')
 80022b0:	e0bfff07 	ldb	r2,-4(fp)
 80022b4:	10801c58 	cmpnei	r2,r2,113
 80022b8:	1000011e 	bne	r2,zero,80022c0 <TopMenu+0x118>
      break;
 80022bc:	00001206 	br	8002308 <TopMenu+0x160>
    printf("\nPress enter to continue...\n");
 80022c0:	010200b4 	movhi	r4,2050
 80022c4:	21321004 	addi	r4,r4,-14272
 80022c8:	800306c0 	call	800306c <puts>
    while( (( ch = getc(stdin)) != '\n' ) && ( ch != EOF ));
 80022cc:	0001883a 	nop
 80022d0:	008200b4 	movhi	r2,2050
 80022d4:	10bab604 	addi	r2,r2,-5416
 80022d8:	10800017 	ldw	r2,0(r2)
 80022dc:	10800117 	ldw	r2,4(r2)
 80022e0:	1009883a 	mov	r4,r2
 80022e4:	80025200 	call	8002520 <getc>
 80022e8:	e0bfff05 	stb	r2,-4(fp)
 80022ec:	e0bfff07 	ldb	r2,-4(fp)
 80022f0:	108002a0 	cmpeqi	r2,r2,10
 80022f4:	1000031e 	bne	r2,zero,8002304 <TopMenu+0x15c>
 80022f8:	e0bfff07 	ldb	r2,-4(fp)
 80022fc:	10bfffd8 	cmpnei	r2,r2,-1
 8002300:	103ff31e 	bne	r2,zero,80022d0 <__alt_data_end+0xf80022d0>

  }
 8002304:	003fac06 	br	80021b8 <__alt_data_end+0xf80021b8>
  return (ch);
 8002308:	e0bfff07 	ldb	r2,-4(fp)
}
 800230c:	e037883a 	mov	sp,fp
 8002310:	dfc00117 	ldw	ra,4(sp)
 8002314:	df000017 	ldw	fp,0(sp)
 8002318:	dec00204 	addi	sp,sp,8
 800231c:	f800283a 	ret

08002320 <main>:
*  Purpose: Continually prints the menu and performs the actions
*           requested by the user.
* 
******************************************************************/
int main(void)
{
 8002320:	defffd04 	addi	sp,sp,-12
 8002324:	dfc00215 	stw	ra,8(sp)
 8002328:	df000115 	stw	fp,4(sp)
 800232c:	df000104 	addi	fp,sp,4

  int ch;

  /* Print the Header */
  MenuHeader();
 8002330:	80002880 	call	8000288 <MenuHeader>
  /* Print the menu and do what the user requests, until they hit 'q' */
  while (1)
  {
    ch = TopMenu();
 8002334:	80021a80 	call	80021a8 <TopMenu>
 8002338:	e0bfff15 	stw	r2,-4(fp)
    if (ch == 'q')
 800233c:	e0bfff17 	ldw	r2,-4(fp)
 8002340:	10801c58 	cmpnei	r2,r2,113
 8002344:	1000041e 	bne	r2,zero,8002358 <main+0x38>
    {
      printf( "\nExiting from Memory Test.\n");
 8002348:	010200b4 	movhi	r4,2050
 800234c:	21321704 	addi	r4,r4,-14244
 8002350:	800306c0 	call	800306c <puts>
      break;
 8002354:	00000106 	br	800235c <main+0x3c>
    }
  }
 8002358:	003ff606 	br	8002334 <__alt_data_end+0xf8002334>
  return (0);
 800235c:	0005883a 	mov	r2,zero
}
 8002360:	e037883a 	mov	sp,fp
 8002364:	dfc00117 	ldw	ra,4(sp)
 8002368:	df000017 	ldw	fp,0(sp)
 800236c:	dec00204 	addi	sp,sp,8
 8002370:	f800283a 	ret

08002374 <udivmodsi4>:
 8002374:	2900182e 	bgeu	r5,r4,80023d8 <udivmodsi4+0x64>
 8002378:	28001716 	blt	r5,zero,80023d8 <udivmodsi4+0x64>
 800237c:	00800804 	movi	r2,32
 8002380:	00c00044 	movi	r3,1
 8002384:	00000206 	br	8002390 <udivmodsi4+0x1c>
 8002388:	10001126 	beq	r2,zero,80023d0 <udivmodsi4+0x5c>
 800238c:	28000516 	blt	r5,zero,80023a4 <udivmodsi4+0x30>
 8002390:	294b883a 	add	r5,r5,r5
 8002394:	10bfffc4 	addi	r2,r2,-1
 8002398:	18c7883a 	add	r3,r3,r3
 800239c:	293ffa36 	bltu	r5,r4,8002388 <__alt_data_end+0xf8002388>
 80023a0:	18000b26 	beq	r3,zero,80023d0 <udivmodsi4+0x5c>
 80023a4:	0005883a 	mov	r2,zero
 80023a8:	21400236 	bltu	r4,r5,80023b4 <udivmodsi4+0x40>
 80023ac:	2149c83a 	sub	r4,r4,r5
 80023b0:	10c4b03a 	or	r2,r2,r3
 80023b4:	1806d07a 	srli	r3,r3,1
 80023b8:	280ad07a 	srli	r5,r5,1
 80023bc:	183ffa1e 	bne	r3,zero,80023a8 <__alt_data_end+0xf80023a8>
 80023c0:	3000011e 	bne	r6,zero,80023c8 <udivmodsi4+0x54>
 80023c4:	f800283a 	ret
 80023c8:	2005883a 	mov	r2,r4
 80023cc:	f800283a 	ret
 80023d0:	0005883a 	mov	r2,zero
 80023d4:	003ffa06 	br	80023c0 <__alt_data_end+0xf80023c0>
 80023d8:	00c00044 	movi	r3,1
 80023dc:	003ff106 	br	80023a4 <__alt_data_end+0xf80023a4>

080023e0 <__divsi3>:
 80023e0:	defffe04 	addi	sp,sp,-8
 80023e4:	dfc00115 	stw	ra,4(sp)
 80023e8:	dc000015 	stw	r16,0(sp)
 80023ec:	20000b16 	blt	r4,zero,800241c <__divsi3+0x3c>
 80023f0:	0021883a 	mov	r16,zero
 80023f4:	28000c16 	blt	r5,zero,8002428 <__divsi3+0x48>
 80023f8:	000d883a 	mov	r6,zero
 80023fc:	80023740 	call	8002374 <udivmodsi4>
 8002400:	0407c83a 	sub	r3,zero,r16
 8002404:	1884f03a 	xor	r2,r3,r2
 8002408:	1405883a 	add	r2,r2,r16
 800240c:	dfc00117 	ldw	ra,4(sp)
 8002410:	dc000017 	ldw	r16,0(sp)
 8002414:	dec00204 	addi	sp,sp,8
 8002418:	f800283a 	ret
 800241c:	0109c83a 	sub	r4,zero,r4
 8002420:	04000044 	movi	r16,1
 8002424:	283ff40e 	bge	r5,zero,80023f8 <__alt_data_end+0xf80023f8>
 8002428:	014bc83a 	sub	r5,zero,r5
 800242c:	8400005c 	xori	r16,r16,1
 8002430:	003ff106 	br	80023f8 <__alt_data_end+0xf80023f8>

08002434 <__modsi3>:
 8002434:	defffd04 	addi	sp,sp,-12
 8002438:	dfc00215 	stw	ra,8(sp)
 800243c:	dc400115 	stw	r17,4(sp)
 8002440:	dc000015 	stw	r16,0(sp)
 8002444:	20000c16 	blt	r4,zero,8002478 <__modsi3+0x44>
 8002448:	0023883a 	mov	r17,zero
 800244c:	0021883a 	mov	r16,zero
 8002450:	28000d16 	blt	r5,zero,8002488 <__modsi3+0x54>
 8002454:	01800044 	movi	r6,1
 8002458:	80023740 	call	8002374 <udivmodsi4>
 800245c:	1404f03a 	xor	r2,r2,r16
 8002460:	8885883a 	add	r2,r17,r2
 8002464:	dfc00217 	ldw	ra,8(sp)
 8002468:	dc400117 	ldw	r17,4(sp)
 800246c:	dc000017 	ldw	r16,0(sp)
 8002470:	dec00304 	addi	sp,sp,12
 8002474:	f800283a 	ret
 8002478:	0109c83a 	sub	r4,zero,r4
 800247c:	04400044 	movi	r17,1
 8002480:	043fffc4 	movi	r16,-1
 8002484:	283ff30e 	bge	r5,zero,8002454 <__alt_data_end+0xf8002454>
 8002488:	014bc83a 	sub	r5,zero,r5
 800248c:	003ff106 	br	8002454 <__alt_data_end+0xf8002454>

08002490 <__udivsi3>:
 8002490:	000d883a 	mov	r6,zero
 8002494:	80023741 	jmpi	8002374 <udivmodsi4>

08002498 <__umodsi3>:
 8002498:	01800044 	movi	r6,1
 800249c:	80023741 	jmpi	8002374 <udivmodsi4>

080024a0 <_getc_r>:
 80024a0:	defffd04 	addi	sp,sp,-12
 80024a4:	dc400115 	stw	r17,4(sp)
 80024a8:	dc000015 	stw	r16,0(sp)
 80024ac:	dfc00215 	stw	ra,8(sp)
 80024b0:	2023883a 	mov	r17,r4
 80024b4:	2821883a 	mov	r16,r5
 80024b8:	20000226 	beq	r4,zero,80024c4 <_getc_r+0x24>
 80024bc:	20800e17 	ldw	r2,56(r4)
 80024c0:	10001026 	beq	r2,zero,8002504 <_getc_r+0x64>
 80024c4:	8008c6c0 	call	8008c6c <__sfp_lock_acquire>
 80024c8:	80800117 	ldw	r2,4(r16)
 80024cc:	10bfffc4 	addi	r2,r2,-1
 80024d0:	80800115 	stw	r2,4(r16)
 80024d4:	10000d16 	blt	r2,zero,800250c <_getc_r+0x6c>
 80024d8:	80800017 	ldw	r2,0(r16)
 80024dc:	10c00044 	addi	r3,r2,1
 80024e0:	80c00015 	stw	r3,0(r16)
 80024e4:	14000003 	ldbu	r16,0(r2)
 80024e8:	8008c700 	call	8008c70 <__sfp_lock_release>
 80024ec:	8005883a 	mov	r2,r16
 80024f0:	dfc00217 	ldw	ra,8(sp)
 80024f4:	dc400117 	ldw	r17,4(sp)
 80024f8:	dc000017 	ldw	r16,0(sp)
 80024fc:	dec00304 	addi	sp,sp,12
 8002500:	f800283a 	ret
 8002504:	8008c5c0 	call	8008c5c <__sinit>
 8002508:	003fee06 	br	80024c4 <__alt_data_end+0xf80024c4>
 800250c:	800b883a 	mov	r5,r16
 8002510:	8809883a 	mov	r4,r17
 8002514:	80030800 	call	8003080 <__srget_r>
 8002518:	1021883a 	mov	r16,r2
 800251c:	003ff206 	br	80024e8 <__alt_data_end+0xf80024e8>

08002520 <getc>:
 8002520:	defffd04 	addi	sp,sp,-12
 8002524:	dc400115 	stw	r17,4(sp)
 8002528:	044200b4 	movhi	r17,2050
 800252c:	8c7ab604 	addi	r17,r17,-5416
 8002530:	dc000015 	stw	r16,0(sp)
 8002534:	2021883a 	mov	r16,r4
 8002538:	89000017 	ldw	r4,0(r17)
 800253c:	dfc00215 	stw	ra,8(sp)
 8002540:	20000226 	beq	r4,zero,800254c <getc+0x2c>
 8002544:	20800e17 	ldw	r2,56(r4)
 8002548:	10001026 	beq	r2,zero,800258c <getc+0x6c>
 800254c:	8008c6c0 	call	8008c6c <__sfp_lock_acquire>
 8002550:	80800117 	ldw	r2,4(r16)
 8002554:	10bfffc4 	addi	r2,r2,-1
 8002558:	80800115 	stw	r2,4(r16)
 800255c:	10000d16 	blt	r2,zero,8002594 <getc+0x74>
 8002560:	80800017 	ldw	r2,0(r16)
 8002564:	10c00044 	addi	r3,r2,1
 8002568:	80c00015 	stw	r3,0(r16)
 800256c:	14000003 	ldbu	r16,0(r2)
 8002570:	8008c700 	call	8008c70 <__sfp_lock_release>
 8002574:	8005883a 	mov	r2,r16
 8002578:	dfc00217 	ldw	ra,8(sp)
 800257c:	dc400117 	ldw	r17,4(sp)
 8002580:	dc000017 	ldw	r16,0(sp)
 8002584:	dec00304 	addi	sp,sp,12
 8002588:	f800283a 	ret
 800258c:	8008c5c0 	call	8008c5c <__sinit>
 8002590:	003fee06 	br	800254c <__alt_data_end+0xf800254c>
 8002594:	89000017 	ldw	r4,0(r17)
 8002598:	800b883a 	mov	r5,r16
 800259c:	80030800 	call	8003080 <__srget_r>
 80025a0:	1021883a 	mov	r16,r2
 80025a4:	003ff206 	br	8002570 <__alt_data_end+0xf8002570>

080025a8 <malloc>:
 80025a8:	008200b4 	movhi	r2,2050
 80025ac:	10bab604 	addi	r2,r2,-5416
 80025b0:	200b883a 	mov	r5,r4
 80025b4:	11000017 	ldw	r4,0(r2)
 80025b8:	80025d01 	jmpi	80025d0 <_malloc_r>

080025bc <free>:
 80025bc:	008200b4 	movhi	r2,2050
 80025c0:	10bab604 	addi	r2,r2,-5416
 80025c4:	200b883a 	mov	r5,r4
 80025c8:	11000017 	ldw	r4,0(r2)
 80025cc:	8008dd01 	jmpi	8008dd0 <_free_r>

080025d0 <_malloc_r>:
 80025d0:	defff504 	addi	sp,sp,-44
 80025d4:	dc800315 	stw	r18,12(sp)
 80025d8:	dfc00a15 	stw	ra,40(sp)
 80025dc:	df000915 	stw	fp,36(sp)
 80025e0:	ddc00815 	stw	r23,32(sp)
 80025e4:	dd800715 	stw	r22,28(sp)
 80025e8:	dd400615 	stw	r21,24(sp)
 80025ec:	dd000515 	stw	r20,20(sp)
 80025f0:	dcc00415 	stw	r19,16(sp)
 80025f4:	dc400215 	stw	r17,8(sp)
 80025f8:	dc000115 	stw	r16,4(sp)
 80025fc:	288002c4 	addi	r2,r5,11
 8002600:	00c00584 	movi	r3,22
 8002604:	2025883a 	mov	r18,r4
 8002608:	18802a2e 	bgeu	r3,r2,80026b4 <_malloc_r+0xe4>
 800260c:	047ffe04 	movi	r17,-8
 8002610:	1462703a 	and	r17,r2,r17
 8002614:	88009e16 	blt	r17,zero,8002890 <_malloc_r+0x2c0>
 8002618:	89409d36 	bltu	r17,r5,8002890 <_malloc_r+0x2c0>
 800261c:	80189240 	call	8018924 <__malloc_lock>
 8002620:	00807dc4 	movi	r2,503
 8002624:	14402736 	bltu	r2,r17,80026c4 <_malloc_r+0xf4>
 8002628:	8806d0fa 	srli	r3,r17,3
 800262c:	04c200b4 	movhi	r19,2050
 8002630:	9cf4cb04 	addi	r19,r19,-11476
 8002634:	18c5883a 	add	r2,r3,r3
 8002638:	1085883a 	add	r2,r2,r2
 800263c:	1085883a 	add	r2,r2,r2
 8002640:	9885883a 	add	r2,r19,r2
 8002644:	14000317 	ldw	r16,12(r2)
 8002648:	80814a26 	beq	r16,r2,8002b74 <_malloc_r+0x5a4>
 800264c:	80c00117 	ldw	r3,4(r16)
 8002650:	81000317 	ldw	r4,12(r16)
 8002654:	00bfff04 	movi	r2,-4
 8002658:	1884703a 	and	r2,r3,r2
 800265c:	81400217 	ldw	r5,8(r16)
 8002660:	8085883a 	add	r2,r16,r2
 8002664:	10c00117 	ldw	r3,4(r2)
 8002668:	29000315 	stw	r4,12(r5)
 800266c:	21400215 	stw	r5,8(r4)
 8002670:	18c00054 	ori	r3,r3,1
 8002674:	10c00115 	stw	r3,4(r2)
 8002678:	9009883a 	mov	r4,r18
 800267c:	80189440 	call	8018944 <__malloc_unlock>
 8002680:	80800204 	addi	r2,r16,8
 8002684:	dfc00a17 	ldw	ra,40(sp)
 8002688:	df000917 	ldw	fp,36(sp)
 800268c:	ddc00817 	ldw	r23,32(sp)
 8002690:	dd800717 	ldw	r22,28(sp)
 8002694:	dd400617 	ldw	r21,24(sp)
 8002698:	dd000517 	ldw	r20,20(sp)
 800269c:	dcc00417 	ldw	r19,16(sp)
 80026a0:	dc800317 	ldw	r18,12(sp)
 80026a4:	dc400217 	ldw	r17,8(sp)
 80026a8:	dc000117 	ldw	r16,4(sp)
 80026ac:	dec00b04 	addi	sp,sp,44
 80026b0:	f800283a 	ret
 80026b4:	04400404 	movi	r17,16
 80026b8:	89407536 	bltu	r17,r5,8002890 <_malloc_r+0x2c0>
 80026bc:	80189240 	call	8018924 <__malloc_lock>
 80026c0:	003fd906 	br	8002628 <__alt_data_end+0xf8002628>
 80026c4:	8806d27a 	srli	r3,r17,9
 80026c8:	18007526 	beq	r3,zero,80028a0 <_malloc_r+0x2d0>
 80026cc:	00800104 	movi	r2,4
 80026d0:	10c0ef36 	bltu	r2,r3,8002a90 <_malloc_r+0x4c0>
 80026d4:	8806d1ba 	srli	r3,r17,6
 80026d8:	19c00e04 	addi	r7,r3,56
 80026dc:	39cb883a 	add	r5,r7,r7
 80026e0:	04c200b4 	movhi	r19,2050
 80026e4:	294b883a 	add	r5,r5,r5
 80026e8:	9cf4cb04 	addi	r19,r19,-11476
 80026ec:	294b883a 	add	r5,r5,r5
 80026f0:	994b883a 	add	r5,r19,r5
 80026f4:	2c000317 	ldw	r16,12(r5)
 80026f8:	2c000e26 	beq	r5,r16,8002734 <_malloc_r+0x164>
 80026fc:	80800117 	ldw	r2,4(r16)
 8002700:	01bfff04 	movi	r6,-4
 8002704:	010003c4 	movi	r4,15
 8002708:	1184703a 	and	r2,r2,r6
 800270c:	1447c83a 	sub	r3,r2,r17
 8002710:	20c00716 	blt	r4,r3,8002730 <_malloc_r+0x160>
 8002714:	1800650e 	bge	r3,zero,80028ac <_malloc_r+0x2dc>
 8002718:	84000317 	ldw	r16,12(r16)
 800271c:	2c000526 	beq	r5,r16,8002734 <_malloc_r+0x164>
 8002720:	80800117 	ldw	r2,4(r16)
 8002724:	1184703a 	and	r2,r2,r6
 8002728:	1447c83a 	sub	r3,r2,r17
 800272c:	20fff90e 	bge	r4,r3,8002714 <__alt_data_end+0xf8002714>
 8002730:	39ffffc4 	addi	r7,r7,-1
 8002734:	38c00044 	addi	r3,r7,1
 8002738:	018200b4 	movhi	r6,2050
 800273c:	9c000417 	ldw	r16,16(r19)
 8002740:	31b4cb04 	addi	r6,r6,-11476
 8002744:	32400204 	addi	r9,r6,8
 8002748:	82410326 	beq	r16,r9,8002b58 <_malloc_r+0x588>
 800274c:	81000117 	ldw	r4,4(r16)
 8002750:	00bfff04 	movi	r2,-4
 8002754:	208e703a 	and	r7,r4,r2
 8002758:	3c45c83a 	sub	r2,r7,r17
 800275c:	010003c4 	movi	r4,15
 8002760:	2080ee16 	blt	r4,r2,8002b1c <_malloc_r+0x54c>
 8002764:	32400515 	stw	r9,20(r6)
 8002768:	32400415 	stw	r9,16(r6)
 800276c:	1000510e 	bge	r2,zero,80028b4 <_malloc_r+0x2e4>
 8002770:	00807fc4 	movi	r2,511
 8002774:	11c0ce36 	bltu	r2,r7,8002ab0 <_malloc_r+0x4e0>
 8002778:	3808d0fa 	srli	r4,r7,3
 800277c:	01c00044 	movi	r7,1
 8002780:	30800117 	ldw	r2,4(r6)
 8002784:	210b883a 	add	r5,r4,r4
 8002788:	294b883a 	add	r5,r5,r5
 800278c:	2009d0ba 	srai	r4,r4,2
 8002790:	294b883a 	add	r5,r5,r5
 8002794:	298b883a 	add	r5,r5,r6
 8002798:	2a000217 	ldw	r8,8(r5)
 800279c:	3908983a 	sll	r4,r7,r4
 80027a0:	81400315 	stw	r5,12(r16)
 80027a4:	82000215 	stw	r8,8(r16)
 80027a8:	2088b03a 	or	r4,r4,r2
 80027ac:	2c000215 	stw	r16,8(r5)
 80027b0:	31000115 	stw	r4,4(r6)
 80027b4:	44000315 	stw	r16,12(r8)
 80027b8:	1805d0ba 	srai	r2,r3,2
 80027bc:	01400044 	movi	r5,1
 80027c0:	288a983a 	sll	r5,r5,r2
 80027c4:	21404336 	bltu	r4,r5,80028d4 <_malloc_r+0x304>
 80027c8:	2144703a 	and	r2,r4,r5
 80027cc:	10000a1e 	bne	r2,zero,80027f8 <_malloc_r+0x228>
 80027d0:	00bfff04 	movi	r2,-4
 80027d4:	294b883a 	add	r5,r5,r5
 80027d8:	1886703a 	and	r3,r3,r2
 80027dc:	2144703a 	and	r2,r4,r5
 80027e0:	18c00104 	addi	r3,r3,4
 80027e4:	1000041e 	bne	r2,zero,80027f8 <_malloc_r+0x228>
 80027e8:	294b883a 	add	r5,r5,r5
 80027ec:	2144703a 	and	r2,r4,r5
 80027f0:	18c00104 	addi	r3,r3,4
 80027f4:	103ffc26 	beq	r2,zero,80027e8 <__alt_data_end+0xf80027e8>
 80027f8:	023fff04 	movi	r8,-4
 80027fc:	01c003c4 	movi	r7,15
 8002800:	18c5883a 	add	r2,r3,r3
 8002804:	1085883a 	add	r2,r2,r2
 8002808:	1085883a 	add	r2,r2,r2
 800280c:	9895883a 	add	r10,r19,r2
 8002810:	52c00304 	addi	r11,r10,12
 8002814:	1819883a 	mov	r12,r3
 8002818:	5c000017 	ldw	r16,0(r11)
 800281c:	59bffd04 	addi	r6,r11,-12
 8002820:	8180041e 	bne	r16,r6,8002834 <_malloc_r+0x264>
 8002824:	0000ce06 	br	8002b60 <_malloc_r+0x590>
 8002828:	2000d70e 	bge	r4,zero,8002b88 <_malloc_r+0x5b8>
 800282c:	84000317 	ldw	r16,12(r16)
 8002830:	8180cb26 	beq	r16,r6,8002b60 <_malloc_r+0x590>
 8002834:	80800117 	ldw	r2,4(r16)
 8002838:	1204703a 	and	r2,r2,r8
 800283c:	1449c83a 	sub	r4,r2,r17
 8002840:	393ff90e 	bge	r7,r4,8002828 <__alt_data_end+0xf8002828>
 8002844:	80800317 	ldw	r2,12(r16)
 8002848:	80c00217 	ldw	r3,8(r16)
 800284c:	89400054 	ori	r5,r17,1
 8002850:	81400115 	stw	r5,4(r16)
 8002854:	18800315 	stw	r2,12(r3)
 8002858:	10c00215 	stw	r3,8(r2)
 800285c:	8463883a 	add	r17,r16,r17
 8002860:	9c400515 	stw	r17,20(r19)
 8002864:	9c400415 	stw	r17,16(r19)
 8002868:	20800054 	ori	r2,r4,1
 800286c:	88800115 	stw	r2,4(r17)
 8002870:	8a400315 	stw	r9,12(r17)
 8002874:	8a400215 	stw	r9,8(r17)
 8002878:	8923883a 	add	r17,r17,r4
 800287c:	89000015 	stw	r4,0(r17)
 8002880:	9009883a 	mov	r4,r18
 8002884:	80189440 	call	8018944 <__malloc_unlock>
 8002888:	80800204 	addi	r2,r16,8
 800288c:	003f7d06 	br	8002684 <__alt_data_end+0xf8002684>
 8002890:	00800304 	movi	r2,12
 8002894:	90800015 	stw	r2,0(r18)
 8002898:	0005883a 	mov	r2,zero
 800289c:	003f7906 	br	8002684 <__alt_data_end+0xf8002684>
 80028a0:	01401f84 	movi	r5,126
 80028a4:	01c00fc4 	movi	r7,63
 80028a8:	003f8d06 	br	80026e0 <__alt_data_end+0xf80026e0>
 80028ac:	81000317 	ldw	r4,12(r16)
 80028b0:	003f6a06 	br	800265c <__alt_data_end+0xf800265c>
 80028b4:	81c5883a 	add	r2,r16,r7
 80028b8:	10c00117 	ldw	r3,4(r2)
 80028bc:	9009883a 	mov	r4,r18
 80028c0:	18c00054 	ori	r3,r3,1
 80028c4:	10c00115 	stw	r3,4(r2)
 80028c8:	80189440 	call	8018944 <__malloc_unlock>
 80028cc:	80800204 	addi	r2,r16,8
 80028d0:	003f6c06 	br	8002684 <__alt_data_end+0xf8002684>
 80028d4:	9c000217 	ldw	r16,8(r19)
 80028d8:	00bfff04 	movi	r2,-4
 80028dc:	85800117 	ldw	r22,4(r16)
 80028e0:	b0ac703a 	and	r22,r22,r2
 80028e4:	b4400336 	bltu	r22,r17,80028f4 <_malloc_r+0x324>
 80028e8:	b445c83a 	sub	r2,r22,r17
 80028ec:	00c003c4 	movi	r3,15
 80028f0:	18805d16 	blt	r3,r2,8002a68 <_malloc_r+0x498>
 80028f4:	05c200b4 	movhi	r23,2050
 80028f8:	008200b4 	movhi	r2,2050
 80028fc:	bdfab704 	addi	r23,r23,-5412
 8002900:	10bacd04 	addi	r2,r2,-5324
 8002904:	15400017 	ldw	r21,0(r2)
 8002908:	b9000017 	ldw	r4,0(r23)
 800290c:	00ffffc4 	movi	r3,-1
 8002910:	858d883a 	add	r6,r16,r22
 8002914:	8d6b883a 	add	r21,r17,r21
 8002918:	20c0e426 	beq	r4,r3,8002cac <_malloc_r+0x6dc>
 800291c:	ad4403c4 	addi	r21,r21,4111
 8002920:	00fc0004 	movi	r3,-4096
 8002924:	a8ea703a 	and	r21,r21,r3
 8002928:	9009883a 	mov	r4,r18
 800292c:	a80b883a 	mov	r5,r21
 8002930:	d9800015 	stw	r6,0(sp)
 8002934:	80031080 	call	8003108 <_sbrk_r>
 8002938:	00ffffc4 	movi	r3,-1
 800293c:	1029883a 	mov	r20,r2
 8002940:	d9800017 	ldw	r6,0(sp)
 8002944:	10c0a426 	beq	r2,r3,8002bd8 <_malloc_r+0x608>
 8002948:	1180a236 	bltu	r2,r6,8002bd4 <_malloc_r+0x604>
 800294c:	070200b4 	movhi	fp,2050
 8002950:	e73ad904 	addi	fp,fp,-5276
 8002954:	e0c00017 	ldw	r3,0(fp)
 8002958:	a8c7883a 	add	r3,r21,r3
 800295c:	e0c00015 	stw	r3,0(fp)
 8002960:	3500da26 	beq	r6,r20,8002ccc <_malloc_r+0x6fc>
 8002964:	b9000017 	ldw	r4,0(r23)
 8002968:	00bfffc4 	movi	r2,-1
 800296c:	2080e426 	beq	r4,r2,8002d00 <_malloc_r+0x730>
 8002970:	a185c83a 	sub	r2,r20,r6
 8002974:	1885883a 	add	r2,r3,r2
 8002978:	e0800015 	stw	r2,0(fp)
 800297c:	a0c001cc 	andi	r3,r20,7
 8002980:	1800b526 	beq	r3,zero,8002c58 <_malloc_r+0x688>
 8002984:	a0e9c83a 	sub	r20,r20,r3
 8002988:	00840204 	movi	r2,4104
 800298c:	a5000204 	addi	r20,r20,8
 8002990:	10c7c83a 	sub	r3,r2,r3
 8002994:	a545883a 	add	r2,r20,r21
 8002998:	1083ffcc 	andi	r2,r2,4095
 800299c:	18abc83a 	sub	r21,r3,r2
 80029a0:	9009883a 	mov	r4,r18
 80029a4:	a80b883a 	mov	r5,r21
 80029a8:	80031080 	call	8003108 <_sbrk_r>
 80029ac:	00ffffc4 	movi	r3,-1
 80029b0:	10c0d026 	beq	r2,r3,8002cf4 <_malloc_r+0x724>
 80029b4:	1507c83a 	sub	r3,r2,r20
 80029b8:	a8c7883a 	add	r3,r21,r3
 80029bc:	18c00054 	ori	r3,r3,1
 80029c0:	e0800017 	ldw	r2,0(fp)
 80029c4:	9d000215 	stw	r20,8(r19)
 80029c8:	a0c00115 	stw	r3,4(r20)
 80029cc:	a887883a 	add	r3,r21,r2
 80029d0:	e0c00015 	stw	r3,0(fp)
 80029d4:	84c00e26 	beq	r16,r19,8002a10 <_malloc_r+0x440>
 80029d8:	018003c4 	movi	r6,15
 80029dc:	3580a02e 	bgeu	r6,r22,8002c60 <_malloc_r+0x690>
 80029e0:	81400117 	ldw	r5,4(r16)
 80029e4:	013ffe04 	movi	r4,-8
 80029e8:	b0bffd04 	addi	r2,r22,-12
 80029ec:	1104703a 	and	r2,r2,r4
 80029f0:	2900004c 	andi	r4,r5,1
 80029f4:	1108b03a 	or	r4,r2,r4
 80029f8:	81000115 	stw	r4,4(r16)
 80029fc:	01400144 	movi	r5,5
 8002a00:	8089883a 	add	r4,r16,r2
 8002a04:	21400115 	stw	r5,4(r4)
 8002a08:	21400215 	stw	r5,8(r4)
 8002a0c:	3080c036 	bltu	r6,r2,8002d10 <_malloc_r+0x740>
 8002a10:	008200b4 	movhi	r2,2050
 8002a14:	10bacc04 	addi	r2,r2,-5328
 8002a18:	11000017 	ldw	r4,0(r2)
 8002a1c:	20c0012e 	bgeu	r4,r3,8002a24 <_malloc_r+0x454>
 8002a20:	10c00015 	stw	r3,0(r2)
 8002a24:	008200b4 	movhi	r2,2050
 8002a28:	10bacb04 	addi	r2,r2,-5332
 8002a2c:	11000017 	ldw	r4,0(r2)
 8002a30:	9c000217 	ldw	r16,8(r19)
 8002a34:	20c0012e 	bgeu	r4,r3,8002a3c <_malloc_r+0x46c>
 8002a38:	10c00015 	stw	r3,0(r2)
 8002a3c:	80c00117 	ldw	r3,4(r16)
 8002a40:	00bfff04 	movi	r2,-4
 8002a44:	1886703a 	and	r3,r3,r2
 8002a48:	1c45c83a 	sub	r2,r3,r17
 8002a4c:	1c400236 	bltu	r3,r17,8002a58 <_malloc_r+0x488>
 8002a50:	00c003c4 	movi	r3,15
 8002a54:	18800416 	blt	r3,r2,8002a68 <_malloc_r+0x498>
 8002a58:	9009883a 	mov	r4,r18
 8002a5c:	80189440 	call	8018944 <__malloc_unlock>
 8002a60:	0005883a 	mov	r2,zero
 8002a64:	003f0706 	br	8002684 <__alt_data_end+0xf8002684>
 8002a68:	88c00054 	ori	r3,r17,1
 8002a6c:	80c00115 	stw	r3,4(r16)
 8002a70:	8463883a 	add	r17,r16,r17
 8002a74:	10800054 	ori	r2,r2,1
 8002a78:	9c400215 	stw	r17,8(r19)
 8002a7c:	88800115 	stw	r2,4(r17)
 8002a80:	9009883a 	mov	r4,r18
 8002a84:	80189440 	call	8018944 <__malloc_unlock>
 8002a88:	80800204 	addi	r2,r16,8
 8002a8c:	003efd06 	br	8002684 <__alt_data_end+0xf8002684>
 8002a90:	00800504 	movi	r2,20
 8002a94:	10c0482e 	bgeu	r2,r3,8002bb8 <_malloc_r+0x5e8>
 8002a98:	00801504 	movi	r2,84
 8002a9c:	10c06836 	bltu	r2,r3,8002c40 <_malloc_r+0x670>
 8002aa0:	8806d33a 	srli	r3,r17,12
 8002aa4:	19c01b84 	addi	r7,r3,110
 8002aa8:	39cb883a 	add	r5,r7,r7
 8002aac:	003f0c06 	br	80026e0 <__alt_data_end+0xf80026e0>
 8002ab0:	3804d27a 	srli	r2,r7,9
 8002ab4:	01000104 	movi	r4,4
 8002ab8:	2080422e 	bgeu	r4,r2,8002bc4 <_malloc_r+0x5f4>
 8002abc:	01000504 	movi	r4,20
 8002ac0:	20807c36 	bltu	r4,r2,8002cb4 <_malloc_r+0x6e4>
 8002ac4:	110016c4 	addi	r4,r2,91
 8002ac8:	210b883a 	add	r5,r4,r4
 8002acc:	294b883a 	add	r5,r5,r5
 8002ad0:	294b883a 	add	r5,r5,r5
 8002ad4:	994b883a 	add	r5,r19,r5
 8002ad8:	28800217 	ldw	r2,8(r5)
 8002adc:	020200b4 	movhi	r8,2050
 8002ae0:	4234cb04 	addi	r8,r8,-11476
 8002ae4:	11406326 	beq	r2,r5,8002c74 <_malloc_r+0x6a4>
 8002ae8:	01bfff04 	movi	r6,-4
 8002aec:	11000117 	ldw	r4,4(r2)
 8002af0:	2188703a 	and	r4,r4,r6
 8002af4:	3900022e 	bgeu	r7,r4,8002b00 <_malloc_r+0x530>
 8002af8:	10800217 	ldw	r2,8(r2)
 8002afc:	28bffb1e 	bne	r5,r2,8002aec <__alt_data_end+0xf8002aec>
 8002b00:	11800317 	ldw	r6,12(r2)
 8002b04:	99000117 	ldw	r4,4(r19)
 8002b08:	81800315 	stw	r6,12(r16)
 8002b0c:	80800215 	stw	r2,8(r16)
 8002b10:	34000215 	stw	r16,8(r6)
 8002b14:	14000315 	stw	r16,12(r2)
 8002b18:	003f2706 	br	80027b8 <__alt_data_end+0xf80027b8>
 8002b1c:	88c00054 	ori	r3,r17,1
 8002b20:	80c00115 	stw	r3,4(r16)
 8002b24:	8463883a 	add	r17,r16,r17
 8002b28:	34400515 	stw	r17,20(r6)
 8002b2c:	34400415 	stw	r17,16(r6)
 8002b30:	10c00054 	ori	r3,r2,1
 8002b34:	8a400315 	stw	r9,12(r17)
 8002b38:	8a400215 	stw	r9,8(r17)
 8002b3c:	88c00115 	stw	r3,4(r17)
 8002b40:	88a3883a 	add	r17,r17,r2
 8002b44:	88800015 	stw	r2,0(r17)
 8002b48:	9009883a 	mov	r4,r18
 8002b4c:	80189440 	call	8018944 <__malloc_unlock>
 8002b50:	80800204 	addi	r2,r16,8
 8002b54:	003ecb06 	br	8002684 <__alt_data_end+0xf8002684>
 8002b58:	31000117 	ldw	r4,4(r6)
 8002b5c:	003f1606 	br	80027b8 <__alt_data_end+0xf80027b8>
 8002b60:	63000044 	addi	r12,r12,1
 8002b64:	608000cc 	andi	r2,r12,3
 8002b68:	5ac00204 	addi	r11,r11,8
 8002b6c:	103f2a1e 	bne	r2,zero,8002818 <__alt_data_end+0xf8002818>
 8002b70:	00002106 	br	8002bf8 <_malloc_r+0x628>
 8002b74:	80800204 	addi	r2,r16,8
 8002b78:	84000517 	ldw	r16,20(r16)
 8002b7c:	143eb31e 	bne	r2,r16,800264c <__alt_data_end+0xf800264c>
 8002b80:	18c00084 	addi	r3,r3,2
 8002b84:	003eec06 	br	8002738 <__alt_data_end+0xf8002738>
 8002b88:	8085883a 	add	r2,r16,r2
 8002b8c:	10c00117 	ldw	r3,4(r2)
 8002b90:	81000317 	ldw	r4,12(r16)
 8002b94:	81400217 	ldw	r5,8(r16)
 8002b98:	18c00054 	ori	r3,r3,1
 8002b9c:	10c00115 	stw	r3,4(r2)
 8002ba0:	29000315 	stw	r4,12(r5)
 8002ba4:	21400215 	stw	r5,8(r4)
 8002ba8:	9009883a 	mov	r4,r18
 8002bac:	80189440 	call	8018944 <__malloc_unlock>
 8002bb0:	80800204 	addi	r2,r16,8
 8002bb4:	003eb306 	br	8002684 <__alt_data_end+0xf8002684>
 8002bb8:	19c016c4 	addi	r7,r3,91
 8002bbc:	39cb883a 	add	r5,r7,r7
 8002bc0:	003ec706 	br	80026e0 <__alt_data_end+0xf80026e0>
 8002bc4:	3804d1ba 	srli	r2,r7,6
 8002bc8:	11000e04 	addi	r4,r2,56
 8002bcc:	210b883a 	add	r5,r4,r4
 8002bd0:	003fbe06 	br	8002acc <__alt_data_end+0xf8002acc>
 8002bd4:	84ff5d26 	beq	r16,r19,800294c <__alt_data_end+0xf800294c>
 8002bd8:	9c000217 	ldw	r16,8(r19)
 8002bdc:	00bfff04 	movi	r2,-4
 8002be0:	80c00117 	ldw	r3,4(r16)
 8002be4:	1886703a 	and	r3,r3,r2
 8002be8:	003f9706 	br	8002a48 <__alt_data_end+0xf8002a48>
 8002bec:	52800017 	ldw	r10,0(r10)
 8002bf0:	18ffffc4 	addi	r3,r3,-1
 8002bf4:	50805c1e 	bne	r10,r2,8002d68 <_malloc_r+0x798>
 8002bf8:	190000cc 	andi	r4,r3,3
 8002bfc:	50bffe04 	addi	r2,r10,-8
 8002c00:	203ffa1e 	bne	r4,zero,8002bec <__alt_data_end+0xf8002bec>
 8002c04:	98800117 	ldw	r2,4(r19)
 8002c08:	0146303a 	nor	r3,zero,r5
 8002c0c:	1884703a 	and	r2,r3,r2
 8002c10:	98800115 	stw	r2,4(r19)
 8002c14:	294b883a 	add	r5,r5,r5
 8002c18:	117f2e36 	bltu	r2,r5,80028d4 <__alt_data_end+0xf80028d4>
 8002c1c:	283f2d26 	beq	r5,zero,80028d4 <__alt_data_end+0xf80028d4>
 8002c20:	1146703a 	and	r3,r2,r5
 8002c24:	1800521e 	bne	r3,zero,8002d70 <_malloc_r+0x7a0>
 8002c28:	6007883a 	mov	r3,r12
 8002c2c:	294b883a 	add	r5,r5,r5
 8002c30:	1148703a 	and	r4,r2,r5
 8002c34:	18c00104 	addi	r3,r3,4
 8002c38:	203ffc26 	beq	r4,zero,8002c2c <__alt_data_end+0xf8002c2c>
 8002c3c:	003ef006 	br	8002800 <__alt_data_end+0xf8002800>
 8002c40:	00805504 	movi	r2,340
 8002c44:	10c01336 	bltu	r2,r3,8002c94 <_malloc_r+0x6c4>
 8002c48:	8806d3fa 	srli	r3,r17,15
 8002c4c:	19c01dc4 	addi	r7,r3,119
 8002c50:	39cb883a 	add	r5,r7,r7
 8002c54:	003ea206 	br	80026e0 <__alt_data_end+0xf80026e0>
 8002c58:	00c40004 	movi	r3,4096
 8002c5c:	003f4d06 	br	8002994 <__alt_data_end+0xf8002994>
 8002c60:	00800044 	movi	r2,1
 8002c64:	a0800115 	stw	r2,4(r20)
 8002c68:	a021883a 	mov	r16,r20
 8002c6c:	0007883a 	mov	r3,zero
 8002c70:	003f7506 	br	8002a48 <__alt_data_end+0xf8002a48>
 8002c74:	200bd0ba 	srai	r5,r4,2
 8002c78:	01800044 	movi	r6,1
 8002c7c:	41000117 	ldw	r4,4(r8)
 8002c80:	314a983a 	sll	r5,r6,r5
 8002c84:	100d883a 	mov	r6,r2
 8002c88:	2908b03a 	or	r4,r5,r4
 8002c8c:	41000115 	stw	r4,4(r8)
 8002c90:	003f9d06 	br	8002b08 <__alt_data_end+0xf8002b08>
 8002c94:	00815504 	movi	r2,1364
 8002c98:	10c01336 	bltu	r2,r3,8002ce8 <_malloc_r+0x718>
 8002c9c:	8806d4ba 	srli	r3,r17,18
 8002ca0:	19c01f04 	addi	r7,r3,124
 8002ca4:	39cb883a 	add	r5,r7,r7
 8002ca8:	003e8d06 	br	80026e0 <__alt_data_end+0xf80026e0>
 8002cac:	ad400404 	addi	r21,r21,16
 8002cb0:	003f1d06 	br	8002928 <__alt_data_end+0xf8002928>
 8002cb4:	01001504 	movi	r4,84
 8002cb8:	20801c36 	bltu	r4,r2,8002d2c <_malloc_r+0x75c>
 8002cbc:	3804d33a 	srli	r2,r7,12
 8002cc0:	11001b84 	addi	r4,r2,110
 8002cc4:	210b883a 	add	r5,r4,r4
 8002cc8:	003f8006 	br	8002acc <__alt_data_end+0xf8002acc>
 8002ccc:	3083ffcc 	andi	r2,r6,4095
 8002cd0:	103f241e 	bne	r2,zero,8002964 <__alt_data_end+0xf8002964>
 8002cd4:	99000217 	ldw	r4,8(r19)
 8002cd8:	ad85883a 	add	r2,r21,r22
 8002cdc:	10800054 	ori	r2,r2,1
 8002ce0:	20800115 	stw	r2,4(r4)
 8002ce4:	003f4a06 	br	8002a10 <__alt_data_end+0xf8002a10>
 8002ce8:	01403f04 	movi	r5,252
 8002cec:	01c01f84 	movi	r7,126
 8002cf0:	003e7b06 	br	80026e0 <__alt_data_end+0xf80026e0>
 8002cf4:	00c00044 	movi	r3,1
 8002cf8:	002b883a 	mov	r21,zero
 8002cfc:	003f3006 	br	80029c0 <__alt_data_end+0xf80029c0>
 8002d00:	008200b4 	movhi	r2,2050
 8002d04:	10bab704 	addi	r2,r2,-5412
 8002d08:	15000015 	stw	r20,0(r2)
 8002d0c:	003f1b06 	br	800297c <__alt_data_end+0xf800297c>
 8002d10:	9009883a 	mov	r4,r18
 8002d14:	81400204 	addi	r5,r16,8
 8002d18:	8008dd00 	call	8008dd0 <_free_r>
 8002d1c:	008200b4 	movhi	r2,2050
 8002d20:	10bad904 	addi	r2,r2,-5276
 8002d24:	10c00017 	ldw	r3,0(r2)
 8002d28:	003f3906 	br	8002a10 <__alt_data_end+0xf8002a10>
 8002d2c:	01005504 	movi	r4,340
 8002d30:	20800436 	bltu	r4,r2,8002d44 <_malloc_r+0x774>
 8002d34:	3804d3fa 	srli	r2,r7,15
 8002d38:	11001dc4 	addi	r4,r2,119
 8002d3c:	210b883a 	add	r5,r4,r4
 8002d40:	003f6206 	br	8002acc <__alt_data_end+0xf8002acc>
 8002d44:	01015504 	movi	r4,1364
 8002d48:	20800436 	bltu	r4,r2,8002d5c <_malloc_r+0x78c>
 8002d4c:	3804d4ba 	srli	r2,r7,18
 8002d50:	11001f04 	addi	r4,r2,124
 8002d54:	210b883a 	add	r5,r4,r4
 8002d58:	003f5c06 	br	8002acc <__alt_data_end+0xf8002acc>
 8002d5c:	01403f04 	movi	r5,252
 8002d60:	01001f84 	movi	r4,126
 8002d64:	003f5906 	br	8002acc <__alt_data_end+0xf8002acc>
 8002d68:	98800117 	ldw	r2,4(r19)
 8002d6c:	003fa906 	br	8002c14 <__alt_data_end+0xf8002c14>
 8002d70:	6007883a 	mov	r3,r12
 8002d74:	003ea206 	br	8002800 <__alt_data_end+0xf8002800>

08002d78 <memcmp>:
 8002d78:	01c000c4 	movi	r7,3
 8002d7c:	3980192e 	bgeu	r7,r6,8002de4 <memcmp+0x6c>
 8002d80:	2144b03a 	or	r2,r4,r5
 8002d84:	11c4703a 	and	r2,r2,r7
 8002d88:	10000f26 	beq	r2,zero,8002dc8 <memcmp+0x50>
 8002d8c:	20800003 	ldbu	r2,0(r4)
 8002d90:	28c00003 	ldbu	r3,0(r5)
 8002d94:	10c0151e 	bne	r2,r3,8002dec <memcmp+0x74>
 8002d98:	31bfff84 	addi	r6,r6,-2
 8002d9c:	01ffffc4 	movi	r7,-1
 8002da0:	00000406 	br	8002db4 <memcmp+0x3c>
 8002da4:	20800003 	ldbu	r2,0(r4)
 8002da8:	28c00003 	ldbu	r3,0(r5)
 8002dac:	31bfffc4 	addi	r6,r6,-1
 8002db0:	10c00e1e 	bne	r2,r3,8002dec <memcmp+0x74>
 8002db4:	21000044 	addi	r4,r4,1
 8002db8:	29400044 	addi	r5,r5,1
 8002dbc:	31fff91e 	bne	r6,r7,8002da4 <__alt_data_end+0xf8002da4>
 8002dc0:	0005883a 	mov	r2,zero
 8002dc4:	f800283a 	ret
 8002dc8:	20c00017 	ldw	r3,0(r4)
 8002dcc:	28800017 	ldw	r2,0(r5)
 8002dd0:	1880041e 	bne	r3,r2,8002de4 <memcmp+0x6c>
 8002dd4:	31bfff04 	addi	r6,r6,-4
 8002dd8:	21000104 	addi	r4,r4,4
 8002ddc:	29400104 	addi	r5,r5,4
 8002de0:	39bff936 	bltu	r7,r6,8002dc8 <__alt_data_end+0xf8002dc8>
 8002de4:	303fe91e 	bne	r6,zero,8002d8c <__alt_data_end+0xf8002d8c>
 8002de8:	003ff506 	br	8002dc0 <__alt_data_end+0xf8002dc0>
 8002dec:	10c5c83a 	sub	r2,r2,r3
 8002df0:	f800283a 	ret

08002df4 <memcpy>:
 8002df4:	deffff04 	addi	sp,sp,-4
 8002df8:	dc000015 	stw	r16,0(sp)
 8002dfc:	00c003c4 	movi	r3,15
 8002e00:	2005883a 	mov	r2,r4
 8002e04:	1980432e 	bgeu	r3,r6,8002f14 <memcpy+0x120>
 8002e08:	2146b03a 	or	r3,r4,r5
 8002e0c:	18c000cc 	andi	r3,r3,3
 8002e10:	1800421e 	bne	r3,zero,8002f1c <memcpy+0x128>
 8002e14:	343ffc04 	addi	r16,r6,-16
 8002e18:	8020d13a 	srli	r16,r16,4
 8002e1c:	28c00104 	addi	r3,r5,4
 8002e20:	23400104 	addi	r13,r4,4
 8002e24:	801e913a 	slli	r15,r16,4
 8002e28:	2b000204 	addi	r12,r5,8
 8002e2c:	22c00204 	addi	r11,r4,8
 8002e30:	7bc00504 	addi	r15,r15,20
 8002e34:	2a800304 	addi	r10,r5,12
 8002e38:	22400304 	addi	r9,r4,12
 8002e3c:	2bdf883a 	add	r15,r5,r15
 8002e40:	2811883a 	mov	r8,r5
 8002e44:	200f883a 	mov	r7,r4
 8002e48:	41000017 	ldw	r4,0(r8)
 8002e4c:	39c00404 	addi	r7,r7,16
 8002e50:	18c00404 	addi	r3,r3,16
 8002e54:	393ffc15 	stw	r4,-16(r7)
 8002e58:	1bbffc17 	ldw	r14,-16(r3)
 8002e5c:	6b400404 	addi	r13,r13,16
 8002e60:	5ac00404 	addi	r11,r11,16
 8002e64:	6bbffc15 	stw	r14,-16(r13)
 8002e68:	63800017 	ldw	r14,0(r12)
 8002e6c:	4a400404 	addi	r9,r9,16
 8002e70:	42000404 	addi	r8,r8,16
 8002e74:	5bbffc15 	stw	r14,-16(r11)
 8002e78:	53800017 	ldw	r14,0(r10)
 8002e7c:	63000404 	addi	r12,r12,16
 8002e80:	52800404 	addi	r10,r10,16
 8002e84:	4bbffc15 	stw	r14,-16(r9)
 8002e88:	1bffef1e 	bne	r3,r15,8002e48 <__alt_data_end+0xf8002e48>
 8002e8c:	81c00044 	addi	r7,r16,1
 8002e90:	380e913a 	slli	r7,r7,4
 8002e94:	310003cc 	andi	r4,r6,15
 8002e98:	02c000c4 	movi	r11,3
 8002e9c:	11c7883a 	add	r3,r2,r7
 8002ea0:	29cb883a 	add	r5,r5,r7
 8002ea4:	59001f2e 	bgeu	r11,r4,8002f24 <memcpy+0x130>
 8002ea8:	1813883a 	mov	r9,r3
 8002eac:	2811883a 	mov	r8,r5
 8002eb0:	200f883a 	mov	r7,r4
 8002eb4:	42800017 	ldw	r10,0(r8)
 8002eb8:	4a400104 	addi	r9,r9,4
 8002ebc:	39ffff04 	addi	r7,r7,-4
 8002ec0:	4abfff15 	stw	r10,-4(r9)
 8002ec4:	42000104 	addi	r8,r8,4
 8002ec8:	59fffa36 	bltu	r11,r7,8002eb4 <__alt_data_end+0xf8002eb4>
 8002ecc:	213fff04 	addi	r4,r4,-4
 8002ed0:	2008d0ba 	srli	r4,r4,2
 8002ed4:	318000cc 	andi	r6,r6,3
 8002ed8:	21000044 	addi	r4,r4,1
 8002edc:	2109883a 	add	r4,r4,r4
 8002ee0:	2109883a 	add	r4,r4,r4
 8002ee4:	1907883a 	add	r3,r3,r4
 8002ee8:	290b883a 	add	r5,r5,r4
 8002eec:	30000626 	beq	r6,zero,8002f08 <memcpy+0x114>
 8002ef0:	198d883a 	add	r6,r3,r6
 8002ef4:	29c00003 	ldbu	r7,0(r5)
 8002ef8:	18c00044 	addi	r3,r3,1
 8002efc:	29400044 	addi	r5,r5,1
 8002f00:	19ffffc5 	stb	r7,-1(r3)
 8002f04:	19bffb1e 	bne	r3,r6,8002ef4 <__alt_data_end+0xf8002ef4>
 8002f08:	dc000017 	ldw	r16,0(sp)
 8002f0c:	dec00104 	addi	sp,sp,4
 8002f10:	f800283a 	ret
 8002f14:	2007883a 	mov	r3,r4
 8002f18:	003ff406 	br	8002eec <__alt_data_end+0xf8002eec>
 8002f1c:	2007883a 	mov	r3,r4
 8002f20:	003ff306 	br	8002ef0 <__alt_data_end+0xf8002ef0>
 8002f24:	200d883a 	mov	r6,r4
 8002f28:	003ff006 	br	8002eec <__alt_data_end+0xf8002eec>

08002f2c <_printf_r>:
 8002f2c:	defffd04 	addi	sp,sp,-12
 8002f30:	dfc00015 	stw	ra,0(sp)
 8002f34:	d9800115 	stw	r6,4(sp)
 8002f38:	d9c00215 	stw	r7,8(sp)
 8002f3c:	280d883a 	mov	r6,r5
 8002f40:	21400217 	ldw	r5,8(r4)
 8002f44:	d9c00104 	addi	r7,sp,4
 8002f48:	8004b8c0 	call	8004b8c <___vfprintf_internal_r>
 8002f4c:	dfc00017 	ldw	ra,0(sp)
 8002f50:	dec00304 	addi	sp,sp,12
 8002f54:	f800283a 	ret

08002f58 <printf>:
 8002f58:	defffc04 	addi	sp,sp,-16
 8002f5c:	dfc00015 	stw	ra,0(sp)
 8002f60:	d9400115 	stw	r5,4(sp)
 8002f64:	d9800215 	stw	r6,8(sp)
 8002f68:	d9c00315 	stw	r7,12(sp)
 8002f6c:	008200b4 	movhi	r2,2050
 8002f70:	10bab604 	addi	r2,r2,-5416
 8002f74:	10800017 	ldw	r2,0(r2)
 8002f78:	200b883a 	mov	r5,r4
 8002f7c:	d9800104 	addi	r6,sp,4
 8002f80:	11000217 	ldw	r4,8(r2)
 8002f84:	8006b880 	call	8006b88 <__vfprintf_internal>
 8002f88:	dfc00017 	ldw	ra,0(sp)
 8002f8c:	dec00404 	addi	sp,sp,16
 8002f90:	f800283a 	ret

08002f94 <_putchar_r>:
 8002f94:	21800217 	ldw	r6,8(r4)
 8002f98:	800af281 	jmpi	800af28 <_putc_r>

08002f9c <putchar>:
 8002f9c:	008200b4 	movhi	r2,2050
 8002fa0:	10bab604 	addi	r2,r2,-5416
 8002fa4:	200b883a 	mov	r5,r4
 8002fa8:	11000017 	ldw	r4,0(r2)
 8002fac:	21800217 	ldw	r6,8(r4)
 8002fb0:	800af281 	jmpi	800af28 <_putc_r>

08002fb4 <_puts_r>:
 8002fb4:	defff604 	addi	sp,sp,-40
 8002fb8:	dc000715 	stw	r16,28(sp)
 8002fbc:	2021883a 	mov	r16,r4
 8002fc0:	2809883a 	mov	r4,r5
 8002fc4:	dc400815 	stw	r17,32(sp)
 8002fc8:	dfc00915 	stw	ra,36(sp)
 8002fcc:	2823883a 	mov	r17,r5
 8002fd0:	800338c0 	call	800338c <strlen>
 8002fd4:	00c200b4 	movhi	r3,2050
 8002fd8:	18fab604 	addi	r3,r3,-5416
 8002fdc:	18c00017 	ldw	r3,0(r3)
 8002fe0:	11000044 	addi	r4,r2,1
 8002fe4:	d8800115 	stw	r2,4(sp)
 8002fe8:	18c00217 	ldw	r3,8(r3)
 8002fec:	014200b4 	movhi	r5,2050
 8002ff0:	29721f04 	addi	r5,r5,-14212
 8002ff4:	1880030b 	ldhu	r2,12(r3)
 8002ff8:	d9400215 	stw	r5,8(sp)
 8002ffc:	d9000615 	stw	r4,24(sp)
 8003000:	01400044 	movi	r5,1
 8003004:	01000084 	movi	r4,2
 8003008:	d9000515 	stw	r4,20(sp)
 800300c:	dc400015 	stw	r17,0(sp)
 8003010:	d9400315 	stw	r5,12(sp)
 8003014:	dec00415 	stw	sp,16(sp)
 8003018:	1108000c 	andi	r4,r2,8192
 800301c:	2000061e 	bne	r4,zero,8003038 <_puts_r+0x84>
 8003020:	19401917 	ldw	r5,100(r3)
 8003024:	0137ffc4 	movi	r4,-8193
 8003028:	10880014 	ori	r2,r2,8192
 800302c:	2908703a 	and	r4,r5,r4
 8003030:	1880030d 	sth	r2,12(r3)
 8003034:	19001915 	stw	r4,100(r3)
 8003038:	81400217 	ldw	r5,8(r16)
 800303c:	8009883a 	mov	r4,r16
 8003040:	d9800404 	addi	r6,sp,16
 8003044:	80090c00 	call	80090c0 <__sfvwrite_r>
 8003048:	1000061e 	bne	r2,zero,8003064 <_puts_r+0xb0>
 800304c:	00800284 	movi	r2,10
 8003050:	dfc00917 	ldw	ra,36(sp)
 8003054:	dc400817 	ldw	r17,32(sp)
 8003058:	dc000717 	ldw	r16,28(sp)
 800305c:	dec00a04 	addi	sp,sp,40
 8003060:	f800283a 	ret
 8003064:	00bfffc4 	movi	r2,-1
 8003068:	003ff906 	br	8003050 <__alt_data_end+0xf8003050>

0800306c <puts>:
 800306c:	008200b4 	movhi	r2,2050
 8003070:	10bab604 	addi	r2,r2,-5416
 8003074:	200b883a 	mov	r5,r4
 8003078:	11000017 	ldw	r4,0(r2)
 800307c:	8002fb41 	jmpi	8002fb4 <_puts_r>

08003080 <__srget_r>:
 8003080:	defffd04 	addi	sp,sp,-12
 8003084:	dc400115 	stw	r17,4(sp)
 8003088:	dc000015 	stw	r16,0(sp)
 800308c:	dfc00215 	stw	ra,8(sp)
 8003090:	2023883a 	mov	r17,r4
 8003094:	2821883a 	mov	r16,r5
 8003098:	20000226 	beq	r4,zero,80030a4 <__srget_r+0x24>
 800309c:	20800e17 	ldw	r2,56(r4)
 80030a0:	10001026 	beq	r2,zero,80030e4 <__srget_r+0x64>
 80030a4:	8809883a 	mov	r4,r17
 80030a8:	800b883a 	mov	r5,r16
 80030ac:	800b6a80 	call	800b6a8 <__srefill_r>
 80030b0:	10000e1e 	bne	r2,zero,80030ec <__srget_r+0x6c>
 80030b4:	80c00017 	ldw	r3,0(r16)
 80030b8:	80800117 	ldw	r2,4(r16)
 80030bc:	19000044 	addi	r4,r3,1
 80030c0:	10bfffc4 	addi	r2,r2,-1
 80030c4:	80800115 	stw	r2,4(r16)
 80030c8:	81000015 	stw	r4,0(r16)
 80030cc:	18800003 	ldbu	r2,0(r3)
 80030d0:	dfc00217 	ldw	ra,8(sp)
 80030d4:	dc400117 	ldw	r17,4(sp)
 80030d8:	dc000017 	ldw	r16,0(sp)
 80030dc:	dec00304 	addi	sp,sp,12
 80030e0:	f800283a 	ret
 80030e4:	8008c5c0 	call	8008c5c <__sinit>
 80030e8:	003fee06 	br	80030a4 <__alt_data_end+0xf80030a4>
 80030ec:	00bfffc4 	movi	r2,-1
 80030f0:	003ff706 	br	80030d0 <__alt_data_end+0xf80030d0>

080030f4 <__srget>:
 80030f4:	008200b4 	movhi	r2,2050
 80030f8:	10bab604 	addi	r2,r2,-5416
 80030fc:	200b883a 	mov	r5,r4
 8003100:	11000017 	ldw	r4,0(r2)
 8003104:	80030801 	jmpi	8003080 <__srget_r>

08003108 <_sbrk_r>:
 8003108:	defffd04 	addi	sp,sp,-12
 800310c:	dc000015 	stw	r16,0(sp)
 8003110:	040200b4 	movhi	r16,2050
 8003114:	dc400115 	stw	r17,4(sp)
 8003118:	843ace04 	addi	r16,r16,-5320
 800311c:	2023883a 	mov	r17,r4
 8003120:	2809883a 	mov	r4,r5
 8003124:	dfc00215 	stw	ra,8(sp)
 8003128:	80000015 	stw	zero,0(r16)
 800312c:	8018b100 	call	8018b10 <sbrk>
 8003130:	00ffffc4 	movi	r3,-1
 8003134:	10c00526 	beq	r2,r3,800314c <_sbrk_r+0x44>
 8003138:	dfc00217 	ldw	ra,8(sp)
 800313c:	dc400117 	ldw	r17,4(sp)
 8003140:	dc000017 	ldw	r16,0(sp)
 8003144:	dec00304 	addi	sp,sp,12
 8003148:	f800283a 	ret
 800314c:	80c00017 	ldw	r3,0(r16)
 8003150:	183ff926 	beq	r3,zero,8003138 <__alt_data_end+0xf8003138>
 8003154:	88c00015 	stw	r3,0(r17)
 8003158:	003ff706 	br	8003138 <__alt_data_end+0xf8003138>

0800315c <sscanf>:
 800315c:	deffe204 	addi	sp,sp,-120
 8003160:	dfc01b15 	stw	ra,108(sp)
 8003164:	dc001a15 	stw	r16,104(sp)
 8003168:	d9801c15 	stw	r6,112(sp)
 800316c:	d9c01d15 	stw	r7,116(sp)
 8003170:	00c08104 	movi	r3,516
 8003174:	2821883a 	mov	r16,r5
 8003178:	d8c0030d 	sth	r3,12(sp)
 800317c:	d9000015 	stw	r4,0(sp)
 8003180:	d9000415 	stw	r4,16(sp)
 8003184:	800338c0 	call	800338c <strlen>
 8003188:	00c200b4 	movhi	r3,2050
 800318c:	18fab604 	addi	r3,r3,-5416
 8003190:	d8800115 	stw	r2,4(sp)
 8003194:	d8800515 	stw	r2,20(sp)
 8003198:	19000017 	ldw	r4,0(r3)
 800319c:	00820034 	movhi	r2,2048
 80031a0:	108ca904 	addi	r2,r2,12964
 80031a4:	d8800815 	stw	r2,32(sp)
 80031a8:	d80b883a 	mov	r5,sp
 80031ac:	800d883a 	mov	r6,r16
 80031b0:	d9c01c04 	addi	r7,sp,112
 80031b4:	00bfffc4 	movi	r2,-1
 80031b8:	d8000c15 	stw	zero,48(sp)
 80031bc:	d8001115 	stw	zero,68(sp)
 80031c0:	d880038d 	sth	r2,14(sp)
 80031c4:	80034240 	call	8003424 <__ssvfscanf_r>
 80031c8:	dfc01b17 	ldw	ra,108(sp)
 80031cc:	dc001a17 	ldw	r16,104(sp)
 80031d0:	dec01e04 	addi	sp,sp,120
 80031d4:	f800283a 	ret

080031d8 <_sscanf_r>:
 80031d8:	deffe204 	addi	sp,sp,-120
 80031dc:	dc001b15 	stw	r16,108(sp)
 80031e0:	2021883a 	mov	r16,r4
 80031e4:	dfc01c15 	stw	ra,112(sp)
 80031e8:	d9c01d15 	stw	r7,116(sp)
 80031ec:	00808104 	movi	r2,516
 80031f0:	2809883a 	mov	r4,r5
 80031f4:	d9400015 	stw	r5,0(sp)
 80031f8:	d9400415 	stw	r5,16(sp)
 80031fc:	d9801a15 	stw	r6,104(sp)
 8003200:	d880030d 	sth	r2,12(sp)
 8003204:	800338c0 	call	800338c <strlen>
 8003208:	d8800115 	stw	r2,4(sp)
 800320c:	d8800515 	stw	r2,20(sp)
 8003210:	d9801a17 	ldw	r6,104(sp)
 8003214:	00820034 	movhi	r2,2048
 8003218:	108ca904 	addi	r2,r2,12964
 800321c:	d8800815 	stw	r2,32(sp)
 8003220:	8009883a 	mov	r4,r16
 8003224:	d80b883a 	mov	r5,sp
 8003228:	d9c01d04 	addi	r7,sp,116
 800322c:	00bfffc4 	movi	r2,-1
 8003230:	d8000c15 	stw	zero,48(sp)
 8003234:	d8001115 	stw	zero,68(sp)
 8003238:	d880038d 	sth	r2,14(sp)
 800323c:	80034240 	call	8003424 <__ssvfscanf_r>
 8003240:	dfc01c17 	ldw	ra,112(sp)
 8003244:	dc001b17 	ldw	r16,108(sp)
 8003248:	dec01e04 	addi	sp,sp,120
 800324c:	f800283a 	ret

08003250 <__sread>:
 8003250:	defffe04 	addi	sp,sp,-8
 8003254:	dc000015 	stw	r16,0(sp)
 8003258:	2821883a 	mov	r16,r5
 800325c:	2940038f 	ldh	r5,14(r5)
 8003260:	dfc00115 	stw	ra,4(sp)
 8003264:	800b0900 	call	800b090 <_read_r>
 8003268:	10000716 	blt	r2,zero,8003288 <__sread+0x38>
 800326c:	80c01417 	ldw	r3,80(r16)
 8003270:	1887883a 	add	r3,r3,r2
 8003274:	80c01415 	stw	r3,80(r16)
 8003278:	dfc00117 	ldw	ra,4(sp)
 800327c:	dc000017 	ldw	r16,0(sp)
 8003280:	dec00204 	addi	sp,sp,8
 8003284:	f800283a 	ret
 8003288:	80c0030b 	ldhu	r3,12(r16)
 800328c:	18fbffcc 	andi	r3,r3,61439
 8003290:	80c0030d 	sth	r3,12(r16)
 8003294:	dfc00117 	ldw	ra,4(sp)
 8003298:	dc000017 	ldw	r16,0(sp)
 800329c:	dec00204 	addi	sp,sp,8
 80032a0:	f800283a 	ret

080032a4 <__seofread>:
 80032a4:	0005883a 	mov	r2,zero
 80032a8:	f800283a 	ret

080032ac <__swrite>:
 80032ac:	2880030b 	ldhu	r2,12(r5)
 80032b0:	defffb04 	addi	sp,sp,-20
 80032b4:	dcc00315 	stw	r19,12(sp)
 80032b8:	dc800215 	stw	r18,8(sp)
 80032bc:	dc400115 	stw	r17,4(sp)
 80032c0:	dc000015 	stw	r16,0(sp)
 80032c4:	dfc00415 	stw	ra,16(sp)
 80032c8:	10c0400c 	andi	r3,r2,256
 80032cc:	2821883a 	mov	r16,r5
 80032d0:	2027883a 	mov	r19,r4
 80032d4:	3025883a 	mov	r18,r6
 80032d8:	3823883a 	mov	r17,r7
 80032dc:	18000526 	beq	r3,zero,80032f4 <__swrite+0x48>
 80032e0:	2940038f 	ldh	r5,14(r5)
 80032e4:	000d883a 	mov	r6,zero
 80032e8:	01c00084 	movi	r7,2
 80032ec:	80097e40 	call	80097e4 <_lseek_r>
 80032f0:	8080030b 	ldhu	r2,12(r16)
 80032f4:	8140038f 	ldh	r5,14(r16)
 80032f8:	10bbffcc 	andi	r2,r2,61439
 80032fc:	9809883a 	mov	r4,r19
 8003300:	900d883a 	mov	r6,r18
 8003304:	880f883a 	mov	r7,r17
 8003308:	8080030d 	sth	r2,12(r16)
 800330c:	dfc00417 	ldw	ra,16(sp)
 8003310:	dcc00317 	ldw	r19,12(sp)
 8003314:	dc800217 	ldw	r18,8(sp)
 8003318:	dc400117 	ldw	r17,4(sp)
 800331c:	dc000017 	ldw	r16,0(sp)
 8003320:	dec00504 	addi	sp,sp,20
 8003324:	8006bac1 	jmpi	8006bac <_write_r>

08003328 <__sseek>:
 8003328:	defffe04 	addi	sp,sp,-8
 800332c:	dc000015 	stw	r16,0(sp)
 8003330:	2821883a 	mov	r16,r5
 8003334:	2940038f 	ldh	r5,14(r5)
 8003338:	dfc00115 	stw	ra,4(sp)
 800333c:	80097e40 	call	80097e4 <_lseek_r>
 8003340:	00ffffc4 	movi	r3,-1
 8003344:	10c00826 	beq	r2,r3,8003368 <__sseek+0x40>
 8003348:	80c0030b 	ldhu	r3,12(r16)
 800334c:	80801415 	stw	r2,80(r16)
 8003350:	18c40014 	ori	r3,r3,4096
 8003354:	80c0030d 	sth	r3,12(r16)
 8003358:	dfc00117 	ldw	ra,4(sp)
 800335c:	dc000017 	ldw	r16,0(sp)
 8003360:	dec00204 	addi	sp,sp,8
 8003364:	f800283a 	ret
 8003368:	80c0030b 	ldhu	r3,12(r16)
 800336c:	18fbffcc 	andi	r3,r3,61439
 8003370:	80c0030d 	sth	r3,12(r16)
 8003374:	dfc00117 	ldw	ra,4(sp)
 8003378:	dc000017 	ldw	r16,0(sp)
 800337c:	dec00204 	addi	sp,sp,8
 8003380:	f800283a 	ret

08003384 <__sclose>:
 8003384:	2940038f 	ldh	r5,14(r5)
 8003388:	8006d381 	jmpi	8006d38 <_close_r>

0800338c <strlen>:
 800338c:	208000cc 	andi	r2,r4,3
 8003390:	10002026 	beq	r2,zero,8003414 <strlen+0x88>
 8003394:	20800007 	ldb	r2,0(r4)
 8003398:	10002026 	beq	r2,zero,800341c <strlen+0x90>
 800339c:	2005883a 	mov	r2,r4
 80033a0:	00000206 	br	80033ac <strlen+0x20>
 80033a4:	10c00007 	ldb	r3,0(r2)
 80033a8:	18001826 	beq	r3,zero,800340c <strlen+0x80>
 80033ac:	10800044 	addi	r2,r2,1
 80033b0:	10c000cc 	andi	r3,r2,3
 80033b4:	183ffb1e 	bne	r3,zero,80033a4 <__alt_data_end+0xf80033a4>
 80033b8:	10c00017 	ldw	r3,0(r2)
 80033bc:	01ffbff4 	movhi	r7,65279
 80033c0:	39ffbfc4 	addi	r7,r7,-257
 80033c4:	00ca303a 	nor	r5,zero,r3
 80033c8:	01a02074 	movhi	r6,32897
 80033cc:	19c7883a 	add	r3,r3,r7
 80033d0:	31a02004 	addi	r6,r6,-32640
 80033d4:	1946703a 	and	r3,r3,r5
 80033d8:	1986703a 	and	r3,r3,r6
 80033dc:	1800091e 	bne	r3,zero,8003404 <strlen+0x78>
 80033e0:	10800104 	addi	r2,r2,4
 80033e4:	10c00017 	ldw	r3,0(r2)
 80033e8:	19cb883a 	add	r5,r3,r7
 80033ec:	00c6303a 	nor	r3,zero,r3
 80033f0:	28c6703a 	and	r3,r5,r3
 80033f4:	1986703a 	and	r3,r3,r6
 80033f8:	183ff926 	beq	r3,zero,80033e0 <__alt_data_end+0xf80033e0>
 80033fc:	00000106 	br	8003404 <strlen+0x78>
 8003400:	10800044 	addi	r2,r2,1
 8003404:	10c00007 	ldb	r3,0(r2)
 8003408:	183ffd1e 	bne	r3,zero,8003400 <__alt_data_end+0xf8003400>
 800340c:	1105c83a 	sub	r2,r2,r4
 8003410:	f800283a 	ret
 8003414:	2005883a 	mov	r2,r4
 8003418:	003fe706 	br	80033b8 <__alt_data_end+0xf80033b8>
 800341c:	0005883a 	mov	r2,zero
 8003420:	f800283a 	ret

08003424 <__ssvfscanf_r>:
 8003424:	deff4b04 	addi	sp,sp,-724
 8003428:	df00b315 	stw	fp,716(sp)
 800342c:	dd80b115 	stw	r22,708(sp)
 8003430:	dc40ac15 	stw	r17,688(sp)
 8003434:	2839883a 	mov	fp,r5
 8003438:	dfc0b415 	stw	ra,720(sp)
 800343c:	ddc0b215 	stw	r23,712(sp)
 8003440:	dd40b015 	stw	r21,704(sp)
 8003444:	dd00af15 	stw	r20,700(sp)
 8003448:	dcc0ae15 	stw	r19,696(sp)
 800344c:	dc80ad15 	stw	r18,692(sp)
 8003450:	dc00ab15 	stw	r16,684(sp)
 8003454:	202d883a 	mov	r22,r4
 8003458:	3023883a 	mov	r17,r6
 800345c:	d9c09c15 	stw	r7,624(sp)
 8003460:	8008c6c0 	call	8008c6c <__sfp_lock_acquire>
 8003464:	e080030b 	ldhu	r2,12(fp)
 8003468:	10c8000c 	andi	r3,r2,8192
 800346c:	1800061e 	bne	r3,zero,8003488 <__ssvfscanf_r+0x64>
 8003470:	e1001917 	ldw	r4,100(fp)
 8003474:	00f7ffc4 	movi	r3,-8193
 8003478:	10880014 	ori	r2,r2,8192
 800347c:	20c6703a 	and	r3,r4,r3
 8003480:	e080030d 	sth	r2,12(fp)
 8003484:	e0c01915 	stw	r3,100(fp)
 8003488:	88800007 	ldb	r2,0(r17)
 800348c:	0029883a 	mov	r20,zero
 8003490:	054200b4 	movhi	r21,2050
 8003494:	d800a015 	stw	zero,640(sp)
 8003498:	d8009e15 	stw	zero,632(sp)
 800349c:	d8009f15 	stw	zero,636(sp)
 80034a0:	d8809b15 	stw	r2,620(sp)
 80034a4:	ad7ab904 	addi	r21,r21,-5404
 80034a8:	a027883a 	mov	r19,r20
 80034ac:	e02f883a 	mov	r23,fp
 80034b0:	8c800044 	addi	r18,r17,1
 80034b4:	10001e26 	beq	r2,zero,8003530 <__ssvfscanf_r+0x10c>
 80034b8:	a9000017 	ldw	r4,0(r21)
 80034bc:	2087883a 	add	r3,r4,r2
 80034c0:	18c00043 	ldbu	r3,1(r3)
 80034c4:	18c0020c 	andi	r3,r3,8
 80034c8:	18001c26 	beq	r3,zero,800353c <__ssvfscanf_r+0x118>
 80034cc:	b8800117 	ldw	r2,4(r23)
 80034d0:	00800e0e 	bge	zero,r2,800350c <__ssvfscanf_r+0xe8>
 80034d4:	b8c00017 	ldw	r3,0(r23)
 80034d8:	a9000017 	ldw	r4,0(r21)
 80034dc:	18800003 	ldbu	r2,0(r3)
 80034e0:	2085883a 	add	r2,r4,r2
 80034e4:	10800043 	ldbu	r2,1(r2)
 80034e8:	1080020c 	andi	r2,r2,8
 80034ec:	10000b26 	beq	r2,zero,800351c <__ssvfscanf_r+0xf8>
 80034f0:	b8800117 	ldw	r2,4(r23)
 80034f4:	18c00044 	addi	r3,r3,1
 80034f8:	b8c00015 	stw	r3,0(r23)
 80034fc:	10bfffc4 	addi	r2,r2,-1
 8003500:	b8800115 	stw	r2,4(r23)
 8003504:	9cc00044 	addi	r19,r19,1
 8003508:	00bff216 	blt	zero,r2,80034d4 <__alt_data_end+0xf80034d4>
 800350c:	b009883a 	mov	r4,r22
 8003510:	b80b883a 	mov	r5,r23
 8003514:	800dde40 	call	800dde4 <__ssrefill_r>
 8003518:	103fee26 	beq	r2,zero,80034d4 <__alt_data_end+0xf80034d4>
 800351c:	9023883a 	mov	r17,r18
 8003520:	88800007 	ldb	r2,0(r17)
 8003524:	8c800044 	addi	r18,r17,1
 8003528:	d8809b15 	stw	r2,620(sp)
 800352c:	103fe21e 	bne	r2,zero,80034b8 <__alt_data_end+0xf80034b8>
 8003530:	8008c700 	call	8008c70 <__sfp_lock_release>
 8003534:	d8809f17 	ldw	r2,636(sp)
 8003538:	00021906 	br	8003da0 <__ssvfscanf_r+0x97c>
 800353c:	00c00944 	movi	r3,37
 8003540:	10c0881e 	bne	r2,r3,8003764 <__ssvfscanf_r+0x340>
 8003544:	88c00043 	ldbu	r3,1(r17)
 8003548:	0021883a 	mov	r16,zero
 800354c:	0023883a 	mov	r17,zero
 8003550:	01801e04 	movi	r6,120
 8003554:	01c01b04 	movi	r7,108
 8003558:	18803fcc 	andi	r2,r3,255
 800355c:	91400044 	addi	r5,r18,1
 8003560:	3081ef36 	bltu	r6,r2,8003d20 <__ssvfscanf_r+0x8fc>
 8003564:	100490ba 	slli	r2,r2,2
 8003568:	02020034 	movhi	r8,2048
 800356c:	420d5f04 	addi	r8,r8,13692
 8003570:	1205883a 	add	r2,r2,r8
 8003574:	10800017 	ldw	r2,0(r2)
 8003578:	1000683a 	jmp	r2
 800357c:	08003d98 	cmpnei	zero,at,246
 8003580:	08003d20 	cmpeqi	zero,at,244
 8003584:	08003d20 	cmpeqi	zero,at,244
 8003588:	08003d20 	cmpeqi	zero,at,244
 800358c:	08003d20 	cmpeqi	zero,at,244
 8003590:	08003d20 	cmpeqi	zero,at,244
 8003594:	08003d20 	cmpeqi	zero,at,244
 8003598:	08003d20 	cmpeqi	zero,at,244
 800359c:	08003d20 	cmpeqi	zero,at,244
 80035a0:	08003d20 	cmpeqi	zero,at,244
 80035a4:	08003d20 	cmpeqi	zero,at,244
 80035a8:	08003d20 	cmpeqi	zero,at,244
 80035ac:	08003d20 	cmpeqi	zero,at,244
 80035b0:	08003d20 	cmpeqi	zero,at,244
 80035b4:	08003d20 	cmpeqi	zero,at,244
 80035b8:	08003d20 	cmpeqi	zero,at,244
 80035bc:	08003d20 	cmpeqi	zero,at,244
 80035c0:	08003d20 	cmpeqi	zero,at,244
 80035c4:	08003d20 	cmpeqi	zero,at,244
 80035c8:	08003d20 	cmpeqi	zero,at,244
 80035cc:	08003d20 	cmpeqi	zero,at,244
 80035d0:	08003d20 	cmpeqi	zero,at,244
 80035d4:	08003d20 	cmpeqi	zero,at,244
 80035d8:	08003d20 	cmpeqi	zero,at,244
 80035dc:	08003d20 	cmpeqi	zero,at,244
 80035e0:	08003d20 	cmpeqi	zero,at,244
 80035e4:	08003d20 	cmpeqi	zero,at,244
 80035e8:	08003d20 	cmpeqi	zero,at,244
 80035ec:	08003d20 	cmpeqi	zero,at,244
 80035f0:	08003d20 	cmpeqi	zero,at,244
 80035f4:	08003d20 	cmpeqi	zero,at,244
 80035f8:	08003d20 	cmpeqi	zero,at,244
 80035fc:	08003d20 	cmpeqi	zero,at,244
 8003600:	08003d20 	cmpeqi	zero,at,244
 8003604:	08003d20 	cmpeqi	zero,at,244
 8003608:	08003d20 	cmpeqi	zero,at,244
 800360c:	08003d20 	cmpeqi	zero,at,244
 8003610:	08003760 	cmpeqi	zero,at,221
 8003614:	08003d20 	cmpeqi	zero,at,244
 8003618:	08003d20 	cmpeqi	zero,at,244
 800361c:	08003d20 	cmpeqi	zero,at,244
 8003620:	08003d20 	cmpeqi	zero,at,244
 8003624:	08003d08 	cmpgei	zero,at,244
 8003628:	08003d20 	cmpeqi	zero,at,244
 800362c:	08003d20 	cmpeqi	zero,at,244
 8003630:	08003d20 	cmpeqi	zero,at,244
 8003634:	08003d20 	cmpeqi	zero,at,244
 8003638:	08003d20 	cmpeqi	zero,at,244
 800363c:	08003e18 	cmpnei	zero,at,248
 8003640:	08003e18 	cmpnei	zero,at,248
 8003644:	08003e18 	cmpnei	zero,at,248
 8003648:	08003e18 	cmpnei	zero,at,248
 800364c:	08003e18 	cmpnei	zero,at,248
 8003650:	08003e18 	cmpnei	zero,at,248
 8003654:	08003e18 	cmpnei	zero,at,248
 8003658:	08003e18 	cmpnei	zero,at,248
 800365c:	08003e18 	cmpnei	zero,at,248
 8003660:	08003e18 	cmpnei	zero,at,248
 8003664:	08003d20 	cmpeqi	zero,at,244
 8003668:	08003d20 	cmpeqi	zero,at,244
 800366c:	08003d20 	cmpeqi	zero,at,244
 8003670:	08003d20 	cmpeqi	zero,at,244
 8003674:	08003d20 	cmpeqi	zero,at,244
 8003678:	08003d20 	cmpeqi	zero,at,244
 800367c:	08003d20 	cmpeqi	zero,at,244
 8003680:	08003d20 	cmpeqi	zero,at,244
 8003684:	08003d20 	cmpeqi	zero,at,244
 8003688:	08003d20 	cmpeqi	zero,at,244
 800368c:	08003df0 	cmpltui	zero,at,247
 8003690:	08003de0 	cmpeqi	zero,at,247
 8003694:	08003d20 	cmpeqi	zero,at,244
 8003698:	08003de0 	cmpeqi	zero,at,247
 800369c:	08003d20 	cmpeqi	zero,at,244
 80036a0:	08003d20 	cmpeqi	zero,at,244
 80036a4:	08003d20 	cmpeqi	zero,at,244
 80036a8:	08003d20 	cmpeqi	zero,at,244
 80036ac:	08003dd0 	cmplti	zero,at,247
 80036b0:	08003d20 	cmpeqi	zero,at,244
 80036b4:	08003d20 	cmpeqi	zero,at,244
 80036b8:	08003f5c 	xori	zero,at,253
 80036bc:	08003d20 	cmpeqi	zero,at,244
 80036c0:	08003d20 	cmpeqi	zero,at,244
 80036c4:	08003d20 	cmpeqi	zero,at,244
 80036c8:	08003d20 	cmpeqi	zero,at,244
 80036cc:	08003d20 	cmpeqi	zero,at,244
 80036d0:	08003d20 	cmpeqi	zero,at,244
 80036d4:	08003d20 	cmpeqi	zero,at,244
 80036d8:	08003d20 	cmpeqi	zero,at,244
 80036dc:	08003f50 	cmplti	zero,at,253
 80036e0:	08003d20 	cmpeqi	zero,at,244
 80036e4:	08003d20 	cmpeqi	zero,at,244
 80036e8:	08003f34 	orhi	zero,at,252
 80036ec:	08003d20 	cmpeqi	zero,at,244
 80036f0:	08003d20 	cmpeqi	zero,at,244
 80036f4:	08003d20 	cmpeqi	zero,at,244
 80036f8:	08003d20 	cmpeqi	zero,at,244
 80036fc:	08003d20 	cmpeqi	zero,at,244
 8003700:	08003d20 	cmpeqi	zero,at,244
 8003704:	08003d20 	cmpeqi	zero,at,244
 8003708:	08003f20 	cmpeqi	zero,at,252
 800370c:	08003f18 	cmpnei	zero,at,252
 8003710:	08003de0 	cmpeqi	zero,at,247
 8003714:	08003de0 	cmpeqi	zero,at,247
 8003718:	08003de0 	cmpeqi	zero,at,247
 800371c:	08003f08 	cmpgei	zero,at,252
 8003720:	0800379c 	xori	zero,at,222
 8003724:	08003d20 	cmpeqi	zero,at,244
 8003728:	08003d20 	cmpeqi	zero,at,244
 800372c:	08003ee8 	cmpgeui	zero,at,251
 8003730:	08003d20 	cmpeqi	zero,at,244
 8003734:	08003ebc 	xorhi	zero,at,250
 8003738:	08003e98 	cmpnei	zero,at,250
 800373c:	08003e70 	cmpltui	zero,at,249
 8003740:	08003d20 	cmpeqi	zero,at,244
 8003744:	08003d20 	cmpeqi	zero,at,244
 8003748:	08003e60 	cmpeqi	zero,at,249
 800374c:	08003d20 	cmpeqi	zero,at,244
 8003750:	08003e3c 	xorhi	zero,at,248
 8003754:	08003d20 	cmpeqi	zero,at,244
 8003758:	08003d20 	cmpeqi	zero,at,244
 800375c:	08003f50 	cmplti	zero,at,253
 8003760:	2825883a 	mov	r18,r5
 8003764:	b8800117 	ldw	r2,4(r23)
 8003768:	00844f0e 	bge	zero,r2,80048a8 <__ssvfscanf_r+0x1484>
 800376c:	b8800017 	ldw	r2,0(r23)
 8003770:	90ffffc3 	ldbu	r3,-1(r18)
 8003774:	11000003 	ldbu	r4,0(r2)
 8003778:	20ff6d1e 	bne	r4,r3,8003530 <__alt_data_end+0xf8003530>
 800377c:	b8c00117 	ldw	r3,4(r23)
 8003780:	10800044 	addi	r2,r2,1
 8003784:	b8800015 	stw	r2,0(r23)
 8003788:	18bfffc4 	addi	r2,r3,-1
 800378c:	b8800115 	stw	r2,4(r23)
 8003790:	9cc00044 	addi	r19,r19,1
 8003794:	9023883a 	mov	r17,r18
 8003798:	003f6106 	br	8003520 <__alt_data_end+0xf8003520>
 800379c:	02c20074 	movhi	r11,2049
 80037a0:	5af45504 	addi	r11,r11,-11948
 80037a4:	8839883a 	mov	fp,r17
 80037a8:	2825883a 	mov	r18,r5
 80037ac:	dac0a015 	stw	r11,640(sp)
 80037b0:	d8009e15 	stw	zero,632(sp)
 80037b4:	050000c4 	movi	r20,3
 80037b8:	b8800117 	ldw	r2,4(r23)
 80037bc:	00816a0e 	bge	zero,r2,8003d68 <__ssvfscanf_r+0x944>
 80037c0:	8080100c 	andi	r2,r16,64
 80037c4:	10007a26 	beq	r2,zero,80039b0 <__ssvfscanf_r+0x58c>
 80037c8:	00800084 	movi	r2,2
 80037cc:	a0820a26 	beq	r20,r2,8003ff8 <__ssvfscanf_r+0xbd4>
 80037d0:	1501e70e 	bge	r2,r20,8003f70 <__ssvfscanf_r+0xb4c>
 80037d4:	008000c4 	movi	r2,3
 80037d8:	a0823f26 	beq	r20,r2,80040d8 <__ssvfscanf_r+0xcb4>
 80037dc:	00800104 	movi	r2,4
 80037e0:	a082221e 	bne	r20,r2,800406c <__ssvfscanf_r+0xc48>
 80037e4:	88bfffc4 	addi	r2,r17,-1
 80037e8:	01005704 	movi	r4,348
 80037ec:	20830e2e 	bgeu	r4,r2,8004428 <__ssvfscanf_r+0x1004>
 80037f0:	8c7fa8c4 	addi	r17,r17,-349
 80037f4:	dc40a315 	stw	r17,652(sp)
 80037f8:	07005744 	movi	fp,349
 80037fc:	8401e014 	ori	r16,r16,1920
 8003800:	0023883a 	mov	r17,zero
 8003804:	d9c00104 	addi	r7,sp,4
 8003808:	9011883a 	mov	r8,r18
 800380c:	d800a415 	stw	zero,656(sp)
 8003810:	8825883a 	mov	r18,r17
 8003814:	d800a215 	stw	zero,648(sp)
 8003818:	8023883a 	mov	r17,r16
 800381c:	d8009d15 	stw	zero,628(sp)
 8003820:	e021883a 	mov	r16,fp
 8003824:	d800a115 	stw	zero,644(sp)
 8003828:	0029883a 	mov	r20,zero
 800382c:	02c01384 	movi	r11,78
 8003830:	00fe1fc4 	movi	r3,-1921
 8003834:	3839883a 	mov	fp,r7
 8003838:	b9800017 	ldw	r6,0(r23)
 800383c:	31000003 	ldbu	r4,0(r6)
 8003840:	20bff544 	addi	r2,r4,-43
 8003844:	10803fcc 	andi	r2,r2,255
 8003848:	58807b36 	bltu	r11,r2,8003a38 <__ssvfscanf_r+0x614>
 800384c:	100490ba 	slli	r2,r2,2
 8003850:	01420034 	movhi	r5,2048
 8003854:	294e1904 	addi	r5,r5,14436
 8003858:	1145883a 	add	r2,r2,r5
 800385c:	10800017 	ldw	r2,0(r2)
 8003860:	1000683a 	jmp	r2
 8003864:	08003bc8 	cmpgei	zero,at,239
 8003868:	08003a38 	rdprs	zero,at,232
 800386c:	08003bc8 	cmpgei	zero,at,239
 8003870:	08003bac 	andhi	zero,at,238
 8003874:	08003a38 	rdprs	zero,at,232
 8003878:	08003cd4 	ori	zero,at,243
 800387c:	080039f0 	cmpltui	zero,at,231
 8003880:	080039f0 	cmpltui	zero,at,231
 8003884:	080039f0 	cmpltui	zero,at,231
 8003888:	080039f0 	cmpltui	zero,at,231
 800388c:	080039f0 	cmpltui	zero,at,231
 8003890:	080039f0 	cmpltui	zero,at,231
 8003894:	080039f0 	cmpltui	zero,at,231
 8003898:	080039f0 	cmpltui	zero,at,231
 800389c:	080039f0 	cmpltui	zero,at,231
 80038a0:	08003a38 	rdprs	zero,at,232
 80038a4:	08003a38 	rdprs	zero,at,232
 80038a8:	08003a38 	rdprs	zero,at,232
 80038ac:	08003a38 	rdprs	zero,at,232
 80038b0:	08003a38 	rdprs	zero,at,232
 80038b4:	08003a38 	rdprs	zero,at,232
 80038b8:	08003a38 	rdprs	zero,at,232
 80038bc:	08003cc4 	addi	zero,at,243
 80038c0:	08003a38 	rdprs	zero,at,232
 80038c4:	08003a38 	rdprs	zero,at,232
 80038c8:	08003a38 	rdprs	zero,at,232
 80038cc:	08003c7c 	xorhi	zero,at,241
 80038d0:	08003c60 	cmpeqi	zero,at,241
 80038d4:	08003a38 	rdprs	zero,at,232
 80038d8:	08003a38 	rdprs	zero,at,232
 80038dc:	08003c28 	cmpgeui	zero,at,240
 80038e0:	08003a38 	rdprs	zero,at,232
 80038e4:	08003a38 	rdprs	zero,at,232
 80038e8:	08003a38 	rdprs	zero,at,232
 80038ec:	08003a38 	rdprs	zero,at,232
 80038f0:	08003bf8 	rdprs	zero,at,239
 80038f4:	08003a38 	rdprs	zero,at,232
 80038f8:	08003a38 	rdprs	zero,at,232
 80038fc:	08003a38 	rdprs	zero,at,232
 8003900:	08003a38 	rdprs	zero,at,232
 8003904:	08003a38 	rdprs	zero,at,232
 8003908:	08003bdc 	xori	zero,at,239
 800390c:	08003a38 	rdprs	zero,at,232
 8003910:	08003a38 	rdprs	zero,at,232
 8003914:	08003a38 	rdprs	zero,at,232
 8003918:	08003a38 	rdprs	zero,at,232
 800391c:	08003b90 	cmplti	zero,at,238
 8003920:	08003a38 	rdprs	zero,at,232
 8003924:	08003a38 	rdprs	zero,at,232
 8003928:	08003a38 	rdprs	zero,at,232
 800392c:	08003a38 	rdprs	zero,at,232
 8003930:	08003a38 	rdprs	zero,at,232
 8003934:	08003a38 	rdprs	zero,at,232
 8003938:	08003a38 	rdprs	zero,at,232
 800393c:	08003cc4 	addi	zero,at,243
 8003940:	08003a38 	rdprs	zero,at,232
 8003944:	08003a38 	rdprs	zero,at,232
 8003948:	08003a38 	rdprs	zero,at,232
 800394c:	08003c7c 	xorhi	zero,at,241
 8003950:	08003c60 	cmpeqi	zero,at,241
 8003954:	08003a38 	rdprs	zero,at,232
 8003958:	08003a38 	rdprs	zero,at,232
 800395c:	08003c28 	cmpgeui	zero,at,240
 8003960:	08003a38 	rdprs	zero,at,232
 8003964:	08003a38 	rdprs	zero,at,232
 8003968:	08003a38 	rdprs	zero,at,232
 800396c:	08003a38 	rdprs	zero,at,232
 8003970:	08003bf8 	rdprs	zero,at,239
 8003974:	08003a38 	rdprs	zero,at,232
 8003978:	08003a38 	rdprs	zero,at,232
 800397c:	08003a38 	rdprs	zero,at,232
 8003980:	08003a38 	rdprs	zero,at,232
 8003984:	08003a38 	rdprs	zero,at,232
 8003988:	08003bdc 	xori	zero,at,239
 800398c:	08003a38 	rdprs	zero,at,232
 8003990:	08003a38 	rdprs	zero,at,232
 8003994:	08003a38 	rdprs	zero,at,232
 8003998:	08003a38 	rdprs	zero,at,232
 800399c:	08003b90 	cmplti	zero,at,238
 80039a0:	b009883a 	mov	r4,r22
 80039a4:	b80b883a 	mov	r5,r23
 80039a8:	800dde40 	call	800dde4 <__ssrefill_r>
 80039ac:	1000f21e 	bne	r2,zero,8003d78 <__ssvfscanf_r+0x954>
 80039b0:	a9400017 	ldw	r5,0(r21)
 80039b4:	b9000017 	ldw	r4,0(r23)
 80039b8:	00000206 	br	80039c4 <__ssvfscanf_r+0x5a0>
 80039bc:	21000044 	addi	r4,r4,1
 80039c0:	b9000015 	stw	r4,0(r23)
 80039c4:	20800003 	ldbu	r2,0(r4)
 80039c8:	2885883a 	add	r2,r5,r2
 80039cc:	10800043 	ldbu	r2,1(r2)
 80039d0:	1080020c 	andi	r2,r2,8
 80039d4:	103f7c26 	beq	r2,zero,80037c8 <__alt_data_end+0xf80037c8>
 80039d8:	b8800117 	ldw	r2,4(r23)
 80039dc:	9cc00044 	addi	r19,r19,1
 80039e0:	10bfffc4 	addi	r2,r2,-1
 80039e4:	b8800115 	stw	r2,4(r23)
 80039e8:	00bff416 	blt	zero,r2,80039bc <__alt_data_end+0xf80039bc>
 80039ec:	003fec06 	br	80039a0 <__alt_data_end+0xf80039a0>
 80039f0:	90803fcc 	andi	r2,r18,255
 80039f4:	1080201c 	xori	r2,r2,128
 80039f8:	10bfe004 	addi	r2,r2,-128
 80039fc:	a085883a 	add	r2,r20,r2
 8003a00:	10000d1e 	bne	r2,zero,8003a38 <__ssvfscanf_r+0x614>
 8003a04:	00bf9fc4 	movi	r2,-385
 8003a08:	88a2703a 	and	r17,r17,r2
 8003a0c:	e1000005 	stb	r4,0(fp)
 8003a10:	e7000044 	addi	fp,fp,1
 8003a14:	b8800117 	ldw	r2,4(r23)
 8003a18:	843fffc4 	addi	r16,r16,-1
 8003a1c:	9cc00044 	addi	r19,r19,1
 8003a20:	10bfffc4 	addi	r2,r2,-1
 8003a24:	b8800115 	stw	r2,4(r23)
 8003a28:	00826e0e 	bge	zero,r2,80043e4 <__ssvfscanf_r+0xfc0>
 8003a2c:	31800044 	addi	r6,r6,1
 8003a30:	b9800015 	stw	r6,0(r23)
 8003a34:	803f801e 	bne	r16,zero,8003838 <__alt_data_end+0xf8003838>
 8003a38:	d8c09d17 	ldw	r3,628(sp)
 8003a3c:	8821883a 	mov	r16,r17
 8003a40:	e00f883a 	mov	r7,fp
 8003a44:	9023883a 	mov	r17,r18
 8003a48:	4025883a 	mov	r18,r8
 8003a4c:	1802711e 	bne	r3,zero,8004414 <__ssvfscanf_r+0xff0>
 8003a50:	a33fffc4 	addi	r12,r20,-1
 8003a54:	00800044 	movi	r2,1
 8003a58:	1304262e 	bgeu	r2,r12,8004af4 <__ssvfscanf_r+0x16d0>
 8003a5c:	88803fcc 	andi	r2,r17,255
 8003a60:	1080201c 	xori	r2,r2,128
 8003a64:	10bfe004 	addi	r2,r2,-128
 8003a68:	10ffffc4 	addi	r3,r2,-1
 8003a6c:	01000184 	movi	r4,6
 8003a70:	20c01336 	bltu	r4,r3,8003ac0 <__ssvfscanf_r+0x69c>
 8003a74:	00c00084 	movi	r3,2
 8003a78:	18842a0e 	bge	r3,r2,8004b24 <__ssvfscanf_r+0x1700>
 8003a7c:	050000c4 	movi	r20,3
 8003a80:	8839883a 	mov	fp,r17
 8003a84:	15000e26 	beq	r2,r20,8003ac0 <__ssvfscanf_r+0x69c>
 8003a88:	3823883a 	mov	r17,r7
 8003a8c:	99e7c83a 	sub	r19,r19,r7
 8003a90:	8c7fffc4 	addi	r17,r17,-1
 8003a94:	89400007 	ldb	r5,0(r17)
 8003a98:	b009883a 	mov	r4,r22
 8003a9c:	b80d883a 	mov	r6,r23
 8003aa0:	800dcec0 	call	800dcec <_sungetc_r>
 8003aa4:	e0bfffc4 	addi	r2,fp,-1
 8003aa8:	10c03fcc 	andi	r3,r2,255
 8003aac:	8cd3883a 	add	r9,r17,r19
 8003ab0:	1039883a 	mov	fp,r2
 8003ab4:	a0fff636 	bltu	r20,r3,8003a90 <__alt_data_end+0xf8003a90>
 8003ab8:	4827883a 	mov	r19,r9
 8003abc:	880f883a 	mov	r7,r17
 8003ac0:	8080400c 	andi	r2,r16,256
 8003ac4:	10001626 	beq	r2,zero,8003b20 <__ssvfscanf_r+0x6fc>
 8003ac8:	8081000c 	andi	r2,r16,1024
 8003acc:	1004211e 	bne	r2,zero,8004b54 <__ssvfscanf_r+0x1730>
 8003ad0:	397fffc7 	ldb	r5,-1(r7)
 8003ad4:	00801944 	movi	r2,101
 8003ad8:	3c7fffc4 	addi	r17,r7,-1
 8003adc:	9d3fffc4 	addi	r20,r19,-1
 8003ae0:	28800a26 	beq	r5,r2,8003b0c <__ssvfscanf_r+0x6e8>
 8003ae4:	00801144 	movi	r2,69
 8003ae8:	28800826 	beq	r5,r2,8003b0c <__ssvfscanf_r+0x6e8>
 8003aec:	b009883a 	mov	r4,r22
 8003af0:	b80d883a 	mov	r6,r23
 8003af4:	d9c0a815 	stw	r7,672(sp)
 8003af8:	800dcec0 	call	800dcec <_sungetc_r>
 8003afc:	d9c0a817 	ldw	r7,672(sp)
 8003b00:	9d3fff84 	addi	r20,r19,-2
 8003b04:	397fff87 	ldb	r5,-2(r7)
 8003b08:	3c7fff84 	addi	r17,r7,-2
 8003b0c:	b009883a 	mov	r4,r22
 8003b10:	b80d883a 	mov	r6,r23
 8003b14:	800dcec0 	call	800dcec <_sungetc_r>
 8003b18:	a027883a 	mov	r19,r20
 8003b1c:	880f883a 	mov	r7,r17
 8003b20:	8080040c 	andi	r2,r16,16
 8003b24:	103e7d1e 	bne	r2,zero,800351c <__alt_data_end+0xf800351c>
 8003b28:	38000005 	stb	zero,0(r7)
 8003b2c:	80c1800c 	andi	r3,r16,1536
 8003b30:	00810004 	movi	r2,1024
 8003b34:	18836b26 	beq	r3,r2,80048e4 <__ssvfscanf_r+0x14c0>
 8003b38:	d8c0a217 	ldw	r3,648(sp)
 8003b3c:	1803221e 	bne	r3,zero,80047c8 <__ssvfscanf_r+0x13a4>
 8003b40:	b009883a 	mov	r4,r22
 8003b44:	d9400104 	addi	r5,sp,4
 8003b48:	000d883a 	mov	r6,zero
 8003b4c:	800baf40 	call	800baf4 <_strtod_r>
 8003b50:	1023883a 	mov	r17,r2
 8003b54:	8080004c 	andi	r2,r16,1
 8003b58:	1002eb1e 	bne	r2,zero,8004708 <__ssvfscanf_r+0x12e4>
 8003b5c:	8280008c 	andi	r10,r16,2
 8003b60:	50038e26 	beq	r10,zero,800499c <__ssvfscanf_r+0x1578>
 8003b64:	dac09c17 	ldw	r11,624(sp)
 8003b68:	58800017 	ldw	r2,0(r11)
 8003b6c:	5ac00104 	addi	r11,r11,4
 8003b70:	dac09c15 	stw	r11,624(sp)
 8003b74:	14400015 	stw	r17,0(r2)
 8003b78:	10c00115 	stw	r3,4(r2)
 8003b7c:	dac09f17 	ldw	r11,636(sp)
 8003b80:	9023883a 	mov	r17,r18
 8003b84:	5ac00044 	addi	r11,r11,1
 8003b88:	dac09f15 	stw	r11,636(sp)
 8003b8c:	003e6406 	br	8003520 <__alt_data_end+0xf8003520>
 8003b90:	90803fcc 	andi	r2,r18,255
 8003b94:	1080201c 	xori	r2,r2,128
 8003b98:	10bfe004 	addi	r2,r2,-128
 8003b9c:	014001c4 	movi	r5,7
 8003ba0:	117fa51e 	bne	r2,r5,8003a38 <__alt_data_end+0xf8003a38>
 8003ba4:	04800204 	movi	r18,8
 8003ba8:	003f9806 	br	8003a0c <__alt_data_end+0xf8003a0c>
 8003bac:	8880800c 	andi	r2,r17,512
 8003bb0:	103fa126 	beq	r2,zero,8003a38 <__alt_data_end+0xf8003a38>
 8003bb4:	d9409d17 	ldw	r5,628(sp)
 8003bb8:	00bf5fc4 	movi	r2,-641
 8003bbc:	88a2703a 	and	r17,r17,r2
 8003bc0:	d940a115 	stw	r5,644(sp)
 8003bc4:	003f9106 	br	8003a0c <__alt_data_end+0xf8003a0c>
 8003bc8:	8880200c 	andi	r2,r17,128
 8003bcc:	103f9a26 	beq	r2,zero,8003a38 <__alt_data_end+0xf8003a38>
 8003bd0:	00bfdfc4 	movi	r2,-129
 8003bd4:	88a2703a 	and	r17,r17,r2
 8003bd8:	003f8c06 	br	8003a0c <__alt_data_end+0xf8003a0c>
 8003bdc:	91403fcc 	andi	r5,r18,255
 8003be0:	2940201c 	xori	r5,r5,128
 8003be4:	297fe004 	addi	r5,r5,-128
 8003be8:	00800184 	movi	r2,6
 8003bec:	28bf921e 	bne	r5,r2,8003a38 <__alt_data_end+0xf8003a38>
 8003bf0:	048001c4 	movi	r18,7
 8003bf4:	003f8506 	br	8003a0c <__alt_data_end+0xf8003a0c>
 8003bf8:	a0025c1e 	bne	r20,zero,800456c <__ssvfscanf_r+0x1148>
 8003bfc:	d9409d17 	ldw	r5,628(sp)
 8003c00:	2802d226 	beq	r5,zero,800474c <__ssvfscanf_r+0x1328>
 8003c04:	90803fcc 	andi	r2,r18,255
 8003c08:	1080201c 	xori	r2,r2,128
 8003c0c:	10bfe004 	addi	r2,r2,-128
 8003c10:	01400044 	movi	r5,1
 8003c14:	11400226 	beq	r2,r5,8003c20 <__ssvfscanf_r+0x7fc>
 8003c18:	01400104 	movi	r5,4
 8003c1c:	117f861e 	bne	r2,r5,8003a38 <__alt_data_end+0xf8003a38>
 8003c20:	94800044 	addi	r18,r18,1
 8003c24:	003f7906 	br	8003a0c <__alt_data_end+0xf8003a0c>
 8003c28:	90803fcc 	andi	r2,r18,255
 8003c2c:	1080201c 	xori	r2,r2,128
 8003c30:	10bfe004 	addi	r2,r2,-128
 8003c34:	1002481e 	bne	r2,zero,8004558 <__ssvfscanf_r+0x1134>
 8003c38:	d8809d17 	ldw	r2,628(sp)
 8003c3c:	1002bc1e 	bne	r2,zero,8004730 <__ssvfscanf_r+0x130c>
 8003c40:	8941c00c 	andi	r5,r17,1792
 8003c44:	0081c004 	movi	r2,1792
 8003c48:	28838f26 	beq	r5,r2,8004a88 <__ssvfscanf_r+0x1664>
 8003c4c:	8821883a 	mov	r16,r17
 8003c50:	e00f883a 	mov	r7,fp
 8003c54:	9023883a 	mov	r17,r18
 8003c58:	4025883a 	mov	r18,r8
 8003c5c:	003f7c06 	br	8003a50 <__alt_data_end+0xf8003a50>
 8003c60:	91403fcc 	andi	r5,r18,255
 8003c64:	2940201c 	xori	r5,r5,128
 8003c68:	297fe004 	addi	r5,r5,-128
 8003c6c:	00800084 	movi	r2,2
 8003c70:	28bf711e 	bne	r5,r2,8003a38 <__alt_data_end+0xf8003a38>
 8003c74:	048000c4 	movi	r18,3
 8003c78:	003f6406 	br	8003a0c <__alt_data_end+0xf8003a0c>
 8003c7c:	8881400c 	andi	r2,r17,1280
 8003c80:	01410004 	movi	r5,1024
 8003c84:	11400426 	beq	r2,r5,8003c98 <__ssvfscanf_r+0x874>
 8003c88:	8944703a 	and	r2,r17,r5
 8003c8c:	103f6a26 	beq	r2,zero,8003a38 <__alt_data_end+0xf8003a38>
 8003c90:	d8809d17 	ldw	r2,628(sp)
 8003c94:	103fed26 	beq	r2,zero,8003c4c <__alt_data_end+0xf8003c4c>
 8003c98:	8880800c 	andi	r2,r17,512
 8003c9c:	1000051e 	bne	r2,zero,8003cb4 <__ssvfscanf_r+0x890>
 8003ca0:	d9409d17 	ldw	r5,628(sp)
 8003ca4:	d880a117 	ldw	r2,644(sp)
 8003ca8:	df00a415 	stw	fp,656(sp)
 8003cac:	288bc83a 	sub	r5,r5,r2
 8003cb0:	d940a215 	stw	r5,648(sp)
 8003cb4:	88e2703a 	and	r17,r17,r3
 8003cb8:	8c406014 	ori	r17,r17,384
 8003cbc:	d8009d15 	stw	zero,628(sp)
 8003cc0:	003f5206 	br	8003a0c <__alt_data_end+0xf8003a0c>
 8003cc4:	00800044 	movi	r2,1
 8003cc8:	a0bf5b1e 	bne	r20,r2,8003a38 <__alt_data_end+0xf8003a38>
 8003ccc:	05000084 	movi	r20,2
 8003cd0:	003f4e06 	br	8003a0c <__alt_data_end+0xf8003a0c>
 8003cd4:	8880400c 	andi	r2,r17,256
 8003cd8:	103f4526 	beq	r2,zero,80039f0 <__alt_data_end+0xf80039f0>
 8003cdc:	00bfdfc4 	movi	r2,-129
 8003ce0:	88a2703a 	and	r17,r17,r2
 8003ce4:	d8809d17 	ldw	r2,628(sp)
 8003ce8:	d900a317 	ldw	r4,652(sp)
 8003cec:	10800044 	addi	r2,r2,1
 8003cf0:	d8809d15 	stw	r2,628(sp)
 8003cf4:	203f4726 	beq	r4,zero,8003a14 <__alt_data_end+0xf8003a14>
 8003cf8:	213fffc4 	addi	r4,r4,-1
 8003cfc:	d900a315 	stw	r4,652(sp)
 8003d00:	84000044 	addi	r16,r16,1
 8003d04:	003f4306 	br	8003a14 <__alt_data_end+0xf8003a14>
 8003d08:	90c00043 	ldbu	r3,1(r18)
 8003d0c:	2825883a 	mov	r18,r5
 8003d10:	84000414 	ori	r16,r16,16
 8003d14:	18803fcc 	andi	r2,r3,255
 8003d18:	91400044 	addi	r5,r18,1
 8003d1c:	30be112e 	bgeu	r6,r2,8003564 <__alt_data_end+0xf8003564>
 8003d20:	18c03fcc 	andi	r3,r3,255
 8003d24:	18c0201c 	xori	r3,r3,128
 8003d28:	18ffe004 	addi	r3,r3,-128
 8003d2c:	20c9883a 	add	r4,r4,r3
 8003d30:	20800043 	ldbu	r2,1(r4)
 8003d34:	00c00044 	movi	r3,1
 8003d38:	2825883a 	mov	r18,r5
 8003d3c:	108000cc 	andi	r2,r2,3
 8003d40:	10c2ee26 	beq	r2,r3,80048fc <__ssvfscanf_r+0x14d8>
 8003d44:	00820074 	movhi	r2,2049
 8003d48:	10b45504 	addi	r2,r2,-11948
 8003d4c:	d880a015 	stw	r2,640(sp)
 8003d50:	b8800117 	ldw	r2,4(r23)
 8003d54:	02000284 	movi	r8,10
 8003d58:	da009e15 	stw	r8,632(sp)
 8003d5c:	8839883a 	mov	fp,r17
 8003d60:	050000c4 	movi	r20,3
 8003d64:	00be9616 	blt	zero,r2,80037c0 <__alt_data_end+0xf80037c0>
 8003d68:	b009883a 	mov	r4,r22
 8003d6c:	b80b883a 	mov	r5,r23
 8003d70:	800dde40 	call	800dde4 <__ssrefill_r>
 8003d74:	103e9226 	beq	r2,zero,80037c0 <__alt_data_end+0xf80037c0>
 8003d78:	8008c700 	call	8008c70 <__sfp_lock_release>
 8003d7c:	da009f17 	ldw	r8,636(sp)
 8003d80:	40007926 	beq	r8,zero,8003f68 <__ssvfscanf_r+0xb44>
 8003d84:	b880030b 	ldhu	r2,12(r23)
 8003d88:	1080100c 	andi	r2,r2,64
 8003d8c:	1000761e 	bne	r2,zero,8003f68 <__ssvfscanf_r+0xb44>
 8003d90:	4005883a 	mov	r2,r8
 8003d94:	00000206 	br	8003da0 <__ssvfscanf_r+0x97c>
 8003d98:	8008c700 	call	8008c70 <__sfp_lock_release>
 8003d9c:	00bfffc4 	movi	r2,-1
 8003da0:	dfc0b417 	ldw	ra,720(sp)
 8003da4:	df00b317 	ldw	fp,716(sp)
 8003da8:	ddc0b217 	ldw	r23,712(sp)
 8003dac:	dd80b117 	ldw	r22,708(sp)
 8003db0:	dd40b017 	ldw	r21,704(sp)
 8003db4:	dd00af17 	ldw	r20,700(sp)
 8003db8:	dcc0ae17 	ldw	r19,696(sp)
 8003dbc:	dc80ad17 	ldw	r18,692(sp)
 8003dc0:	dc40ac17 	ldw	r17,688(sp)
 8003dc4:	dc00ab17 	ldw	r16,684(sp)
 8003dc8:	dec0b504 	addi	sp,sp,724
 8003dcc:	f800283a 	ret
 8003dd0:	90c00043 	ldbu	r3,1(r18)
 8003dd4:	84000094 	ori	r16,r16,2
 8003dd8:	2825883a 	mov	r18,r5
 8003ddc:	003dde06 	br	8003558 <__alt_data_end+0xf8003558>
 8003de0:	2825883a 	mov	r18,r5
 8003de4:	8839883a 	mov	fp,r17
 8003de8:	05000104 	movi	r20,4
 8003dec:	003e7206 	br	80037b8 <__alt_data_end+0xf80037b8>
 8003df0:	2825883a 	mov	r18,r5
 8003df4:	84000054 	ori	r16,r16,1
 8003df8:	02c20074 	movhi	r11,2049
 8003dfc:	5af45504 	addi	r11,r11,-11948
 8003e00:	02000284 	movi	r8,10
 8003e04:	8839883a 	mov	fp,r17
 8003e08:	dac0a015 	stw	r11,640(sp)
 8003e0c:	da009e15 	stw	r8,632(sp)
 8003e10:	050000c4 	movi	r20,3
 8003e14:	003e6806 	br	80037b8 <__alt_data_end+0xf80037b8>
 8003e18:	18803fcc 	andi	r2,r3,255
 8003e1c:	8c4002a4 	muli	r17,r17,10
 8003e20:	1080201c 	xori	r2,r2,128
 8003e24:	10bfe004 	addi	r2,r2,-128
 8003e28:	88a3883a 	add	r17,r17,r2
 8003e2c:	90c00043 	ldbu	r3,1(r18)
 8003e30:	8c7ff404 	addi	r17,r17,-48
 8003e34:	2825883a 	mov	r18,r5
 8003e38:	003dc706 	br	8003558 <__alt_data_end+0xf8003558>
 8003e3c:	02c20074 	movhi	r11,2049
 8003e40:	5af5bb04 	addi	r11,r11,-10516
 8003e44:	02000284 	movi	r8,10
 8003e48:	2825883a 	mov	r18,r5
 8003e4c:	8839883a 	mov	fp,r17
 8003e50:	dac0a015 	stw	r11,640(sp)
 8003e54:	da009e15 	stw	r8,632(sp)
 8003e58:	050000c4 	movi	r20,3
 8003e5c:	003e5606 	br	80037b8 <__alt_data_end+0xf80037b8>
 8003e60:	2825883a 	mov	r18,r5
 8003e64:	8839883a 	mov	fp,r17
 8003e68:	05000084 	movi	r20,2
 8003e6c:	003e5206 	br	80037b8 <__alt_data_end+0xf80037b8>
 8003e70:	2825883a 	mov	r18,r5
 8003e74:	84008814 	ori	r16,r16,544
 8003e78:	02c20074 	movhi	r11,2049
 8003e7c:	5af5bb04 	addi	r11,r11,-10516
 8003e80:	02000404 	movi	r8,16
 8003e84:	8839883a 	mov	fp,r17
 8003e88:	dac0a015 	stw	r11,640(sp)
 8003e8c:	da009e15 	stw	r8,632(sp)
 8003e90:	050000c4 	movi	r20,3
 8003e94:	003e4806 	br	80037b8 <__alt_data_end+0xf80037b8>
 8003e98:	2825883a 	mov	r18,r5
 8003e9c:	02c20074 	movhi	r11,2049
 8003ea0:	5af5bb04 	addi	r11,r11,-10516
 8003ea4:	02000204 	movi	r8,8
 8003ea8:	8839883a 	mov	fp,r17
 8003eac:	dac0a015 	stw	r11,640(sp)
 8003eb0:	da009e15 	stw	r8,632(sp)
 8003eb4:	050000c4 	movi	r20,3
 8003eb8:	003e3f06 	br	80037b8 <__alt_data_end+0xf80037b8>
 8003ebc:	8080040c 	andi	r2,r16,16
 8003ec0:	2825883a 	mov	r18,r5
 8003ec4:	103d951e 	bne	r2,zero,800351c <__alt_data_end+0xf800351c>
 8003ec8:	8080010c 	andi	r2,r16,4
 8003ecc:	10028d26 	beq	r2,zero,8004904 <__ssvfscanf_r+0x14e0>
 8003ed0:	dac09c17 	ldw	r11,624(sp)
 8003ed4:	58800017 	ldw	r2,0(r11)
 8003ed8:	5ac00104 	addi	r11,r11,4
 8003edc:	dac09c15 	stw	r11,624(sp)
 8003ee0:	14c0000d 	sth	r19,0(r2)
 8003ee4:	003d8d06 	br	800351c <__alt_data_end+0xf800351c>
 8003ee8:	90c00043 	ldbu	r3,1(r18)
 8003eec:	18803fcc 	andi	r2,r3,255
 8003ef0:	1080201c 	xori	r2,r2,128
 8003ef4:	10bfe004 	addi	r2,r2,-128
 8003ef8:	11c27626 	beq	r2,r7,80048d4 <__ssvfscanf_r+0x14b0>
 8003efc:	84000054 	ori	r16,r16,1
 8003f00:	2825883a 	mov	r18,r5
 8003f04:	003d9406 	br	8003558 <__alt_data_end+0xf8003558>
 8003f08:	90c00043 	ldbu	r3,1(r18)
 8003f0c:	84000114 	ori	r16,r16,4
 8003f10:	2825883a 	mov	r18,r5
 8003f14:	003d9006 	br	8003558 <__alt_data_end+0xf8003558>
 8003f18:	2825883a 	mov	r18,r5
 8003f1c:	003fb606 	br	8003df8 <__alt_data_end+0xf8003df8>
 8003f20:	2825883a 	mov	r18,r5
 8003f24:	84001014 	ori	r16,r16,64
 8003f28:	8839883a 	mov	fp,r17
 8003f2c:	0029883a 	mov	r20,zero
 8003f30:	003e2106 	br	80037b8 <__alt_data_end+0xf80037b8>
 8003f34:	d9005884 	addi	r4,sp,354
 8003f38:	800b8c40 	call	800b8c4 <__sccl>
 8003f3c:	1025883a 	mov	r18,r2
 8003f40:	84001014 	ori	r16,r16,64
 8003f44:	8839883a 	mov	fp,r17
 8003f48:	05000044 	movi	r20,1
 8003f4c:	003e1a06 	br	80037b8 <__alt_data_end+0xf80037b8>
 8003f50:	2825883a 	mov	r18,r5
 8003f54:	84008014 	ori	r16,r16,512
 8003f58:	003fc706 	br	8003e78 <__alt_data_end+0xf8003e78>
 8003f5c:	2825883a 	mov	r18,r5
 8003f60:	84000054 	ori	r16,r16,1
 8003f64:	003fcd06 	br	8003e9c <__alt_data_end+0xf8003e9c>
 8003f68:	00bfffc4 	movi	r2,-1
 8003f6c:	003f8c06 	br	8003da0 <__alt_data_end+0xf8003da0>
 8003f70:	00800044 	movi	r2,1
 8003f74:	a0803d1e 	bne	r20,r2,800406c <__ssvfscanf_r+0xc48>
 8003f78:	8800011e 	bne	r17,zero,8003f80 <__ssvfscanf_r+0xb5c>
 8003f7c:	073fffc4 	movi	fp,-1
 8003f80:	8400040c 	andi	r16,r16,16
 8003f84:	80012a26 	beq	r16,zero,8004430 <__ssvfscanf_r+0x100c>
 8003f88:	b9000017 	ldw	r4,0(r23)
 8003f8c:	0021883a 	mov	r16,zero
 8003f90:	dc405884 	addi	r17,sp,354
 8003f94:	20800003 	ldbu	r2,0(r4)
 8003f98:	8885883a 	add	r2,r17,r2
 8003f9c:	10800007 	ldb	r2,0(r2)
 8003fa0:	10001126 	beq	r2,zero,8003fe8 <__ssvfscanf_r+0xbc4>
 8003fa4:	b8800117 	ldw	r2,4(r23)
 8003fa8:	21000044 	addi	r4,r4,1
 8003fac:	84000044 	addi	r16,r16,1
 8003fb0:	10bfffc4 	addi	r2,r2,-1
 8003fb4:	b8800115 	stw	r2,4(r23)
 8003fb8:	b9000015 	stw	r4,0(r23)
 8003fbc:	e4000b26 	beq	fp,r16,8003fec <__ssvfscanf_r+0xbc8>
 8003fc0:	00bff416 	blt	zero,r2,8003f94 <__alt_data_end+0xf8003f94>
 8003fc4:	b009883a 	mov	r4,r22
 8003fc8:	b80b883a 	mov	r5,r23
 8003fcc:	800dde40 	call	800dde4 <__ssrefill_r>
 8003fd0:	1000061e 	bne	r2,zero,8003fec <__ssvfscanf_r+0xbc8>
 8003fd4:	b9000017 	ldw	r4,0(r23)
 8003fd8:	20800003 	ldbu	r2,0(r4)
 8003fdc:	8885883a 	add	r2,r17,r2
 8003fe0:	10800007 	ldb	r2,0(r2)
 8003fe4:	103fef1e 	bne	r2,zero,8003fa4 <__alt_data_end+0xf8003fa4>
 8003fe8:	803d5126 	beq	r16,zero,8003530 <__alt_data_end+0xf8003530>
 8003fec:	9c27883a 	add	r19,r19,r16
 8003ff0:	9023883a 	mov	r17,r18
 8003ff4:	003d4a06 	br	8003520 <__alt_data_end+0xf8003520>
 8003ff8:	8800011e 	bne	r17,zero,8004000 <__ssvfscanf_r+0xbdc>
 8003ffc:	073fffc4 	movi	fp,-1
 8004000:	8080004c 	andi	r2,r16,1
 8004004:	10016f1e 	bne	r2,zero,80045c4 <__ssvfscanf_r+0x11a0>
 8004008:	8400040c 	andi	r16,r16,16
 800400c:	80012a26 	beq	r16,zero,80044b8 <__ssvfscanf_r+0x1094>
 8004010:	a9400017 	ldw	r5,0(r21)
 8004014:	b9000017 	ldw	r4,0(r23)
 8004018:	0021883a 	mov	r16,zero
 800401c:	20800003 	ldbu	r2,0(r4)
 8004020:	2885883a 	add	r2,r5,r2
 8004024:	10800043 	ldbu	r2,1(r2)
 8004028:	1080020c 	andi	r2,r2,8
 800402c:	103fef1e 	bne	r2,zero,8003fec <__alt_data_end+0xf8003fec>
 8004030:	b8800117 	ldw	r2,4(r23)
 8004034:	21000044 	addi	r4,r4,1
 8004038:	84000044 	addi	r16,r16,1
 800403c:	10bfffc4 	addi	r2,r2,-1
 8004040:	b8800115 	stw	r2,4(r23)
 8004044:	b9000015 	stw	r4,0(r23)
 8004048:	e43fe826 	beq	fp,r16,8003fec <__alt_data_end+0xf8003fec>
 800404c:	00bff316 	blt	zero,r2,800401c <__alt_data_end+0xf800401c>
 8004050:	b009883a 	mov	r4,r22
 8004054:	b80b883a 	mov	r5,r23
 8004058:	800dde40 	call	800dde4 <__ssrefill_r>
 800405c:	103fe31e 	bne	r2,zero,8003fec <__alt_data_end+0xf8003fec>
 8004060:	a9400017 	ldw	r5,0(r21)
 8004064:	b9000017 	ldw	r4,0(r23)
 8004068:	003fec06 	br	800401c <__alt_data_end+0xf800401c>
 800406c:	8800011e 	bne	r17,zero,8004074 <__ssvfscanf_r+0xc50>
 8004070:	07000044 	movi	fp,1
 8004074:	8080004c 	andi	r2,r16,1
 8004078:	1001701e 	bne	r2,zero,800463c <__ssvfscanf_r+0x1218>
 800407c:	8400040c 	andi	r16,r16,16
 8004080:	8001f626 	beq	r16,zero,800485c <__ssvfscanf_r+0x1438>
 8004084:	0021883a 	mov	r16,zero
 8004088:	00000906 	br	80040b0 <__ssvfscanf_r+0xc8c>
 800408c:	b8c00017 	ldw	r3,0(r23)
 8004090:	b009883a 	mov	r4,r22
 8004094:	b80b883a 	mov	r5,r23
 8004098:	1887883a 	add	r3,r3,r2
 800409c:	b8c00015 	stw	r3,0(r23)
 80040a0:	80a1883a 	add	r16,r16,r2
 80040a4:	e0b9c83a 	sub	fp,fp,r2
 80040a8:	800dde40 	call	800dde4 <__ssrefill_r>
 80040ac:	1001e81e 	bne	r2,zero,8004850 <__ssvfscanf_r+0x142c>
 80040b0:	b8800117 	ldw	r2,4(r23)
 80040b4:	173ff516 	blt	r2,fp,800408c <__alt_data_end+0xf800408c>
 80040b8:	b9000017 	ldw	r4,0(r23)
 80040bc:	1705c83a 	sub	r2,r2,fp
 80040c0:	e421883a 	add	r16,fp,r16
 80040c4:	2707883a 	add	r3,r4,fp
 80040c8:	b8800115 	stw	r2,4(r23)
 80040cc:	b8c00015 	stw	r3,0(r23)
 80040d0:	9c27883a 	add	r19,r19,r16
 80040d4:	003fc606 	br	8003ff0 <__alt_data_end+0xf8003ff0>
 80040d8:	88bfffc4 	addi	r2,r17,-1
 80040dc:	01005704 	movi	r4,348
 80040e0:	2080cf2e 	bgeu	r4,r2,8004420 <__ssvfscanf_r+0xffc>
 80040e4:	89ffa8c4 	addi	r7,r17,-349
 80040e8:	07005744 	movi	fp,349
 80040ec:	84436014 	ori	r17,r16,3456
 80040f0:	0021883a 	mov	r16,zero
 80040f4:	9013883a 	mov	r9,r18
 80040f8:	8025883a 	mov	r18,r16
 80040fc:	dc009e17 	ldw	r16,632(sp)
 8004100:	dd000104 	addi	r20,sp,4
 8004104:	02001344 	movi	r8,77
 8004108:	02808004 	movi	r10,512
 800410c:	01bf7fc4 	movi	r6,-513
 8004110:	00ffdfc4 	movi	r3,-129
 8004114:	b9000017 	ldw	r4,0(r23)
 8004118:	21400003 	ldbu	r5,0(r4)
 800411c:	28bff544 	addi	r2,r5,-43
 8004120:	10803fcc 	andi	r2,r2,255
 8004124:	40806336 	bltu	r8,r2,80042b4 <__ssvfscanf_r+0xe90>
 8004128:	100490ba 	slli	r2,r2,2
 800412c:	02c20034 	movhi	r11,2048
 8004130:	5ad05004 	addi	r11,r11,16704
 8004134:	12c5883a 	add	r2,r2,r11
 8004138:	10800017 	ldw	r2,0(r2)
 800413c:	1000683a 	jmp	r2
 8004140:	080043d4 	ori	zero,at,271
 8004144:	080042b4 	orhi	zero,at,266
 8004148:	080043d4 	ori	zero,at,271
 800414c:	080042b4 	orhi	zero,at,266
 8004150:	080042b4 	orhi	zero,at,266
 8004154:	0800434c 	andi	zero,at,269
 8004158:	0800432c 	andhi	zero,at,268
 800415c:	0800432c 	andhi	zero,at,268
 8004160:	0800432c 	andhi	zero,at,268
 8004164:	0800432c 	andhi	zero,at,268
 8004168:	0800432c 	andhi	zero,at,268
 800416c:	0800432c 	andhi	zero,at,268
 8004170:	0800432c 	andhi	zero,at,268
 8004174:	0800430c 	andi	zero,at,268
 8004178:	0800430c 	andi	zero,at,268
 800417c:	080042b4 	orhi	zero,at,266
 8004180:	080042b4 	orhi	zero,at,266
 8004184:	080042b4 	orhi	zero,at,266
 8004188:	080042b4 	orhi	zero,at,266
 800418c:	080042b4 	orhi	zero,at,266
 8004190:	080042b4 	orhi	zero,at,266
 8004194:	080042b4 	orhi	zero,at,266
 8004198:	080042f8 	rdprs	zero,at,267
 800419c:	080042f8 	rdprs	zero,at,267
 80041a0:	080042f8 	rdprs	zero,at,267
 80041a4:	080042f8 	rdprs	zero,at,267
 80041a8:	080042f8 	rdprs	zero,at,267
 80041ac:	080042f8 	rdprs	zero,at,267
 80041b0:	080042b4 	orhi	zero,at,266
 80041b4:	080042b4 	orhi	zero,at,266
 80041b8:	080042b4 	orhi	zero,at,266
 80041bc:	080042b4 	orhi	zero,at,266
 80041c0:	080042b4 	orhi	zero,at,266
 80041c4:	080042b4 	orhi	zero,at,266
 80041c8:	080042b4 	orhi	zero,at,266
 80041cc:	080042b4 	orhi	zero,at,266
 80041d0:	080042b4 	orhi	zero,at,266
 80041d4:	080042b4 	orhi	zero,at,266
 80041d8:	080042b4 	orhi	zero,at,266
 80041dc:	080042b4 	orhi	zero,at,266
 80041e0:	080042b4 	orhi	zero,at,266
 80041e4:	080042b4 	orhi	zero,at,266
 80041e8:	080042b4 	orhi	zero,at,266
 80041ec:	080042b4 	orhi	zero,at,266
 80041f0:	080042b4 	orhi	zero,at,266
 80041f4:	08004278 	rdprs	zero,at,265
 80041f8:	080042b4 	orhi	zero,at,266
 80041fc:	080042b4 	orhi	zero,at,266
 8004200:	080042b4 	orhi	zero,at,266
 8004204:	080042b4 	orhi	zero,at,266
 8004208:	080042b4 	orhi	zero,at,266
 800420c:	080042b4 	orhi	zero,at,266
 8004210:	080042b4 	orhi	zero,at,266
 8004214:	080042b4 	orhi	zero,at,266
 8004218:	080042f8 	rdprs	zero,at,267
 800421c:	080042f8 	rdprs	zero,at,267
 8004220:	080042f8 	rdprs	zero,at,267
 8004224:	080042f8 	rdprs	zero,at,267
 8004228:	080042f8 	rdprs	zero,at,267
 800422c:	080042f8 	rdprs	zero,at,267
 8004230:	080042b4 	orhi	zero,at,266
 8004234:	080042b4 	orhi	zero,at,266
 8004238:	080042b4 	orhi	zero,at,266
 800423c:	080042b4 	orhi	zero,at,266
 8004240:	080042b4 	orhi	zero,at,266
 8004244:	080042b4 	orhi	zero,at,266
 8004248:	080042b4 	orhi	zero,at,266
 800424c:	080042b4 	orhi	zero,at,266
 8004250:	080042b4 	orhi	zero,at,266
 8004254:	080042b4 	orhi	zero,at,266
 8004258:	080042b4 	orhi	zero,at,266
 800425c:	080042b4 	orhi	zero,at,266
 8004260:	080042b4 	orhi	zero,at,266
 8004264:	080042b4 	orhi	zero,at,266
 8004268:	080042b4 	orhi	zero,at,266
 800426c:	080042b4 	orhi	zero,at,266
 8004270:	080042b4 	orhi	zero,at,266
 8004274:	08004278 	rdprs	zero,at,265
 8004278:	8881800c 	andi	r2,r17,1536
 800427c:	12800d1e 	bne	r2,r10,80042b4 <__ssvfscanf_r+0xe90>
 8004280:	89a2703a 	and	r17,r17,r6
 8004284:	8c414014 	ori	r17,r17,1280
 8004288:	04000404 	movi	r16,16
 800428c:	b8800117 	ldw	r2,4(r23)
 8004290:	a1400005 	stb	r5,0(r20)
 8004294:	a5000044 	addi	r20,r20,1
 8004298:	10bfffc4 	addi	r2,r2,-1
 800429c:	b8800115 	stw	r2,4(r23)
 80042a0:	00803b0e 	bge	zero,r2,8004390 <__ssvfscanf_r+0xf6c>
 80042a4:	21000044 	addi	r4,r4,1
 80042a8:	b9000015 	stw	r4,0(r23)
 80042ac:	e73fffc4 	addi	fp,fp,-1
 80042b0:	e03f981e 	bne	fp,zero,8004114 <__alt_data_end+0xf8004114>
 80042b4:	dc009e15 	stw	r16,632(sp)
 80042b8:	8880400c 	andi	r2,r17,256
 80042bc:	9021883a 	mov	r16,r18
 80042c0:	4825883a 	mov	r18,r9
 80042c4:	10000426 	beq	r2,zero,80042d8 <__ssvfscanf_r+0xeb4>
 80042c8:	d8800104 	addi	r2,sp,4
 80042cc:	15017b36 	bltu	r2,r20,80048bc <__ssvfscanf_r+0x1498>
 80042d0:	d8c00104 	addi	r3,sp,4
 80042d4:	1d3c9626 	beq	r3,r20,8003530 <__alt_data_end+0xf8003530>
 80042d8:	8880040c 	andi	r2,r17,16
 80042dc:	1000a726 	beq	r2,zero,800457c <__ssvfscanf_r+0x1158>
 80042e0:	dac00104 	addi	r11,sp,4
 80042e4:	a2e9c83a 	sub	r20,r20,r11
 80042e8:	a429883a 	add	r20,r20,r16
 80042ec:	9d27883a 	add	r19,r19,r20
 80042f0:	9023883a 	mov	r17,r18
 80042f4:	003c8a06 	br	8003520 <__alt_data_end+0xf8003520>
 80042f8:	00800284 	movi	r2,10
 80042fc:	143fed0e 	bge	r2,r16,80042b4 <__alt_data_end+0xf80042b4>
 8004300:	00bd1fc4 	movi	r2,-2945
 8004304:	88a2703a 	and	r17,r17,r2
 8004308:	003fe006 	br	800428c <__alt_data_end+0xf800428c>
 800430c:	02c200b4 	movhi	r11,2050
 8004310:	8421883a 	add	r16,r16,r16
 8004314:	5af22184 	addi	r11,r11,-14202
 8004318:	5c05883a 	add	r2,r11,r16
 800431c:	1400000f 	ldh	r16,0(r2)
 8004320:	00800204 	movi	r2,8
 8004324:	143ff616 	blt	r2,r16,8004300 <__alt_data_end+0xf8004300>
 8004328:	003fe206 	br	80042b4 <__alt_data_end+0xf80042b4>
 800432c:	02c200b4 	movhi	r11,2050
 8004330:	8421883a 	add	r16,r16,r16
 8004334:	5af22184 	addi	r11,r11,-14202
 8004338:	5c05883a 	add	r2,r11,r16
 800433c:	1400000f 	ldh	r16,0(r2)
 8004340:	00bd1fc4 	movi	r2,-2945
 8004344:	88a2703a 	and	r17,r17,r2
 8004348:	003fd006 	br	800428c <__alt_data_end+0xf800428c>
 800434c:	8882000c 	andi	r2,r17,2048
 8004350:	103fce26 	beq	r2,zero,800428c <__alt_data_end+0xf800428c>
 8004354:	8000021e 	bne	r16,zero,8004360 <__ssvfscanf_r+0xf3c>
 8004358:	8c408014 	ori	r17,r17,512
 800435c:	04000204 	movi	r16,8
 8004360:	8881000c 	andi	r2,r17,1024
 8004364:	1000ef1e 	bne	r2,zero,8004724 <__ssvfscanf_r+0x1300>
 8004368:	00bf1fc4 	movi	r2,-897
 800436c:	88a2703a 	and	r17,r17,r2
 8004370:	38000226 	beq	r7,zero,800437c <__ssvfscanf_r+0xf58>
 8004374:	39ffffc4 	addi	r7,r7,-1
 8004378:	e7000044 	addi	fp,fp,1
 800437c:	b8800117 	ldw	r2,4(r23)
 8004380:	94800044 	addi	r18,r18,1
 8004384:	10bfffc4 	addi	r2,r2,-1
 8004388:	b8800115 	stw	r2,4(r23)
 800438c:	00bfc516 	blt	zero,r2,80042a4 <__alt_data_end+0xf80042a4>
 8004390:	b009883a 	mov	r4,r22
 8004394:	b80b883a 	mov	r5,r23
 8004398:	d8c0aa15 	stw	r3,680(sp)
 800439c:	d980a615 	stw	r6,664(sp)
 80043a0:	d9c0a815 	stw	r7,672(sp)
 80043a4:	da00a915 	stw	r8,676(sp)
 80043a8:	da40a715 	stw	r9,668(sp)
 80043ac:	da80a515 	stw	r10,660(sp)
 80043b0:	800dde40 	call	800dde4 <__ssrefill_r>
 80043b4:	d8c0aa17 	ldw	r3,680(sp)
 80043b8:	d980a617 	ldw	r6,664(sp)
 80043bc:	d9c0a817 	ldw	r7,672(sp)
 80043c0:	da00a917 	ldw	r8,676(sp)
 80043c4:	da40a717 	ldw	r9,668(sp)
 80043c8:	da80a517 	ldw	r10,660(sp)
 80043cc:	103fb726 	beq	r2,zero,80042ac <__alt_data_end+0xf80042ac>
 80043d0:	003fb806 	br	80042b4 <__alt_data_end+0xf80042b4>
 80043d4:	8880200c 	andi	r2,r17,128
 80043d8:	103fb626 	beq	r2,zero,80042b4 <__alt_data_end+0xf80042b4>
 80043dc:	88e2703a 	and	r17,r17,r3
 80043e0:	003faa06 	br	800428c <__alt_data_end+0xf800428c>
 80043e4:	b009883a 	mov	r4,r22
 80043e8:	b80b883a 	mov	r5,r23
 80043ec:	d8c0aa15 	stw	r3,680(sp)
 80043f0:	da00a915 	stw	r8,676(sp)
 80043f4:	dac0a515 	stw	r11,660(sp)
 80043f8:	800dde40 	call	800dde4 <__ssrefill_r>
 80043fc:	d8c0aa17 	ldw	r3,680(sp)
 8004400:	da00a917 	ldw	r8,676(sp)
 8004404:	dac0a517 	ldw	r11,660(sp)
 8004408:	103d8b1e 	bne	r2,zero,8003a38 <__alt_data_end+0xf8003a38>
 800440c:	803d0a1e 	bne	r16,zero,8003838 <__alt_data_end+0xf8003838>
 8004410:	003d8906 	br	8003a38 <__alt_data_end+0xf8003a38>
 8004414:	00bfbfc4 	movi	r2,-257
 8004418:	80a0703a 	and	r16,r16,r2
 800441c:	003d8c06 	br	8003a50 <__alt_data_end+0xf8003a50>
 8004420:	000f883a 	mov	r7,zero
 8004424:	003f3106 	br	80040ec <__alt_data_end+0xf80040ec>
 8004428:	d800a315 	stw	zero,652(sp)
 800442c:	003cf306 	br	80037fc <__alt_data_end+0xf80037fc>
 8004430:	dac09c17 	ldw	r11,624(sp)
 8004434:	e0ffffc4 	addi	r3,fp,-1
 8004438:	dc405884 	addi	r17,sp,354
 800443c:	5c000017 	ldw	r16,0(r11)
 8004440:	5a000104 	addi	r8,r11,4
 8004444:	da009c15 	stw	r8,624(sp)
 8004448:	800b883a 	mov	r5,r16
 800444c:	80e9883a 	add	r20,r16,r3
 8004450:	00000106 	br	8004458 <__ssvfscanf_r+0x1034>
 8004454:	e00b883a 	mov	r5,fp
 8004458:	b8c00017 	ldw	r3,0(r23)
 800445c:	280d883a 	mov	r6,r5
 8004460:	18800003 	ldbu	r2,0(r3)
 8004464:	8885883a 	add	r2,r17,r2
 8004468:	10800007 	ldb	r2,0(r2)
 800446c:	1000f626 	beq	r2,zero,8004848 <__ssvfscanf_r+0x1424>
 8004470:	b8800117 	ldw	r2,4(r23)
 8004474:	19c00044 	addi	r7,r3,1
 8004478:	b9c00015 	stw	r7,0(r23)
 800447c:	10bfffc4 	addi	r2,r2,-1
 8004480:	b8800115 	stw	r2,4(r23)
 8004484:	18800003 	ldbu	r2,0(r3)
 8004488:	37000044 	addi	fp,r6,1
 800448c:	28800005 	stb	r2,0(r5)
 8004490:	3500e426 	beq	r6,r20,8004824 <__ssvfscanf_r+0x1400>
 8004494:	b8800117 	ldw	r2,4(r23)
 8004498:	00bfee16 	blt	zero,r2,8004454 <__alt_data_end+0xf8004454>
 800449c:	b009883a 	mov	r4,r22
 80044a0:	b80b883a 	mov	r5,r23
 80044a4:	800dde40 	call	800dde4 <__ssrefill_r>
 80044a8:	103fea26 	beq	r2,zero,8004454 <__alt_data_end+0xf8004454>
 80044ac:	e009883a 	mov	r4,fp
 80044b0:	8700dd1e 	bne	r16,fp,8004828 <__ssvfscanf_r+0x1404>
 80044b4:	003e3006 	br	8003d78 <__alt_data_end+0xf8003d78>
 80044b8:	da009c17 	ldw	r8,624(sp)
 80044bc:	e0ffffc4 	addi	r3,fp,-1
 80044c0:	44400017 	ldw	r17,0(r8)
 80044c4:	42c00104 	addi	r11,r8,4
 80044c8:	dac09c15 	stw	r11,624(sp)
 80044cc:	88e9883a 	add	r20,r17,r3
 80044d0:	880b883a 	mov	r5,r17
 80044d4:	00000106 	br	80044dc <__ssvfscanf_r+0x10b8>
 80044d8:	800b883a 	mov	r5,r16
 80044dc:	b8c00017 	ldw	r3,0(r23)
 80044e0:	a9800017 	ldw	r6,0(r21)
 80044e4:	18800003 	ldbu	r2,0(r3)
 80044e8:	3085883a 	add	r2,r6,r2
 80044ec:	10800043 	ldbu	r2,1(r2)
 80044f0:	1080020c 	andi	r2,r2,8
 80044f4:	1000ea1e 	bne	r2,zero,80048a0 <__ssvfscanf_r+0x147c>
 80044f8:	b8800117 	ldw	r2,4(r23)
 80044fc:	19800044 	addi	r6,r3,1
 8004500:	b9800015 	stw	r6,0(r23)
 8004504:	10bfffc4 	addi	r2,r2,-1
 8004508:	b8800115 	stw	r2,4(r23)
 800450c:	18800003 	ldbu	r2,0(r3)
 8004510:	2c000044 	addi	r16,r5,1
 8004514:	8039883a 	mov	fp,r16
 8004518:	28800005 	stb	r2,0(r5)
 800451c:	2d000626 	beq	r5,r20,8004538 <__ssvfscanf_r+0x1114>
 8004520:	b8800117 	ldw	r2,4(r23)
 8004524:	00bfec16 	blt	zero,r2,80044d8 <__alt_data_end+0xf80044d8>
 8004528:	b009883a 	mov	r4,r22
 800452c:	b80b883a 	mov	r5,r23
 8004530:	800dde40 	call	800dde4 <__ssrefill_r>
 8004534:	103fe826 	beq	r2,zero,80044d8 <__alt_data_end+0xf80044d8>
 8004538:	da009f17 	ldw	r8,636(sp)
 800453c:	e463c83a 	sub	r17,fp,r17
 8004540:	9c67883a 	add	r19,r19,r17
 8004544:	42000044 	addi	r8,r8,1
 8004548:	e0000005 	stb	zero,0(fp)
 800454c:	da009f15 	stw	r8,636(sp)
 8004550:	9023883a 	mov	r17,r18
 8004554:	003bf206 	br	8003520 <__alt_data_end+0xf8003520>
 8004558:	014000c4 	movi	r5,3
 800455c:	117db026 	beq	r2,r5,8003c20 <__alt_data_end+0xf8003c20>
 8004560:	01400144 	movi	r5,5
 8004564:	117dae26 	beq	r2,r5,8003c20 <__alt_data_end+0xf8003c20>
 8004568:	003d3306 	br	8003a38 <__alt_data_end+0xf8003a38>
 800456c:	00800084 	movi	r2,2
 8004570:	a0bda41e 	bne	r20,r2,8003c04 <__alt_data_end+0xf8003c04>
 8004574:	050000c4 	movi	r20,3
 8004578:	003d2406 	br	8003a0c <__alt_data_end+0xf8003a0c>
 800457c:	d9c09e17 	ldw	r7,632(sp)
 8004580:	da00a017 	ldw	r8,640(sp)
 8004584:	b009883a 	mov	r4,r22
 8004588:	d9400104 	addi	r5,sp,4
 800458c:	000d883a 	mov	r6,zero
 8004590:	a0000005 	stb	zero,0(r20)
 8004594:	403ee83a 	callr	r8
 8004598:	88c0080c 	andi	r3,r17,32
 800459c:	18008226 	beq	r3,zero,80047a8 <__ssvfscanf_r+0x1384>
 80045a0:	dac09c17 	ldw	r11,624(sp)
 80045a4:	58c00017 	ldw	r3,0(r11)
 80045a8:	5ac00104 	addi	r11,r11,4
 80045ac:	dac09c15 	stw	r11,624(sp)
 80045b0:	18800015 	stw	r2,0(r3)
 80045b4:	da009f17 	ldw	r8,636(sp)
 80045b8:	42000044 	addi	r8,r8,1
 80045bc:	da009f15 	stw	r8,636(sp)
 80045c0:	003f4706 	br	80042e0 <__alt_data_end+0xf80042e0>
 80045c4:	d8c09904 	addi	r3,sp,612
 80045c8:	8400040c 	andi	r16,r16,16
 80045cc:	1809883a 	mov	r4,r3
 80045d0:	000b883a 	mov	r5,zero
 80045d4:	01800204 	movi	r6,8
 80045d8:	d8c09d15 	stw	r3,628(sp)
 80045dc:	8009e780 	call	8009e78 <memset>
 80045e0:	80006c26 	beq	r16,zero,8004794 <__ssvfscanf_r+0x1370>
 80045e4:	dc409b04 	addi	r17,sp,620
 80045e8:	0007883a 	mov	r3,zero
 80045ec:	dc80a115 	stw	r18,644(sp)
 80045f0:	8025883a 	mov	r18,r16
 80045f4:	1821883a 	mov	r16,r3
 80045f8:	b8800017 	ldw	r2,0(r23)
 80045fc:	a8c00017 	ldw	r3,0(r21)
 8004600:	10800003 	ldbu	r2,0(r2)
 8004604:	1885883a 	add	r2,r3,r2
 8004608:	10800043 	ldbu	r2,1(r2)
 800460c:	1080020c 	andi	r2,r2,8
 8004610:	1000011e 	bne	r2,zero,8004618 <__ssvfscanf_r+0x11f4>
 8004614:	e000f51e 	bne	fp,zero,80049ec <__ssvfscanf_r+0x15c8>
 8004618:	9021883a 	mov	r16,r18
 800461c:	dc80a117 	ldw	r18,644(sp)
 8004620:	803bbe1e 	bne	r16,zero,800351c <__alt_data_end+0xf800351c>
 8004624:	dac09f17 	ldw	r11,636(sp)
 8004628:	88000015 	stw	zero,0(r17)
 800462c:	9023883a 	mov	r17,r18
 8004630:	5ac00044 	addi	r11,r11,1
 8004634:	dac09f15 	stw	r11,636(sp)
 8004638:	003bb906 	br	8003520 <__alt_data_end+0xf8003520>
 800463c:	dac09904 	addi	r11,sp,612
 8004640:	8400040c 	andi	r16,r16,16
 8004644:	5809883a 	mov	r4,r11
 8004648:	000b883a 	mov	r5,zero
 800464c:	01800204 	movi	r6,8
 8004650:	dc00a115 	stw	r16,644(sp)
 8004654:	dac09d15 	stw	r11,628(sp)
 8004658:	8009e780 	call	8009e78 <memset>
 800465c:	dc00a117 	ldw	r16,644(sp)
 8004660:	80004726 	beq	r16,zero,8004780 <__ssvfscanf_r+0x135c>
 8004664:	0023883a 	mov	r17,zero
 8004668:	dc00a117 	ldw	r16,644(sp)
 800466c:	0029883a 	mov	r20,zero
 8004670:	dc80a215 	stw	r18,648(sp)
 8004674:	800978c0 	call	800978c <__locale_mb_cur_max>
 8004678:	153dbf26 	beq	r2,r20,8003d78 <__alt_data_end+0xf8003d78>
 800467c:	b8800017 	ldw	r2,0(r23)
 8004680:	b9000117 	ldw	r4,4(r23)
 8004684:	d8c09d17 	ldw	r3,628(sp)
 8004688:	12400003 	ldbu	r9,0(r2)
 800468c:	213fffc4 	addi	r4,r4,-1
 8004690:	10800044 	addi	r2,r2,1
 8004694:	dac00104 	addi	r11,sp,4
 8004698:	b9000115 	stw	r4,4(r23)
 800469c:	b8800015 	stw	r2,0(r23)
 80046a0:	a4800044 	addi	r18,r20,1
 80046a4:	d8c00015 	stw	r3,0(sp)
 80046a8:	5d29883a 	add	r20,r11,r20
 80046ac:	b009883a 	mov	r4,r22
 80046b0:	880b883a 	mov	r5,r17
 80046b4:	580d883a 	mov	r6,r11
 80046b8:	900f883a 	mov	r7,r18
 80046bc:	a2400005 	stb	r9,0(r20)
 80046c0:	80099f80 	call	80099f8 <_mbrtowc_r>
 80046c4:	013fffc4 	movi	r4,-1
 80046c8:	113dab26 	beq	r2,r4,8003d78 <__alt_data_end+0xf8003d78>
 80046cc:	10004f1e 	bne	r2,zero,800480c <__ssvfscanf_r+0x13e8>
 80046d0:	8000011e 	bne	r16,zero,80046d8 <__ssvfscanf_r+0x12b4>
 80046d4:	88000015 	stw	zero,0(r17)
 80046d8:	9ca7883a 	add	r19,r19,r18
 80046dc:	e73fffc4 	addi	fp,fp,-1
 80046e0:	80004e1e 	bne	r16,zero,800481c <__ssvfscanf_r+0x13f8>
 80046e4:	8c400104 	addi	r17,r17,4
 80046e8:	0029883a 	mov	r20,zero
 80046ec:	b8800117 	ldw	r2,4(r23)
 80046f0:	00801c0e 	bge	zero,r2,8004764 <__ssvfscanf_r+0x1340>
 80046f4:	e03fdf1e 	bne	fp,zero,8004674 <__alt_data_end+0xf8004674>
 80046f8:	dc80a217 	ldw	r18,648(sp)
 80046fc:	da00a117 	ldw	r8,644(sp)
 8004700:	403d1e26 	beq	r8,zero,8003b7c <__alt_data_end+0xf8003b7c>
 8004704:	003b8506 	br	800351c <__alt_data_end+0xf800351c>
 8004708:	da009c17 	ldw	r8,624(sp)
 800470c:	40800017 	ldw	r2,0(r8)
 8004710:	42000104 	addi	r8,r8,4
 8004714:	da009c15 	stw	r8,624(sp)
 8004718:	14400015 	stw	r17,0(r2)
 800471c:	10c00115 	stw	r3,4(r2)
 8004720:	003d1606 	br	8003b7c <__alt_data_end+0xf8003b7c>
 8004724:	00be9fc4 	movi	r2,-1409
