
ebook5.elf:     file format elf32-littlenios2
ebook5.elf
architecture: nios2:r1, flags 0x00000112:
EXEC_P, HAS_SYMS, D_PAGED
start address 0x00000240

Program Header:
    LOAD off    0x00001000 vaddr 0x00000000 paddr 0x00000000 align 2**12
         filesz 0x00000020 memsz 0x00000020 flags r-x
    LOAD off    0x00001020 vaddr 0x00000020 paddr 0x00000020 align 2**12
         filesz 0x002f1eb8 memsz 0x002f1eb8 flags r-x
    LOAD off    0x002f2ed8 vaddr 0x002f1ed8 paddr 0x002f3ffc align 2**12
         filesz 0x00002124 memsz 0x00002124 flags rw-
    LOAD off    0x002f5120 vaddr 0x002f6120 paddr 0x002f6120 align 2**12
         filesz 0x00000000 memsz 0x00001f54 flags rw-

Sections:
Idx Name          Size      VMA       LMA       File off  Algn
  0 .entry        00000020  00000000  00000000  00001000  2**5
                  CONTENTS, ALLOC, LOAD, READONLY, CODE
  1 .exceptions   00000220  00000020  00000020  00001020  2**2
                  CONTENTS, ALLOC, LOAD, READONLY, CODE
  2 .text         00033478  00000240  00000240  00001240  2**2
                  CONTENTS, ALLOC, LOAD, READONLY, CODE
  3 .rodata       002be820  000336b8  000336b8  000346b8  2**2
                  CONTENTS, ALLOC, LOAD, READONLY, DATA
  4 .rwdata       00002124  002f1ed8  002f3ffc  002f2ed8  2**2
                  CONTENTS, ALLOC, LOAD, DATA, SMALL_DATA
  5 .bss          00001f54  002f6120  002f6120  002f5120  2**2
                  ALLOC, SMALL_DATA
  6 .sdram        00000000  002f8074  002f8074  002f4ffc  2**0
                  CONTENTS
  7 .comment      00000023  00000000  00000000  002f4ffc  2**0
                  CONTENTS, READONLY
  8 .debug_aranges 00001190  00000000  00000000  002f5020  2**3
                  CONTENTS, READONLY, DEBUGGING
  9 .debug_info   000369f9  00000000  00000000  002f61b0  2**0
                  CONTENTS, READONLY, DEBUGGING
 10 .debug_abbrev 0000c299  00000000  00000000  0032cba9  2**0
                  CONTENTS, READONLY, DEBUGGING
 11 .debug_line   00013266  00000000  00000000  00338e42  2**0
                  CONTENTS, READONLY, DEBUGGING
 12 .debug_frame  000044ac  00000000  00000000  0034c0a8  2**2
                  CONTENTS, READONLY, DEBUGGING
 13 .debug_str    00006fe8  00000000  00000000  00350554  2**0
                  CONTENTS, READONLY, DEBUGGING
 14 .debug_loc    0001e8d0  00000000  00000000  0035753c  2**0
                  CONTENTS, READONLY, DEBUGGING
 15 .debug_alt_sim_info 00000060  00000000  00000000  00375e0c  2**2
                  CONTENTS, READONLY, DEBUGGING
 16 .debug_ranges 00001b48  00000000  00000000  00375e70  2**3
                  CONTENTS, READONLY, DEBUGGING
 17 .thread_model 00000003  00000000  00000000  0037d101  2**0
                  CONTENTS, READONLY
 18 .cpu          00000003  00000000  00000000  0037d104  2**0
                  CONTENTS, READONLY
 19 .qsys         00000001  00000000  00000000  0037d107  2**0
                  CONTENTS, READONLY
 20 .simulation_enabled 00000001  00000000  00000000  0037d108  2**0
                  CONTENTS, READONLY
 21 .sysid_hash   00000004  00000000  00000000  0037d109  2**0
                  CONTENTS, READONLY
 22 .sysid_base   00000004  00000000  00000000  0037d10d  2**0
                  CONTENTS, READONLY
 23 .sysid_time   00000004  00000000  00000000  0037d111  2**0
                  CONTENTS, READONLY
 24 .stderr_dev   00000009  00000000  00000000  0037d115  2**0
                  CONTENTS, READONLY
 25 .stdin_dev    00000009  00000000  00000000  0037d11e  2**0
                  CONTENTS, READONLY
 26 .stdout_dev   00000009  00000000  00000000  0037d127  2**0
                  CONTENTS, READONLY
 27 .sopc_system_name 0000000b  00000000  00000000  0037d130  2**0
                  CONTENTS, READONLY
 28 .quartus_project_dir 0000002f  00000000  00000000  0037d13b  2**0
                  CONTENTS, READONLY
 29 .sopcinfo     00074510  00000000  00000000  0037d16a  2**0
                  CONTENTS, READONLY
SYMBOL TABLE:
00000000 l    d  .entry	00000000 .entry
00000020 l    d  .exceptions	00000000 .exceptions
00000240 l    d  .text	00000000 .text
000336b8 l    d  .rodata	00000000 .rodata
002f1ed8 l    d  .rwdata	00000000 .rwdata
002f6120 l    d  .bss	00000000 .bss
002f8074 l    d  .sdram	00000000 .sdram
00000000 l    d  .comment	00000000 .comment
00000000 l    d  .debug_aranges	00000000 .debug_aranges
00000000 l    d  .debug_info	00000000 .debug_info
00000000 l    d  .debug_abbrev	00000000 .debug_abbrev
00000000 l    d  .debug_line	00000000 .debug_line
00000000 l    d  .debug_frame	00000000 .debug_frame
00000000 l    d  .debug_str	00000000 .debug_str
00000000 l    d  .debug_loc	00000000 .debug_loc
00000000 l    d  .debug_alt_sim_info	00000000 .debug_alt_sim_info
00000000 l    d  .debug_ranges	00000000 .debug_ranges
00000000 l    df *ABS*	00000000 ../ebook5_bsp//obj/HAL/src/crt0.o
00000288 l       .text	00000000 alt_after_alt_main
00000000 l    df *ABS*	00000000 alt_irq_handler.c
00000000 l    df *ABS*	00000000 alt_instruction_exception_entry.c
00000000 l    df *ABS*	00000000 ascii_font.c
00000000 l    df *ABS*	00000000 color.c
00000000 l    df *ABS*	00000000 font_manage.c
00000000 l    df *ABS*	00000000 gbk_font.c
00000000 l    df *ABS*	00000000 icon_pic.c
00000000 l    df *ABS*	00000000 main.c
00000000 l    df *ABS*	00000000 screen.c
00000000 l    df *ABS*	00000000 screen_display.c
00000000 l    df *ABS*	00000000 sdread.c
00000000 l    df *ABS*	00000000 test_value.c
00000000 l    df *ABS*	00000000 tftlcd.c
00000000 l    df *ABS*	00000000 time_count.c
00000000 l    df *ABS*	00000000 touch.c
00000000 l    df *ABS*	00000000 touch_resp.c
00000000 l    df *ABS*	00000000 txt_read.c
00000000 l    df *ABS*	00000000 ucs2_font.c
00000000 l    df *ABS*	00000000 libgcc2.c
00000000 l    df *ABS*	00000000 libgcc2.c
00000000 l    df *ABS*	00000000 lib2-divmod.c
0001b718 l     F .text	0000006c udivmodsi4
00000000 l    df *ABS*	00000000 addsf3.c
00000000 l    df *ABS*	00000000 divsf3.c
00000000 l    df *ABS*	00000000 gesf2.c
00000000 l    df *ABS*	00000000 lesf2.c
00000000 l    df *ABS*	00000000 mulsf3.c
00000000 l    df *ABS*	00000000 subsf3.c
00000000 l    df *ABS*	00000000 fixsfsi.c
00000000 l    df *ABS*	00000000 floatsisf.c
00000000 l    df *ABS*	00000000 floatunsisf.c
00000000 l    df *ABS*	00000000 adddf3.c
00000000 l    df *ABS*	00000000 divdf3.c
00000000 l    df *ABS*	00000000 gedf2.c
00000000 l    df *ABS*	00000000 muldf3.c
00000000 l    df *ABS*	00000000 subdf3.c
00000000 l    df *ABS*	00000000 fixdfsi.c
00000000 l    df *ABS*	00000000 floatsidf.c
00000000 l    df *ABS*	00000000 floatunsidf.c
00000000 l    df *ABS*	00000000 extendsfdf2.c
00000000 l    df *ABS*	00000000 truncdfsf2.c
00000000 l    df *ABS*	00000000 libgcc2.c
00000000 l    df *ABS*	00000000 libgcc2.c
00000000 l    df *ABS*	00000000 malloc.c
00000000 l    df *ABS*	00000000 mallocr.c
00000000 l    df *ABS*	00000000 memcpy.c
00000000 l    df *ABS*	00000000 memset.c
00000000 l    df *ABS*	00000000 printf.c
00000000 l    df *ABS*	00000000 putchar.c
00000000 l    df *ABS*	00000000 puts.c
00000000 l    df *ABS*	00000000 sbrkr.c
00000000 l    df *ABS*	00000000 sprintf.c
00000000 l    df *ABS*	00000000 strcpy.c
00000000 l    df *ABS*	00000000 strlen.c
00000000 l    df *ABS*	00000000 vfprintf.c
002f1cba l     O .rodata	00000010 zeroes.4166
002f1cca l     O .rodata	00000010 blanks.4165
00000000 l    df *ABS*	00000000 vfprintf.c
002f1cda l     O .rodata	00000010 zeroes.4181
002f1cea l     O .rodata	00000010 blanks.4180
00000000 l    df *ABS*	00000000 wsetup.c
00000000 l    df *ABS*	00000000 dtoa.c
000244a4 l     F .text	00000200 quorem
00000000 l    df *ABS*	00000000 fflush.c
00000000 l    df *ABS*	00000000 findfp.c
00026024 l     F .text	00000008 __fp_lock
0002602c l     F .text	00000008 __fp_unlock
00026040 l     F .text	000001a0 __sinit.part.1
00000000 l    df *ABS*	00000000 mallocr.c
00000000 l    df *ABS*	00000000 fvwrite.c
00000000 l    df *ABS*	00000000 fwalk.c
00000000 l    df *ABS*	00000000 impure.c
002f28d0 l     O .rwdata	00000424 impure_data
00000000 l    df *ABS*	00000000 int_errno.c
00000000 l    df *ABS*	00000000 locale.c
002f2d14 l     O .rwdata	00000020 lc_ctype_charset
002f2cf4 l     O .rwdata	00000020 lc_message_charset
002f2d34 l     O .rwdata	00000038 lconv
00000000 l    df *ABS*	00000000 makebuf.c
00000000 l    df *ABS*	00000000 memchr.c
00000000 l    df *ABS*	00000000 memmove.c
00000000 l    df *ABS*	00000000 mprec.c
002f1d1c l     O .rodata	0000000c p05.2678
00000000 l    df *ABS*	00000000 putc.c
00000000 l    df *ABS*	00000000 mallocr.c
00000000 l    df *ABS*	00000000 s_fpclassify.c
00000000 l    df *ABS*	00000000 stdio.c
00000000 l    df *ABS*	00000000 strcmp.c
00000000 l    df *ABS*	00000000 vfprintf.c
002f1e40 l     O .rodata	00000010 zeroes.4110
002f1e50 l     O .rodata	00000010 blanks.4109
00000000 l    df *ABS*	00000000 vfprintf.c
00029de0 l     F .text	000000fc __sprint_r.part.0
002f1e70 l     O .rodata	00000010 blanks.4125
002f1e60 l     O .rodata	00000010 zeroes.4126
00000000 l    df *ABS*	00000000 wbuf.c
00000000 l    df *ABS*	00000000 writer.c
00000000 l    df *ABS*	00000000 closer.c
00000000 l    df *ABS*	00000000 mallocr.c
00000000 l    df *ABS*	00000000 fclose.c
00000000 l    df *ABS*	00000000 fputwc.c
00000000 l    df *ABS*	00000000 fstatr.c
00000000 l    df *ABS*	00000000 isattyr.c
00000000 l    df *ABS*	00000000 lseekr.c
00000000 l    df *ABS*	00000000 readr.c
00000000 l    df *ABS*	00000000 wcrtomb.c
00000000 l    df *ABS*	00000000 wctomb_r.c
00000000 l    df *ABS*	00000000 libgcc2.c
00000000 l    df *ABS*	00000000 libgcc2.c
00000000 l    df *ABS*	00000000 eqdf2.c
00000000 l    df *ABS*	00000000 ledf2.c
00000000 l    df *ABS*	00000000 alt_close.c
0002c860 l     F .text	00000050 alt_get_errno
00000000 l    df *ABS*	00000000 alt_dev.c
0002c980 l     F .text	0000002c alt_dev_null_write
00000000 l    df *ABS*	00000000 alt_errno.c
00000000 l    df *ABS*	00000000 alt_fstat.c
0002c9ac l     F .text	00000050 alt_get_errno
00000000 l    df *ABS*	00000000 alt_iic.c
00000000 l    df *ABS*	00000000 alt_iic_isr_register.c
00000000 l    df *ABS*	00000000 alt_irq_vars.c
00000000 l    df *ABS*	00000000 alt_isatty.c
0002cd7c l     F .text	00000050 alt_get_errno
00000000 l    df *ABS*	00000000 alt_load.c
0002ce70 l     F .text	00000064 alt_load_section
00000000 l    df *ABS*	00000000 alt_lseek.c
0002cf54 l     F .text	00000050 alt_get_errno
00000000 l    df *ABS*	00000000 alt_main.c
00000000 l    df *ABS*	00000000 alt_malloc_lock.c
00000000 l    df *ABS*	00000000 alt_read.c
0002d130 l     F .text	00000050 alt_get_errno
00000000 l    df *ABS*	00000000 alt_release_fd.c
00000000 l    df *ABS*	00000000 alt_sbrk.c
002f3ff0 l     O .rwdata	00000004 heap_end
00000000 l    df *ABS*	00000000 alt_usleep.c
00000000 l    df *ABS*	00000000 alt_write.c
0002d3bc l     F .text	00000050 alt_get_errno
00000000 l    df *ABS*	00000000 alt_sys_init.c
0002d504 l     F .text	00000038 alt_dev_reg
002f2f14 l     O .rwdata	00001060 jtag_uart
002f3f74 l     O .rwdata	0000002c Altera_UP_SD_Card_Avalon_Interface_0
00000000 l    df *ABS*	00000000 Altera_UP_SD_Card_Avalon_Interface.c
00000000 l    df *ABS*	00000000 altera_avalon_jtag_uart_fd.c
00000000 l    df *ABS*	00000000 altera_avalon_jtag_uart_init.c
00031c54 l     F .text	00000204 altera_avalon_jtag_uart_irq
00031e58 l     F .text	000000a8 altera_avalon_jtag_uart_timeout
00000000 l    df *ABS*	00000000 altera_avalon_jtag_uart_ioctl.c
00000000 l    df *ABS*	00000000 altera_avalon_jtag_uart_read.c
00000000 l    df *ABS*	00000000 altera_avalon_jtag_uart_write.c
00000000 l    df *ABS*	00000000 altera_avalon_timer_sc.c
00032478 l     F .text	00000074 alt_avalon_timer_sc_irq
00000000 l    df *ABS*	00000000 alt_alarm_start.c
00000000 l    df *ABS*	00000000 alt_busy_sleep.c
00000000 l    df *ABS*	00000000 alt_dcache_flush_all.c
00000000 l    df *ABS*	00000000 alt_dev_llist_insert.c
00032850 l     F .text	00000050 alt_get_errno
00000000 l    df *ABS*	00000000 alt_do_ctors.c
00000000 l    df *ABS*	00000000 alt_do_dtors.c
00000000 l    df *ABS*	00000000 alt_find_dev.c
00000000 l    df *ABS*	00000000 alt_icache_flush_all.c
00000000 l    df *ABS*	00000000 alt_io_redirect.c
00032b58 l     F .text	000000c0 alt_open_fd
00000000 l    df *ABS*	00000000 alt_open.c
00032c90 l     F .text	00000050 alt_get_errno
00032ce0 l     F .text	000000cc alt_file_locked
00000000 l    df *ABS*	00000000 alt_tick.c
00000000 l    df *ABS*	00000000 altera_nios2_gen2_irq.c
00000000 l    df *ABS*	00000000 alt_find_file.c
00000000 l    df *ABS*	00000000 alt_get_fd.c
00000000 l    df *ABS*	00000000 alt_icache_flush.c
00000000 l    df *ABS*	00000000 atexit.c
00000000 l    df *ABS*	00000000 exit.c
00000000 l    df *ABS*	00000000 memcmp.c
00000000 l    df *ABS*	00000000 __atexit.c
00000000 l    df *ABS*	00000000 __call_atexit.c
00000000 l    df *ABS*	00000000 alt_exit.c
002f6190 g     O .bss	00000004 alt_instruction_exception_handler
002f6164 g     O .bss	00000004 aux_status_register
000200a0 g     F .text	00000018 putchar
00005310 g     F .text	00000144 screenMainColorPickerInit
000280dc g     F .text	00000074 _mprec_log10
0000eb9c g     F .text	000001c0 displayColorInfo
000281c8 g     F .text	0000008c __any_on
0002b8a0 g     F .text	00000054 _isatty_r
002f1d28 g     O .rodata	00000028 __mprec_tinytens
00011b34 g     F .text	0000005c LCD_DrawPoint
0002d078 g     F .text	00000078 alt_main
0002029c g     F .text	00000090 strcpy
000200b8 g     F .text	000000b8 _puts_r
002f7a60 g     O .bss	00000100 alt_irq
002f3fb8 g     O .rwdata	00000001 CMD_RDX
0002b8f4 g     F .text	0000005c _lseek_r
00009de4 g     F .text	0000041c showScreenPageInfo
002f3ffc g       *ABS*	00000000 __flash_rwdata_start
0002c6fc g     F .text	00000084 .hidden __eqdf2
00013b60 g     F .text	000000cc intr_scan_headler
0002d974 g     F .text	000001b0 Check_for_Master_Boot_Record
002f8074 g       *ABS*	00000000 __alt_heap_start
00031858 g     F .text	000001d4 alt_up_sd_card_fclose
0002005c g     F .text	0000003c printf
00012dd0 g     F .text	0000011c TP_Write_Byte
0002b9ac g     F .text	0000009c _wcrtomb_r
002f1ed8 g     O .rwdata	00000030 tp_dev
00028aa8 g     F .text	0000005c __sseek
00026374 g     F .text	00000010 __sinit
0002b274 g     F .text	00000154 __swbuf_r
002f6938 g     O .bss	00000018 timeFlag
00026dec g     F .text	0000007c _setlocale_r
000261e0 g     F .text	00000064 __sfmoreglue
000036cc g     F .text	00000338 setDefaultTagList
0002d110 g     F .text	00000020 __malloc_unlock
0000c658 g     F .text	0000005c fclose_txt
0000e98c g     F .text	00000210 displayIconBlock
0000f624 g     F .text	00000244 displayProgressBarX
0001bd24 g     F .text	00000450 .hidden __divsf3
002f6188 g     O .bss	00000001 current_sector_modified
0001339c g     F .text	00000190 TP_Read_XY2
000054c4 g     F .text	00000790 screenSetCustomInfo
0002716c g     F .text	0000015c memmove
00012a04 g     F .text	00000210 timeCount1s_handler
0002635c g     F .text	00000018 _cleanup
000272c8 g     F .text	000000a8 _Balloc
0001cc04 g     F .text	00000078 .hidden __fixsfsi
000303d8 g     F .text	000000c4 alt_up_sd_card_is_Present
0002d694 g     F .text	00000050 Save_Modified_Sector
00005c54 g     F .text	00000078 screenSyncSettingColor
0001922c g     F .text	000005ac readLastPage
0001e028 g     F .text	000000e0 .hidden __gtdf2
000330a0 g     F .text	00000020 altera_nios2_gen2_irq_init
00000000  w      *UND*	00000000 __errno
00006000 g     F .text	00000080 setAutoTPGstate
00000000 g     F .entry	0000001c __reset
002f6180 g     O .bss	00000004 fat_partition_size_in_512_byte_sectors
000090cc g     F .text	00000364 showTagIconGroup
002f6124 g     O .bss	00000004 edge_capture
00014174 g     F .text	00000348 scrFooterResp
0001851c g     F .text	00000afc readPageUNI_LITTLE
00000020 g       *ABS*	00000000 __flash_exceptions_start
00012524 g     F .text	0000009c LCD_Clear
0002b848 g     F .text	00000058 _fstat_r
000137c4 g     F .text	0000013c TP_Init
002f6140 g     O .bss	00000004 errno
00006ef0 g     F .text	0000054c showBkgAndBorder
00005f54 g     F .text	000000ac syncTimeFlag
00028a24 g     F .text	00000008 __seofread
0000028c g     F .text	00000064 getColor16BitByRGB
00010564 g     F .text	00000064 LCD_WR_REG
00028d78 g     F .text	00001068 ___svfiprintf_internal_r
0001482c g     F .text	00000590 scrMainBookResp
00006880 g     F .text	00000250 getXVaildRange
002f6158 g     O .bss	00000004 alt_argv
002fbfa0 g       *ABS*	00000000 _gp
0002d38c g     F .text	00000030 usleep
000309c4 g     F .text	000003ac alt_up_sd_card_fopen
0001c708 g     F .text	000004fc .hidden __subsf3
00030514 g     F .text	000000dc alt_up_sd_card_find_first
00008ed8 g     F .text	000001f4 showTagGroup
002f6174 g     O .bss	00000004 command_argument_register
0000c624 g     F .text	00000034 fopen_txt
00015abc g     F .text	00000100 scrMainColorPickerResp
000121ac g     F .text	00000378 LCD_Scan_Dir
002f2d94 g     O .rwdata	00000180 alt_fd_list
00003f18 g     F .text	000007f4 ScreenMainPageInfoInit
0000bee8 g     F .text	0000010c showScreen
00020098 g     F .text	00000008 _putchar_r
0002fc40 g     F .text	00000138 find_first_empty_record_in_root_directory
000329fc g     F .text	00000090 alt_find_dev
0001fdd4 g     F .text	00000138 memcpy
00017a24 g     F .text	00000af8 readPageUNI_BIG
002f612c g     O .bss	00000008 touchPosFlag
00026034 g     F .text	0000000c _cleanup_r
0001f184 g     F .text	000000d0 .hidden __floatsidf
00015d60 g     F .text	00000220 scrPageInfoResp
00032c18 g     F .text	00000078 alt_io_redirect
0002c780 g     F .text	000000e0 .hidden __ltdf2
0000b1c0 g     F .text	000002d4 showScreenMainHome
00011c50 g     F .text	0000003c LCD_WriteRAM_Prepare
000336b8 g       *ABS*	00000000 __DTOR_END__
00020170 g     F .text	00000014 puts
00032abc g     F .text	0000009c alt_exception_cause_generated_bad_addr
00001e64 g     F .text	0000025c setDefaultTagGroup
0002f820 g     F .text	000001b8 find_first_empty_cluster
0002895c g     F .text	00000074 __fpclassifyd
000f1b74 g     O .rodata	00200000 ucs2_font_x16y16
00028038 g     F .text	000000a4 __ratio
00030318 g     F .text	000000c0 alt_up_sd_card_open_dev
0002b250 g     F .text	00000024 __vfiprintf_internal
0000743c g     F .text	000001fc showTextOrIcon
00032054 g     F .text	0000020c altera_avalon_jtag_uart_read
00011cc4 g     F .text	000001cc LCD_DrawLine
0001f604 g     F .text	00000014 malloc
00020030 g     F .text	0000002c _printf_r
0001b834 g     F .text	00000008 .hidden __udivsi3
0002cdcc g     F .text	000000a4 isatty
002f1d78 g     O .rodata	000000c8 __mprec_tens
00006ad0 g     F .text	00000420 showBorder
00026e68 g     F .text	0000000c __locale_charset
0001c22c g     F .text	000000b8 .hidden __lesf2
0001b6a4 g     F .text	00000074 .hidden __fixunsdfsi
00033288 g     F .text	0000008c alt_icache_flush
00012eec g     F .text	00000270 TP_Read_AD
002f613c g     O .bss	00000004 __malloc_top_pad
00014068 g     F .text	0000010c scrHeaderResp
002f3fcc g     O .rwdata	00000004 __mb_cur_max
00026e98 g     F .text	0000000c _localeconv_r
0000b494 g     F .text	000002f4 showScreenMainBook
000100e0 g     F .text	0000011c displayTxtBookSpace
002f6950 g     O .bss	00001110 txtFilesInfoSpace
002f61c4 g     O .bss	00000764 tftlcdScreenInst
000276c8 g     F .text	0000003c __i2b
000267d8 g     F .text	000004a4 __sfvwrite_r
0002eb00 g     F .text	000000b8 get_dir_divider_location
00020184 g     F .text	00000054 _sbrk_r
0000d254 g     F .text	00000090 getMallocStr
0002e7d4 g     F .text	000000c0 filename_to_upper_case
0000d060 g     F .text	000001f4 displayTextType
00008098 g     F .text	00000c84 showTagWithYOffset
00000454 g     F .text	00000060 getUCS2Font
00030d70 g     F .text	00000088 alt_up_sd_card_set_attributes
0002db24 g     F .text	00000284 Read_File_Record_At_Offset
0002b950 g     F .text	0000005c _read_r
0001315c g     F .text	000001d0 TP_Read_XOY
002f3fe4 g     O .rwdata	00000004 alt_max_fd
0002f394 g     F .text	0000048c find_file_in_directory
0002b558 g     F .text	00000100 _fclose_r
00025ff4 g     F .text	00000030 fflush
002f6138 g     O .bss	00000004 __malloc_max_sbrked_mem
000125c0 g     F .text	00000144 LCD_Set_Window
0001f2f8 g     F .text	00000110 .hidden __extendsfdf2
00010364 g     F .text	000001a0 LCD_init
0003049c g     F .text	00000078 alt_up_sd_card_is_FAT16
0001cec0 g     F .text	0000089c .hidden __adddf3
0000a644 g     F .text	00000308 showColorSelBorder
0001a720 g     F .text	00000738 findPageStart_UNI_BIG
00027de0 g     F .text	0000011c __b2d
0002c16c g     F .text	00000590 .hidden __umoddi3
0002cfa4 g     F .text	000000d4 lseek
002f3fc4 g     O .rwdata	00000004 _global_impure_ptr
0002ee54 g     F .text	00000540 get_home_directory_cluster_for_file
000283bc g     F .text	000005a0 _realloc_r
002f8074 g       *ABS*	00000000 __bss_end
0002cc8c g     F .text	000000f0 alt_iic_isr_register
000101fc g     F .text	00000124 displayArray
00001644 g     F .text	000000dc setDefaultIconBlock
00032f9c g     F .text	00000104 alt_tick
00000c6c g     F .text	00000134 setDefaultTagBlock
0002bbac g     F .text	000005c0 .hidden __udivdi3
00000768 g     F .text	00000084 setAreaRange
0002b66c g     F .text	00000184 _fputwc_r
002f1d50 g     O .rodata	00000028 __mprec_bigtens
000274ac g     F .text	00000104 __s2b
0001f254 g     F .text	000000a4 .hidden __floatunsidf
00027b88 g     F .text	00000060 __mcmp
002f618c g     O .bss	00000004 current_sector_index
0001b580 g     F .text	00000064 isEnglishletter
00026394 g     F .text	00000018 __fp_lock_all
0002cc40 g     F .text	0000004c alt_ic_irq_enabled
00032f04 g     F .text	00000098 alt_alarm_stop
0002d888 g     F .text	000000ec mark_cluster
002f6150 g     O .bss	00000004 alt_irq_active
002f1f08 g     O .rwdata	000005be txtBookSpace
0000fee0 g     F .text	00000078 displayColorRGB
000000fc g     F .exceptions	000000d0 alt_irq_handler
000197d8 g     F .text	000001dc readNextPage
002f2d6c g     O .rwdata	00000028 alt_dev_null
0000bdcc g     F .text	0000011c showScreenMainColorPicker
0002fd78 g     F .text	00000188 convert_filename_to_name_extension
002f3fa8 g     O .rwdata	00000008 icon_minus
00002b38 g     F .text	00000364 screenFooterInit
00005e3c g     F .text	00000118 screenSyncHeaderTime
00005454 g     F .text	00000070 screenMainAreaInfoInst
0003280c g     F .text	00000044 alt_dcache_flush_all
002f6120 g     O .bss	00000004 timer_isr_context
000275b0 g     F .text	00000068 __hi0bits
002f6161 g     O .bss	00000001 is_sd_card_formated_as_FAT16
00014dbc g     F .text	00000d00 scrMainSettingResp
0001f0fc g     F .text	00000088 .hidden __fixdfsi
000170d4 g     F .text	00000084 closeTxtFile
000017c0 g     F .text	0000040c getWordLetterArrange
0002f9d8 g     F .text	00000268 find_first_empty_record_in_a_subdirectory
002f3ffc g       *ABS*	00000000 __ram_rwdata_end
000105c8 g     F .text	00000064 LCD_WR_DATA
002f3fdc g     O .rwdata	00000008 alt_dev_list
00012704 g     F .text	00000300 scrHeaderTimeResp
0002d40c g     F .text	000000f8 write
00028254 g     F .text	000000a0 _putc_r
002f6184 g     O .bss	00000004 device_pointer
0001c174 g     F .text	000000b8 .hidden __gtsf2
002f1ed8 g       *ABS*	00000000 __ram_rodata_end
0002c9fc g     F .text	000000b0 fstat
0002c780 g     F .text	000000e0 .hidden __ledf2
0000fb9c g     F .text	00000344 displayScreenPageInfo
0000eef4 g     F .text	0000032c displayTagIconGroup
00027900 g     F .text	00000140 __pow5mult
00029ef4 g     F .text	0000135c ___vfiprintf_internal_r
002f614c g     O .bss	00000004 __nlocale_changed
0001b83c g     F .text	00000008 .hidden __umodsi3
000010e8 g     F .text	0000055c setDefaultScrollBarY
002f8074 g       *ABS*	00000000 end
0000cca4 g     F .text	0000018c displayTxtFilesInfo
00016e38 g     F .text	0000029c openTxtFile
00031b90 g     F .text	000000c4 altera_avalon_jtag_uart_init
000001cc g     F .exceptions	00000074 alt_instruction_exception_entry
00019018 g     F .text	00000214 readCurPage
000336b8 g       *ABS*	00000000 __CTOR_LIST__
08000000 g       *ABS*	00000000 __alt_stack_pointer
000324ec g     F .text	00000088 alt_avalon_timer_sc_init
0001f5a0 g     F .text	00000064 .hidden __clzsi2
000020c0 g     F .text	00000564 setDefaultNumEditGroup
00032260 g     F .text	00000218 altera_avalon_jtag_uart_write
00011e90 g     F .text	00000114 LCD_Display_Dir
0000ff58 g     F .text	00000188 displayObjPic
00026384 g     F .text	00000004 __sfp_lock_acquire
00027084 g     F .text	000000e8 memchr
00022354 g     F .text	00001ffc ___vfprintf_internal_r
000201d8 g     F .text	00000058 _sprintf_r
000264e8 g     F .text	000002f0 _free_r
00026e74 g     F .text	00000010 __locale_mb_cur_max
00011a88 g     F .text	000000ac LCD_SetCursor
0001a010 g     F .text	00000094 findPageStart_UNI
000334f0 g     F .text	00000194 __call_exitprocs
002f6148 g     O .bss	00000004 __mlocale_changed
002f6128 g     O .bss	00000004 intnirq_isr_context
0000d684 g     F .text	00000218 displayScreenFooterBtn
002f3fbc g     O .rwdata	00000004 __malloc_sbrk_base
00000240 g     F .text	0000004c _start
002f6194 g     O .bss	00000004 _alt_tick_rate
000199b4 g     F .text	0000065c readPageByRatio
0001332c g     F .text	00000070 TP_Read_XY
002f3fb9 g     O .rwdata	00000001 CMD_RDY
0001ae58 g     F .text	00000728 findPageStart_UNI_LITTLE
00027a40 g     F .text	00000148 __lshift
0000a40c g     F .text	00000238 showColorBoard
00015f80 g     F .text	000000c4 prgBarXResp
002f6198 g     O .bss	00000004 _alt_nticks
0002d180 g     F .text	000000fc read
0000f868 g     F .text	00000334 displayScrollBarY
0002d570 g     F .text	0000006c alt_sys_init
00013cfc g     F .text	0000036c screenRespTask
0001cc7c g     F .text	00000134 .hidden __floatsisf
00028bb0 g     F .text	000001c8 __ssprint_r
000333dc g     F .text	00000114 __register_exitproc
00010678 g     F .text	00001410 LCD5310_init
000007ec g     F .text	000001f8 setAreaRangeByAreaFmt
000f0118 g     O .rodata	00000020 icon_home
00016044 g     F .text	000006d8 scrollBarYResp
0001a0a4 g     F .text	0000067c findPageStart_GBK
00027704 g     F .text	000001fc __multiply
00016ccc g     F .text	0000016c readBookOfTxtFile
00031f00 g     F .text	00000068 altera_avalon_jtag_uart_close
002f1ed8 g       *ABS*	00000000 __ram_rwdata_start
000336b8 g       *ABS*	00000000 __ram_rodata_start
002f619c g     O .bss	00000028 __malloc_current_mallinfo
00027efc g     F .text	0000013c __d2b
00006080 g     F .text	00000560 screenSyncPageRatio
002f6160 g     O .bss	00000001 initialized
00031a2c g     F .text	00000060 altera_avalon_jtag_uart_read_fd
000331d4 g     F .text	000000b4 alt_get_fd
000326b4 g     F .text	00000158 alt_busy_sleep
002f7b60 g     O .bss	00000010 search_data
0002b440 g     F .text	00000054 _close_r
0001352c g     F .text	00000298 TP_Scan
00033360 g     F .text	0000007c memcmp
00031aec g     F .text	00000050 altera_avalon_jtag_uart_close_fd
002f8074 g       *ABS*	00000000 __alt_stack_base
00031b3c g     F .text	00000054 altera_avalon_jtag_uart_ioctl_fd
0000f3c0 g     F .text	00000264 displayTagList
00024374 g     F .text	00000130 __swsetup_r
00013c2c g     F .text	000000d0 posValidInAbsPos
0001d75c g     F .text	000008cc .hidden __divdf3
00026244 g     F .text	00000118 __sfp
002f7b70 g     O .bss	00000054 boot_sector_data
00028150 g     F .text	00000078 __copybits
002f24c8 g     O .rwdata	00000408 __malloc_av_
0000f220 g     F .text	000001a0 displayTagGroup
000009e4 g     F .text	0000010c setAreaFmt
00026390 g     F .text	00000004 __sinit_lock_release
0001e108 g     F .text	00000724 .hidden __muldf3
000289d0 g     F .text	00000054 __sread
0000adc8 g     F .text	000002ac showScreenFooter
00012d84 g     F .text	0000004c delay_us
000330c0 g     F .text	00000114 alt_find_file
000328a0 g     F .text	000000a4 alt_dev_llist_insert
0002d0f0 g     F .text	00000020 __malloc_lock
0002d2dc g     F .text	000000b0 sbrk
000203c4 g     F .text	00001f90 ___svfprintf_internal_r
00025dcc g     F .text	00000228 _fflush_r
0000b074 g     F .text	0000014c showScreenMain
0002b494 g     F .text	000000c4 _calloc_r
00033eb8 g     O .rodata	00000200 color_form
002f6120 g       *ABS*	00000000 __bss_start
0000a94c g     F .text	00000360 clearColorSelBorder
0001ff0c g     F .text	00000124 memset
000004b4 g     F .text	000001e0 main
002f615c g     O .bss	00000004 alt_envp
002f6134 g     O .bss	00000004 __malloc_max_total_mem
0000b788 g     F .text	00000644 showScreenMainSetting
002f3fb0 g     O .rwdata	00000008 defaultColorInfo
00031a8c g     F .text	00000060 altera_avalon_jtag_uart_write_fd
000f0158 g     O .rodata	00000018 icon_dot
0002b3c8 g     F .text	0000001c __swbuf
0001206c g     F .text	00000100 LCD_Color_Fill
0001c22c g     F .text	000000b8 .hidden __ltsf2
00030df8 g     F .text	0000008c alt_up_sd_card_get_attributes
00000694 g     F .text	000000d4 checkAreaRange
0002d5dc g     F .text	000000b8 Write_Sector_Data
0003120c g     F .text	0000064c alt_up_sd_card_write
00011c8c g     F .text	00000038 LCD_WriteRAM
00028b04 g     F .text	00000008 __sclose
08000000 g       *ABS*	00000000 __alt_heap_limit
0002b658 g     F .text	00000014 fclose
0001f408 g     F .text	00000198 .hidden __truncdfsf2
000246a4 g     F .text	00001728 _dtoa_r
0001f62c g     F .text	000007a8 _malloc_r
0002bb20 g     F .text	00000030 __ascii_wctomb
00003a04 g     F .text	00000514 screenMainBookInit
0000c710 g     F .text	00000544 readLongFileName
00001d50 g     F .text	00000114 openTxtScrollX
0000d55c g     F .text	00000128 displayScreenHeaderTime
002f3fe8 g     O .rwdata	00000004 alt_errno
00026c7c g     F .text	000000b8 _fwalk
00009a38 g     F .text	000003ac showScrollBarY
00011b90 g     F .text	000000c0 LCD_Fast_DrawPoint
000144bc g     F .text	00000370 scrMainHomeResp
000282f4 g     F .text	000000c8 putc
0001b784 g     F .text	00000054 .hidden __divsi3
000263c4 g     F .text	00000124 _malloc_trim_r
000336b8 g       *ABS*	00000000 __CTOR_END__
0001c2e4 g     F .text	00000424 .hidden __mulsf3
002f6168 g     O .bss	00000004 status_register
00028b0c g     F .text	000000a4 strcmp
002f6170 g     O .bss	00000004 command_register
0000e760 g     F .text	0000022c displayTagBlock
000336b8 g       *ABS*	00000000 __flash_rodata_start
000336b8 g       *ABS*	00000000 __DTOR_LIST__
00000da0 g     F .text	00000348 setDefaultProgressBarX
0001216c g     F .text	00000040 delay
000065e0 g     F .text	000002a0 getAbsPos
0002c6fc g     F .text	00000084 .hidden __nedf2
0000c598 g     F .text	0000008c ftell_txt
00011fa4 g     F .text	000000c8 LCD_Fill
0002d53c g     F .text	00000034 alt_irq_init
000336b8 g     O .rodata	00000800 ascii_font_x8y16
0002d27c g     F .text	00000060 alt_release_fd
0002d7cc g     F .text	000000bc get_cluster_flag
0000d398 g     F .text	000001c4 displayAreaRange
00020230 g     F .text	0000006c sprintf
002f1b74 g     O .rodata	00000100 .hidden __clz_tab
0002dda8 g     F .text	00000294 Write_File_Record_At_Offset
002f6144 g     O .bss	00000004 _PathLocale
002f6928 g     O .bss	0000000e lcddev
0000c324 g     F .text	00000274 fseek_txt
00033314 g     F .text	00000014 atexit
0001c174 g     F .text	000000b8 .hidden __gesf2
0002b3e4 g     F .text	0000005c _write_r
00026ea4 g     F .text	0000001c setlocale
0001062c g     F .text	0000004c LCD_WriteReg
00001720 g     F .text	000000a0 setDefaultColorBoard
0002e03c g     F .text	000006a8 Check_for_DOS_FAT
000340b8 g     O .rodata	000bc040 gbk_font_x16y16
00001bcc g     F .text	00000184 getWidthOfText
0002ff00 g     F .text	000002d4 create_file
002f3fc8 g     O .rwdata	00000004 _impure_ptr
002f616c g     O .bss	00000004 CSD_register_w0
002f6154 g     O .bss	00000004 alt_argc
000329a0 g     F .text	0000005c _do_dtors
00026e90 g     F .text	00000008 __locale_cjk_lang
0001b5e4 g     F .text	00000060 isUNIEnglishletter
00002e9c g     F .text	00000830 screenMainHomeInit
0000470c g     F .text	00000c04 screenMainSettingInit
00000354 g     F .text	00000100 getGbkFont
00000af0 g     F .text	0000017c setAreaRangeCentered
00000020 g       .exceptions	00000000 alt_irq_entry
000179a8 g     F .text	0000007c readPageUNI
00027d80 g     F .text	00000060 __ulp
000263ac g     F .text	00000018 __fp_unlock_all
002f3fd4 g     O .rwdata	00000008 alt_fs_list
0002e894 g     F .text	0000026c check_file_name_for_FAT16_compliance
002f6178 g     O .bss	00000004 buffer_memory
000002f0 g     F .text	00000064 getAsciiFont
00005ccc g     F .text	000000ec screenSyncBookColor
000f0138 g     O .rodata	00000020 icon_back
00000020 g       *ABS*	00000000 __ram_exceptions_start
00017158 g     F .text	00000850 readPageGBK
00026ec0 g     F .text	0000000c localeconv
000f00f8 g     O .rodata	00000020 icon_setting
00012c14 g     F .text	00000084 getTimeInSeconds
0002caac g     F .text	00000050 alt_ic_isr_register
002f617c g     O .bss	00000004 fat_partition_offset_in_512_byte_sectors
002f3ffc g       *ABS*	00000000 _edata
000f0180 g     O .rodata	00000010 icon_move_down
002f8074 g       *ABS*	00000000 _end
002f7bc4 g     O .bss	000004b0 active_files
00000240 g       *ABS*	00000000 __ram_exceptions_end
000301d4 g     F .text	00000144 copy_file_record_name_to_string
00031f68 g     F .text	000000ec altera_avalon_jtag_uart_ioctl
0002e6e4 g     F .text	000000f0 Look_for_FAT16
0002cb9c g     F .text	000000a4 alt_ic_irq_disable
00028a2c g     F .text	0000007c __swrite
002f3fc0 g     O .rwdata	00000004 __malloc_trim_threshold
00026e84 g     F .text	0000000c __locale_msgcharset
0000ed5c g     F .text	00000198 displayColorBoard
00033328 g     F .text	00000038 exit
000305f0 g     F .text	000003d4 alt_up_sd_card_find_next
00026d34 g     F .text	000000b8 _fwalk_reent
0001cdb0 g     F .text	00000110 .hidden __floatunsisf
00027be8 g     F .text	00000198 __mdiff
0000299c g     F .text	0000019c screenHeaderInit
0000a200 g     F .text	0000020c showProgressBarX
0001b7d8 g     F .text	0000005c .hidden __modsi3
0002d6e4 g     F .text	000000e8 Read_Sector_Data
08000000 g       *ABS*	00000000 __alt_data_end
00000020 g     F .exceptions	00000000 alt_exception
00026388 g     F .text	00000004 __sfp_lock_release
0000d2e4 g     F .text	000000b4 displayScreenContainer
00000000 g       *ABS*	00000000 __alt_mem_sdram
00002624 g     F .text	00000378 screenInit
00012c98 g     F .text	000000ec Timer_Initial
0000e4e0 g     F .text	00000128 displayScreenColorPicker
0000dd3c g     F .text	00000298 displayScreenBook
000f16a4 g     O .rodata	0000000c TP_ADJDIS_TBL
0001b644 g     F .text	00000060 .hidden __fixunssfsi
0000e608 g     F .text	00000158 displayScrMainAreaInfo
00033684 g     F .text	00000034 _exit
0000bff4 g     F .text	00000330 fread_txt
00032574 g     F .text	00000140 alt_alarm_start
00030e84 g     F .text	00000388 alt_up_sd_card_read
00026ecc g     F .text	000001b8 __smakebuf_r
00013900 g     F .text	00000260 physical2logical
0000d89c g     F .text	000004a0 displayScreenHome
0002032c g     F .text	00000098 strlen
0000dfd4 g     F .text	0000050c displayScreenSetting
00032dac g     F .text	00000158 open
0001e028 g     F .text	000000e0 .hidden __gedf2
002f3fd0 g     O .rwdata	00000004 __wctomb
00029edc g     F .text	00000018 __sprint_r
00032a8c g     F .text	00000030 alt_icache_flush_all
002f3fec g     O .rwdata	00000004 alt_priority_mask
000f0170 g     O .rodata	00000010 icon_move_up
00008d1c g     F .text	000001bc showIconBlock
0000cc54 g     F .text	00000050 displayStatus
00005db8 g     F .text	00000084 screenSyncBookEcdfmt
0002cafc g     F .text	000000a0 alt_ic_irq_enable
00024350 g     F .text	00000024 __vfprintf_internal
0002bb50 g     F .text	0000005c _wctomb_r
0000ce30 g     F .text	00000230 displayTxtFile
0001e82c g     F .text	000008d0 .hidden __subdf3
002f3fa0 g     O .rwdata	00000008 icon_plus
00027618 g     F .text	000000b0 __lo0bits
0000c6b4 g     F .text	0000005c getfileSizeTxt
002f3ff4 g     O .rwdata	00000008 alt_alarm_list
00009430 g     F .text	00000608 showTagList
00010504 g     F .text	00000060 LCD_RD_DATA
00032944 g     F .text	0000005c _do_ctors
0002ba48 g     F .text	000000d8 wcrtomb
0002c8b0 g     F .text	000000d0 close
0001b844 g     F .text	000004e0 .hidden __addsf3
00010320 g     F .text	00000044 LCD_ReadReg
00007638 g     F .text	00000a60 showTagBlock
0002ced4 g     F .text	00000080 alt_load
0001671c g     F .text	000005b0 readAlltxtFilesOfSDcard
00015bbc g     F .text	000001a4 colorBoardResp
0002ebb8 g     F .text	0000029c match_file_record_to_name_ext
0002b7f0 g     F .text	00000058 fputwc
0001f618 g     F .text	00000014 free
0002638c g     F .text	00000004 __sinit_lock_acquire
00027398 g     F .text	00000114 __multadd
0000acac g     F .text	0000011c showScreenHeader
00027370 g     F .text	00000028 _Bfree



Disassembly of section .entry:

00000000 <__reset>:
#if NIOS2_ICACHE_SIZE > 0 && defined(ALT_ALLOW_CODE_AT_RESET) && (!defined(ALT_SIM_OPTIMIZE) || defined(NIOS2_ECC_PRESENT))
    /* Assume the instruction cache size is always a power of two. */
#if NIOS2_ICACHE_SIZE > 0x8000
    movhi r2, %hi(NIOS2_ICACHE_SIZE)
#else
    movui r2, NIOS2_ICACHE_SIZE
   0:	00840014 	movui	r2,4096
#endif

0:
    initi r2
   4:	1001483a 	initi	r2
    addi r2, r2, -NIOS2_ICACHE_LINE_SIZE
   8:	10bff804 	addi	r2,r2,-32
    bgt r2, zero, 0b
   c:	00bffd16 	blt	zero,r2,4 <__alt_data_end+0xf8000004>
 * Jump to the _start entry point in the .text section if reset code
 * is allowed or if optimizing for RTL simulation.
 */
#if defined(ALT_ALLOW_CODE_AT_RESET) || defined(ALT_SIM_OPTIMIZE)
    /* Jump to the _start entry point in the .text section. */
    movhi r1, %hi(_start)
  10:	00400034 	movhi	at,0
    ori r1, r1, %lo(_start)
  14:	08409014 	ori	at,at,576
    jmp r1
  18:	0800683a 	jmp	at
  1c:	00000000 	call	0 <__reset>

Disassembly of section .exceptions:

00000020 <alt_exception>:

#else /* ALT_EXCEPTION_STACK disabled */
        /* 
         * Reserve space on normal stack for registers about to be pushed.
         */
        addi  sp, sp, -76
  20:	deffed04 	addi	sp,sp,-76
         * documentation for details).
         *
         * Leave a gap in the stack frame at 4(sp) for the muldiv handler to
         * store zero into.
         */
        stw   ra,  0(sp)
  24:	dfc00015 	stw	ra,0(sp)
        stw   r1,   8(sp)
  28:	d8400215 	stw	at,8(sp)
        stw   r2,  12(sp)
  2c:	d8800315 	stw	r2,12(sp)
        stw   r3,  16(sp)
  30:	d8c00415 	stw	r3,16(sp)
        stw   r4,  20(sp)
  34:	d9000515 	stw	r4,20(sp)
        stw   r5,  24(sp)
  38:	d9400615 	stw	r5,24(sp)
        stw   r6,  28(sp)
  3c:	d9800715 	stw	r6,28(sp)
        stw   r7,  32(sp)
  40:	d9c00815 	stw	r7,32(sp)
        rdctl r5, estatus   /* Read early to avoid usage stall */
  44:	000b307a 	rdctl	r5,estatus
        stw   r8,  36(sp)
  48:	da000915 	stw	r8,36(sp)
        stw   r9,  40(sp)
  4c:	da400a15 	stw	r9,40(sp)
        stw   r10, 44(sp)
  50:	da800b15 	stw	r10,44(sp)
        stw   r11, 48(sp)
  54:	dac00c15 	stw	r11,48(sp)
        stw   r12, 52(sp)
  58:	db000d15 	stw	r12,52(sp)
        stw   r13, 56(sp)
  5c:	db400e15 	stw	r13,56(sp)
        stw   r14, 60(sp)
  60:	db800f15 	stw	r14,60(sp)
        stw   r15, 64(sp)
  64:	dbc01015 	stw	r15,64(sp)
        /*
         * ea-4 contains the address of the instruction being executed
         * when the exception occured. For interrupt exceptions, we will
         * will be re-issue the isntruction. Store it in 72(sp)
         */
        stw   r5,  68(sp)  /* estatus */
  68:	d9401115 	stw	r5,68(sp)
        addi  r15, ea, -4  /* instruction that caused exception */
  6c:	ebffff04 	addi	r15,ea,-4
        stw   r15,  72(sp)
  70:	dbc01215 	stw	r15,72(sp)
#else
        /*
         * Test to see if the exception was a software exception or caused 
         * by an external interrupt, and vector accordingly.
         */
        rdctl r4, ipending
  74:	0009313a 	rdctl	r4,ipending
        andi  r2, r5, 1
  78:	2880004c 	andi	r2,r5,1
        beq   r2, zero, .Lnot_irq
  7c:	10000326 	beq	r2,zero,8c <alt_exception+0x6c>
        beq   r4, zero, .Lnot_irq
  80:	20000226 	beq	r4,zero,8c <alt_exception+0x6c>
        /*
         * Now that all necessary registers have been preserved, call 
         * alt_irq_handler() to process the interrupts.
         */

        call alt_irq_handler
  84:	00000fc0 	call	fc <alt_irq_handler>

        .section .exceptions.irqreturn, "xa"

        br    .Lexception_exit
  88:	00000706 	br	a8 <alt_exception+0x88>
         * upon completion, so we write ea (address of instruction *after*
         * the one where the exception occured) into 72(sp). The actual
         * instruction that caused the exception is written in r2, which these
         * handlers will utilize.
         */
        stw   ea,  72(sp)  /* Don't re-issue */
  8c:	df401215 	stw	ea,72(sp)
        ldhu.n  r2, 0(r4)
        ldhu.n  r3, 2(r4)
        slli.n  r3, r3, 16
        or.n    r2, r2, r3 /* Instruction that caused exception */
#else
        ldw   r2, -4(ea)   /* Instruction that caused exception */
  90:	e8bfff17 	ldw	r2,-4(ea)
         * debugger is present) or go into an infinite loop since the
         * handling behavior is undefined; in that case we will not return here.
         */

        /* Load exception-causing address as first argument (r4) */
        addi   r4, ea, -4
  94:	e93fff04 	addi	r4,ea,-4

        /* Call the instruction-exception entry */
        call   alt_instruction_exception_entry
  98:	00001cc0 	call	1cc <alt_instruction_exception_entry>
         * instruction
         *
         * Return code was 0: Skip. The instruction after the exception is
         * already stored in 72(sp).
         */
        bne   r2, r0, .Lexception_exit
  9c:	1000021e 	bne	r2,zero,a8 <alt_exception+0x88>

        /*
         * Otherwise, modify 72(sp) to re-issue the instruction that caused the
         * exception.
         */
        addi  r15, ea, -4  /* instruction that caused exception */
  a0:	ebffff04 	addi	r15,ea,-4
        stw   r15,  72(sp)
  a4:	dbc01215 	stw	r15,72(sp)
        /* 
         * Restore the saved registers, so that all general purpose registers 
         * have been restored to their state at the time the interrupt occured.
         */

        ldw   r5,  68(sp)
  a8:	d9401117 	ldw	r5,68(sp)
        ldw   ea,  72(sp)  /* This becomes the PC once eret is executed */
  ac:	df401217 	ldw	ea,72(sp)
        ldw   ra,   0(sp)
  b0:	dfc00017 	ldw	ra,0(sp)

        wrctl estatus, r5
  b4:	2801707a 	wrctl	estatus,r5

        ldw   r1,   8(sp)
  b8:	d8400217 	ldw	at,8(sp)
        ldw   r2,  12(sp)
  bc:	d8800317 	ldw	r2,12(sp)
        ldw   r3,  16(sp)
  c0:	d8c00417 	ldw	r3,16(sp)
        ldw   r4,  20(sp)
  c4:	d9000517 	ldw	r4,20(sp)
        ldw   r5,  24(sp)
  c8:	d9400617 	ldw	r5,24(sp)
        ldw   r6,  28(sp)
  cc:	d9800717 	ldw	r6,28(sp)
        ldw   r7,  32(sp)
  d0:	d9c00817 	ldw	r7,32(sp)

#if defined(ALT_EXCEPTION_STACK) && defined(ALT_STACK_CHECK)
        ldw   et, %gprel(alt_exception_old_stack_limit)(gp)
#endif

        ldw   r8,  36(sp)
  d4:	da000917 	ldw	r8,36(sp)
        ldw   r9,  40(sp)
  d8:	da400a17 	ldw	r9,40(sp)
        ldw   r10, 44(sp)
  dc:	da800b17 	ldw	r10,44(sp)
        ldw   r11, 48(sp)
  e0:	dac00c17 	ldw	r11,48(sp)
        ldw   r12, 52(sp)
  e4:	db000d17 	ldw	r12,52(sp)
        ldw   r13, 56(sp)
  e8:	db400e17 	ldw	r13,56(sp)
        ldw   r14, 60(sp)
  ec:	db800f17 	ldw	r14,60(sp)
        ldw   r15, 64(sp)
  f0:	dbc01017 	ldw	r15,64(sp)
        stw   et, %gprel(alt_stack_limit_value)(gp)
        stw   zero, %gprel(alt_exception_old_stack_limit)(gp)
#endif /* ALT_STACK_CHECK */
        ldw   sp,  76(sp)
#else /* ALT_EXCEPTION_STACK disabled */
        addi  sp, sp, 76
  f4:	dec01304 	addi	sp,sp,76

        /*
         * Return to the interrupted instruction.
         */

        eret
  f8:	ef80083a 	eret

000000fc <alt_irq_handler>:
 * instruction is present if the macro ALT_CI_INTERRUPT_VECTOR defined.
 */

void alt_irq_handler (void) __attribute__ ((section (".exceptions")));
void alt_irq_handler (void)
{
  fc:	defff904 	addi	sp,sp,-28
 100:	dfc00615 	stw	ra,24(sp)
 104:	df000515 	stw	fp,20(sp)
 108:	df000504 	addi	fp,sp,20
  
  /*
   * Notify the operating system that we are at interrupt level.
   */ 
  
  ALT_OS_INT_ENTER();
 10c:	0001883a 	nop
#ifndef NIOS2_EIC_PRESENT
static ALT_INLINE alt_u32 ALT_ALWAYS_INLINE alt_irq_pending (void)
{
  alt_u32 active;

  NIOS2_READ_IPENDING (active);
 110:	0005313a 	rdctl	r2,ipending
 114:	e0bffe15 	stw	r2,-8(fp)

  return active;
 118:	e0bffe17 	ldw	r2,-8(fp)
   * Consider the case where the high priority interupt is asserted during
   * the interrupt entry sequence for a lower priority interrupt to see why
   * this is the case.
   */

  active = alt_irq_pending ();
 11c:	e0bffb15 	stw	r2,-20(fp)

  do
  {
    i = 0;
 120:	e03ffd15 	stw	zero,-12(fp)
    mask = 1;
 124:	00800044 	movi	r2,1
 128:	e0bffc15 	stw	r2,-16(fp)
     * called to clear the interrupt condition.
     */

    do
    {
      if (active & mask)
 12c:	e0fffb17 	ldw	r3,-20(fp)
 130:	e0bffc17 	ldw	r2,-16(fp)
 134:	1884703a 	and	r2,r3,r2
 138:	10001426 	beq	r2,zero,18c <alt_irq_handler+0x90>
      { 
#ifdef ALT_ENHANCED_INTERRUPT_API_PRESENT
        alt_irq[i].handler(alt_irq[i].context); 
 13c:	00800bf4 	movhi	r2,47
 140:	109e9804 	addi	r2,r2,31328
 144:	e0fffd17 	ldw	r3,-12(fp)
 148:	180690fa 	slli	r3,r3,3
 14c:	10c5883a 	add	r2,r2,r3
 150:	10c00017 	ldw	r3,0(r2)
 154:	00800bf4 	movhi	r2,47
 158:	109e9804 	addi	r2,r2,31328
 15c:	e13ffd17 	ldw	r4,-12(fp)
 160:	200890fa 	slli	r4,r4,3
 164:	1105883a 	add	r2,r2,r4
 168:	10800104 	addi	r2,r2,4
 16c:	10800017 	ldw	r2,0(r2)
 170:	1009883a 	mov	r4,r2
 174:	183ee83a 	callr	r3
#else
        alt_irq[i].handler(alt_irq[i].context, i); 
#endif
        break;
 178:	0001883a 	nop
#ifndef NIOS2_EIC_PRESENT
static ALT_INLINE alt_u32 ALT_ALWAYS_INLINE alt_irq_pending (void)
{
  alt_u32 active;

  NIOS2_READ_IPENDING (active);
 17c:	0005313a 	rdctl	r2,ipending
 180:	e0bfff15 	stw	r2,-4(fp)

  return active;
 184:	e0bfff17 	ldw	r2,-4(fp)
 188:	00000706 	br	1a8 <alt_irq_handler+0xac>
      }
      mask <<= 1;
 18c:	e0bffc17 	ldw	r2,-16(fp)
 190:	1085883a 	add	r2,r2,r2
 194:	e0bffc15 	stw	r2,-16(fp)
      i++;
 198:	e0bffd17 	ldw	r2,-12(fp)
 19c:	10800044 	addi	r2,r2,1
 1a0:	e0bffd15 	stw	r2,-12(fp)

    } while (1);
 1a4:	003fe106 	br	12c <__alt_data_end+0xf800012c>

    active = alt_irq_pending ();
 1a8:	e0bffb15 	stw	r2,-20(fp)
    
  } while (active);
 1ac:	e0bffb17 	ldw	r2,-20(fp)
 1b0:	103fdb1e 	bne	r2,zero,120 <__alt_data_end+0xf8000120>

  /*
   * Notify the operating system that interrupt processing is complete.
   */ 

  ALT_OS_INT_EXIT();
 1b4:	0001883a 	nop
}
 1b8:	e037883a 	mov	sp,fp
 1bc:	dfc00117 	ldw	ra,4(sp)
 1c0:	df000017 	ldw	fp,0(sp)
 1c4:	dec00204 	addi	sp,sp,8
 1c8:	f800283a 	ret

000001cc <alt_instruction_exception_entry>:
 * that handler if it has been registered. Absent a handler, it will
 * break break or hang as discussed below.
 */
int 
alt_instruction_exception_entry (alt_u32 exception_pc)
{
 1cc:	defffb04 	addi	sp,sp,-20
 1d0:	dfc00415 	stw	ra,16(sp)
 1d4:	df000315 	stw	fp,12(sp)
 1d8:	df000304 	addi	fp,sp,12
 1dc:	e13fff15 	stw	r4,-4(fp)
 * NIOS2_EXCEPTION_CAUSE_NOT_PRESENT. Your handling routine should
 * check the validity of the cause argument before proceeding.
 */
#ifdef NIOS2_HAS_EXTRA_EXCEPTION_INFO
  /* Get exception cause & "badaddr" */
  NIOS2_READ_EXCEPTION(cause);
 1e0:	000531fa 	rdctl	r2,exception
 1e4:	e0bffd15 	stw	r2,-12(fp)
  cause = ( (cause & NIOS2_EXCEPTION_REG_CAUSE_MASK) >>
 1e8:	e0bffd17 	ldw	r2,-12(fp)
 1ec:	10801f0c 	andi	r2,r2,124
 1f0:	1004d0ba 	srli	r2,r2,2
 1f4:	e0bffd15 	stw	r2,-12(fp)
              NIOS2_EXCEPTION_REG_CAUSE_OFST );

  NIOS2_READ_BADADDR(badaddr);
 1f8:	0005333a 	rdctl	r2,badaddr
 1fc:	e0bffe15 	stw	r2,-8(fp)
#else
  cause = NIOS2_EXCEPTION_CAUSE_NOT_PRESENT;
  badaddr = 0;
#endif /* NIOS2_HAS_EXTRA_EXCEPTION_INFO */

  if(alt_instruction_exception_handler) {
 200:	d0a87c17 	ldw	r2,-24080(gp)
 204:	10000726 	beq	r2,zero,224 <alt_instruction_exception_entry+0x58>
     * Call handler. Its return value indicates whether the exception-causing
     * instruction should be re-issued. The code that called us,
     * alt_eceptions_entry.S, will look at this value and adjust the ea
     * register as necessary
     */
    return alt_instruction_exception_handler(cause, exception_pc, badaddr);
 208:	d0a87c17 	ldw	r2,-24080(gp)
 20c:	e0fffd17 	ldw	r3,-12(fp)
 210:	1809883a 	mov	r4,r3
 214:	e17fff17 	ldw	r5,-4(fp)
 218:	e1bffe17 	ldw	r6,-8(fp)
 21c:	103ee83a 	callr	r2
 220:	00000206 	br	22c <alt_instruction_exception_entry+0x60>
   *    (a peripheral which negates its interrupt output before its
   *    interrupt handler has been executed will cause spurious interrupts)
   */
  else {
#ifdef NIOS2_HAS_DEBUG_STUB
    NIOS2_BREAK();
 224:	003da03a 	break	0
      ;
#endif /* NIOS2_HAS_DEBUG_STUB */
  }

  /* We should not get here. Remove compiler warning. */
  return NIOS2_EXCEPTION_RETURN_REISSUE_INST;
 228:	0005883a 	mov	r2,zero
}
 22c:	e037883a 	mov	sp,fp
 230:	dfc00117 	ldw	ra,4(sp)
 234:	df000017 	ldw	fp,0(sp)
 238:	dec00204 	addi	sp,sp,8
 23c:	f800283a 	ret

Disassembly of section .text:

00000240 <_start>:

    /* Assume the data cache size is always a power of two. */
#if NIOS2_DCACHE_SIZE > 0x8000
    movhi r2, %hi(NIOS2_DCACHE_SIZE)
#else
    movui r2, NIOS2_DCACHE_SIZE
     240:	00820014 	movui	r2,2048
#endif

0:
    initd 0(r2)
     244:	10000033 	initd	0(r2)
#ifdef NIOS2_ECC_PRESENT
    addi r2, r2, -4
#else
    addi r2, r2, -NIOS2_DCACHE_LINE_SIZE
     248:	10bff804 	addi	r2,r2,-32
#endif
    bgt r2, zero, 0b
     24c:	00bffd16 	blt	zero,r2,244 <__alt_data_end+0xf8000244>

    /*
     * Now that the caches are initialized, set up the stack pointer and global pointer.
     * The values provided by the linker are assumed to be correctly aligned.
     */
    movhi sp, %hi(__alt_stack_pointer)
     250:	06c20034 	movhi	sp,2048
    ori sp, sp, %lo(__alt_stack_pointer)
     254:	dec00014 	ori	sp,sp,0
    movhi gp, %hi(_gp)
     258:	06800bf4 	movhi	gp,47
    ori gp, gp, %lo(_gp)
     25c:	d6afe814 	ori	gp,gp,49056
 */
#ifndef ALT_SIM_OPTIMIZE
    /* Log that the BSS is about to be cleared. */
    ALT_LOG_PUTS(alt_log_msg_bss)

    movhi r2, %hi(__bss_start)
     260:	00800bf4 	movhi	r2,47
    ori r2, r2, %lo(__bss_start)
     264:	10984814 	ori	r2,r2,24864

    movhi r3, %hi(__bss_end)
     268:	00c00bf4 	movhi	r3,47
    ori r3, r3, %lo(__bss_end)
     26c:	18e01d14 	ori	r3,r3,32884

    beq r2, r3, 1f
     270:	10c00326 	beq	r2,r3,280 <_start+0x40>

0:
    stw zero, (r2)
     274:	10000015 	stw	zero,0(r2)
    addi r2, r2, 4
     278:	10800104 	addi	r2,r2,4
    bltu r2, r3, 0b
     27c:	10fffd36 	bltu	r2,r3,274 <__alt_data_end+0xf8000274>
     * section aren't defined until alt_load() has been called).
     */
    mov   et, zero
#endif

    call alt_load
     280:	002ced40 	call	2ced4 <alt_load>

    /* Log that alt_main is about to be called. */
    ALT_LOG_PUTS(alt_log_msg_alt_main)

    /* Call the C entry point. It should never return. */
    call alt_main
     284:	002d0780 	call	2d078 <alt_main>

00000288 <alt_after_alt_main>:

    /* Wait in infinite loop in case alt_main does return. */
alt_after_alt_main:
    br alt_after_alt_main
     288:	003fff06 	br	288 <__alt_data_end+0xf8000288>

0000028c <getColor16BitByRGB>:
    0xfcf3, 0xfe7f, 0x9ebf, 0x9eb3, 0xfff3, 0xffff, 0xa67e, 0xc6f8, 0xce79, 0x05f7, 0xb817, 0x0017, 0xbde0, 0x05e0, 0xb800, 0x0000
};

//RGB 2416
color_u16 getColor16BitByRGB( color_u8 red, color_u8 green, color_u8 blue )
{
     28c:	defffc04 	addi	sp,sp,-16
     290:	df000315 	stw	fp,12(sp)
     294:	df000304 	addi	fp,sp,12
     298:	2807883a 	mov	r3,r5
     29c:	3005883a 	mov	r2,r6
     2a0:	e13ffd05 	stb	r4,-12(fp)
     2a4:	e0fffe05 	stb	r3,-8(fp)
     2a8:	e0bfff05 	stb	r2,-4(fp)
    return ( ( red & 0x00F8 ) << 8 ) | ( ( green & 0x00FC ) << 3 ) | ( ( blue & 0x00F8 ) >> 3 );
     2ac:	e0bffd03 	ldbu	r2,-12(fp)
     2b0:	10803e0c 	andi	r2,r2,248
     2b4:	1004923a 	slli	r2,r2,8
     2b8:	1007883a 	mov	r3,r2
     2bc:	e0bffe03 	ldbu	r2,-8(fp)
     2c0:	10803f0c 	andi	r2,r2,252
     2c4:	100490fa 	slli	r2,r2,3
     2c8:	1884b03a 	or	r2,r3,r2
     2cc:	1007883a 	mov	r3,r2
     2d0:	e0bfff03 	ldbu	r2,-4(fp)
     2d4:	1004d0fa 	srli	r2,r2,3
     2d8:	10803fcc 	andi	r2,r2,255
     2dc:	1884b03a 	or	r2,r3,r2
}
     2e0:	e037883a 	mov	sp,fp
     2e4:	df000017 	ldw	fp,0(sp)
     2e8:	dec00104 	addi	sp,sp,4
     2ec:	f800283a 	ret

000002f0 <getAsciiFont>:
#include "font_manage.h"

extern const alt_u8 ascii_font_x8y16[];

const alt_u8 *getAsciiFont( char asciiVal )
{
     2f0:	defffe04 	addi	sp,sp,-8
     2f4:	df000115 	stw	fp,4(sp)
     2f8:	df000104 	addi	fp,sp,4
     2fc:	2005883a 	mov	r2,r4
     300:	e0bfff05 	stb	r2,-4(fp)
	if ( asciiVal < 0 )
     304:	e0bfff07 	ldb	r2,-4(fp)
     308:	1000020e 	bge	r2,zero,314 <getAsciiFont+0x24>
	{
		return (void*)0;
     30c:	0005883a 	mov	r2,zero
     310:	00000c06 	br	344 <getAsciiFont+0x54>
	}
	//ASCII0~127
	if ( asciiVal < 0x20 )
     314:	e0bfff07 	ldb	r2,-4(fp)
     318:	10800808 	cmpgei	r2,r2,32
     31c:	1000021e 	bne	r2,zero,328 <getAsciiFont+0x38>
    {
        return (void*)0;
     320:	0005883a 	mov	r2,zero
     324:	00000706 	br	344 <getAsciiFont+0x54>
    }
    //ASCII32~127
	return ascii_font_x8y16 + ((((int)asciiVal)-0x20)*ASCII_LETTER_BYTES);
     328:	e0bfff07 	ldb	r2,-4(fp)
     32c:	10bff804 	addi	r2,r2,-32
     330:	1004913a 	slli	r2,r2,4
     334:	1007883a 	mov	r3,r2
     338:	008000f4 	movhi	r2,3
     33c:	108dae04 	addi	r2,r2,14008
     340:	1885883a 	add	r2,r3,r2
}
     344:	e037883a 	mov	sp,fp
     348:	df000017 	ldw	fp,0(sp)
     34c:	dec00104 	addi	sp,sp,4
     350:	f800283a 	ret

00000354 <getGbkFont>:

extern const alt_u8 gbk_font_x16y16[];

const alt_u8 *getGbkFont( alt_u8 gbkHighByte, alt_u8 gbkLowByte )
{
     354:	defffc04 	addi	sp,sp,-16
     358:	df000315 	stw	fp,12(sp)
     35c:	df000304 	addi	fp,sp,12
     360:	2007883a 	mov	r3,r4
     364:	2805883a 	mov	r2,r5
     368:	e0fffe05 	stb	r3,-8(fp)
     36c:	e0bfff05 	stb	r2,-4(fp)

	if ( gbkLowByte < 0x40 )//GBK
     370:	e0bfff03 	ldbu	r2,-4(fp)
     374:	10801028 	cmpgeui	r2,r2,64
     378:	1000021e 	bne	r2,zero,384 <getGbkFont+0x30>
	{
		return (void*)0;
     37c:	0005883a 	mov	r2,zero
     380:	00003006 	br	444 <getGbkFont+0xf0>
	}
	else
	{
		if ( gbkHighByte < 0x81 || gbkHighByte == 0xFF )//GBK
     384:	e0bffe03 	ldbu	r2,-8(fp)
     388:	10802070 	cmpltui	r2,r2,129
     38c:	1000031e 	bne	r2,zero,39c <getGbkFont+0x48>
     390:	e0bffe03 	ldbu	r2,-8(fp)
     394:	10803fd8 	cmpnei	r2,r2,255
     398:	1000021e 	bne	r2,zero,3a4 <getGbkFont+0x50>
        {
            return (void*)0;
     39c:	0005883a 	mov	r2,zero
     3a0:	00002806 	br	444 <getGbkFont+0xf0>
        }
		int wordPos = ( gbkHighByte - 0x81 ) * 191;
     3a4:	e0bffe03 	ldbu	r2,-8(fp)
     3a8:	10bfdfc4 	addi	r2,r2,-129
     3ac:	10802fe4 	muli	r2,r2,191
     3b0:	e0bffd15 	stw	r2,-12(fp)

		if ( gbkLowByte < 0x7F )
     3b4:	e0bfff03 	ldbu	r2,-4(fp)
     3b8:	10801fe8 	cmpgeui	r2,r2,127
     3bc:	10000c1e 	bne	r2,zero,3f0 <getGbkFont+0x9c>
		{
			wordPos = wordPos + gbkLowByte - 0x40;
     3c0:	e0ffff03 	ldbu	r3,-4(fp)
     3c4:	e0bffd17 	ldw	r2,-12(fp)
     3c8:	1885883a 	add	r2,r3,r2
     3cc:	10bff004 	addi	r2,r2,-64
     3d0:	e0bffd15 	stw	r2,-12(fp)
			return gbk_font_x16y16 + (wordPos*GBK_WORD_BYTES);
     3d4:	e0bffd17 	ldw	r2,-12(fp)
     3d8:	1004917a 	slli	r2,r2,5
     3dc:	1007883a 	mov	r3,r2
     3e0:	008000f4 	movhi	r2,3
     3e4:	10902e04 	addi	r2,r2,16568
     3e8:	1885883a 	add	r2,r3,r2
     3ec:	00001506 	br	444 <getGbkFont+0xf0>
		}
		else if ( gbkLowByte > 0x7F && gbkLowByte < 0xFF )
     3f0:	e0bfff03 	ldbu	r2,-4(fp)
     3f4:	10803fcc 	andi	r2,r2,255
     3f8:	1080201c 	xori	r2,r2,128
     3fc:	10bfe004 	addi	r2,r2,-128
     400:	10000f0e 	bge	r2,zero,440 <getGbkFont+0xec>
     404:	e0bfff03 	ldbu	r2,-4(fp)
     408:	10803fe0 	cmpeqi	r2,r2,255
     40c:	10000c1e 	bne	r2,zero,440 <getGbkFont+0xec>
		{
//			wordPos = wordPos + gbkLowByte - 0x41;
			wordPos = wordPos + gbkLowByte - 0x40;
     410:	e0ffff03 	ldbu	r3,-4(fp)
     414:	e0bffd17 	ldw	r2,-12(fp)
     418:	1885883a 	add	r2,r3,r2
     41c:	10bff004 	addi	r2,r2,-64
     420:	e0bffd15 	stw	r2,-12(fp)
			return gbk_font_x16y16 + (wordPos*GBK_WORD_BYTES);
     424:	e0bffd17 	ldw	r2,-12(fp)
     428:	1004917a 	slli	r2,r2,5
     42c:	1007883a 	mov	r3,r2
     430:	008000f4 	movhi	r2,3
     434:	10902e04 	addi	r2,r2,16568
     438:	1885883a 	add	r2,r3,r2
     43c:	00000106 	br	444 <getGbkFont+0xf0>
		}
		else//GBK
		{
			return (void*)0;
     440:	0005883a 	mov	r2,zero
		}
	}
}
     444:	e037883a 	mov	sp,fp
     448:	df000017 	ldw	fp,0(sp)
     44c:	dec00104 	addi	sp,sp,4
     450:	f800283a 	ret

00000454 <getUCS2Font>:

extern const alt_u8 ucs2_font_x16y16[];

//UCS2
const alt_u8 *getUCS2Font( alt_u8 ucs2HighByte, alt_u8 ucs2LowByte )
{
     454:	defffc04 	addi	sp,sp,-16
     458:	df000315 	stw	fp,12(sp)
     45c:	df000304 	addi	fp,sp,12
     460:	2007883a 	mov	r3,r4
     464:	2805883a 	mov	r2,r5
     468:	e0fffe05 	stb	r3,-8(fp)
     46c:	e0bfff05 	stb	r2,-4(fp)
	int index = ( ucs2HighByte << 8 );
     470:	e0bffe03 	ldbu	r2,-8(fp)
     474:	1004923a 	slli	r2,r2,8
     478:	e0bffd15 	stw	r2,-12(fp)
	index = index + ucs2LowByte;
     47c:	e0bfff03 	ldbu	r2,-4(fp)
     480:	e0fffd17 	ldw	r3,-12(fp)
     484:	1885883a 	add	r2,r3,r2
     488:	e0bffd15 	stw	r2,-12(fp)
	return ucs2_font_x16y16 + index * UCS2_WORD_BYTES;
     48c:	e0bffd17 	ldw	r2,-12(fp)
     490:	1004917a 	slli	r2,r2,5
     494:	1007883a 	mov	r3,r2
     498:	008003f4 	movhi	r2,15
     49c:	1086dd04 	addi	r2,r2,7028
     4a0:	1885883a 	add	r2,r3,r2
}
     4a4:	e037883a 	mov	sp,fp
     4a8:	df000017 	ldw	fp,0(sp)
     4ac:	dec00104 	addi	sp,sp,4
     4b0:	f800283a 	ret

000004b4 <main>:
*/

//extern TxtFilesInfo txtFilesInfoSpace;

int main( void )
{
     4b4:	defffd04 	addi	sp,sp,-12
     4b8:	dfc00215 	stw	ra,8(sp)
     4bc:	df000115 	stw	fp,4(sp)
     4c0:	df000104 	addi	fp,sp,4

	bool status = true, status1;
     4c4:	00800044 	movi	r2,1
     4c8:	e0bfff05 	stb	r2,-4(fp)

	printf( "haha\n" );
     4cc:	010003f4 	movhi	r4,15
     4d0:	21006404 	addi	r4,r4,400
     4d4:	00201700 	call	20170 <puts>

	//.
	//1.
	TP_Init();
     4d8:	00137c40 	call	137c4 <TP_Init>
//	//2.LCD
	LCD_init();
     4dc:	00103640 	call	10364 <LCD_init>
	LCD_Clear(0x4698);//
     4e0:	0111a604 	movi	r4,18072
     4e4:	00125240 	call	12524 <LCD_Clear>
	//3.
	Timer_Initial();
     4e8:	0012c980 	call	12c98 <Timer_Initial>


	printf( "haha2\n" );
     4ec:	010003f4 	movhi	r4,15
     4f0:	21006604 	addi	r4,r4,408
     4f4:	00201700 	call	20170 <puts>
	//.

	//1.SDtxt
	status = status && readAlltxtFilesOfSDcard( );
     4f8:	e0bfff03 	ldbu	r2,-4(fp)
     4fc:	10000526 	beq	r2,zero,514 <main+0x60>
     500:	001671c0 	call	1671c <readAlltxtFilesOfSDcard>
     504:	10803fcc 	andi	r2,r2,255
     508:	10000226 	beq	r2,zero,514 <main+0x60>
     50c:	00800044 	movi	r2,1
     510:	00000106 	br	518 <main+0x64>
     514:	0005883a 	mov	r2,zero
     518:	e0bfff05 	stb	r2,-4(fp)
     51c:	e0bfff03 	ldbu	r2,-4(fp)
     520:	1080004c 	andi	r2,r2,1
     524:	e0bfff05 	stb	r2,-4(fp)

    displayStatus( "readAlltxtFilesOfSDcard", "main", status );
     528:	e0bfff03 	ldbu	r2,-4(fp)
     52c:	010003f4 	movhi	r4,15
     530:	21006804 	addi	r4,r4,416
     534:	014003f4 	movhi	r5,15
     538:	29406e04 	addi	r5,r5,440
     53c:	100d883a 	mov	r6,r2
     540:	000cc540 	call	cc54 <displayStatus>
//    displayTxtFilesInfo( &txtFilesInfoSpace, 4 );
//    printf( "}\n" );


	//2.ScreenContainer
	status1 = screenInit();
     544:	00026240 	call	2624 <screenInit>
     548:	e0bfff45 	stb	r2,-3(fp)
	status = status && status1;
     54c:	e0bfff03 	ldbu	r2,-4(fp)
     550:	10000426 	beq	r2,zero,564 <main+0xb0>
     554:	e0bfff43 	ldbu	r2,-3(fp)
     558:	10000226 	beq	r2,zero,564 <main+0xb0>
     55c:	00800044 	movi	r2,1
     560:	00000106 	br	568 <main+0xb4>
     564:	0005883a 	mov	r2,zero
     568:	e0bfff05 	stb	r2,-4(fp)
     56c:	e0bfff03 	ldbu	r2,-4(fp)
     570:	1080004c 	andi	r2,r2,1
     574:	e0bfff05 	stb	r2,-4(fp)

	displayStatus( "screenInit", "main", status );
     578:	e0bfff03 	ldbu	r2,-4(fp)
     57c:	010003f4 	movhi	r4,15
     580:	21007004 	addi	r4,r4,448
     584:	014003f4 	movhi	r5,15
     588:	29406e04 	addi	r5,r5,440
     58c:	100d883a 	mov	r6,r2
     590:	000cc540 	call	cc54 <displayStatus>
//    printf( "tftlcdScreenInst = {\n" );
//    displayScreenContainer( &tftlcdScreenInst, 4 );
//    printf( "}\n" );

	//3.
	status1 = showScreen( );
     594:	000bee80 	call	bee8 <showScreen>
     598:	e0bfff45 	stb	r2,-3(fp)
	status = status && status1;
     59c:	e0bfff03 	ldbu	r2,-4(fp)
     5a0:	10000426 	beq	r2,zero,5b4 <main+0x100>
     5a4:	e0bfff43 	ldbu	r2,-3(fp)
     5a8:	10000226 	beq	r2,zero,5b4 <main+0x100>
     5ac:	00800044 	movi	r2,1
     5b0:	00000106 	br	5b8 <main+0x104>
     5b4:	0005883a 	mov	r2,zero
     5b8:	e0bfff05 	stb	r2,-4(fp)
     5bc:	e0bfff03 	ldbu	r2,-4(fp)
     5c0:	1080004c 	andi	r2,r2,1
     5c4:	e0bfff05 	stb	r2,-4(fp)

	displayStatus( "showScreen", "main", status );
     5c8:	e0bfff03 	ldbu	r2,-4(fp)
     5cc:	010003f4 	movhi	r4,15
     5d0:	21007304 	addi	r4,r4,460
     5d4:	014003f4 	movhi	r5,15
     5d8:	29406e04 	addi	r5,r5,440
     5dc:	100d883a 	mov	r6,r2
     5e0:	000cc540 	call	cc54 <displayStatus>

	printf( "haha3\n" );
     5e4:	010003f4 	movhi	r4,15
     5e8:	21007604 	addi	r4,r4,472
     5ec:	00201700 	call	20170 <puts>


	//.
	//
	touchPosFlag.scrTaskBusy = false;
     5f0:	00800bf4 	movhi	r2,47
     5f4:	10984b04 	addi	r2,r2,24876
     5f8:	10000085 	stb	zero,2(r2)

	while( 1 )
    {
		//
		scrHeaderTimeResp( &(tftlcdScreenInst.scrHeader), &(tftlcdScreenInst.headerArea) );
     5fc:	01000bf4 	movhi	r4,47
     600:	21187504 	addi	r4,r4,25044
     604:	01400bf4 	movhi	r5,47
     608:	29587304 	addi	r5,r5,25036
     60c:	00127040 	call	12704 <scrHeaderTimeResp>

		//
		if ( touchPosFlag.touchOccur )
     610:	00800bf4 	movhi	r2,47
     614:	10984b04 	addi	r2,r2,24876
     618:	10800043 	ldbu	r2,1(r2)
     61c:	10803fcc 	andi	r2,r2,255
     620:	10001826 	beq	r2,zero,684 <main+0x1d0>
		{
			printf( "(x,y) = (%d,%d)\n", touchPosFlag.touchPos.x_pos, touchPosFlag.touchPos.y_pos );
     624:	00800bf4 	movhi	r2,47
     628:	10984b04 	addi	r2,r2,24876
     62c:	1080010b 	ldhu	r2,4(r2)
     630:	10ffffcc 	andi	r3,r2,65535
     634:	18e0001c 	xori	r3,r3,32768
     638:	18e00004 	addi	r3,r3,-32768
     63c:	00800bf4 	movhi	r2,47
     640:	10984b04 	addi	r2,r2,24876
     644:	1080018b 	ldhu	r2,6(r2)
     648:	10bfffcc 	andi	r2,r2,65535
     64c:	10a0001c 	xori	r2,r2,32768
     650:	10a00004 	addi	r2,r2,-32768
     654:	010003f4 	movhi	r4,15
     658:	21007804 	addi	r4,r4,480
     65c:	180b883a 	mov	r5,r3
     660:	100d883a 	mov	r6,r2
     664:	002005c0 	call	2005c <printf>
			touchPosFlag.scrTaskBusy = true;
     668:	00800bf4 	movhi	r2,47
     66c:	10984b04 	addi	r2,r2,24876
     670:	00c00044 	movi	r3,1
     674:	10c00085 	stb	r3,2(r2)
			screenRespTask( &tftlcdScreenInst );
     678:	01000bf4 	movhi	r4,47
     67c:	21187104 	addi	r4,r4,25028
     680:	0013cfc0 	call	13cfc <screenRespTask>
//			{
//				displayTxtBookSpace( );
//			}

		}
		touchPosFlag.scrTaskBusy = false;
     684:	00800bf4 	movhi	r2,47
     688:	10984b04 	addi	r2,r2,24876
     68c:	10000085 	stb	zero,2(r2)
    }
     690:	003fda06 	br	5fc <__alt_data_end+0xf80005fc>

00000694 <checkAreaRange>:
ColorInfo defaultColorInfo = {  DEFAULT_BORDER_COLOR, DEFAULT_BKG_COLOR, DEFAULT_OBJ_COLOR, true, true };


//false
bool checkAreaRange( const AreaRange *areaPtr )
{
     694:	defffd04 	addi	sp,sp,-12
     698:	df000215 	stw	fp,8(sp)
     69c:	df000204 	addi	fp,sp,8
     6a0:	e13fff15 	stw	r4,-4(fp)
    bool status = true;
     6a4:	00800044 	movi	r2,1
     6a8:	e0bffe05 	stb	r2,-8(fp)

    //:
    //1.width, height >= 0
    //2.x_min,y_min >= 1

    if ( areaPtr->x_min > areaPtr->x_max + 1 )//width = 0
     6ac:	e0bfff17 	ldw	r2,-4(fp)
     6b0:	1080000b 	ldhu	r2,0(r2)
     6b4:	10bfffcc 	andi	r2,r2,65535
     6b8:	10a0001c 	xori	r2,r2,32768
     6bc:	10a00004 	addi	r2,r2,-32768
     6c0:	e0ffff17 	ldw	r3,-4(fp)
     6c4:	18c0008b 	ldhu	r3,2(r3)
     6c8:	18ffffcc 	andi	r3,r3,65535
     6cc:	18e0001c 	xori	r3,r3,32768
     6d0:	18e00004 	addi	r3,r3,-32768
     6d4:	18c00044 	addi	r3,r3,1
     6d8:	1880020e 	bge	r3,r2,6e4 <checkAreaRange+0x50>
	{
		status = false;
     6dc:	e03ffe05 	stb	zero,-8(fp)
     6e0:	00000706 	br	700 <checkAreaRange+0x6c>
	}
	else if ( areaPtr->x_min < 1 )
     6e4:	e0bfff17 	ldw	r2,-4(fp)
     6e8:	1080000b 	ldhu	r2,0(r2)
     6ec:	10bfffcc 	andi	r2,r2,65535
     6f0:	10a0001c 	xori	r2,r2,32768
     6f4:	10a00004 	addi	r2,r2,-32768
     6f8:	00800116 	blt	zero,r2,700 <checkAreaRange+0x6c>
    {
        status = false;
     6fc:	e03ffe05 	stb	zero,-8(fp)
    }
	if ( areaPtr->y_min > areaPtr->y_max + 1 )//height = 0
     700:	e0bfff17 	ldw	r2,-4(fp)
     704:	1080010b 	ldhu	r2,4(r2)
     708:	10bfffcc 	andi	r2,r2,65535
     70c:	10a0001c 	xori	r2,r2,32768
     710:	10a00004 	addi	r2,r2,-32768
     714:	e0ffff17 	ldw	r3,-4(fp)
     718:	18c0018b 	ldhu	r3,6(r3)
     71c:	18ffffcc 	andi	r3,r3,65535
     720:	18e0001c 	xori	r3,r3,32768
     724:	18e00004 	addi	r3,r3,-32768
     728:	18c00044 	addi	r3,r3,1
     72c:	1880020e 	bge	r3,r2,738 <checkAreaRange+0xa4>
	{
		status = false;
     730:	e03ffe05 	stb	zero,-8(fp)
     734:	00000706 	br	754 <checkAreaRange+0xc0>
	}
	else if ( areaPtr->y_min < 1 )
     738:	e0bfff17 	ldw	r2,-4(fp)
     73c:	1080010b 	ldhu	r2,4(r2)
     740:	10bfffcc 	andi	r2,r2,65535
     744:	10a0001c 	xori	r2,r2,32768
     748:	10a00004 	addi	r2,r2,-32768
     74c:	00800116 	blt	zero,r2,754 <checkAreaRange+0xc0>
    {
        status = false;
     750:	e03ffe05 	stb	zero,-8(fp)
    }

	return status;
     754:	e0bffe03 	ldbu	r2,-8(fp)

}
     758:	e037883a 	mov	sp,fp
     75c:	df000017 	ldw	fp,0(sp)
     760:	dec00104 	addi	sp,sp,4
     764:	f800283a 	ret

00000768 <setAreaRange>:

//
bool setAreaRange( AreaRange *areaPtr, short x_min, short x_max, short y_min, short y_max )
{
     768:	defff804 	addi	sp,sp,-32
     76c:	dfc00715 	stw	ra,28(sp)
     770:	df000615 	stw	fp,24(sp)
     774:	df000604 	addi	fp,sp,24
     778:	e13ffb15 	stw	r4,-20(fp)
     77c:	3009883a 	mov	r4,r6
     780:	3807883a 	mov	r3,r7
     784:	e0800217 	ldw	r2,8(fp)
     788:	e17ffc0d 	sth	r5,-16(fp)
     78c:	e13ffd0d 	sth	r4,-12(fp)
     790:	e0fffe0d 	sth	r3,-8(fp)
     794:	e0bfff0d 	sth	r2,-4(fp)
	areaPtr->x_min = x_min;
     798:	e0bffb17 	ldw	r2,-20(fp)
     79c:	e0fffc0b 	ldhu	r3,-16(fp)
     7a0:	10c0000d 	sth	r3,0(r2)
	areaPtr->x_max = x_max;
     7a4:	e0bffb17 	ldw	r2,-20(fp)
     7a8:	e0fffd0b 	ldhu	r3,-12(fp)
     7ac:	10c0008d 	sth	r3,2(r2)
	areaPtr->y_min = y_min;
     7b0:	e0bffb17 	ldw	r2,-20(fp)
     7b4:	e0fffe0b 	ldhu	r3,-8(fp)
     7b8:	10c0010d 	sth	r3,4(r2)
	areaPtr->y_max = y_max;
     7bc:	e0bffb17 	ldw	r2,-20(fp)
     7c0:	e0ffff0b 	ldhu	r3,-4(fp)
     7c4:	10c0018d 	sth	r3,6(r2)

	bool status = checkAreaRange( areaPtr );
     7c8:	e13ffb17 	ldw	r4,-20(fp)
     7cc:	00006940 	call	694 <checkAreaRange>
     7d0:	e0bffa05 	stb	r2,-24(fp)

	return status;
     7d4:	e0bffa03 	ldbu	r2,-24(fp)
}
     7d8:	e037883a 	mov	sp,fp
     7dc:	dfc00117 	ldw	ra,4(sp)
     7e0:	df000017 	ldw	fp,0(sp)
     7e4:	dec00204 	addi	sp,sp,8
     7e8:	f800283a 	ret

000007ec <setAreaRangeByAreaFmt>:
//
bool setAreaRangeByAreaFmt( AreaRange *areaPtr, AreaFmt *areaFmtPos, short width, short height )
{
     7ec:	defff604 	addi	sp,sp,-40
     7f0:	dfc00915 	stw	ra,36(sp)
     7f4:	df000815 	stw	fp,32(sp)
     7f8:	df000804 	addi	fp,sp,32
     7fc:	e13ffc15 	stw	r4,-16(fp)
     800:	e17ffd15 	stw	r5,-12(fp)
     804:	3007883a 	mov	r3,r6
     808:	3805883a 	mov	r2,r7
     80c:	e0fffe0d 	sth	r3,-8(fp)
     810:	e0bfff0d 	sth	r2,-4(fp)

	AreaFmtCenter *tempFmtCenterPos;
	AreaFmtMargin *tempFmtMarginPos;

	bool status = true, status1;
     814:	00800044 	movi	r2,1
     818:	e0bff805 	stb	r2,-32(fp)

	//x
	switch( areaFmtPos->fmtTypeX )
     81c:	e0bffd17 	ldw	r2,-12(fp)
     820:	10800017 	ldw	r2,0(r2)
     824:	10000326 	beq	r2,zero,834 <setAreaRangeByAreaFmt+0x48>
     828:	10800060 	cmpeqi	r2,r2,1
     82c:	1000181e 	bne	r2,zero,890 <setAreaRangeByAreaFmt+0xa4>
     830:	00002806 	br	8d4 <setAreaRangeByAreaFmt+0xe8>
	{
		case AREA_FMT_CENTER:
			tempFmtCenterPos = &((areaFmtPos->fmtValX).fmtCenterVal);
     834:	e0bffd17 	ldw	r2,-12(fp)
     838:	10800204 	addi	r2,r2,8
     83c:	e0bff915 	stw	r2,-28(fp)

			areaPtr->x_min = tempFmtCenterPos->center - tempFmtCenterPos->half + 1;
     840:	e0bff917 	ldw	r2,-28(fp)
     844:	1080000b 	ldhu	r2,0(r2)
     848:	1007883a 	mov	r3,r2
     84c:	e0bff917 	ldw	r2,-28(fp)
     850:	1080008b 	ldhu	r2,2(r2)
     854:	1885c83a 	sub	r2,r3,r2
     858:	10800044 	addi	r2,r2,1
     85c:	1007883a 	mov	r3,r2
     860:	e0bffc17 	ldw	r2,-16(fp)
     864:	10c0000d 	sth	r3,0(r2)
			areaPtr->x_max = tempFmtCenterPos->center + tempFmtCenterPos->half;
     868:	e0bff917 	ldw	r2,-28(fp)
     86c:	1080000b 	ldhu	r2,0(r2)
     870:	1007883a 	mov	r3,r2
     874:	e0bff917 	ldw	r2,-28(fp)
     878:	1080008b 	ldhu	r2,2(r2)
     87c:	1885883a 	add	r2,r3,r2
     880:	1007883a 	mov	r3,r2
     884:	e0bffc17 	ldw	r2,-16(fp)
     888:	10c0008d 	sth	r3,2(r2)

			break;
     88c:	00001206 	br	8d8 <setAreaRangeByAreaFmt+0xec>

		case AREA_FMT_MARGIN:
			tempFmtMarginPos = &((areaFmtPos->fmtValX).fmtMarginVal);
     890:	e0bffd17 	ldw	r2,-12(fp)
     894:	10800204 	addi	r2,r2,8
     898:	e0bffa15 	stw	r2,-24(fp)

			areaPtr->x_min = tempFmtMarginPos->margin_LU + 1;
     89c:	e0bffa17 	ldw	r2,-24(fp)
     8a0:	1080000b 	ldhu	r2,0(r2)
     8a4:	10800044 	addi	r2,r2,1
     8a8:	1007883a 	mov	r3,r2
     8ac:	e0bffc17 	ldw	r2,-16(fp)
     8b0:	10c0000d 	sth	r3,0(r2)
			areaPtr->x_max = width - tempFmtMarginPos->margin_RD;
     8b4:	e0bffe0b 	ldhu	r2,-8(fp)
     8b8:	e0fffa17 	ldw	r3,-24(fp)
     8bc:	18c0008b 	ldhu	r3,2(r3)
     8c0:	10c5c83a 	sub	r2,r2,r3
     8c4:	1007883a 	mov	r3,r2
     8c8:	e0bffc17 	ldw	r2,-16(fp)
     8cc:	10c0008d 	sth	r3,2(r2)

			break;
     8d0:	00000106 	br	8d8 <setAreaRangeByAreaFmt+0xec>
		default:
			status = false;
     8d4:	e03ff805 	stb	zero,-32(fp)
	}
	//y
	switch( areaFmtPos->fmtTypeY )
     8d8:	e0bffd17 	ldw	r2,-12(fp)
     8dc:	10800117 	ldw	r2,4(r2)
     8e0:	10000326 	beq	r2,zero,8f0 <setAreaRangeByAreaFmt+0x104>
     8e4:	10800060 	cmpeqi	r2,r2,1
     8e8:	1000181e 	bne	r2,zero,94c <setAreaRangeByAreaFmt+0x160>
     8ec:	00002806 	br	990 <setAreaRangeByAreaFmt+0x1a4>
	{
		case AREA_FMT_CENTER:
			tempFmtCenterPos = &((areaFmtPos->fmtValY).fmtCenterVal);
     8f0:	e0bffd17 	ldw	r2,-12(fp)
     8f4:	10800304 	addi	r2,r2,12
     8f8:	e0bff915 	stw	r2,-28(fp)

			areaPtr->y_min = tempFmtCenterPos->center - tempFmtCenterPos->half + 1;
     8fc:	e0bff917 	ldw	r2,-28(fp)
     900:	1080000b 	ldhu	r2,0(r2)
     904:	1007883a 	mov	r3,r2
     908:	e0bff917 	ldw	r2,-28(fp)
     90c:	1080008b 	ldhu	r2,2(r2)
     910:	1885c83a 	sub	r2,r3,r2
     914:	10800044 	addi	r2,r2,1
     918:	1007883a 	mov	r3,r2
     91c:	e0bffc17 	ldw	r2,-16(fp)
     920:	10c0010d 	sth	r3,4(r2)
			areaPtr->y_max = tempFmtCenterPos->center + tempFmtCenterPos->half;
     924:	e0bff917 	ldw	r2,-28(fp)
     928:	1080000b 	ldhu	r2,0(r2)
     92c:	1007883a 	mov	r3,r2
     930:	e0bff917 	ldw	r2,-28(fp)
     934:	1080008b 	ldhu	r2,2(r2)
     938:	1885883a 	add	r2,r3,r2
     93c:	1007883a 	mov	r3,r2
     940:	e0bffc17 	ldw	r2,-16(fp)
     944:	10c0018d 	sth	r3,6(r2)

			break;
     948:	00001206 	br	994 <setAreaRangeByAreaFmt+0x1a8>

		case AREA_FMT_MARGIN:
			tempFmtMarginPos = &((areaFmtPos->fmtValY).fmtMarginVal);
     94c:	e0bffd17 	ldw	r2,-12(fp)
     950:	10800304 	addi	r2,r2,12
     954:	e0bffa15 	stw	r2,-24(fp)

			areaPtr->y_min = tempFmtMarginPos->margin_LU + 1;
     958:	e0bffa17 	ldw	r2,-24(fp)
     95c:	1080000b 	ldhu	r2,0(r2)
     960:	10800044 	addi	r2,r2,1
     964:	1007883a 	mov	r3,r2
     968:	e0bffc17 	ldw	r2,-16(fp)
     96c:	10c0010d 	sth	r3,4(r2)
			areaPtr->y_max = width - tempFmtMarginPos->margin_RD;
     970:	e0bffe0b 	ldhu	r2,-8(fp)
     974:	e0fffa17 	ldw	r3,-24(fp)
     978:	18c0008b 	ldhu	r3,2(r3)
     97c:	10c5c83a 	sub	r2,r2,r3
     980:	1007883a 	mov	r3,r2
     984:	e0bffc17 	ldw	r2,-16(fp)
     988:	10c0018d 	sth	r3,6(r2)

			break;
     98c:	00000106 	br	994 <setAreaRangeByAreaFmt+0x1a8>
		default:
			status = false;
     990:	e03ff805 	stb	zero,-32(fp)
	}

    status1 = checkAreaRange( areaPtr );
     994:	e13ffc17 	ldw	r4,-16(fp)
     998:	00006940 	call	694 <checkAreaRange>
     99c:	e0bffb05 	stb	r2,-20(fp)
    status = status && status1;
     9a0:	e0bff803 	ldbu	r2,-32(fp)
     9a4:	10000426 	beq	r2,zero,9b8 <setAreaRangeByAreaFmt+0x1cc>
     9a8:	e0bffb03 	ldbu	r2,-20(fp)
     9ac:	10000226 	beq	r2,zero,9b8 <setAreaRangeByAreaFmt+0x1cc>
     9b0:	00800044 	movi	r2,1
     9b4:	00000106 	br	9bc <setAreaRangeByAreaFmt+0x1d0>
     9b8:	0005883a 	mov	r2,zero
     9bc:	e0bff805 	stb	r2,-32(fp)
     9c0:	e0bff803 	ldbu	r2,-32(fp)
     9c4:	1080004c 	andi	r2,r2,1
     9c8:	e0bff805 	stb	r2,-32(fp)


	return status;
     9cc:	e0bff803 	ldbu	r2,-32(fp)

}
     9d0:	e037883a 	mov	sp,fp
     9d4:	dfc00117 	ldw	ra,4(sp)
     9d8:	df000017 	ldw	fp,0(sp)
     9dc:	dec00204 	addi	sp,sp,8
     9e0:	f800283a 	ret

000009e4 <setAreaFmt>:

//
bool setAreaFmt( AreaFmt *areaFmtPos, enum areaFmtID fmtXID, enum areaFmtID fmtYID, short xC_xML, short xHf_xMR, short yC_yMU, short yHf_yMD )
{
     9e4:	defff704 	addi	sp,sp,-36
     9e8:	df000815 	stw	fp,32(sp)
     9ec:	df000804 	addi	fp,sp,32
     9f0:	e13ff915 	stw	r4,-28(fp)
     9f4:	e17ffa15 	stw	r5,-24(fp)
     9f8:	e1bffb15 	stw	r6,-20(fp)
     9fc:	380b883a 	mov	r5,r7
     a00:	e1000117 	ldw	r4,4(fp)
     a04:	e0c00217 	ldw	r3,8(fp)
     a08:	e0800317 	ldw	r2,12(fp)
     a0c:	e17ffc0d 	sth	r5,-16(fp)
     a10:	e13ffd0d 	sth	r4,-12(fp)
     a14:	e0fffe0d 	sth	r3,-8(fp)
     a18:	e0bfff0d 	sth	r2,-4(fp)
	bool status = true;
     a1c:	00800044 	movi	r2,1
     a20:	e0bff805 	stb	r2,-32(fp)
	areaFmtPos->fmtTypeX = fmtXID;
     a24:	e0bff917 	ldw	r2,-28(fp)
     a28:	e0fffa17 	ldw	r3,-24(fp)
     a2c:	10c00015 	stw	r3,0(r2)
	areaFmtPos->fmtTypeY = fmtYID;
     a30:	e0bff917 	ldw	r2,-28(fp)
     a34:	e0fffb17 	ldw	r3,-20(fp)
     a38:	10c00115 	stw	r3,4(r2)

	switch( fmtXID )
     a3c:	e0bffa17 	ldw	r2,-24(fp)
     a40:	10000326 	beq	r2,zero,a50 <setAreaFmt+0x6c>
     a44:	10800060 	cmpeqi	r2,r2,1
     a48:	1000081e 	bne	r2,zero,a6c <setAreaFmt+0x88>
     a4c:	00000e06 	br	a88 <setAreaFmt+0xa4>
	{
		case AREA_FMT_CENTER:
			(areaFmtPos->fmtValX).fmtCenterVal.center = xC_xML;
     a50:	e0bff917 	ldw	r2,-28(fp)
     a54:	e0fffc0b 	ldhu	r3,-16(fp)
     a58:	10c0020d 	sth	r3,8(r2)
			(areaFmtPos->fmtValX).fmtCenterVal.half = xHf_xMR;
     a5c:	e0bff917 	ldw	r2,-28(fp)
     a60:	e0fffd0b 	ldhu	r3,-12(fp)
     a64:	10c0028d 	sth	r3,10(r2)
			break;
     a68:	00000806 	br	a8c <setAreaFmt+0xa8>

		case AREA_FMT_MARGIN:
			(areaFmtPos->fmtValX).fmtMarginVal.margin_LU = xC_xML;
     a6c:	e0bff917 	ldw	r2,-28(fp)
     a70:	e0fffc0b 	ldhu	r3,-16(fp)
     a74:	10c0020d 	sth	r3,8(r2)
			(areaFmtPos->fmtValX).fmtMarginVal.margin_RD = xHf_xMR;
     a78:	e0bff917 	ldw	r2,-28(fp)
     a7c:	e0fffd0b 	ldhu	r3,-12(fp)
     a80:	10c0028d 	sth	r3,10(r2)
			break;
     a84:	00000106 	br	a8c <setAreaFmt+0xa8>
		default:
			status = false;
     a88:	e03ff805 	stb	zero,-32(fp)
	}
	switch( fmtYID )
     a8c:	e0bffb17 	ldw	r2,-20(fp)
     a90:	10000326 	beq	r2,zero,aa0 <setAreaFmt+0xbc>
     a94:	10800060 	cmpeqi	r2,r2,1
     a98:	1000081e 	bne	r2,zero,abc <setAreaFmt+0xd8>
     a9c:	00000e06 	br	ad8 <setAreaFmt+0xf4>
	{
		case AREA_FMT_CENTER:
			(areaFmtPos->fmtValY).fmtCenterVal.center = yC_yMU;
     aa0:	e0bff917 	ldw	r2,-28(fp)
     aa4:	e0fffe0b 	ldhu	r3,-8(fp)
     aa8:	10c0030d 	sth	r3,12(r2)
			(areaFmtPos->fmtValY).fmtCenterVal.half = yHf_yMD;
     aac:	e0bff917 	ldw	r2,-28(fp)
     ab0:	e0ffff0b 	ldhu	r3,-4(fp)
     ab4:	10c0038d 	sth	r3,14(r2)
			break;
     ab8:	00000806 	br	adc <setAreaFmt+0xf8>

		case AREA_FMT_MARGIN:
			(areaFmtPos->fmtValY).fmtMarginVal.margin_LU = yC_yMU;
     abc:	e0bff917 	ldw	r2,-28(fp)
     ac0:	e0fffe0b 	ldhu	r3,-8(fp)
     ac4:	10c0030d 	sth	r3,12(r2)
			(areaFmtPos->fmtValY).fmtMarginVal.margin_RD = yHf_yMD;
     ac8:	e0bff917 	ldw	r2,-28(fp)
     acc:	e0ffff0b 	ldhu	r3,-4(fp)
     ad0:	10c0038d 	sth	r3,14(r2)
			break;
     ad4:	00000106 	br	adc <setAreaFmt+0xf8>
		default:
			status = false;
     ad8:	e03ff805 	stb	zero,-32(fp)
	}
	return status;
     adc:	e0bff803 	ldbu	r2,-32(fp)
}
     ae0:	e037883a 	mov	sp,fp
     ae4:	df000017 	ldw	fp,0(sp)
     ae8:	dec00104 	addi	sp,sp,4
     aec:	f800283a 	ret

00000af0 <setAreaRangeCentered>:

//()
bool setAreaRangeCentered( AreaRange *areaPtr, short width, short height, short objXSize, short objYSize )
{
     af0:	defff504 	addi	sp,sp,-44
     af4:	dfc00a15 	stw	ra,40(sp)
     af8:	df000915 	stw	fp,36(sp)
     afc:	df000904 	addi	fp,sp,36
     b00:	e13ffb15 	stw	r4,-20(fp)
     b04:	3009883a 	mov	r4,r6
     b08:	3807883a 	mov	r3,r7
     b0c:	e0800217 	ldw	r2,8(fp)
     b10:	e17ffc0d 	sth	r5,-16(fp)
     b14:	e13ffd0d 	sth	r4,-12(fp)
     b18:	e0fffe0d 	sth	r3,-8(fp)
     b1c:	e0bfff0d 	sth	r2,-4(fp)
	bool status = true, status1;
     b20:	00800044 	movi	r2,1
     b24:	e0bff805 	stb	r2,-32(fp)

	short marginXL, marginXR, marginYU, marginYD;

	//objobjobj
	if ( width < objXSize )
     b28:	e0fffc0f 	ldh	r3,-16(fp)
     b2c:	e0bffe0f 	ldh	r2,-8(fp)
     b30:	1880040e 	bge	r3,r2,b44 <setAreaRangeCentered+0x54>
	{
		marginXL = 0;
     b34:	e03ff88d 	sth	zero,-30(fp)
		marginXR = 0;
     b38:	e03ff90d 	sth	zero,-28(fp)
		status = false;//
     b3c:	e03ff805 	stb	zero,-32(fp)
     b40:	00000c06 	br	b74 <setAreaRangeCentered+0x84>
	}
	else//
    {
        marginXL = ( width - objXSize ) >> 1;//
     b44:	e0fffc0f 	ldh	r3,-16(fp)
     b48:	e0bffe0f 	ldh	r2,-8(fp)
     b4c:	1885c83a 	sub	r2,r3,r2
     b50:	1005d07a 	srai	r2,r2,1
     b54:	e0bff88d 	sth	r2,-30(fp)
        marginXR = ( width - objXSize ) - marginXL;//
     b58:	e0fffc0b 	ldhu	r3,-16(fp)
     b5c:	e0bffe0b 	ldhu	r2,-8(fp)
     b60:	1885c83a 	sub	r2,r3,r2
     b64:	1007883a 	mov	r3,r2
     b68:	e0bff88b 	ldhu	r2,-30(fp)
     b6c:	1885c83a 	sub	r2,r3,r2
     b70:	e0bff90d 	sth	r2,-28(fp)
    }

	if ( height < objYSize )
     b74:	e0fffd0f 	ldh	r3,-12(fp)
     b78:	e0bfff0f 	ldh	r2,-4(fp)
     b7c:	1880040e 	bge	r3,r2,b90 <setAreaRangeCentered+0xa0>
    {
        marginYU = 0;
     b80:	e03ff98d 	sth	zero,-26(fp)
        marginYD = 0;
     b84:	e03ffa0d 	sth	zero,-24(fp)
        status = false;//
     b88:	e03ff805 	stb	zero,-32(fp)
     b8c:	00000c06 	br	bc0 <setAreaRangeCentered+0xd0>
    }
    else//
    {
        marginYU = ( height - objYSize )>> 1;//
     b90:	e0fffd0f 	ldh	r3,-12(fp)
     b94:	e0bfff0f 	ldh	r2,-4(fp)
     b98:	1885c83a 	sub	r2,r3,r2
     b9c:	1005d07a 	srai	r2,r2,1
     ba0:	e0bff98d 	sth	r2,-26(fp)
        marginYD = ( height - objYSize ) - marginYU;//
     ba4:	e0fffd0b 	ldhu	r3,-12(fp)
     ba8:	e0bfff0b 	ldhu	r2,-4(fp)
     bac:	1885c83a 	sub	r2,r3,r2
     bb0:	1007883a 	mov	r3,r2
     bb4:	e0bff98b 	ldhu	r2,-26(fp)
     bb8:	1885c83a 	sub	r2,r3,r2
     bbc:	e0bffa0d 	sth	r2,-24(fp)
    }

	status1 = setAreaRange( areaPtr, marginXL+1, width-marginXR, marginYU+1, height-marginYD );
     bc0:	e0bff88b 	ldhu	r2,-30(fp)
     bc4:	10800044 	addi	r2,r2,1
     bc8:	117fffcc 	andi	r5,r2,65535
     bcc:	2960001c 	xori	r5,r5,32768
     bd0:	29600004 	addi	r5,r5,-32768
     bd4:	e0fffc0b 	ldhu	r3,-16(fp)
     bd8:	e0bff90b 	ldhu	r2,-28(fp)
     bdc:	1885c83a 	sub	r2,r3,r2
     be0:	11bfffcc 	andi	r6,r2,65535
     be4:	31a0001c 	xori	r6,r6,32768
     be8:	31a00004 	addi	r6,r6,-32768
     bec:	e0bff98b 	ldhu	r2,-26(fp)
     bf0:	10800044 	addi	r2,r2,1
     bf4:	11ffffcc 	andi	r7,r2,65535
     bf8:	39e0001c 	xori	r7,r7,32768
     bfc:	39e00004 	addi	r7,r7,-32768
     c00:	e0fffd0b 	ldhu	r3,-12(fp)
     c04:	e0bffa0b 	ldhu	r2,-24(fp)
     c08:	1885c83a 	sub	r2,r3,r2
     c0c:	10bfffcc 	andi	r2,r2,65535
     c10:	10a0001c 	xori	r2,r2,32768
     c14:	10a00004 	addi	r2,r2,-32768
     c18:	d8800015 	stw	r2,0(sp)
     c1c:	e13ffb17 	ldw	r4,-20(fp)
     c20:	00007680 	call	768 <setAreaRange>
     c24:	e0bffa85 	stb	r2,-22(fp)
	status = status && status1;
     c28:	e0bff803 	ldbu	r2,-32(fp)
     c2c:	10000426 	beq	r2,zero,c40 <setAreaRangeCentered+0x150>
     c30:	e0bffa83 	ldbu	r2,-22(fp)
     c34:	10000226 	beq	r2,zero,c40 <setAreaRangeCentered+0x150>
     c38:	00800044 	movi	r2,1
     c3c:	00000106 	br	c44 <setAreaRangeCentered+0x154>
     c40:	0005883a 	mov	r2,zero
     c44:	e0bff805 	stb	r2,-32(fp)
     c48:	e0bff803 	ldbu	r2,-32(fp)
     c4c:	1080004c 	andi	r2,r2,1
     c50:	e0bff805 	stb	r2,-32(fp)

	return status;
     c54:	e0bff803 	ldbu	r2,-32(fp)
}
     c58:	e037883a 	mov	sp,fp
     c5c:	dfc00117 	ldw	ra,4(sp)
     c60:	df000017 	ldw	fp,0(sp)
     c64:	dec00204 	addi	sp,sp,8
     c68:	f800283a 	ret

00000c6c <setDefaultTagBlock>:
//
bool setDefaultTagBlock( TagBlock *tagPtr, char *text, short width, short height )
{
     c6c:	defff704 	addi	sp,sp,-36
     c70:	dfc00815 	stw	ra,32(sp)
     c74:	df000715 	stw	fp,28(sp)
     c78:	df000704 	addi	fp,sp,28
     c7c:	e13ffc15 	stw	r4,-16(fp)
     c80:	e17ffd15 	stw	r5,-12(fp)
     c84:	3007883a 	mov	r3,r6
     c88:	3805883a 	mov	r2,r7
     c8c:	e0fffe0d 	sth	r3,-8(fp)
     c90:	e0bfff0d 	sth	r2,-4(fp)
	tagPtr->tagColorInfo = defaultColorInfo;
     c94:	e0bffc17 	ldw	r2,-16(fp)
     c98:	d0e0040b 	ldhu	r3,-32752(gp)
     c9c:	10c0020d 	sth	r3,8(r2)
     ca0:	d0e00484 	addi	r3,gp,-32750
     ca4:	18c0000b 	ldhu	r3,0(r3)
     ca8:	10c0028d 	sth	r3,10(r2)
     cac:	d0e00504 	addi	r3,gp,-32748
     cb0:	18c0000b 	ldhu	r3,0(r3)
     cb4:	10c0030d 	sth	r3,12(r2)
     cb8:	d0e00584 	addi	r3,gp,-32746
     cbc:	18c0000b 	ldhu	r3,0(r3)
     cc0:	10c0038d 	sth	r3,14(r2)

	tagPtr->wordSpacing = DEFAULT_WORD_SPACING;
     cc4:	e0bffc17 	ldw	r2,-16(fp)
     cc8:	00c00084 	movi	r3,2
     ccc:	10c0040d 	sth	r3,16(r2)
	tagPtr->letterSpacing = DEFAULT_LETTER_SPACING;
     cd0:	e0bffc17 	ldw	r2,-16(fp)
     cd4:	00c00044 	movi	r3,1
     cd8:	10c0048d 	sth	r3,18(r2)
	tagPtr->wordXSize = SCR_WORD_SIZE_X;//
     cdc:	e0bffc17 	ldw	r2,-16(fp)
     ce0:	00c00404 	movi	r3,16
     ce4:	10c0050d 	sth	r3,20(r2)
	tagPtr->letterXSize = SCR_LETTER_SIZE_X;//
     ce8:	e0bffc17 	ldw	r2,-16(fp)
     cec:	00c00204 	movi	r3,8
     cf0:	10c0058d 	sth	r3,22(r2)
	tagPtr->objYSize = SCR_OBJ_SIZE_Y;//
     cf4:	e0bffc17 	ldw	r2,-16(fp)
     cf8:	00c00404 	movi	r3,16
     cfc:	10c0060d 	sth	r3,24(r2)
	(tagPtr->tagText).text = text;
     d00:	e0bffc17 	ldw	r2,-16(fp)
     d04:	e0fffd17 	ldw	r3,-12(fp)
     d08:	10c00715 	stw	r3,28(r2)

	short textLen = ( text == NULL )?0:strlen(text);
     d0c:	e0bffd17 	ldw	r2,-12(fp)
     d10:	10000326 	beq	r2,zero,d20 <setDefaultTagBlock+0xb4>
     d14:	e13ffd17 	ldw	r4,-12(fp)
     d18:	002032c0 	call	2032c <strlen>
     d1c:	00000106 	br	d24 <setDefaultTagBlock+0xb8>
     d20:	0005883a 	mov	r2,zero
     d24:	e0bffa0d 	sth	r2,-24(fp)

	(tagPtr->tagText).textLen = textLen;
     d28:	e0bffc17 	ldw	r2,-16(fp)
     d2c:	e0fffa0b 	ldhu	r3,-24(fp)
     d30:	10c0080d 	sth	r3,32(r2)
	(tagPtr->tagText).fmt = GBK;
     d34:	e0bffc17 	ldw	r2,-16(fp)
     d38:	10000915 	stw	zero,36(r2)

	(tagPtr->tagColorInfo).objVisible = ( text == NULL ) ? false : true;
     d3c:	e0bffd17 	ldw	r2,-12(fp)
     d40:	1004c03a 	cmpne	r2,r2,zero
     d44:	1007883a 	mov	r3,r2
     d48:	e0bffc17 	ldw	r2,-16(fp)
     d4c:	10c003c5 	stb	r3,15(r2)

	short textWidthSum = getWidthOfText( &(tagPtr->tagText) );
     d50:	e0bffc17 	ldw	r2,-16(fp)
     d54:	10800704 	addi	r2,r2,28
     d58:	1009883a 	mov	r4,r2
     d5c:	0001bcc0 	call	1bcc <getWidthOfText>
     d60:	e0bffa8d 	sth	r2,-22(fp)

	bool status = setAreaRangeCentered( &(tagPtr->textArea ), width, height, textWidthSum, SCR_OBJ_SIZE_Y );
     d64:	e13ffc17 	ldw	r4,-16(fp)
     d68:	e17ffe0f 	ldh	r5,-8(fp)
     d6c:	e1bfff0f 	ldh	r6,-4(fp)
     d70:	e0fffa8f 	ldh	r3,-22(fp)
     d74:	00800404 	movi	r2,16
     d78:	d8800015 	stw	r2,0(sp)
     d7c:	180f883a 	mov	r7,r3
     d80:	0000af00 	call	af0 <setAreaRangeCentered>
     d84:	e0bffb05 	stb	r2,-20(fp)

	return status;
     d88:	e0bffb03 	ldbu	r2,-20(fp)
}
     d8c:	e037883a 	mov	sp,fp
     d90:	dfc00117 	ldw	ra,4(sp)
     d94:	df000017 	ldw	fp,0(sp)
     d98:	dec00204 	addi	sp,sp,8
     d9c:	f800283a 	ret

00000da0 <setDefaultProgressBarX>:
//
bool setDefaultProgressBarX( ProgressBarX *prgBarInst, short width, short height )
{
     da0:	defff504 	addi	sp,sp,-44
     da4:	dfc00a15 	stw	ra,40(sp)
     da8:	df000915 	stw	fp,36(sp)
     dac:	df000904 	addi	fp,sp,36
     db0:	e13ffd15 	stw	r4,-12(fp)
     db4:	2807883a 	mov	r3,r5
     db8:	3005883a 	mov	r2,r6
     dbc:	e0fffe0d 	sth	r3,-8(fp)
     dc0:	e0bfff0d 	sth	r2,-4(fp)
	bool status = true, status1;
     dc4:	00800044 	movi	r2,1
     dc8:	e0bff905 	stb	r2,-28(fp)
	//
	prgBarInst->bkgBorderColor = defaultColorInfo;
     dcc:	e0bffd17 	ldw	r2,-12(fp)
     dd0:	d0e0040b 	ldhu	r3,-32752(gp)
     dd4:	10c0000d 	sth	r3,0(r2)
     dd8:	d0e00484 	addi	r3,gp,-32750
     ddc:	18c0000b 	ldhu	r3,0(r3)
     de0:	10c0008d 	sth	r3,2(r2)
     de4:	d0e00504 	addi	r3,gp,-32748
     de8:	18c0000b 	ldhu	r3,0(r3)
     dec:	10c0010d 	sth	r3,4(r2)
     df0:	d0e00584 	addi	r3,gp,-32746
     df4:	18c0000b 	ldhu	r3,0(r3)
     df8:	10c0018d 	sth	r3,6(r2)

	prgBarInst->xOffset = 0;
     dfc:	e0bffd17 	ldw	r2,-12(fp)
     e00:	1000140d 	sth	zero,80(r2)
	prgBarInst->xOffsetMax = 280;
     e04:	e0bffd17 	ldw	r2,-12(fp)
     e08:	00c04604 	movi	r3,280
     e0c:	10c0148d 	sth	r3,82(r2)

	//
	short dotHeight = ICON_DOT_Y_SIZE;
     e10:	00800304 	movi	r2,12
     e14:	e0bff98d 	sth	r2,-26(fp)
	short axisHeight = dotHeight / 2;
     e18:	e0bff98f 	ldh	r2,-26(fp)
     e1c:	1006d7fa 	srli	r3,r2,31
     e20:	1885883a 	add	r2,r3,r2
     e24:	1005d07a 	srai	r2,r2,1
     e28:	e0bffa0d 	sth	r2,-24(fp)
	short axisWidth = prgBarInst->xOffsetMax + 1;
     e2c:	e0bffd17 	ldw	r2,-12(fp)
     e30:	1080148b 	ldhu	r2,82(r2)
     e34:	10800044 	addi	r2,r2,1
     e38:	e0bffa8d 	sth	r2,-22(fp)
	status1 = setAreaRangeCentered( &(prgBarInst->axisArea), width, height, axisWidth, axisHeight );
     e3c:	e0bffd17 	ldw	r2,-12(fp)
     e40:	11000204 	addi	r4,r2,8
     e44:	e17ffe0f 	ldh	r5,-8(fp)
     e48:	e1bfff0f 	ldh	r6,-4(fp)
     e4c:	e0fffa8f 	ldh	r3,-22(fp)
     e50:	e0bffa0f 	ldh	r2,-24(fp)
     e54:	d8800015 	stw	r2,0(sp)
     e58:	180f883a 	mov	r7,r3
     e5c:	0000af00 	call	af0 <setAreaRangeCentered>
     e60:	e0bffb05 	stb	r2,-20(fp)
	status = status && status1;
     e64:	e0bff903 	ldbu	r2,-28(fp)
     e68:	10000426 	beq	r2,zero,e7c <setDefaultProgressBarX+0xdc>
     e6c:	e0bffb03 	ldbu	r2,-20(fp)
     e70:	10000226 	beq	r2,zero,e7c <setDefaultProgressBarX+0xdc>
     e74:	00800044 	movi	r2,1
     e78:	00000106 	br	e80 <setDefaultProgressBarX+0xe0>
     e7c:	0005883a 	mov	r2,zero
     e80:	e0bff905 	stb	r2,-28(fp)
     e84:	e0bff903 	ldbu	r2,-28(fp)
     e88:	1080004c 	andi	r2,r2,1
     e8c:	e0bff905 	stb	r2,-28(fp)
	//
	status1 = setDefaultIconBlock( &(prgBarInst->axis), (void*)0, axisWidth, axisHeight, 0, 0 );
     e90:	e0bffd17 	ldw	r2,-12(fp)
     e94:	11000404 	addi	r4,r2,16
     e98:	e0fffa8f 	ldh	r3,-22(fp)
     e9c:	e0bffa0f 	ldh	r2,-24(fp)
     ea0:	d8000015 	stw	zero,0(sp)
     ea4:	d8000115 	stw	zero,4(sp)
     ea8:	000b883a 	mov	r5,zero
     eac:	180d883a 	mov	r6,r3
     eb0:	100f883a 	mov	r7,r2
     eb4:	00016440 	call	1644 <setDefaultIconBlock>
     eb8:	e0bffb05 	stb	r2,-20(fp)
	status = status && status1;
     ebc:	e0bff903 	ldbu	r2,-28(fp)
     ec0:	10000426 	beq	r2,zero,ed4 <setDefaultProgressBarX+0x134>
     ec4:	e0bffb03 	ldbu	r2,-20(fp)
     ec8:	10000226 	beq	r2,zero,ed4 <setDefaultProgressBarX+0x134>
     ecc:	00800044 	movi	r2,1
     ed0:	00000106 	br	ed8 <setDefaultProgressBarX+0x138>
     ed4:	0005883a 	mov	r2,zero
     ed8:	e0bff905 	stb	r2,-28(fp)
     edc:	e0bff903 	ldbu	r2,-28(fp)
     ee0:	1080004c 	andi	r2,r2,1
     ee4:	e0bff905 	stb	r2,-28(fp)


	//
	short dotWidth = ICON_DOT_X_SIZE;
     ee8:	00800304 	movi	r2,12
     eec:	e0bffb8d 	sth	r2,-18(fp)
	short dotMarginXL = (prgBarInst->axisArea).x_min - dotWidth/2 - 1;
     ef0:	e0bffd17 	ldw	r2,-12(fp)
     ef4:	1080020b 	ldhu	r2,8(r2)
     ef8:	1009883a 	mov	r4,r2
     efc:	e0bffb8f 	ldh	r2,-18(fp)
     f00:	1006d7fa 	srli	r3,r2,31
     f04:	1885883a 	add	r2,r3,r2
     f08:	1005d07a 	srai	r2,r2,1
     f0c:	2085c83a 	sub	r2,r4,r2
     f10:	10bfffc4 	addi	r2,r2,-1
     f14:	e0bffc0d 	sth	r2,-16(fp)
	short dotMarginYU = ( (prgBarInst->axisArea).y_min - 1 + (prgBarInst->axisArea).y_max - dotHeight ) / 2;
     f18:	e0bffd17 	ldw	r2,-12(fp)
     f1c:	1080030b 	ldhu	r2,12(r2)
     f20:	10bfffcc 	andi	r2,r2,65535
     f24:	10a0001c 	xori	r2,r2,32768
     f28:	10a00004 	addi	r2,r2,-32768
     f2c:	10ffffc4 	addi	r3,r2,-1
     f30:	e0bffd17 	ldw	r2,-12(fp)
     f34:	1080038b 	ldhu	r2,14(r2)
     f38:	10bfffcc 	andi	r2,r2,65535
     f3c:	10a0001c 	xori	r2,r2,32768
     f40:	10a00004 	addi	r2,r2,-32768
     f44:	1887883a 	add	r3,r3,r2
     f48:	e0bff98f 	ldh	r2,-26(fp)
     f4c:	1885c83a 	sub	r2,r3,r2
     f50:	1006d7fa 	srli	r3,r2,31
     f54:	1885883a 	add	r2,r3,r2
     f58:	1005d07a 	srai	r2,r2,1
     f5c:	e0bffc8d 	sth	r2,-14(fp)
	status1 = setAreaRange( &(prgBarInst->dotBaseArea), dotMarginXL + 1, dotMarginXL + dotWidth,\
     f60:	e0bffd17 	ldw	r2,-12(fp)
     f64:	11000a04 	addi	r4,r2,40
     f68:	e0bffc0b 	ldhu	r2,-16(fp)
     f6c:	10800044 	addi	r2,r2,1
     f70:	117fffcc 	andi	r5,r2,65535
     f74:	2960001c 	xori	r5,r5,32768
     f78:	29600004 	addi	r5,r5,-32768
     f7c:	e0fffc0b 	ldhu	r3,-16(fp)
     f80:	e0bffb8b 	ldhu	r2,-18(fp)
     f84:	1885883a 	add	r2,r3,r2
     f88:	11bfffcc 	andi	r6,r2,65535
     f8c:	31a0001c 	xori	r6,r6,32768
     f90:	31a00004 	addi	r6,r6,-32768
     f94:	e0bffc8b 	ldhu	r2,-14(fp)
     f98:	10800044 	addi	r2,r2,1
     f9c:	11ffffcc 	andi	r7,r2,65535
     fa0:	39e0001c 	xori	r7,r7,32768
     fa4:	39e00004 	addi	r7,r7,-32768
     fa8:	e0fffc8b 	ldhu	r3,-14(fp)
     fac:	e0bff98b 	ldhu	r2,-26(fp)
     fb0:	1885883a 	add	r2,r3,r2
     fb4:	10bfffcc 	andi	r2,r2,65535
     fb8:	10a0001c 	xori	r2,r2,32768
     fbc:	10a00004 	addi	r2,r2,-32768
     fc0:	d8800015 	stw	r2,0(sp)
     fc4:	00007680 	call	768 <setAreaRange>
     fc8:	e0bffb05 	stb	r2,-20(fp)
					dotMarginYU + 1, dotMarginYU + dotHeight);
    status = status && status1;
     fcc:	e0bff903 	ldbu	r2,-28(fp)
     fd0:	10000426 	beq	r2,zero,fe4 <setDefaultProgressBarX+0x244>
     fd4:	e0bffb03 	ldbu	r2,-20(fp)
     fd8:	10000226 	beq	r2,zero,fe4 <setDefaultProgressBarX+0x244>
     fdc:	00800044 	movi	r2,1
     fe0:	00000106 	br	fe8 <setDefaultProgressBarX+0x248>
     fe4:	0005883a 	mov	r2,zero
     fe8:	e0bff905 	stb	r2,-28(fp)
     fec:	e0bff903 	ldbu	r2,-28(fp)
     ff0:	1080004c 	andi	r2,r2,1
     ff4:	e0bff905 	stb	r2,-28(fp)
	status1 = setDefaultIconBlock( &(prgBarInst->dot), icon_dot, dotWidth, dotHeight, dotWidth, dotHeight );
     ff8:	e0bffd17 	ldw	r2,-12(fp)
     ffc:	11000c04 	addi	r4,r2,48
    1000:	e1bffb8f 	ldh	r6,-18(fp)
    1004:	e1fff98f 	ldh	r7,-26(fp)
    1008:	e0fffb8f 	ldh	r3,-18(fp)
    100c:	e0bff98f 	ldh	r2,-26(fp)
    1010:	d8c00015 	stw	r3,0(sp)
    1014:	d8800115 	stw	r2,4(sp)
    1018:	014003f4 	movhi	r5,15
    101c:	29405604 	addi	r5,r5,344
    1020:	00016440 	call	1644 <setDefaultIconBlock>
    1024:	e0bffb05 	stb	r2,-20(fp)
	status = status && status1;
    1028:	e0bff903 	ldbu	r2,-28(fp)
    102c:	10000426 	beq	r2,zero,1040 <setDefaultProgressBarX+0x2a0>
    1030:	e0bffb03 	ldbu	r2,-20(fp)
    1034:	10000226 	beq	r2,zero,1040 <setDefaultProgressBarX+0x2a0>
    1038:	00800044 	movi	r2,1
    103c:	00000106 	br	1044 <setDefaultProgressBarX+0x2a4>
    1040:	0005883a 	mov	r2,zero
    1044:	e0bff905 	stb	r2,-28(fp)
    1048:	e0bff903 	ldbu	r2,-28(fp)
    104c:	1080004c 	andi	r2,r2,1
    1050:	e0bff905 	stb	r2,-28(fp)

	//
	status1 = setAreaRangeCentered( &(prgBarInst->clickArea), width, height, axisWidth + dotWidth, height / 2 );
    1054:	e0bffd17 	ldw	r2,-12(fp)
    1058:	11001204 	addi	r4,r2,72
    105c:	e17ffe0f 	ldh	r5,-8(fp)
    1060:	e1bfff0f 	ldh	r6,-4(fp)
    1064:	e0fffa8b 	ldhu	r3,-22(fp)
    1068:	e0bffb8b 	ldhu	r2,-18(fp)
    106c:	1885883a 	add	r2,r3,r2
    1070:	11ffffcc 	andi	r7,r2,65535
    1074:	39e0001c 	xori	r7,r7,32768
    1078:	39e00004 	addi	r7,r7,-32768
    107c:	e0bfff0f 	ldh	r2,-4(fp)
    1080:	1006d7fa 	srli	r3,r2,31
    1084:	1885883a 	add	r2,r3,r2
    1088:	1005d07a 	srai	r2,r2,1
    108c:	10bfffcc 	andi	r2,r2,65535
    1090:	10a0001c 	xori	r2,r2,32768
    1094:	10a00004 	addi	r2,r2,-32768
    1098:	d8800015 	stw	r2,0(sp)
    109c:	0000af00 	call	af0 <setAreaRangeCentered>
    10a0:	e0bffb05 	stb	r2,-20(fp)
	status = status && status1;
    10a4:	e0bff903 	ldbu	r2,-28(fp)
    10a8:	10000426 	beq	r2,zero,10bc <setDefaultProgressBarX+0x31c>
    10ac:	e0bffb03 	ldbu	r2,-20(fp)
    10b0:	10000226 	beq	r2,zero,10bc <setDefaultProgressBarX+0x31c>
    10b4:	00800044 	movi	r2,1
    10b8:	00000106 	br	10c0 <setDefaultProgressBarX+0x320>
    10bc:	0005883a 	mov	r2,zero
    10c0:	e0bff905 	stb	r2,-28(fp)
    10c4:	e0bff903 	ldbu	r2,-28(fp)
    10c8:	1080004c 	andi	r2,r2,1
    10cc:	e0bff905 	stb	r2,-28(fp)


	return status;
    10d0:	e0bff903 	ldbu	r2,-28(fp)

}
    10d4:	e037883a 	mov	sp,fp
    10d8:	dfc00117 	ldw	ra,4(sp)
    10dc:	df000017 	ldw	fp,0(sp)
    10e0:	dec00204 	addi	sp,sp,8
    10e4:	f800283a 	ret

000010e8 <setDefaultScrollBarY>:
//
bool setDefaultScrollBarY( ScrollBarY *scrollBarYInst, short width, short height, float barYRatio )
{
    10e8:	defff104 	addi	sp,sp,-60
    10ec:	dfc00e15 	stw	ra,56(sp)
    10f0:	df000d15 	stw	fp,52(sp)
    10f4:	df000d04 	addi	fp,sp,52
    10f8:	e13ffc15 	stw	r4,-16(fp)
    10fc:	2807883a 	mov	r3,r5
    1100:	3005883a 	mov	r2,r6
    1104:	e1ffff15 	stw	r7,-4(fp)
    1108:	e0fffd0d 	sth	r3,-12(fp)
    110c:	e0bffe0d 	sth	r2,-8(fp)
	bool status = true, status1;
    1110:	00800044 	movi	r2,1
    1114:	e0bff505 	stb	r2,-44(fp)

	scrollBarYInst->barYColorInfo = defaultColorInfo;
    1118:	e0bffc17 	ldw	r2,-16(fp)
    111c:	d0e0040b 	ldhu	r3,-32752(gp)
    1120:	10c0000d 	sth	r3,0(r2)
    1124:	d0e00484 	addi	r3,gp,-32750
    1128:	18c0000b 	ldhu	r3,0(r3)
    112c:	10c0008d 	sth	r3,2(r2)
    1130:	d0e00504 	addi	r3,gp,-32748
    1134:	18c0000b 	ldhu	r3,0(r3)
    1138:	10c0010d 	sth	r3,4(r2)
    113c:	d0e00584 	addi	r3,gp,-32746
    1140:	18c0000b 	ldhu	r3,0(r3)
    1144:	10c0018d 	sth	r3,6(r2)

	short iconMarginXL = 1;
    1148:	00800044 	movi	r2,1
    114c:	e0bff58d 	sth	r2,-42(fp)
	short iconMarginXR = 1;
    1150:	00800044 	movi	r2,1
    1154:	e0bff60d 	sth	r2,-40(fp)
	short iconUpMarginYU = 1;
    1158:	00800044 	movi	r2,1
    115c:	e0bff68d 	sth	r2,-38(fp)
	short iconDownMarginYD = 1;
    1160:	00800044 	movi	r2,1
    1164:	e0bff70d 	sth	r2,-36(fp)
	short iconWidth = width - iconMarginXL - iconMarginXR;
    1168:	e0fffd0b 	ldhu	r3,-12(fp)
    116c:	e0bff58b 	ldhu	r2,-42(fp)
    1170:	1885c83a 	sub	r2,r3,r2
    1174:	1007883a 	mov	r3,r2
    1178:	e0bff60b 	ldhu	r2,-40(fp)
    117c:	1885c83a 	sub	r2,r3,r2
    1180:	e0bff78d 	sth	r2,-34(fp)
	short iconUpHeight = iconWidth;
    1184:	e0bff78b 	ldhu	r2,-34(fp)
    1188:	e0bff80d 	sth	r2,-32(fp)
	short iconDownHeight = iconWidth;
    118c:	e0bff78b 	ldhu	r2,-34(fp)
    1190:	e0bff88d 	sth	r2,-30(fp)
	short iconDownMarginYU = height - iconDownHeight - iconUpMarginYU;
    1194:	e0fffe0b 	ldhu	r3,-8(fp)
    1198:	e0bff88b 	ldhu	r2,-30(fp)
    119c:	1885c83a 	sub	r2,r3,r2
    11a0:	1007883a 	mov	r3,r2
    11a4:	e0bff68b 	ldhu	r2,-38(fp)
    11a8:	1885c83a 	sub	r2,r3,r2
    11ac:	e0bff90d 	sth	r2,-28(fp)
	short iconSpacing = 2;//iconBlock
    11b0:	00800084 	movi	r2,2
    11b4:	e0bff98d 	sth	r2,-26(fp)
	short iconBarMoveMarginYU = iconUpMarginYU + iconUpHeight + iconSpacing;
    11b8:	e0fff68b 	ldhu	r3,-38(fp)
    11bc:	e0bff80b 	ldhu	r2,-32(fp)
    11c0:	1885883a 	add	r2,r3,r2
    11c4:	1007883a 	mov	r3,r2
    11c8:	e0bff98b 	ldhu	r2,-26(fp)
    11cc:	1885883a 	add	r2,r3,r2
    11d0:	e0bffa0d 	sth	r2,-24(fp)
	short iconBarMoveHeight = height - iconDownMarginYD - iconDownHeight - iconSpacing - iconBarMoveMarginYU;
    11d4:	e0fffe0b 	ldhu	r3,-8(fp)
    11d8:	e0bff70b 	ldhu	r2,-36(fp)
    11dc:	1885c83a 	sub	r2,r3,r2
    11e0:	1007883a 	mov	r3,r2
    11e4:	e0bff88b 	ldhu	r2,-30(fp)
    11e8:	1885c83a 	sub	r2,r3,r2
    11ec:	1007883a 	mov	r3,r2
    11f0:	e0bff98b 	ldhu	r2,-26(fp)
    11f4:	1885c83a 	sub	r2,r3,r2
    11f8:	1007883a 	mov	r3,r2
    11fc:	e0bffa0b 	ldhu	r2,-24(fp)
    1200:	1885c83a 	sub	r2,r3,r2
    1204:	e0bffa8d 	sth	r2,-22(fp)

	//
	status1 = setAreaRange( &(scrollBarYInst->iconMoveUpArea), iconMarginXL+1, iconMarginXL+iconWidth,\
    1208:	e0bffc17 	ldw	r2,-16(fp)
    120c:	11000204 	addi	r4,r2,8
    1210:	e0bff58b 	ldhu	r2,-42(fp)
    1214:	10800044 	addi	r2,r2,1
    1218:	117fffcc 	andi	r5,r2,65535
    121c:	2960001c 	xori	r5,r5,32768
    1220:	29600004 	addi	r5,r5,-32768
    1224:	e0fff58b 	ldhu	r3,-42(fp)
    1228:	e0bff78b 	ldhu	r2,-34(fp)
    122c:	1885883a 	add	r2,r3,r2
    1230:	11bfffcc 	andi	r6,r2,65535
    1234:	31a0001c 	xori	r6,r6,32768
    1238:	31a00004 	addi	r6,r6,-32768
    123c:	e0bff68b 	ldhu	r2,-38(fp)
    1240:	10800044 	addi	r2,r2,1
    1244:	11ffffcc 	andi	r7,r2,65535
    1248:	39e0001c 	xori	r7,r7,32768
    124c:	39e00004 	addi	r7,r7,-32768
    1250:	e0fff68b 	ldhu	r3,-38(fp)
    1254:	e0bff80b 	ldhu	r2,-32(fp)
    1258:	1885883a 	add	r2,r3,r2
    125c:	10bfffcc 	andi	r2,r2,65535
    1260:	10a0001c 	xori	r2,r2,32768
    1264:	10a00004 	addi	r2,r2,-32768
    1268:	d8800015 	stw	r2,0(sp)
    126c:	00007680 	call	768 <setAreaRange>
    1270:	e0bffb05 	stb	r2,-20(fp)
					iconUpMarginYU+1, iconUpMarginYU+iconUpHeight );
    status = status && status1;
    1274:	e0bff503 	ldbu	r2,-44(fp)
    1278:	10000426 	beq	r2,zero,128c <setDefaultScrollBarY+0x1a4>
    127c:	e0bffb03 	ldbu	r2,-20(fp)
    1280:	10000226 	beq	r2,zero,128c <setDefaultScrollBarY+0x1a4>
    1284:	00800044 	movi	r2,1
    1288:	00000106 	br	1290 <setDefaultScrollBarY+0x1a8>
    128c:	0005883a 	mov	r2,zero
    1290:	e0bff505 	stb	r2,-44(fp)
    1294:	e0bff503 	ldbu	r2,-44(fp)
    1298:	1080004c 	andi	r2,r2,1
    129c:	e0bff505 	stb	r2,-44(fp)
	status1 = setDefaultIconBlock( &(scrollBarYInst->iconMoveUp), icon_move_up, iconWidth, iconUpHeight,\
    12a0:	e0bffc17 	ldw	r2,-16(fp)
    12a4:	11000404 	addi	r4,r2,16
    12a8:	e1bff78f 	ldh	r6,-34(fp)
    12ac:	e0fff80f 	ldh	r3,-32(fp)
    12b0:	00800304 	movi	r2,12
    12b4:	d8800015 	stw	r2,0(sp)
    12b8:	00800204 	movi	r2,8
    12bc:	d8800115 	stw	r2,4(sp)
    12c0:	014003f4 	movhi	r5,15
    12c4:	29405c04 	addi	r5,r5,368
    12c8:	180f883a 	mov	r7,r3
    12cc:	00016440 	call	1644 <setDefaultIconBlock>
    12d0:	e0bffb05 	stb	r2,-20(fp)
					ICON_MOVE_UP_X_SIZE, ICON_MOVE_UP_Y_SIZE );
    status = status && status1;
    12d4:	e0bff503 	ldbu	r2,-44(fp)
    12d8:	10000426 	beq	r2,zero,12ec <setDefaultScrollBarY+0x204>
    12dc:	e0bffb03 	ldbu	r2,-20(fp)
    12e0:	10000226 	beq	r2,zero,12ec <setDefaultScrollBarY+0x204>
    12e4:	00800044 	movi	r2,1
    12e8:	00000106 	br	12f0 <setDefaultScrollBarY+0x208>
    12ec:	0005883a 	mov	r2,zero
    12f0:	e0bff505 	stb	r2,-44(fp)
    12f4:	e0bff503 	ldbu	r2,-44(fp)
    12f8:	1080004c 	andi	r2,r2,1
    12fc:	e0bff505 	stb	r2,-44(fp)

	//
	status1 = setAreaRange( &(scrollBarYInst->iconMoveDownArea), iconMarginXL+1, iconMarginXL+iconWidth,\
    1300:	e0bffc17 	ldw	r2,-16(fp)
    1304:	11000a04 	addi	r4,r2,40
    1308:	e0bff58b 	ldhu	r2,-42(fp)
    130c:	10800044 	addi	r2,r2,1
    1310:	117fffcc 	andi	r5,r2,65535
    1314:	2960001c 	xori	r5,r5,32768
    1318:	29600004 	addi	r5,r5,-32768
    131c:	e0fff58b 	ldhu	r3,-42(fp)
    1320:	e0bff78b 	ldhu	r2,-34(fp)
    1324:	1885883a 	add	r2,r3,r2
    1328:	11bfffcc 	andi	r6,r2,65535
    132c:	31a0001c 	xori	r6,r6,32768
    1330:	31a00004 	addi	r6,r6,-32768
    1334:	e0bff90b 	ldhu	r2,-28(fp)
    1338:	10800044 	addi	r2,r2,1
    133c:	11ffffcc 	andi	r7,r2,65535
    1340:	39e0001c 	xori	r7,r7,32768
    1344:	39e00004 	addi	r7,r7,-32768
    1348:	e0fff90b 	ldhu	r3,-28(fp)
    134c:	e0bff88b 	ldhu	r2,-30(fp)
    1350:	1885883a 	add	r2,r3,r2
    1354:	10bfffcc 	andi	r2,r2,65535
    1358:	10a0001c 	xori	r2,r2,32768
    135c:	10a00004 	addi	r2,r2,-32768
    1360:	d8800015 	stw	r2,0(sp)
    1364:	00007680 	call	768 <setAreaRange>
    1368:	e0bffb05 	stb	r2,-20(fp)
					iconDownMarginYU+1, iconDownMarginYU+iconDownHeight );
    status = status && status1;
    136c:	e0bff503 	ldbu	r2,-44(fp)
    1370:	10000426 	beq	r2,zero,1384 <setDefaultScrollBarY+0x29c>
    1374:	e0bffb03 	ldbu	r2,-20(fp)
    1378:	10000226 	beq	r2,zero,1384 <setDefaultScrollBarY+0x29c>
    137c:	00800044 	movi	r2,1
    1380:	00000106 	br	1388 <setDefaultScrollBarY+0x2a0>
    1384:	0005883a 	mov	r2,zero
    1388:	e0bff505 	stb	r2,-44(fp)
    138c:	e0bff503 	ldbu	r2,-44(fp)
    1390:	1080004c 	andi	r2,r2,1
    1394:	e0bff505 	stb	r2,-44(fp)
	status1 = setDefaultIconBlock( &(scrollBarYInst->iconMoveDown), icon_move_down, iconWidth, iconDownHeight,\
    1398:	e0bffc17 	ldw	r2,-16(fp)
    139c:	11000c04 	addi	r4,r2,48
    13a0:	e1bff78f 	ldh	r6,-34(fp)
    13a4:	e0fff88f 	ldh	r3,-30(fp)
    13a8:	00800304 	movi	r2,12
    13ac:	d8800015 	stw	r2,0(sp)
    13b0:	00800204 	movi	r2,8
    13b4:	d8800115 	stw	r2,4(sp)
    13b8:	014003f4 	movhi	r5,15
    13bc:	29406004 	addi	r5,r5,384
    13c0:	180f883a 	mov	r7,r3
    13c4:	00016440 	call	1644 <setDefaultIconBlock>
    13c8:	e0bffb05 	stb	r2,-20(fp)
					ICON_MOVE_DOWN_X_SIZE, ICON_MOVE_DOWN_Y_SIZE );
    status = status && status1;
    13cc:	e0bff503 	ldbu	r2,-44(fp)
    13d0:	10000426 	beq	r2,zero,13e4 <setDefaultScrollBarY+0x2fc>
    13d4:	e0bffb03 	ldbu	r2,-20(fp)
    13d8:	10000226 	beq	r2,zero,13e4 <setDefaultScrollBarY+0x2fc>
    13dc:	00800044 	movi	r2,1
    13e0:	00000106 	br	13e8 <setDefaultScrollBarY+0x300>
    13e4:	0005883a 	mov	r2,zero
    13e8:	e0bff505 	stb	r2,-44(fp)
    13ec:	e0bff503 	ldbu	r2,-44(fp)
    13f0:	1080004c 	andi	r2,r2,1
    13f4:	e0bff505 	stb	r2,-44(fp)

//printf( "status4_1 = %s\n", status1?"true":"false" );
	//
	//
	status1 = setAreaRange( &(scrollBarYInst->barMoveArea), iconMarginXL+1, iconMarginXL+iconWidth, \
    13f8:	e0bffc17 	ldw	r2,-16(fp)
    13fc:	11001a04 	addi	r4,r2,104
    1400:	e0bff58b 	ldhu	r2,-42(fp)
    1404:	10800044 	addi	r2,r2,1
    1408:	117fffcc 	andi	r5,r2,65535
    140c:	2960001c 	xori	r5,r5,32768
    1410:	29600004 	addi	r5,r5,-32768
    1414:	e0fff58b 	ldhu	r3,-42(fp)
    1418:	e0bff78b 	ldhu	r2,-34(fp)
    141c:	1885883a 	add	r2,r3,r2
    1420:	11bfffcc 	andi	r6,r2,65535
    1424:	31a0001c 	xori	r6,r6,32768
    1428:	31a00004 	addi	r6,r6,-32768
    142c:	e0bffa0b 	ldhu	r2,-24(fp)
    1430:	10800044 	addi	r2,r2,1
    1434:	11ffffcc 	andi	r7,r2,65535
    1438:	39e0001c 	xori	r7,r7,32768
    143c:	39e00004 	addi	r7,r7,-32768
    1440:	e0fffa0b 	ldhu	r3,-24(fp)
    1444:	e0bffa8b 	ldhu	r2,-22(fp)
    1448:	1885883a 	add	r2,r3,r2
    144c:	10bfffcc 	andi	r2,r2,65535
    1450:	10a0001c 	xori	r2,r2,32768
    1454:	10a00004 	addi	r2,r2,-32768
    1458:	d8800015 	stw	r2,0(sp)
    145c:	00007680 	call	768 <setAreaRange>
    1460:	e0bffb05 	stb	r2,-20(fp)
					iconBarMoveMarginYU+1, iconBarMoveMarginYU+iconBarMoveHeight );
    status = status && status1;
    1464:	e0bff503 	ldbu	r2,-44(fp)
    1468:	10000426 	beq	r2,zero,147c <setDefaultScrollBarY+0x394>
    146c:	e0bffb03 	ldbu	r2,-20(fp)
    1470:	10000226 	beq	r2,zero,147c <setDefaultScrollBarY+0x394>
    1474:	00800044 	movi	r2,1
    1478:	00000106 	br	1480 <setDefaultScrollBarY+0x398>
    147c:	0005883a 	mov	r2,zero
    1480:	e0bff505 	stb	r2,-44(fp)
    1484:	e0bff503 	ldbu	r2,-44(fp)
    1488:	1080004c 	andi	r2,r2,1
    148c:	e0bff505 	stb	r2,-44(fp)
//printf( "status4_2 = %s\n", status1?"true":"false" );
	//
	if( barYRatio <= 1 )
    1490:	e13fff17 	ldw	r4,-4(fp)
    1494:	014fe034 	movhi	r5,16256
    1498:	001c22c0 	call	1c22c <__lesf2>
    149c:	00801216 	blt	zero,r2,14e8 <setDefaultScrollBarY+0x400>
    {
        //barYRatio
        scrollBarYInst->barHeight = barYRatio * iconBarMoveHeight;
    14a0:	e0bffa8f 	ldh	r2,-22(fp)
    14a4:	1009883a 	mov	r4,r2
    14a8:	001cc7c0 	call	1cc7c <__floatsisf>
    14ac:	1007883a 	mov	r3,r2
    14b0:	1809883a 	mov	r4,r3
    14b4:	e17fff17 	ldw	r5,-4(fp)
    14b8:	001c2e40 	call	1c2e4 <__mulsf3>
    14bc:	1007883a 	mov	r3,r2
    14c0:	1805883a 	mov	r2,r3
    14c4:	1009883a 	mov	r4,r2
    14c8:	001cc040 	call	1cc04 <__fixsfsi>
    14cc:	1007883a 	mov	r3,r2
    14d0:	e0bffc17 	ldw	r2,-16(fp)
    14d4:	10c01d0d 	sth	r3,116(r2)
        scrollBarYInst->iconBarVisible = true;
    14d8:	e0bffc17 	ldw	r2,-16(fp)
    14dc:	00c00044 	movi	r3,1
    14e0:	10c01d85 	stb	r3,118(r2)
    14e4:	00000506 	br	14fc <setDefaultScrollBarY+0x414>
    }
    else
    {
        scrollBarYInst->iconBarVisible = false;
    14e8:	e0bffc17 	ldw	r2,-16(fp)
    14ec:	10001d85 	stb	zero,118(r2)
        scrollBarYInst->barHeight = iconBarMoveHeight;
    14f0:	e0bffc17 	ldw	r2,-16(fp)
    14f4:	e0fffa8b 	ldhu	r3,-22(fp)
    14f8:	10c01d0d 	sth	r3,116(r2)
    }


	scrollBarYInst->barYOffsetMax = iconBarMoveHeight - scrollBarYInst->barHeight;
    14fc:	e0bffa8b 	ldhu	r2,-22(fp)
    1500:	e0fffc17 	ldw	r3,-16(fp)
    1504:	18c01d0b 	ldhu	r3,116(r3)
    1508:	10c5c83a 	sub	r2,r2,r3
    150c:	1007883a 	mov	r3,r2
    1510:	e0bffc17 	ldw	r2,-16(fp)
    1514:	10c01c8d 	sth	r3,114(r2)
	scrollBarYInst->barYoffset = 0;
    1518:	e0bffc17 	ldw	r2,-16(fp)
    151c:	10001c0d 	sth	zero,112(r2)

	//0
	status1 = setAreaRange( &(scrollBarYInst->barBaseArea), iconMarginXL+1, iconMarginXL+iconWidth,\
    1520:	e0bffc17 	ldw	r2,-16(fp)
    1524:	11001204 	addi	r4,r2,72
    1528:	e0bff58b 	ldhu	r2,-42(fp)
    152c:	10800044 	addi	r2,r2,1
    1530:	117fffcc 	andi	r5,r2,65535
    1534:	2960001c 	xori	r5,r5,32768
    1538:	29600004 	addi	r5,r5,-32768
    153c:	e0fff58b 	ldhu	r3,-42(fp)
    1540:	e0bff78b 	ldhu	r2,-34(fp)
    1544:	1885883a 	add	r2,r3,r2
    1548:	11bfffcc 	andi	r6,r2,65535
    154c:	31a0001c 	xori	r6,r6,32768
    1550:	31a00004 	addi	r6,r6,-32768
    1554:	e0bffa0b 	ldhu	r2,-24(fp)
    1558:	10800044 	addi	r2,r2,1
    155c:	10ffffcc 	andi	r3,r2,65535
    1560:	18e0001c 	xori	r3,r3,32768
    1564:	18e00004 	addi	r3,r3,-32768
					iconBarMoveMarginYU+1, iconBarMoveMarginYU+scrollBarYInst->barHeight );
    1568:	e0bffc17 	ldw	r2,-16(fp)
    156c:	10801d0b 	ldhu	r2,116(r2)

	scrollBarYInst->barYOffsetMax = iconBarMoveHeight - scrollBarYInst->barHeight;
	scrollBarYInst->barYoffset = 0;

	//0
	status1 = setAreaRange( &(scrollBarYInst->barBaseArea), iconMarginXL+1, iconMarginXL+iconWidth,\
    1570:	100f883a 	mov	r7,r2
    1574:	e0bffa0b 	ldhu	r2,-24(fp)
    1578:	3885883a 	add	r2,r7,r2
    157c:	10bfffcc 	andi	r2,r2,65535
    1580:	10a0001c 	xori	r2,r2,32768
    1584:	10a00004 	addi	r2,r2,-32768
    1588:	d8800015 	stw	r2,0(sp)
    158c:	180f883a 	mov	r7,r3
    1590:	00007680 	call	768 <setAreaRange>
    1594:	e0bffb05 	stb	r2,-20(fp)
					iconBarMoveMarginYU+1, iconBarMoveMarginYU+scrollBarYInst->barHeight );
//    printf( "width = %d\n", scrollBarYInst->barBaseArea.x_max - scrollBarYInst->barBaseArea.x_min + 1 );
//    printf( "height = %d\n", scrollBarYInst->barBaseArea.y_max - scrollBarYInst->barBaseArea.y_min + 1 );
//    printf( "scrollBarYInst->barHeight = %d\n", scrollBarYInst->barHeight );

    status = status && status1;
    1598:	e0bff503 	ldbu	r2,-44(fp)
    159c:	10000426 	beq	r2,zero,15b0 <setDefaultScrollBarY+0x4c8>
    15a0:	e0bffb03 	ldbu	r2,-20(fp)
    15a4:	10000226 	beq	r2,zero,15b0 <setDefaultScrollBarY+0x4c8>
    15a8:	00800044 	movi	r2,1
    15ac:	00000106 	br	15b4 <setDefaultScrollBarY+0x4cc>
    15b0:	0005883a 	mov	r2,zero
    15b4:	e0bff505 	stb	r2,-44(fp)
    15b8:	e0bff503 	ldbu	r2,-44(fp)
    15bc:	1080004c 	andi	r2,r2,1
    15c0:	e0bff505 	stb	r2,-44(fp)
//printf( "status4_3 = %s\n", status1?"true":"false" );
	status1 = setDefaultIconBlock( &(scrollBarYInst->iconBar), (void*)0, iconWidth, scrollBarYInst->barHeight, 0, 0 );
    15c4:	e0bffc17 	ldw	r2,-16(fp)
    15c8:	11001404 	addi	r4,r2,80
    15cc:	e0fff78f 	ldh	r3,-34(fp)
    15d0:	e0bffc17 	ldw	r2,-16(fp)
    15d4:	10801d0b 	ldhu	r2,116(r2)
    15d8:	10bfffcc 	andi	r2,r2,65535
    15dc:	10a0001c 	xori	r2,r2,32768
    15e0:	10a00004 	addi	r2,r2,-32768
    15e4:	d8000015 	stw	zero,0(sp)
    15e8:	d8000115 	stw	zero,4(sp)
    15ec:	000b883a 	mov	r5,zero
    15f0:	180d883a 	mov	r6,r3
    15f4:	100f883a 	mov	r7,r2
    15f8:	00016440 	call	1644 <setDefaultIconBlock>
    15fc:	e0bffb05 	stb	r2,-20(fp)
	status = status && status1;
    1600:	e0bff503 	ldbu	r2,-44(fp)
    1604:	10000426 	beq	r2,zero,1618 <setDefaultScrollBarY+0x530>
    1608:	e0bffb03 	ldbu	r2,-20(fp)
    160c:	10000226 	beq	r2,zero,1618 <setDefaultScrollBarY+0x530>
    1610:	00800044 	movi	r2,1
    1614:	00000106 	br	161c <setDefaultScrollBarY+0x534>
    1618:	0005883a 	mov	r2,zero
    161c:	e0bff505 	stb	r2,-44(fp)
    1620:	e0bff503 	ldbu	r2,-44(fp)
    1624:	1080004c 	andi	r2,r2,1
    1628:	e0bff505 	stb	r2,-44(fp)


	return status;
    162c:	e0bff503 	ldbu	r2,-44(fp)
}
    1630:	e037883a 	mov	sp,fp
    1634:	dfc00117 	ldw	ra,4(sp)
    1638:	df000017 	ldw	fp,0(sp)
    163c:	dec00204 	addi	sp,sp,8
    1640:	f800283a 	ret

00001644 <setDefaultIconBlock>:
//
bool setDefaultIconBlock( IconBlock *iconPtr, const alt_u8 *iconModel, short width, short height, short iconXSize, short iconYSize )
{
    1644:	defff604 	addi	sp,sp,-40
    1648:	dfc00915 	stw	ra,36(sp)
    164c:	df000815 	stw	fp,32(sp)
    1650:	df000804 	addi	fp,sp,32
    1654:	e13ffa15 	stw	r4,-24(fp)
    1658:	e17ffb15 	stw	r5,-20(fp)
    165c:	300b883a 	mov	r5,r6
    1660:	3809883a 	mov	r4,r7
    1664:	e0c00217 	ldw	r3,8(fp)
    1668:	e0800317 	ldw	r2,12(fp)
    166c:	e17ffc0d 	sth	r5,-16(fp)
    1670:	e13ffd0d 	sth	r4,-12(fp)
    1674:	e0fffe0d 	sth	r3,-8(fp)
    1678:	e0bfff0d 	sth	r2,-4(fp)
	iconPtr->iconColorInfo = defaultColorInfo;
    167c:	e0bffa17 	ldw	r2,-24(fp)
    1680:	d0e0040b 	ldhu	r3,-32752(gp)
    1684:	10c0020d 	sth	r3,8(r2)
    1688:	d0e00484 	addi	r3,gp,-32750
    168c:	18c0000b 	ldhu	r3,0(r3)
    1690:	10c0028d 	sth	r3,10(r2)
    1694:	d0e00504 	addi	r3,gp,-32748
    1698:	18c0000b 	ldhu	r3,0(r3)
    169c:	10c0030d 	sth	r3,12(r2)
    16a0:	d0e00584 	addi	r3,gp,-32746
    16a4:	18c0000b 	ldhu	r3,0(r3)
    16a8:	10c0038d 	sth	r3,14(r2)

	iconPtr->iconPic = iconModel;
    16ac:	e0bffa17 	ldw	r2,-24(fp)
    16b0:	e0fffb17 	ldw	r3,-20(fp)
    16b4:	10c00415 	stw	r3,16(r2)
	iconPtr->iconXSize = iconXSize;
    16b8:	e0bffa17 	ldw	r2,-24(fp)
    16bc:	e0fffe0b 	ldhu	r3,-8(fp)
    16c0:	10c0050d 	sth	r3,20(r2)
	iconPtr->iconYSize = iconYSize;
    16c4:	e0bffa17 	ldw	r2,-24(fp)
    16c8:	e0ffff0b 	ldhu	r3,-4(fp)
    16cc:	10c0058d 	sth	r3,22(r2)

	(iconPtr->iconColorInfo).objVisible = ( iconModel == NULL )? false : true;
    16d0:	e0bffb17 	ldw	r2,-20(fp)
    16d4:	1004c03a 	cmpne	r2,r2,zero
    16d8:	1007883a 	mov	r3,r2
    16dc:	e0bffa17 	ldw	r2,-24(fp)
    16e0:	10c003c5 	stb	r3,15(r2)



	bool status = setAreaRangeCentered( &(iconPtr->picArea ), width, height, iconXSize, iconYSize );
    16e4:	e13ffa17 	ldw	r4,-24(fp)
    16e8:	e17ffc0f 	ldh	r5,-16(fp)
    16ec:	e1bffd0f 	ldh	r6,-12(fp)
    16f0:	e0fffe0f 	ldh	r3,-8(fp)
    16f4:	e0bfff0f 	ldh	r2,-4(fp)
    16f8:	d8800015 	stw	r2,0(sp)
    16fc:	180f883a 	mov	r7,r3
    1700:	0000af00 	call	af0 <setAreaRangeCentered>
    1704:	e0bff905 	stb	r2,-28(fp)


	return status;
    1708:	e0bff903 	ldbu	r2,-28(fp)
}
    170c:	e037883a 	mov	sp,fp
    1710:	dfc00117 	ldw	ra,4(sp)
    1714:	df000017 	ldw	fp,0(sp)
    1718:	dec00204 	addi	sp,sp,8
    171c:	f800283a 	ret

00001720 <setDefaultColorBoard>:

//(colorPos)
void setDefaultColorBoard( ColorBoard *colorPickerInst, color_u8 *colorSel, short width, short height )
{
    1720:	defffb04 	addi	sp,sp,-20
    1724:	df000415 	stw	fp,16(sp)
    1728:	df000404 	addi	fp,sp,16
    172c:	e13ffc15 	stw	r4,-16(fp)
    1730:	e17ffd15 	stw	r5,-12(fp)
    1734:	3007883a 	mov	r3,r6
    1738:	3805883a 	mov	r2,r7
    173c:	e0fffe0d 	sth	r3,-8(fp)
    1740:	e0bfff0d 	sth	r2,-4(fp)
	colorPickerInst->colorIndex = colorSel;
    1744:	e0bffc17 	ldw	r2,-16(fp)
    1748:	e0fffd17 	ldw	r3,-12(fp)
    174c:	10c00315 	stw	r3,12(r2)
	colorPickerInst->colorXNum = COLOR_FORM_X_NUM;//16
    1750:	e0bffc17 	ldw	r2,-16(fp)
    1754:	00c00404 	movi	r3,16
    1758:	10c0010d 	sth	r3,4(r2)
	colorPickerInst->colorYNum = COLOR_FORM_Y_NUM;//16
    175c:	e0bffc17 	ldw	r2,-16(fp)
    1760:	00c00404 	movi	r3,16
    1764:	10c0018d 	sth	r3,6(r2)
	colorPickerInst->colorXSize = width / 16;
    1768:	e0bffe0f 	ldh	r2,-8(fp)
    176c:	1000010e 	bge	r2,zero,1774 <setDefaultColorBoard+0x54>
    1770:	108003c4 	addi	r2,r2,15
    1774:	1005d13a 	srai	r2,r2,4
    1778:	1007883a 	mov	r3,r2
    177c:	e0bffc17 	ldw	r2,-16(fp)
    1780:	10c0000d 	sth	r3,0(r2)
	colorPickerInst->colorYSize = height / 16;
    1784:	e0bfff0f 	ldh	r2,-4(fp)
    1788:	1000010e 	bge	r2,zero,1790 <setDefaultColorBoard+0x70>
    178c:	108003c4 	addi	r2,r2,15
    1790:	1005d13a 	srai	r2,r2,4
    1794:	1007883a 	mov	r3,r2
    1798:	e0bffc17 	ldw	r2,-16(fp)
    179c:	10c0008d 	sth	r3,2(r2)
//    colorPickerInst->colorXSize = 35;
//    colorPickerInst->colorYSize = 38;
	colorPickerInst->colorSpace = color_form;
    17a0:	e0fffc17 	ldw	r3,-16(fp)
    17a4:	008000f4 	movhi	r2,3
    17a8:	108fae04 	addi	r2,r2,16056
    17ac:	18800215 	stw	r2,8(r3)
}
    17b0:	e037883a 	mov	sp,fp
    17b4:	df000017 	ldw	fp,0(sp)
    17b8:	dec00104 	addi	sp,sp,4
    17bc:	f800283a 	ret

000017c0 <getWordLetterArrange>:

//('c''e'
//freechar[]
char *getWordLetterArrange( TextType *textInst )
{
    17c0:	deffed04 	addi	sp,sp,-76
    17c4:	dfc01215 	stw	ra,72(sp)
    17c8:	df001115 	stw	fp,68(sp)
    17cc:	df001104 	addi	fp,sp,68
    17d0:	e13fff15 	stw	r4,-4(fp)
	if ( textInst->fmt == GBK )
    17d4:	e0bfff17 	ldw	r2,-4(fp)
    17d8:	10800217 	ldw	r2,8(r2)
    17dc:	1000481e 	bne	r2,zero,1900 <getWordLetterArrange+0x140>
	{
		int len = textInst->textLen;
    17e0:	e0bfff17 	ldw	r2,-4(fp)
    17e4:	1080010b 	ldhu	r2,4(r2)
    17e8:	10bfffcc 	andi	r2,r2,65535
    17ec:	10a0001c 	xori	r2,r2,32768
    17f0:	10a00004 	addi	r2,r2,-32768
    17f4:	e0bff515 	stw	r2,-44(fp)
		char *str = textInst->text;
    17f8:	e0bfff17 	ldw	r2,-4(fp)
    17fc:	10800017 	ldw	r2,0(r2)
    1800:	e0bff615 	stw	r2,-40(fp)
		char *strType = (char*)malloc( sizeof( char ) * (len+1) );
    1804:	e0bff517 	ldw	r2,-44(fp)
    1808:	10800044 	addi	r2,r2,1
    180c:	1009883a 	mov	r4,r2
    1810:	001f6040 	call	1f604 <malloc>
    1814:	e0bff715 	stw	r2,-36(fp)
		short strTypeVaildNum = 0;
    1818:	e03fef0d 	sth	zero,-68(fp)

		int i;
		for ( i = 0; i < len; i ++ )
    181c:	e03ff015 	stw	zero,-64(fp)
    1820:	00002e06 	br	18dc <getWordLetterArrange+0x11c>
		{
			char curChar = str[i];
    1824:	e0bff017 	ldw	r2,-64(fp)
    1828:	e0fff617 	ldw	r3,-40(fp)
    182c:	1885883a 	add	r2,r3,r2
    1830:	10800003 	ldbu	r2,0(r2)
    1834:	e0bff805 	stb	r2,-32(fp)
			if ( curChar == 0 )//
    1838:	e0bff807 	ldb	r2,-32(fp)
    183c:	1000011e 	bne	r2,zero,1844 <getWordLetterArrange+0x84>
			{
				break;
    1840:	00002906 	br	18e8 <getWordLetterArrange+0x128>
			}
			if ( curChar < 0 )//
    1844:	e0bff807 	ldb	r2,-32(fp)
    1848:	1000190e 	bge	r2,zero,18b0 <getWordLetterArrange+0xf0>
			{
				strType[strTypeVaildNum] = 'c';//CHINESE
    184c:	e0bfef0f 	ldh	r2,-68(fp)
    1850:	e0fff717 	ldw	r3,-36(fp)
    1854:	1885883a 	add	r2,r3,r2
    1858:	00c018c4 	movi	r3,99
    185c:	10c00005 	stb	r3,0(r2)
				i = i + 1;
    1860:	e0bff017 	ldw	r2,-64(fp)
    1864:	10800044 	addi	r2,r2,1
    1868:	e0bff015 	stw	r2,-64(fp)
				if ( i == len || str[i] == 0 )//
    186c:	e0fff017 	ldw	r3,-64(fp)
    1870:	e0bff517 	ldw	r2,-44(fp)
    1874:	18800826 	beq	r3,r2,1898 <getWordLetterArrange+0xd8>
    1878:	e0bff017 	ldw	r2,-64(fp)
    187c:	e0fff617 	ldw	r3,-40(fp)
    1880:	1885883a 	add	r2,r3,r2
    1884:	10800003 	ldbu	r2,0(r2)
    1888:	10803fcc 	andi	r2,r2,255
    188c:	1080201c 	xori	r2,r2,128
    1890:	10bfe004 	addi	r2,r2,-128
    1894:	10000b1e 	bne	r2,zero,18c4 <getWordLetterArrange+0x104>
				{
					strType[strTypeVaildNum] = 0;//
    1898:	e0bfef0f 	ldh	r2,-68(fp)
    189c:	e0fff717 	ldw	r3,-36(fp)
    18a0:	1885883a 	add	r2,r3,r2
    18a4:	10000005 	stb	zero,0(r2)
					return strType;
    18a8:	e0bff717 	ldw	r2,-36(fp)
    18ac:	0000c206 	br	1bb8 <getWordLetterArrange+0x3f8>
				}
			}
			else
			{
				strType[strTypeVaildNum] = 'e';//ENGLISH
    18b0:	e0bfef0f 	ldh	r2,-68(fp)
    18b4:	e0fff717 	ldw	r3,-36(fp)
    18b8:	1885883a 	add	r2,r3,r2
    18bc:	00c01944 	movi	r3,101
    18c0:	10c00005 	stb	r3,0(r2)
			}
			strTypeVaildNum ++;
    18c4:	e0bfef0b 	ldhu	r2,-68(fp)
    18c8:	10800044 	addi	r2,r2,1
    18cc:	e0bfef0d 	sth	r2,-68(fp)
		char *str = textInst->text;
		char *strType = (char*)malloc( sizeof( char ) * (len+1) );
		short strTypeVaildNum = 0;

		int i;
		for ( i = 0; i < len; i ++ )
    18d0:	e0bff017 	ldw	r2,-64(fp)
    18d4:	10800044 	addi	r2,r2,1
    18d8:	e0bff015 	stw	r2,-64(fp)
    18dc:	e0fff017 	ldw	r3,-64(fp)
    18e0:	e0bff517 	ldw	r2,-44(fp)
    18e4:	18bfcf16 	blt	r3,r2,1824 <__alt_data_end+0xf8001824>
			{
				strType[strTypeVaildNum] = 'e';//ENGLISH
			}
			strTypeVaildNum ++;
		}
		strType[strTypeVaildNum] = 0;//
    18e8:	e0bfef0f 	ldh	r2,-68(fp)
    18ec:	e0fff717 	ldw	r3,-36(fp)
    18f0:	1885883a 	add	r2,r3,r2
    18f4:	10000005 	stb	zero,0(r2)
		return strType;
    18f8:	e0bff717 	ldw	r2,-36(fp)
    18fc:	0000ae06 	br	1bb8 <getWordLetterArrange+0x3f8>
	}
	else if ( textInst->fmt == UCS2_BIG )
    1900:	e0bfff17 	ldw	r2,-4(fp)
    1904:	10800217 	ldw	r2,8(r2)
    1908:	10800058 	cmpnei	r2,r2,1
    190c:	1000521e 	bne	r2,zero,1a58 <getWordLetterArrange+0x298>
	{
		int len = textInst->textLen / 2;
    1910:	e0bfff17 	ldw	r2,-4(fp)
    1914:	1080010b 	ldhu	r2,4(r2)
    1918:	10bfffcc 	andi	r2,r2,65535
    191c:	10a0001c 	xori	r2,r2,32768
    1920:	10a00004 	addi	r2,r2,-32768
    1924:	1006d7fa 	srli	r3,r2,31
    1928:	1885883a 	add	r2,r3,r2
    192c:	1005d07a 	srai	r2,r2,1
    1930:	10bfffcc 	andi	r2,r2,65535
    1934:	10a0001c 	xori	r2,r2,32768
    1938:	10a00004 	addi	r2,r2,-32768
    193c:	e0bff915 	stw	r2,-28(fp)
		char *str = textInst->text;
    1940:	e0bfff17 	ldw	r2,-4(fp)
    1944:	10800017 	ldw	r2,0(r2)
    1948:	e0bffa15 	stw	r2,-24(fp)
		char *strType = (char*)malloc( sizeof( char ) * (len+1) );
    194c:	e0bff917 	ldw	r2,-28(fp)
    1950:	10800044 	addi	r2,r2,1
    1954:	1009883a 	mov	r4,r2
    1958:	001f6040 	call	1f604 <malloc>
    195c:	e0bffb15 	stw	r2,-20(fp)

		int strIndex = 0;
    1960:	e03ff115 	stw	zero,-60(fp)
		int i;
		for ( i = 0; i < len; i ++ )
    1964:	e03ff215 	stw	zero,-56(fp)
    1968:	00002f06 	br	1a28 <getWordLetterArrange+0x268>
		{
			//
			if ( str[strIndex] == 0 && str[strIndex+1] == 0 )
    196c:	e0bff117 	ldw	r2,-60(fp)
    1970:	e0fffa17 	ldw	r3,-24(fp)
    1974:	1885883a 	add	r2,r3,r2
    1978:	10800003 	ldbu	r2,0(r2)
    197c:	10803fcc 	andi	r2,r2,255
    1980:	1080201c 	xori	r2,r2,128
    1984:	10bfe004 	addi	r2,r2,-128
    1988:	10000e1e 	bne	r2,zero,19c4 <getWordLetterArrange+0x204>
    198c:	e0bff117 	ldw	r2,-60(fp)
    1990:	10800044 	addi	r2,r2,1
    1994:	e0fffa17 	ldw	r3,-24(fp)
    1998:	1885883a 	add	r2,r3,r2
    199c:	10800003 	ldbu	r2,0(r2)
    19a0:	10803fcc 	andi	r2,r2,255
    19a4:	1080201c 	xori	r2,r2,128
    19a8:	10bfe004 	addi	r2,r2,-128
    19ac:	1000051e 	bne	r2,zero,19c4 <getWordLetterArrange+0x204>
			{
				strType[i] = 0;
    19b0:	e0bff217 	ldw	r2,-56(fp)
    19b4:	e0fffb17 	ldw	r3,-20(fp)
    19b8:	1885883a 	add	r2,r3,r2
    19bc:	10000005 	stb	zero,0(r2)
				break;
    19c0:	00001c06 	br	1a34 <getWordLetterArrange+0x274>
			}
			else if ( str[strIndex] == 0 )//ASCII
    19c4:	e0bff117 	ldw	r2,-60(fp)
    19c8:	e0fffa17 	ldw	r3,-24(fp)
    19cc:	1885883a 	add	r2,r3,r2
    19d0:	10800003 	ldbu	r2,0(r2)
    19d4:	10803fcc 	andi	r2,r2,255
    19d8:	1080201c 	xori	r2,r2,128
    19dc:	10bfe004 	addi	r2,r2,-128
    19e0:	1000061e 	bne	r2,zero,19fc <getWordLetterArrange+0x23c>
			{
				strType[i] = 'e';//ENGLISH
    19e4:	e0bff217 	ldw	r2,-56(fp)
    19e8:	e0fffb17 	ldw	r3,-20(fp)
    19ec:	1885883a 	add	r2,r3,r2
    19f0:	00c01944 	movi	r3,101
    19f4:	10c00005 	stb	r3,0(r2)
    19f8:	00000506 	br	1a10 <getWordLetterArrange+0x250>
			}
			else
			{
				strType[i] = 'c';//CHINESE
    19fc:	e0bff217 	ldw	r2,-56(fp)
    1a00:	e0fffb17 	ldw	r3,-20(fp)
    1a04:	1885883a 	add	r2,r3,r2
    1a08:	00c018c4 	movi	r3,99
    1a0c:	10c00005 	stb	r3,0(r2)
			}
			strIndex += 2;
    1a10:	e0bff117 	ldw	r2,-60(fp)
    1a14:	10800084 	addi	r2,r2,2
    1a18:	e0bff115 	stw	r2,-60(fp)
		char *str = textInst->text;
		char *strType = (char*)malloc( sizeof( char ) * (len+1) );

		int strIndex = 0;
		int i;
		for ( i = 0; i < len; i ++ )
    1a1c:	e0bff217 	ldw	r2,-56(fp)
    1a20:	10800044 	addi	r2,r2,1
    1a24:	e0bff215 	stw	r2,-56(fp)
    1a28:	e0fff217 	ldw	r3,-56(fp)
    1a2c:	e0bff917 	ldw	r2,-28(fp)
    1a30:	18bfce16 	blt	r3,r2,196c <__alt_data_end+0xf800196c>
			{
				strType[i] = 'c';//CHINESE
			}
			strIndex += 2;
		}
		if ( i == len )
    1a34:	e0fff217 	ldw	r3,-56(fp)
    1a38:	e0bff917 	ldw	r2,-28(fp)
    1a3c:	1880041e 	bne	r3,r2,1a50 <getWordLetterArrange+0x290>
		{
			strType[len] = 0;//
    1a40:	e0bff917 	ldw	r2,-28(fp)
    1a44:	e0fffb17 	ldw	r3,-20(fp)
    1a48:	1885883a 	add	r2,r3,r2
    1a4c:	10000005 	stb	zero,0(r2)
		}

		return strType;
    1a50:	e0bffb17 	ldw	r2,-20(fp)
    1a54:	00005806 	br	1bb8 <getWordLetterArrange+0x3f8>

	}
	else if ( textInst->fmt == UCS2_LITTLE )
    1a58:	e0bfff17 	ldw	r2,-4(fp)
    1a5c:	10800217 	ldw	r2,8(r2)
    1a60:	10800098 	cmpnei	r2,r2,2
    1a64:	1000531e 	bne	r2,zero,1bb4 <getWordLetterArrange+0x3f4>
	{
		int len = textInst->textLen / 2;
    1a68:	e0bfff17 	ldw	r2,-4(fp)
    1a6c:	1080010b 	ldhu	r2,4(r2)
    1a70:	10bfffcc 	andi	r2,r2,65535
    1a74:	10a0001c 	xori	r2,r2,32768
    1a78:	10a00004 	addi	r2,r2,-32768
    1a7c:	1006d7fa 	srli	r3,r2,31
    1a80:	1885883a 	add	r2,r3,r2
    1a84:	1005d07a 	srai	r2,r2,1
    1a88:	10bfffcc 	andi	r2,r2,65535
    1a8c:	10a0001c 	xori	r2,r2,32768
    1a90:	10a00004 	addi	r2,r2,-32768
    1a94:	e0bffc15 	stw	r2,-16(fp)
		char *str = textInst->text;
    1a98:	e0bfff17 	ldw	r2,-4(fp)
    1a9c:	10800017 	ldw	r2,0(r2)
    1aa0:	e0bffd15 	stw	r2,-12(fp)
		char *strType = (char*)malloc( sizeof( char ) * (len+1) );
    1aa4:	e0bffc17 	ldw	r2,-16(fp)
    1aa8:	10800044 	addi	r2,r2,1
    1aac:	1009883a 	mov	r4,r2
    1ab0:	001f6040 	call	1f604 <malloc>
    1ab4:	e0bffe15 	stw	r2,-8(fp)

		int strIndex = 0;
    1ab8:	e03ff315 	stw	zero,-52(fp)
		int i;
		for ( i = 0; i < len; i ++ )
    1abc:	e03ff415 	stw	zero,-48(fp)
    1ac0:	00003006 	br	1b84 <getWordLetterArrange+0x3c4>
		{
			//
			if ( str[strIndex] == 0 && str[strIndex+1] == 0 )
    1ac4:	e0bff317 	ldw	r2,-52(fp)
    1ac8:	e0fffd17 	ldw	r3,-12(fp)
    1acc:	1885883a 	add	r2,r3,r2
    1ad0:	10800003 	ldbu	r2,0(r2)
    1ad4:	10803fcc 	andi	r2,r2,255
    1ad8:	1080201c 	xori	r2,r2,128
    1adc:	10bfe004 	addi	r2,r2,-128
    1ae0:	10000e1e 	bne	r2,zero,1b1c <getWordLetterArrange+0x35c>
    1ae4:	e0bff317 	ldw	r2,-52(fp)
    1ae8:	10800044 	addi	r2,r2,1
    1aec:	e0fffd17 	ldw	r3,-12(fp)
    1af0:	1885883a 	add	r2,r3,r2
    1af4:	10800003 	ldbu	r2,0(r2)
    1af8:	10803fcc 	andi	r2,r2,255
    1afc:	1080201c 	xori	r2,r2,128
    1b00:	10bfe004 	addi	r2,r2,-128
    1b04:	1000051e 	bne	r2,zero,1b1c <getWordLetterArrange+0x35c>
			{
				strType[i] = 0;
    1b08:	e0bff417 	ldw	r2,-48(fp)
    1b0c:	e0fffe17 	ldw	r3,-8(fp)
    1b10:	1885883a 	add	r2,r3,r2
    1b14:	10000005 	stb	zero,0(r2)
				break;
    1b18:	00001d06 	br	1b90 <getWordLetterArrange+0x3d0>
			}
			else if ( str[strIndex+1] == 0 )//ASCII
    1b1c:	e0bff317 	ldw	r2,-52(fp)
    1b20:	10800044 	addi	r2,r2,1
    1b24:	e0fffd17 	ldw	r3,-12(fp)
    1b28:	1885883a 	add	r2,r3,r2
    1b2c:	10800003 	ldbu	r2,0(r2)
    1b30:	10803fcc 	andi	r2,r2,255
    1b34:	1080201c 	xori	r2,r2,128
    1b38:	10bfe004 	addi	r2,r2,-128
    1b3c:	1000061e 	bne	r2,zero,1b58 <getWordLetterArrange+0x398>
			{
				strType[i] = 'e';//ENGLISH
    1b40:	e0bff417 	ldw	r2,-48(fp)
    1b44:	e0fffe17 	ldw	r3,-8(fp)
    1b48:	1885883a 	add	r2,r3,r2
    1b4c:	00c01944 	movi	r3,101
    1b50:	10c00005 	stb	r3,0(r2)
    1b54:	00000506 	br	1b6c <getWordLetterArrange+0x3ac>
			}
			else
			{
				strType[i] = 'c';//CHINESE
    1b58:	e0bff417 	ldw	r2,-48(fp)
    1b5c:	e0fffe17 	ldw	r3,-8(fp)
    1b60:	1885883a 	add	r2,r3,r2
    1b64:	00c018c4 	movi	r3,99
    1b68:	10c00005 	stb	r3,0(r2)
			}
			strIndex += 2;
    1b6c:	e0bff317 	ldw	r2,-52(fp)
    1b70:	10800084 	addi	r2,r2,2
    1b74:	e0bff315 	stw	r2,-52(fp)
		char *str = textInst->text;
		char *strType = (char*)malloc( sizeof( char ) * (len+1) );

		int strIndex = 0;
		int i;
		for ( i = 0; i < len; i ++ )
    1b78:	e0bff417 	ldw	r2,-48(fp)
    1b7c:	10800044 	addi	r2,r2,1
    1b80:	e0bff415 	stw	r2,-48(fp)
    1b84:	e0fff417 	ldw	r3,-48(fp)
    1b88:	e0bffc17 	ldw	r2,-16(fp)
    1b8c:	18bfcd16 	blt	r3,r2,1ac4 <__alt_data_end+0xf8001ac4>
			{
				strType[i] = 'c';//CHINESE
			}
			strIndex += 2;
		}
		if ( i == len )
    1b90:	e0fff417 	ldw	r3,-48(fp)
    1b94:	e0bffc17 	ldw	r2,-16(fp)
    1b98:	1880041e 	bne	r3,r2,1bac <getWordLetterArrange+0x3ec>
		{
			strType[len] = 0;//
    1b9c:	e0bffc17 	ldw	r2,-16(fp)
    1ba0:	e0fffe17 	ldw	r3,-8(fp)
    1ba4:	1885883a 	add	r2,r3,r2
    1ba8:	10000005 	stb	zero,0(r2)
		}

		return strType;
    1bac:	e0bffe17 	ldw	r2,-8(fp)
    1bb0:	00000106 	br	1bb8 <getWordLetterArrange+0x3f8>
	}

	return NULL;
    1bb4:	0005883a 	mov	r2,zero
}
    1bb8:	e037883a 	mov	sp,fp
    1bbc:	dfc00117 	ldw	ra,4(sp)
    1bc0:	df000017 	ldw	fp,0(sp)
    1bc4:	dec00204 	addi	sp,sp,8
    1bc8:	f800283a 	ret

00001bcc <getWidthOfText>:

//
short getWidthOfText( TextType *textInst )
{
    1bcc:	defffa04 	addi	sp,sp,-24
    1bd0:	dfc00515 	stw	ra,20(sp)
    1bd4:	df000415 	stw	fp,16(sp)
    1bd8:	df000404 	addi	fp,sp,16
    1bdc:	e13fff15 	stw	r4,-4(fp)
	char *strType = getWordLetterArrange( textInst );
    1be0:	e13fff17 	ldw	r4,-4(fp)
    1be4:	00017c00 	call	17c0 <getWordLetterArrange>
    1be8:	e0bffe15 	stw	r2,-8(fp)

	if ( strType == NULL )
    1bec:	e0bffe17 	ldw	r2,-8(fp)
    1bf0:	1000021e 	bne	r2,zero,1bfc <getWidthOfText+0x30>
	{
		return 0;
    1bf4:	0005883a 	mov	r2,zero
    1bf8:	00005006 	br	1d3c <getWidthOfText+0x170>
	}
	if ( strType[0] == 0 )
    1bfc:	e0bffe17 	ldw	r2,-8(fp)
    1c00:	10800003 	ldbu	r2,0(r2)
    1c04:	10803fcc 	andi	r2,r2,255
    1c08:	1080201c 	xori	r2,r2,128
    1c0c:	10bfe004 	addi	r2,r2,-128
    1c10:	1000041e 	bne	r2,zero,1c24 <getWidthOfText+0x58>
	{
		free(strType);
    1c14:	e13ffe17 	ldw	r4,-8(fp)
    1c18:	001f6180 	call	1f618 <free>
		return 0;
    1c1c:	0005883a 	mov	r2,zero
    1c20:	00004606 	br	1d3c <getWidthOfText+0x170>
	}

	short textWidth = ( strType[0] == 'e' ) ? SCR_LETTER_SIZE_X : SCR_WORD_SIZE_X;
    1c24:	e0bffe17 	ldw	r2,-8(fp)
    1c28:	10800003 	ldbu	r2,0(r2)
    1c2c:	10803fcc 	andi	r2,r2,255
    1c30:	1080201c 	xori	r2,r2,128
    1c34:	10bfe004 	addi	r2,r2,-128
    1c38:	10801958 	cmpnei	r2,r2,101
    1c3c:	1000021e 	bne	r2,zero,1c48 <getWidthOfText+0x7c>
    1c40:	00800204 	movi	r2,8
    1c44:	00000106 	br	1c4c <getWidthOfText+0x80>
    1c48:	00800404 	movi	r2,16
    1c4c:	e0bffc0d 	sth	r2,-16(fp)

	int i;
	for ( i = 1; strType[i] != 0; i ++ )
    1c50:	00800044 	movi	r2,1
    1c54:	e0bffd15 	stw	r2,-12(fp)
    1c58:	00002d06 	br	1d10 <getWidthOfText+0x144>
	{
		if( strType[i-1] == 'e' && strType[i] == 'e' )
    1c5c:	e0bffd17 	ldw	r2,-12(fp)
    1c60:	10bfffc4 	addi	r2,r2,-1
    1c64:	e0fffe17 	ldw	r3,-8(fp)
    1c68:	1885883a 	add	r2,r3,r2
    1c6c:	10800003 	ldbu	r2,0(r2)
    1c70:	10803fcc 	andi	r2,r2,255
    1c74:	1080201c 	xori	r2,r2,128
    1c78:	10bfe004 	addi	r2,r2,-128
    1c7c:	10801958 	cmpnei	r2,r2,101
    1c80:	10000d1e 	bne	r2,zero,1cb8 <getWidthOfText+0xec>
    1c84:	e0bffd17 	ldw	r2,-12(fp)
    1c88:	e0fffe17 	ldw	r3,-8(fp)
    1c8c:	1885883a 	add	r2,r3,r2
    1c90:	10800003 	ldbu	r2,0(r2)
    1c94:	10803fcc 	andi	r2,r2,255
    1c98:	1080201c 	xori	r2,r2,128
    1c9c:	10bfe004 	addi	r2,r2,-128
    1ca0:	10801958 	cmpnei	r2,r2,101
    1ca4:	1000041e 	bne	r2,zero,1cb8 <getWidthOfText+0xec>
		{
			textWidth = textWidth + DEFAULT_LETTER_SPACING;
    1ca8:	e0bffc0b 	ldhu	r2,-16(fp)
    1cac:	10800044 	addi	r2,r2,1
    1cb0:	e0bffc0d 	sth	r2,-16(fp)
    1cb4:	00000306 	br	1cc4 <getWidthOfText+0xf8>
		}
		else
		{
			textWidth = textWidth + DEFAULT_WORD_SPACING;
    1cb8:	e0bffc0b 	ldhu	r2,-16(fp)
    1cbc:	10800084 	addi	r2,r2,2
    1cc0:	e0bffc0d 	sth	r2,-16(fp)
		}
		if ( strType[i] == 'e' )
    1cc4:	e0bffd17 	ldw	r2,-12(fp)
    1cc8:	e0fffe17 	ldw	r3,-8(fp)
    1ccc:	1885883a 	add	r2,r3,r2
    1cd0:	10800003 	ldbu	r2,0(r2)
    1cd4:	10803fcc 	andi	r2,r2,255
    1cd8:	1080201c 	xori	r2,r2,128
    1cdc:	10bfe004 	addi	r2,r2,-128
    1ce0:	10801958 	cmpnei	r2,r2,101
    1ce4:	1000041e 	bne	r2,zero,1cf8 <getWidthOfText+0x12c>
		{
			textWidth = textWidth + SCR_LETTER_SIZE_X;
    1ce8:	e0bffc0b 	ldhu	r2,-16(fp)
    1cec:	10800204 	addi	r2,r2,8
    1cf0:	e0bffc0d 	sth	r2,-16(fp)
    1cf4:	00000306 	br	1d04 <getWidthOfText+0x138>
		}
		else
		{
			textWidth = textWidth + SCR_WORD_SIZE_X;
    1cf8:	e0bffc0b 	ldhu	r2,-16(fp)
    1cfc:	10800404 	addi	r2,r2,16
    1d00:	e0bffc0d 	sth	r2,-16(fp)
	}

	short textWidth = ( strType[0] == 'e' ) ? SCR_LETTER_SIZE_X : SCR_WORD_SIZE_X;

	int i;
	for ( i = 1; strType[i] != 0; i ++ )
    1d04:	e0bffd17 	ldw	r2,-12(fp)
    1d08:	10800044 	addi	r2,r2,1
    1d0c:	e0bffd15 	stw	r2,-12(fp)
    1d10:	e0bffd17 	ldw	r2,-12(fp)
    1d14:	e0fffe17 	ldw	r3,-8(fp)
    1d18:	1885883a 	add	r2,r3,r2
    1d1c:	10800003 	ldbu	r2,0(r2)
    1d20:	10803fcc 	andi	r2,r2,255
    1d24:	1080201c 	xori	r2,r2,128
    1d28:	10bfe004 	addi	r2,r2,-128
    1d2c:	103fcb1e 	bne	r2,zero,1c5c <__alt_data_end+0xf8001c5c>
		else
		{
			textWidth = textWidth + SCR_WORD_SIZE_X;
		}
	}
	free(strType);
    1d30:	e13ffe17 	ldw	r4,-8(fp)
    1d34:	001f6180 	call	1f618 <free>
	return textWidth;
    1d38:	e0bffc0b 	ldhu	r2,-16(fp)
}
    1d3c:	e037883a 	mov	sp,fp
    1d40:	dfc00117 	ldw	ra,4(sp)
    1d44:	df000017 	ldw	fp,0(sp)
    1d48:	dec00204 	addi	sp,sp,8
    1d4c:	f800283a 	ret

00001d50 <openTxtScrollX>:

//
bool openTxtScrollX( ScreenHome *scrHomeInst, int scrollTxtFileIndex )
{
    1d50:	defffa04 	addi	sp,sp,-24
    1d54:	dfc00515 	stw	ra,20(sp)
    1d58:	df000415 	stw	fp,16(sp)
    1d5c:	df000404 	addi	fp,sp,16
    1d60:	e13ffe15 	stw	r4,-8(fp)
    1d64:	e17fff15 	stw	r5,-4(fp)
    scrHomeInst->txtScrollable = true;
    1d68:	e0bffe17 	ldw	r2,-8(fp)
    1d6c:	00c00044 	movi	r3,1
    1d70:	10c01c05 	stb	r3,112(r2)
    scrHomeInst->txtScrollrow = scrollTxtFileIndex;
    1d74:	e0bfff17 	ldw	r2,-4(fp)
    1d78:	1007883a 	mov	r3,r2
    1d7c:	e0bffe17 	ldw	r2,-8(fp)
    1d80:	10c01c8d 	sth	r3,114(r2)
    scrHomeInst->txtScrollXOffset = 0;
    1d84:	e0bffe17 	ldw	r2,-8(fp)
    1d88:	10001d0d 	sth	zero,116(r2)

    TextType *tempText = &(scrHomeInst->txtCatalog.elemBlock[scrollTxtFileIndex].tagText);
    1d8c:	e0bffe17 	ldw	r2,-8(fp)
    1d90:	10c01b17 	ldw	r3,108(r2)
    1d94:	e0bfff17 	ldw	r2,-4(fp)
    1d98:	10800a24 	muli	r2,r2,40
    1d9c:	1885883a 	add	r2,r3,r2
    1da0:	10800704 	addi	r2,r2,28
    1da4:	e0bffc15 	stw	r2,-16(fp)

    //
    scrHomeInst->txtScrollwidth = getWidthOfText( tempText );
    1da8:	e13ffc17 	ldw	r4,-16(fp)
    1dac:	0001bcc0 	call	1bcc <getWidthOfText>
    1db0:	1007883a 	mov	r3,r2
    1db4:	e0bffe17 	ldw	r2,-8(fp)
    1db8:	10c01e0d 	sth	r3,120(r2)

    //
    short elemTextAreaWidth = scrHomeInst->txtCatalog.elemTextArea.x_max - scrHomeInst->txtCatalog.elemTextArea.x_min + 1;
    1dbc:	e0bffe17 	ldw	r2,-8(fp)
    1dc0:	1080158b 	ldhu	r2,86(r2)
    1dc4:	1007883a 	mov	r3,r2
    1dc8:	e0bffe17 	ldw	r2,-8(fp)
    1dcc:	1080150b 	ldhu	r2,84(r2)
    1dd0:	1885c83a 	sub	r2,r3,r2
    1dd4:	10800044 	addi	r2,r2,1
    1dd8:	e0bffd0d 	sth	r2,-12(fp)


    //
    if ( scrHomeInst->txtScrollwidth < elemTextAreaWidth / 2 )
    1ddc:	e0bffe17 	ldw	r2,-8(fp)
    1de0:	11001e0b 	ldhu	r4,120(r2)
    1de4:	e0bffd0f 	ldh	r2,-12(fp)
    1de8:	1006d7fa 	srli	r3,r2,31
    1dec:	1885883a 	add	r2,r3,r2
    1df0:	1005d07a 	srai	r2,r2,1
    1df4:	20ffffcc 	andi	r3,r4,65535
    1df8:	18e0001c 	xori	r3,r3,32768
    1dfc:	18e00004 	addi	r3,r3,-32768
    1e00:	10bfffcc 	andi	r2,r2,65535
    1e04:	10a0001c 	xori	r2,r2,32768
    1e08:	10a00004 	addi	r2,r2,-32768
    1e0c:	1880080e 	bge	r3,r2,1e30 <openTxtScrollX+0xe0>
    {
        scrHomeInst->txtScrollSpacing = elemTextAreaWidth - scrHomeInst->txtScrollwidth;
    1e10:	e0bffd0b 	ldhu	r2,-12(fp)
    1e14:	e0fffe17 	ldw	r3,-8(fp)
    1e18:	18c01e0b 	ldhu	r3,120(r3)
    1e1c:	10c5c83a 	sub	r2,r2,r3
    1e20:	1007883a 	mov	r3,r2
    1e24:	e0bffe17 	ldw	r2,-8(fp)
    1e28:	10c01e8d 	sth	r3,122(r2)
    1e2c:	00000706 	br	1e4c <openTxtScrollX+0xfc>
    }
    else
    {
        //
        scrHomeInst->txtScrollSpacing = elemTextAreaWidth / 2;
    1e30:	e0bffd0f 	ldh	r2,-12(fp)
    1e34:	1006d7fa 	srli	r3,r2,31
    1e38:	1885883a 	add	r2,r3,r2
    1e3c:	1005d07a 	srai	r2,r2,1
    1e40:	1007883a 	mov	r3,r2
    1e44:	e0bffe17 	ldw	r2,-8(fp)
    1e48:	10c01e8d 	sth	r3,122(r2)
    }
    return true;
    1e4c:	00800044 	movi	r2,1
}
    1e50:	e037883a 	mov	sp,fp
    1e54:	dfc00117 	ldw	ra,4(sp)
    1e58:	df000017 	ldw	fp,0(sp)
    1e5c:	dec00204 	addi	sp,sp,8
    1e60:	f800283a 	ret

00001e64 <setDefaultTagGroup>:


//
bool setDefaultTagGroup( TagGroup *tagGroupInst, AreaFmt *tagStaticPos, AreaFmt *tagVarPos, short width, short height,\
			char *tagStaText, char *tagVarText )
{
    1e64:	defff604 	addi	sp,sp,-40
    1e68:	dfc00915 	stw	ra,36(sp)
    1e6c:	df000815 	stw	fp,32(sp)
    1e70:	df000804 	addi	fp,sp,32
    1e74:	e13ffb15 	stw	r4,-20(fp)
    1e78:	e17ffc15 	stw	r5,-16(fp)
    1e7c:	e1bffd15 	stw	r6,-12(fp)
    1e80:	3807883a 	mov	r3,r7
    1e84:	e0800217 	ldw	r2,8(fp)
    1e88:	e0fffe0d 	sth	r3,-8(fp)
    1e8c:	e0bfff0d 	sth	r2,-4(fp)
	bool status = true, status1;
    1e90:	00800044 	movi	r2,1
    1e94:	e0bff805 	stb	r2,-32(fp)
//    printf( "vlaue = %d\n", height );
	tagGroupInst->bkgBorderColor = defaultColorInfo;
    1e98:	e0bffb17 	ldw	r2,-20(fp)
    1e9c:	d0e0040b 	ldhu	r3,-32752(gp)
    1ea0:	10c0000d 	sth	r3,0(r2)
    1ea4:	d0e00484 	addi	r3,gp,-32750
    1ea8:	18c0000b 	ldhu	r3,0(r3)
    1eac:	10c0008d 	sth	r3,2(r2)
    1eb0:	d0e00504 	addi	r3,gp,-32748
    1eb4:	18c0000b 	ldhu	r3,0(r3)
    1eb8:	10c0010d 	sth	r3,4(r2)
    1ebc:	d0e00584 	addi	r3,gp,-32746
    1ec0:	18c0000b 	ldhu	r3,0(r3)
    1ec4:	10c0018d 	sth	r3,6(r2)

	//
	AreaRange *tempArea = &(tagGroupInst->staticTagArea);
    1ec8:	e0bffb17 	ldw	r2,-20(fp)
    1ecc:	10800204 	addi	r2,r2,8
    1ed0:	e0bff915 	stw	r2,-28(fp)
	status1 = setAreaRangeByAreaFmt( tempArea, tagStaticPos, width, height );
    1ed4:	e0fffe0f 	ldh	r3,-8(fp)
    1ed8:	e0bfff0f 	ldh	r2,-4(fp)
    1edc:	e13ff917 	ldw	r4,-28(fp)
    1ee0:	e17ffc17 	ldw	r5,-16(fp)
    1ee4:	180d883a 	mov	r6,r3
    1ee8:	100f883a 	mov	r7,r2
    1eec:	00007ec0 	call	7ec <setAreaRangeByAreaFmt>
    1ef0:	e0bffa05 	stb	r2,-24(fp)
	status = status && status1;
    1ef4:	e0bff803 	ldbu	r2,-32(fp)
    1ef8:	10000426 	beq	r2,zero,1f0c <setDefaultTagGroup+0xa8>
    1efc:	e0bffa03 	ldbu	r2,-24(fp)
    1f00:	10000226 	beq	r2,zero,1f0c <setDefaultTagGroup+0xa8>
    1f04:	00800044 	movi	r2,1
    1f08:	00000106 	br	1f10 <setDefaultTagGroup+0xac>
    1f0c:	0005883a 	mov	r2,zero
    1f10:	e0bff805 	stb	r2,-32(fp)
    1f14:	e0bff803 	ldbu	r2,-32(fp)
    1f18:	1080004c 	andi	r2,r2,1
    1f1c:	e0bff805 	stb	r2,-32(fp)
//	displayAreaRange( tempArea, 0 );
	//
	status1 = setDefaultTagBlock( &(tagGroupInst->staticTag), tagStaText, \
    1f20:	e0bffb17 	ldw	r2,-20(fp)
    1f24:	11000404 	addi	r4,r2,16
			tempArea->x_max - tempArea->x_min + 1, tempArea->y_max - tempArea->y_min + 1);
    1f28:	e0bff917 	ldw	r2,-28(fp)
    1f2c:	1080008b 	ldhu	r2,2(r2)
	AreaRange *tempArea = &(tagGroupInst->staticTagArea);
	status1 = setAreaRangeByAreaFmt( tempArea, tagStaticPos, width, height );
	status = status && status1;
//	displayAreaRange( tempArea, 0 );
	//
	status1 = setDefaultTagBlock( &(tagGroupInst->staticTag), tagStaText, \
    1f30:	1007883a 	mov	r3,r2
			tempArea->x_max - tempArea->x_min + 1, tempArea->y_max - tempArea->y_min + 1);
    1f34:	e0bff917 	ldw	r2,-28(fp)
    1f38:	1080000b 	ldhu	r2,0(r2)
	AreaRange *tempArea = &(tagGroupInst->staticTagArea);
	status1 = setAreaRangeByAreaFmt( tempArea, tagStaticPos, width, height );
	status = status && status1;
//	displayAreaRange( tempArea, 0 );
	//
	status1 = setDefaultTagBlock( &(tagGroupInst->staticTag), tagStaText, \
    1f3c:	1885c83a 	sub	r2,r3,r2
    1f40:	10800044 	addi	r2,r2,1
    1f44:	10ffffcc 	andi	r3,r2,65535
    1f48:	18e0001c 	xori	r3,r3,32768
    1f4c:	18e00004 	addi	r3,r3,-32768
			tempArea->x_max - tempArea->x_min + 1, tempArea->y_max - tempArea->y_min + 1);
    1f50:	e0bff917 	ldw	r2,-28(fp)
    1f54:	1080018b 	ldhu	r2,6(r2)
	AreaRange *tempArea = &(tagGroupInst->staticTagArea);
	status1 = setAreaRangeByAreaFmt( tempArea, tagStaticPos, width, height );
	status = status && status1;
//	displayAreaRange( tempArea, 0 );
	//
	status1 = setDefaultTagBlock( &(tagGroupInst->staticTag), tagStaText, \
    1f58:	100b883a 	mov	r5,r2
			tempArea->x_max - tempArea->x_min + 1, tempArea->y_max - tempArea->y_min + 1);
    1f5c:	e0bff917 	ldw	r2,-28(fp)
    1f60:	1080010b 	ldhu	r2,4(r2)
	AreaRange *tempArea = &(tagGroupInst->staticTagArea);
	status1 = setAreaRangeByAreaFmt( tempArea, tagStaticPos, width, height );
	status = status && status1;
//	displayAreaRange( tempArea, 0 );
	//
	status1 = setDefaultTagBlock( &(tagGroupInst->staticTag), tagStaText, \
    1f64:	2885c83a 	sub	r2,r5,r2
    1f68:	10800044 	addi	r2,r2,1
    1f6c:	10bfffcc 	andi	r2,r2,65535
    1f70:	10a0001c 	xori	r2,r2,32768
    1f74:	10a00004 	addi	r2,r2,-32768
    1f78:	e1400317 	ldw	r5,12(fp)
    1f7c:	180d883a 	mov	r6,r3
    1f80:	100f883a 	mov	r7,r2
    1f84:	0000c6c0 	call	c6c <setDefaultTagBlock>
    1f88:	e0bffa05 	stb	r2,-24(fp)
			tempArea->x_max - tempArea->x_min + 1, tempArea->y_max - tempArea->y_min + 1);
    status = status && status1;
    1f8c:	e0bff803 	ldbu	r2,-32(fp)
    1f90:	10000426 	beq	r2,zero,1fa4 <setDefaultTagGroup+0x140>
    1f94:	e0bffa03 	ldbu	r2,-24(fp)
    1f98:	10000226 	beq	r2,zero,1fa4 <setDefaultTagGroup+0x140>
    1f9c:	00800044 	movi	r2,1
    1fa0:	00000106 	br	1fa8 <setDefaultTagGroup+0x144>
    1fa4:	0005883a 	mov	r2,zero
    1fa8:	e0bff805 	stb	r2,-32(fp)
    1fac:	e0bff803 	ldbu	r2,-32(fp)
    1fb0:	1080004c 	andi	r2,r2,1
    1fb4:	e0bff805 	stb	r2,-32(fp)



	//
	tempArea = &(tagGroupInst->varTagArea);
    1fb8:	e0bffb17 	ldw	r2,-20(fp)
    1fbc:	10800e04 	addi	r2,r2,56
    1fc0:	e0bff915 	stw	r2,-28(fp)
	status1 = setAreaRangeByAreaFmt( tempArea, tagVarPos, width, height );
    1fc4:	e0fffe0f 	ldh	r3,-8(fp)
    1fc8:	e0bfff0f 	ldh	r2,-4(fp)
    1fcc:	e13ff917 	ldw	r4,-28(fp)
    1fd0:	e17ffd17 	ldw	r5,-12(fp)
    1fd4:	180d883a 	mov	r6,r3
    1fd8:	100f883a 	mov	r7,r2
    1fdc:	00007ec0 	call	7ec <setAreaRangeByAreaFmt>
    1fe0:	e0bffa05 	stb	r2,-24(fp)
	status = status && status1;
    1fe4:	e0bff803 	ldbu	r2,-32(fp)
    1fe8:	10000426 	beq	r2,zero,1ffc <setDefaultTagGroup+0x198>
    1fec:	e0bffa03 	ldbu	r2,-24(fp)
    1ff0:	10000226 	beq	r2,zero,1ffc <setDefaultTagGroup+0x198>
    1ff4:	00800044 	movi	r2,1
    1ff8:	00000106 	br	2000 <setDefaultTagGroup+0x19c>
    1ffc:	0005883a 	mov	r2,zero
    2000:	e0bff805 	stb	r2,-32(fp)
    2004:	e0bff803 	ldbu	r2,-32(fp)
    2008:	1080004c 	andi	r2,r2,1
    200c:	e0bff805 	stb	r2,-32(fp)
//	displayAreaRange( tempArea, 0 );
	//

	status1 = setDefaultTagBlock( &(tagGroupInst->varTag), tagVarText, \
    2010:	e0bffb17 	ldw	r2,-20(fp)
    2014:	11001004 	addi	r4,r2,64
			tempArea->x_max - tempArea->x_min + 1, tempArea->y_max - tempArea->y_min + 1);
    2018:	e0bff917 	ldw	r2,-28(fp)
    201c:	1080008b 	ldhu	r2,2(r2)
	status1 = setAreaRangeByAreaFmt( tempArea, tagVarPos, width, height );
	status = status && status1;
//	displayAreaRange( tempArea, 0 );
	//

	status1 = setDefaultTagBlock( &(tagGroupInst->varTag), tagVarText, \
    2020:	1007883a 	mov	r3,r2
			tempArea->x_max - tempArea->x_min + 1, tempArea->y_max - tempArea->y_min + 1);
    2024:	e0bff917 	ldw	r2,-28(fp)
    2028:	1080000b 	ldhu	r2,0(r2)
	status1 = setAreaRangeByAreaFmt( tempArea, tagVarPos, width, height );
	status = status && status1;
//	displayAreaRange( tempArea, 0 );
	//

	status1 = setDefaultTagBlock( &(tagGroupInst->varTag), tagVarText, \
    202c:	1885c83a 	sub	r2,r3,r2
    2030:	10800044 	addi	r2,r2,1
    2034:	10ffffcc 	andi	r3,r2,65535
    2038:	18e0001c 	xori	r3,r3,32768
    203c:	18e00004 	addi	r3,r3,-32768
			tempArea->x_max - tempArea->x_min + 1, tempArea->y_max - tempArea->y_min + 1);
    2040:	e0bff917 	ldw	r2,-28(fp)
    2044:	1080018b 	ldhu	r2,6(r2)
	status1 = setAreaRangeByAreaFmt( tempArea, tagVarPos, width, height );
	status = status && status1;
//	displayAreaRange( tempArea, 0 );
	//

	status1 = setDefaultTagBlock( &(tagGroupInst->varTag), tagVarText, \
    2048:	100b883a 	mov	r5,r2
			tempArea->x_max - tempArea->x_min + 1, tempArea->y_max - tempArea->y_min + 1);
    204c:	e0bff917 	ldw	r2,-28(fp)
    2050:	1080010b 	ldhu	r2,4(r2)
	status1 = setAreaRangeByAreaFmt( tempArea, tagVarPos, width, height );
	status = status && status1;
//	displayAreaRange( tempArea, 0 );
	//

	status1 = setDefaultTagBlock( &(tagGroupInst->varTag), tagVarText, \
    2054:	2885c83a 	sub	r2,r5,r2
    2058:	10800044 	addi	r2,r2,1
    205c:	10bfffcc 	andi	r2,r2,65535
    2060:	10a0001c 	xori	r2,r2,32768
    2064:	10a00004 	addi	r2,r2,-32768
    2068:	e1400417 	ldw	r5,16(fp)
    206c:	180d883a 	mov	r6,r3
    2070:	100f883a 	mov	r7,r2
    2074:	0000c6c0 	call	c6c <setDefaultTagBlock>
    2078:	e0bffa05 	stb	r2,-24(fp)
			tempArea->x_max - tempArea->x_min + 1, tempArea->y_max - tempArea->y_min + 1);
    status = status && status1;
    207c:	e0bff803 	ldbu	r2,-32(fp)
    2080:	10000426 	beq	r2,zero,2094 <setDefaultTagGroup+0x230>
    2084:	e0bffa03 	ldbu	r2,-24(fp)
    2088:	10000226 	beq	r2,zero,2094 <setDefaultTagGroup+0x230>
    208c:	00800044 	movi	r2,1
    2090:	00000106 	br	2098 <setDefaultTagGroup+0x234>
    2094:	0005883a 	mov	r2,zero
    2098:	e0bff805 	stb	r2,-32(fp)
    209c:	e0bff803 	ldbu	r2,-32(fp)
    20a0:	1080004c 	andi	r2,r2,1
    20a4:	e0bff805 	stb	r2,-32(fp)

	return status;
    20a8:	e0bff803 	ldbu	r2,-32(fp)
}
    20ac:	e037883a 	mov	sp,fp
    20b0:	dfc00117 	ldw	ra,4(sp)
    20b4:	df000017 	ldw	fp,0(sp)
    20b8:	dec00204 	addi	sp,sp,8
    20bc:	f800283a 	ret

000020c0 <setDefaultNumEditGroup>:

//(+)
bool setDefaultNumEditGroup( TagIconGroup *numEditGrpInst, short width, short height, short numMax, short numMin, short num, char *unitName )
{
    20c0:	deffef04 	addi	sp,sp,-68
    20c4:	dfc01015 	stw	ra,64(sp)
    20c8:	df000f15 	stw	fp,60(sp)
    20cc:	df000f04 	addi	fp,sp,60
    20d0:	e13ffa15 	stw	r4,-24(fp)
    20d4:	2811883a 	mov	r8,r5
    20d8:	300b883a 	mov	r5,r6
    20dc:	3809883a 	mov	r4,r7
    20e0:	e0c00217 	ldw	r3,8(fp)
    20e4:	e0800317 	ldw	r2,12(fp)
    20e8:	e23ffb0d 	sth	r8,-20(fp)
    20ec:	e17ffc0d 	sth	r5,-16(fp)
    20f0:	e13ffd0d 	sth	r4,-12(fp)
    20f4:	e0fffe0d 	sth	r3,-8(fp)
    20f8:	e0bfff0d 	sth	r2,-4(fp)
	bool status = true, status1;
    20fc:	00800044 	movi	r2,1
    2100:	e0bff305 	stb	r2,-52(fp)

	//
	numEditGrpInst->bkgBorderColor = defaultColorInfo;
    2104:	e0bffa17 	ldw	r2,-24(fp)
    2108:	d0e0040b 	ldhu	r3,-32752(gp)
    210c:	10c0000d 	sth	r3,0(r2)
    2110:	d0e00484 	addi	r3,gp,-32750
    2114:	18c0000b 	ldhu	r3,0(r3)
    2118:	10c0008d 	sth	r3,2(r2)
    211c:	d0e00504 	addi	r3,gp,-32748
    2120:	18c0000b 	ldhu	r3,0(r3)
    2124:	10c0010d 	sth	r3,4(r2)
    2128:	d0e00584 	addi	r3,gp,-32746
    212c:	18c0000b 	ldhu	r3,0(r3)
    2130:	10c0018d 	sth	r3,6(r2)

	//
	numEditGrpInst->value = num;
    2134:	e0bffa17 	ldw	r2,-24(fp)
    2138:	e0ffff0b 	ldhu	r3,-4(fp)
    213c:	10c02a0d 	sth	r3,168(r2)
	numEditGrpInst->valueMax = numMax;
    2140:	e0bffa17 	ldw	r2,-24(fp)
    2144:	e0fffd0b 	ldhu	r3,-12(fp)
    2148:	10c02a8d 	sth	r3,170(r2)
	numEditGrpInst->valueMin = numMin;
    214c:	e0bffa17 	ldw	r2,-24(fp)
    2150:	e0fffe0b 	ldhu	r3,-8(fp)
    2154:	10c02b0d 	sth	r3,172(r2)
	 * |                      |
	 * |  minusIcon           |
	 * |______________________|
	 */

	short tagHeight = 30;
    2158:	00800784 	movi	r2,30
    215c:	e0bff38d 	sth	r2,-50(fp)
	short tagWidth = 30;
    2160:	00800784 	movi	r2,30
    2164:	e0bff40d 	sth	r2,-48(fp)
	short iconBlockWidth = 30;
    2168:	00800784 	movi	r2,30
    216c:	e0bff48d 	sth	r2,-46(fp)
	short iconBlockHeight = 20;
    2170:	00800504 	movi	r2,20
    2174:	e0bff50d 	sth	r2,-44(fp)
	short numTagMarginXL = 10;
    2178:	00800284 	movi	r2,10
    217c:	e0bff58d 	sth	r2,-42(fp)
	short plusIconMarginYU = 10;
    2180:	00800284 	movi	r2,10
    2184:	e0bff60d 	sth	r2,-40(fp)
	short minusIconMarginYD = 10;
    2188:	00800284 	movi	r2,10
    218c:	e0bff68d 	sth	r2,-38(fp)
	short twoTagSpacingX = 10;
    2190:	00800284 	movi	r2,10
    2194:	e0bff70d 	sth	r2,-36(fp)

	//plusIcon
	status1 = setAreaRange( &(numEditGrpInst->plusIconArea), numTagMarginXL+1, numTagMarginXL+iconBlockWidth,\
    2198:	e0bffa17 	ldw	r2,-24(fp)
    219c:	11000204 	addi	r4,r2,8
    21a0:	e0bff58b 	ldhu	r2,-42(fp)
    21a4:	10800044 	addi	r2,r2,1
    21a8:	117fffcc 	andi	r5,r2,65535
    21ac:	2960001c 	xori	r5,r5,32768
    21b0:	29600004 	addi	r5,r5,-32768
    21b4:	e0fff58b 	ldhu	r3,-42(fp)
    21b8:	e0bff48b 	ldhu	r2,-46(fp)
    21bc:	1885883a 	add	r2,r3,r2
    21c0:	11bfffcc 	andi	r6,r2,65535
    21c4:	31a0001c 	xori	r6,r6,32768
    21c8:	31a00004 	addi	r6,r6,-32768
    21cc:	e0bff60b 	ldhu	r2,-40(fp)
    21d0:	10800044 	addi	r2,r2,1
    21d4:	11ffffcc 	andi	r7,r2,65535
    21d8:	39e0001c 	xori	r7,r7,32768
    21dc:	39e00004 	addi	r7,r7,-32768
    21e0:	e0fff60b 	ldhu	r3,-40(fp)
    21e4:	e0bff50b 	ldhu	r2,-44(fp)
    21e8:	1885883a 	add	r2,r3,r2
    21ec:	10bfffcc 	andi	r2,r2,65535
    21f0:	10a0001c 	xori	r2,r2,32768
    21f4:	10a00004 	addi	r2,r2,-32768
    21f8:	d8800015 	stw	r2,0(sp)
    21fc:	00007680 	call	768 <setAreaRange>
    2200:	e0bff785 	stb	r2,-34(fp)
				plusIconMarginYU + 1, plusIconMarginYU + iconBlockHeight );
    status = status && status1;
    2204:	e0bff303 	ldbu	r2,-52(fp)
    2208:	10000426 	beq	r2,zero,221c <setDefaultNumEditGroup+0x15c>
    220c:	e0bff783 	ldbu	r2,-34(fp)
    2210:	10000226 	beq	r2,zero,221c <setDefaultNumEditGroup+0x15c>
    2214:	00800044 	movi	r2,1
    2218:	00000106 	br	2220 <setDefaultNumEditGroup+0x160>
    221c:	0005883a 	mov	r2,zero
    2220:	e0bff305 	stb	r2,-52(fp)
    2224:	e0bff303 	ldbu	r2,-52(fp)
    2228:	1080004c 	andi	r2,r2,1
    222c:	e0bff305 	stb	r2,-52(fp)
	status1 = setDefaultIconBlock( &(numEditGrpInst->plusIcon), icon_plus, \
    2230:	e0bffa17 	ldw	r2,-24(fp)
    2234:	11000404 	addi	r4,r2,16
    2238:	e1bff48f 	ldh	r6,-46(fp)
    223c:	e0fff50f 	ldh	r3,-44(fp)
    2240:	00800204 	movi	r2,8
    2244:	d8800015 	stw	r2,0(sp)
    2248:	00800204 	movi	r2,8
    224c:	d8800115 	stw	r2,4(sp)
    2250:	01400bf4 	movhi	r5,47
    2254:	294fe804 	addi	r5,r5,16288
    2258:	180f883a 	mov	r7,r3
    225c:	00016440 	call	1644 <setDefaultIconBlock>
    2260:	e0bff785 	stb	r2,-34(fp)
				iconBlockWidth, iconBlockHeight, ICON_PLUS_X_SIZE, ICON_PLUS_Y_SIZE );
    status = status && status1;
    2264:	e0bff303 	ldbu	r2,-52(fp)
    2268:	10000426 	beq	r2,zero,227c <setDefaultNumEditGroup+0x1bc>
    226c:	e0bff783 	ldbu	r2,-34(fp)
    2270:	10000226 	beq	r2,zero,227c <setDefaultNumEditGroup+0x1bc>
    2274:	00800044 	movi	r2,1
    2278:	00000106 	br	2280 <setDefaultNumEditGroup+0x1c0>
    227c:	0005883a 	mov	r2,zero
    2280:	e0bff305 	stb	r2,-52(fp)
    2284:	e0bff303 	ldbu	r2,-52(fp)
    2288:	1080004c 	andi	r2,r2,1
    228c:	e0bff305 	stb	r2,-52(fp)

	//numberTag
	char *numStr = (char*)malloc( sizeof(char) * 7 );
    2290:	010001c4 	movi	r4,7
    2294:	001f6040 	call	1f604 <malloc>
    2298:	e0bff815 	stw	r2,-32(fp)
	if ( num < 0 || num > 99 )
    229c:	e0bfff0f 	ldh	r2,-4(fp)
    22a0:	10000316 	blt	r2,zero,22b0 <setDefaultNumEditGroup+0x1f0>
    22a4:	e0bfff0f 	ldh	r2,-4(fp)
    22a8:	10801910 	cmplti	r2,r2,100
    22ac:	1000011e 	bne	r2,zero,22b4 <setDefaultNumEditGroup+0x1f4>
    {
        num = 0;
    22b0:	e03fff0d 	sth	zero,-4(fp)
    }
	sprintf(numStr, "%2d", num);
    22b4:	e0bfff0f 	ldh	r2,-4(fp)
    22b8:	e13ff817 	ldw	r4,-32(fp)
    22bc:	014003f4 	movhi	r5,15
    22c0:	29407d04 	addi	r5,r5,500
    22c4:	100d883a 	mov	r6,r2
    22c8:	00202300 	call	20230 <sprintf>
	status1 = setAreaRange( &(numEditGrpInst->valueTagArea), numTagMarginXL+1, numTagMarginXL+tagWidth,\
    22cc:	e0bffa17 	ldw	r2,-24(fp)
    22d0:	11001204 	addi	r4,r2,72
    22d4:	e0bff58b 	ldhu	r2,-42(fp)
    22d8:	10800044 	addi	r2,r2,1
    22dc:	117fffcc 	andi	r5,r2,65535
    22e0:	2960001c 	xori	r5,r5,32768
    22e4:	29600004 	addi	r5,r5,-32768
    22e8:	e0fff58b 	ldhu	r3,-42(fp)
    22ec:	e0bff40b 	ldhu	r2,-48(fp)
    22f0:	1885883a 	add	r2,r3,r2
    22f4:	11bfffcc 	andi	r6,r2,65535
    22f8:	31a0001c 	xori	r6,r6,32768
    22fc:	31a00004 	addi	r6,r6,-32768
    2300:	e0bffc0f 	ldh	r2,-16(fp)
    2304:	1005d07a 	srai	r2,r2,1
    2308:	1007883a 	mov	r3,r2
    230c:	e0bff38f 	ldh	r2,-50(fp)
    2310:	1005d07a 	srai	r2,r2,1
    2314:	1885c83a 	sub	r2,r3,r2
    2318:	10800044 	addi	r2,r2,1
    231c:	10ffffcc 	andi	r3,r2,65535
    2320:	18e0001c 	xori	r3,r3,32768
    2324:	18e00004 	addi	r3,r3,-32768
    2328:	e0bffc0f 	ldh	r2,-16(fp)
    232c:	1005d07a 	srai	r2,r2,1
    2330:	100f883a 	mov	r7,r2
    2334:	e0bff38f 	ldh	r2,-50(fp)
    2338:	1005d07a 	srai	r2,r2,1
    233c:	3885883a 	add	r2,r7,r2
    2340:	10bfffcc 	andi	r2,r2,65535
    2344:	10a0001c 	xori	r2,r2,32768
    2348:	10a00004 	addi	r2,r2,-32768
    234c:	d8800015 	stw	r2,0(sp)
    2350:	180f883a 	mov	r7,r3
    2354:	00007680 	call	768 <setAreaRange>
    2358:	e0bff785 	stb	r2,-34(fp)
				(height>>1)-(tagHeight>>1)+1, (height>>1)+(tagHeight>>1) );
    status = status && status1;
    235c:	e0bff303 	ldbu	r2,-52(fp)
    2360:	10000426 	beq	r2,zero,2374 <setDefaultNumEditGroup+0x2b4>
    2364:	e0bff783 	ldbu	r2,-34(fp)
    2368:	10000226 	beq	r2,zero,2374 <setDefaultNumEditGroup+0x2b4>
    236c:	00800044 	movi	r2,1
    2370:	00000106 	br	2378 <setDefaultNumEditGroup+0x2b8>
    2374:	0005883a 	mov	r2,zero
    2378:	e0bff305 	stb	r2,-52(fp)
    237c:	e0bff303 	ldbu	r2,-52(fp)
    2380:	1080004c 	andi	r2,r2,1
    2384:	e0bff305 	stb	r2,-52(fp)
	status1 = setDefaultTagBlock( &(numEditGrpInst->valueTag), numStr, tagWidth, tagHeight );
    2388:	e0bffa17 	ldw	r2,-24(fp)
    238c:	11001404 	addi	r4,r2,80
    2390:	e0fff40f 	ldh	r3,-48(fp)
    2394:	e0bff38f 	ldh	r2,-50(fp)
    2398:	e17ff817 	ldw	r5,-32(fp)
    239c:	180d883a 	mov	r6,r3
    23a0:	100f883a 	mov	r7,r2
    23a4:	0000c6c0 	call	c6c <setDefaultTagBlock>
    23a8:	e0bff785 	stb	r2,-34(fp)
	status = status && status1;
    23ac:	e0bff303 	ldbu	r2,-52(fp)
    23b0:	10000426 	beq	r2,zero,23c4 <setDefaultNumEditGroup+0x304>
    23b4:	e0bff783 	ldbu	r2,-34(fp)
    23b8:	10000226 	beq	r2,zero,23c4 <setDefaultNumEditGroup+0x304>
    23bc:	00800044 	movi	r2,1
    23c0:	00000106 	br	23c8 <setDefaultNumEditGroup+0x308>
    23c4:	0005883a 	mov	r2,zero
    23c8:	e0bff305 	stb	r2,-52(fp)
    23cc:	e0bff303 	ldbu	r2,-52(fp)
    23d0:	1080004c 	andi	r2,r2,1
    23d4:	e0bff305 	stb	r2,-52(fp)


	//minusIcon
	status1 = setAreaRange( &(numEditGrpInst->minusIconArea), numTagMarginXL+1, numTagMarginXL+tagWidth,\
    23d8:	e0bffa17 	ldw	r2,-24(fp)
    23dc:	11000a04 	addi	r4,r2,40
    23e0:	e0bff58b 	ldhu	r2,-42(fp)
    23e4:	10800044 	addi	r2,r2,1
    23e8:	117fffcc 	andi	r5,r2,65535
    23ec:	2960001c 	xori	r5,r5,32768
    23f0:	29600004 	addi	r5,r5,-32768
    23f4:	e0fff58b 	ldhu	r3,-42(fp)
    23f8:	e0bff40b 	ldhu	r2,-48(fp)
    23fc:	1885883a 	add	r2,r3,r2
    2400:	11bfffcc 	andi	r6,r2,65535
    2404:	31a0001c 	xori	r6,r6,32768
    2408:	31a00004 	addi	r6,r6,-32768
    240c:	e0fffc0b 	ldhu	r3,-16(fp)
    2410:	e0bff68b 	ldhu	r2,-38(fp)
    2414:	1885c83a 	sub	r2,r3,r2
    2418:	1007883a 	mov	r3,r2
    241c:	e0bff50b 	ldhu	r2,-44(fp)
    2420:	1885c83a 	sub	r2,r3,r2
    2424:	10800044 	addi	r2,r2,1
    2428:	11ffffcc 	andi	r7,r2,65535
    242c:	39e0001c 	xori	r7,r7,32768
    2430:	39e00004 	addi	r7,r7,-32768
    2434:	e0fffc0b 	ldhu	r3,-16(fp)
    2438:	e0bff68b 	ldhu	r2,-38(fp)
    243c:	1885c83a 	sub	r2,r3,r2
    2440:	10bfffcc 	andi	r2,r2,65535
    2444:	10a0001c 	xori	r2,r2,32768
    2448:	10a00004 	addi	r2,r2,-32768
    244c:	d8800015 	stw	r2,0(sp)
    2450:	00007680 	call	768 <setAreaRange>
    2454:	e0bff785 	stb	r2,-34(fp)
				height - minusIconMarginYD - iconBlockHeight+1, height - minusIconMarginYD );
    status = status && status1;
    2458:	e0bff303 	ldbu	r2,-52(fp)
    245c:	10000426 	beq	r2,zero,2470 <setDefaultNumEditGroup+0x3b0>
    2460:	e0bff783 	ldbu	r2,-34(fp)
    2464:	10000226 	beq	r2,zero,2470 <setDefaultNumEditGroup+0x3b0>
    2468:	00800044 	movi	r2,1
    246c:	00000106 	br	2474 <setDefaultNumEditGroup+0x3b4>
    2470:	0005883a 	mov	r2,zero
    2474:	e0bff305 	stb	r2,-52(fp)
    2478:	e0bff303 	ldbu	r2,-52(fp)
    247c:	1080004c 	andi	r2,r2,1
    2480:	e0bff305 	stb	r2,-52(fp)
	status1 = setDefaultIconBlock( &(numEditGrpInst->minusIcon), icon_minus, \
    2484:	e0bffa17 	ldw	r2,-24(fp)
    2488:	11000c04 	addi	r4,r2,48
    248c:	e1bff48f 	ldh	r6,-46(fp)
    2490:	e0fff50f 	ldh	r3,-44(fp)
    2494:	00800204 	movi	r2,8
    2498:	d8800015 	stw	r2,0(sp)
    249c:	00800204 	movi	r2,8
    24a0:	d8800115 	stw	r2,4(sp)
    24a4:	01400bf4 	movhi	r5,47
    24a8:	294fea04 	addi	r5,r5,16296
    24ac:	180f883a 	mov	r7,r3
    24b0:	00016440 	call	1644 <setDefaultIconBlock>
    24b4:	e0bff785 	stb	r2,-34(fp)
				iconBlockWidth, iconBlockHeight, ICON_MINUS_X_SIZE, ICON_MINUS_Y_SIZE );
    status = status && status1;
    24b8:	e0bff303 	ldbu	r2,-52(fp)
    24bc:	10000426 	beq	r2,zero,24d0 <setDefaultNumEditGroup+0x410>
    24c0:	e0bff783 	ldbu	r2,-34(fp)
    24c4:	10000226 	beq	r2,zero,24d0 <setDefaultNumEditGroup+0x410>
    24c8:	00800044 	movi	r2,1
    24cc:	00000106 	br	24d4 <setDefaultNumEditGroup+0x414>
    24d0:	0005883a 	mov	r2,zero
    24d4:	e0bff305 	stb	r2,-52(fp)
    24d8:	e0bff303 	ldbu	r2,-52(fp)
    24dc:	1080004c 	andi	r2,r2,1
    24e0:	e0bff305 	stb	r2,-52(fp)


	//unitTag
	short unitTagMarginXL = numTagMarginXL + tagWidth + twoTagSpacingX;
    24e4:	e0fff58b 	ldhu	r3,-42(fp)
    24e8:	e0bff40b 	ldhu	r2,-48(fp)
    24ec:	1885883a 	add	r2,r3,r2
    24f0:	1007883a 	mov	r3,r2
    24f4:	e0bff70b 	ldhu	r2,-36(fp)
    24f8:	1885883a 	add	r2,r3,r2
    24fc:	e0bff90d 	sth	r2,-28(fp)
	status1 = setAreaRange( &(numEditGrpInst->unitTagArea), unitTagMarginXL+1, unitTagMarginXL+tagWidth,\
    2500:	e0bffa17 	ldw	r2,-24(fp)
    2504:	11001e04 	addi	r4,r2,120
    2508:	e0bff90b 	ldhu	r2,-28(fp)
    250c:	10800044 	addi	r2,r2,1
    2510:	117fffcc 	andi	r5,r2,65535
    2514:	2960001c 	xori	r5,r5,32768
    2518:	29600004 	addi	r5,r5,-32768
    251c:	e0fff90b 	ldhu	r3,-28(fp)
    2520:	e0bff40b 	ldhu	r2,-48(fp)
    2524:	1885883a 	add	r2,r3,r2
    2528:	11bfffcc 	andi	r6,r2,65535
    252c:	31a0001c 	xori	r6,r6,32768
    2530:	31a00004 	addi	r6,r6,-32768
    2534:	e0bffc0f 	ldh	r2,-16(fp)
    2538:	1005d07a 	srai	r2,r2,1
    253c:	1007883a 	mov	r3,r2
    2540:	e0bff38f 	ldh	r2,-50(fp)
    2544:	1005d07a 	srai	r2,r2,1
    2548:	1885c83a 	sub	r2,r3,r2
    254c:	10800044 	addi	r2,r2,1
    2550:	10ffffcc 	andi	r3,r2,65535
    2554:	18e0001c 	xori	r3,r3,32768
    2558:	18e00004 	addi	r3,r3,-32768
    255c:	e0bffc0f 	ldh	r2,-16(fp)
    2560:	1005d07a 	srai	r2,r2,1
    2564:	100f883a 	mov	r7,r2
    2568:	e0bff38f 	ldh	r2,-50(fp)
    256c:	1005d07a 	srai	r2,r2,1
    2570:	3885883a 	add	r2,r7,r2
    2574:	10bfffcc 	andi	r2,r2,65535
    2578:	10a0001c 	xori	r2,r2,32768
    257c:	10a00004 	addi	r2,r2,-32768
    2580:	d8800015 	stw	r2,0(sp)
    2584:	180f883a 	mov	r7,r3
    2588:	00007680 	call	768 <setAreaRange>
    258c:	e0bff785 	stb	r2,-34(fp)
					(height>>1)-(tagHeight>>1)+1, (height>>1)+(tagHeight>>1) );
    status = status && status1;
    2590:	e0bff303 	ldbu	r2,-52(fp)
    2594:	10000426 	beq	r2,zero,25a8 <setDefaultNumEditGroup+0x4e8>
    2598:	e0bff783 	ldbu	r2,-34(fp)
    259c:	10000226 	beq	r2,zero,25a8 <setDefaultNumEditGroup+0x4e8>
    25a0:	00800044 	movi	r2,1
    25a4:	00000106 	br	25ac <setDefaultNumEditGroup+0x4ec>
    25a8:	0005883a 	mov	r2,zero
    25ac:	e0bff305 	stb	r2,-52(fp)
    25b0:	e0bff303 	ldbu	r2,-52(fp)
    25b4:	1080004c 	andi	r2,r2,1
    25b8:	e0bff305 	stb	r2,-52(fp)
	status1 = setDefaultTagBlock( &(numEditGrpInst->unitTag), unitName, tagWidth, tagHeight );
    25bc:	e0bffa17 	ldw	r2,-24(fp)
    25c0:	11002004 	addi	r4,r2,128
    25c4:	e0fff40f 	ldh	r3,-48(fp)
    25c8:	e0bff38f 	ldh	r2,-50(fp)
    25cc:	e1400417 	ldw	r5,16(fp)
    25d0:	180d883a 	mov	r6,r3
    25d4:	100f883a 	mov	r7,r2
    25d8:	0000c6c0 	call	c6c <setDefaultTagBlock>
    25dc:	e0bff785 	stb	r2,-34(fp)
	status = status && status1;
    25e0:	e0bff303 	ldbu	r2,-52(fp)
    25e4:	10000426 	beq	r2,zero,25f8 <setDefaultNumEditGroup+0x538>
    25e8:	e0bff783 	ldbu	r2,-34(fp)
    25ec:	10000226 	beq	r2,zero,25f8 <setDefaultNumEditGroup+0x538>
    25f0:	00800044 	movi	r2,1
    25f4:	00000106 	br	25fc <setDefaultNumEditGroup+0x53c>
    25f8:	0005883a 	mov	r2,zero
    25fc:	e0bff305 	stb	r2,-52(fp)
    2600:	e0bff303 	ldbu	r2,-52(fp)
    2604:	1080004c 	andi	r2,r2,1
    2608:	e0bff305 	stb	r2,-52(fp)


	return status;
    260c:	e0bff303 	ldbu	r2,-52(fp)
}
    2610:	e037883a 	mov	sp,fp
    2614:	dfc00117 	ldw	ra,4(sp)
    2618:	df000017 	ldw	fp,0(sp)
    261c:	dec00204 	addi	sp,sp,8
    2620:	f800283a 	ret

00002624 <screenInit>:


//
bool screenInit()
{
    2624:	defffb04 	addi	sp,sp,-20
    2628:	dfc00415 	stw	ra,16(sp)
    262c:	df000315 	stw	fp,12(sp)
    2630:	df000304 	addi	fp,sp,12
	// ( 1  x  SCR_WIDE )

	bool status = true, status1;
    2634:	00800044 	movi	r2,1
    2638:	e0bffe05 	stb	r2,-8(fp)
	// ( 1  y  SCR_HEIGHT )
	status1 = setAreaRange( &(tftlcdScreenInst.screenArea), 1, SCR_WIDTH, 1, SCR_HEIGHT );
    263c:	00807804 	movi	r2,480
    2640:	d8800015 	stw	r2,0(sp)
    2644:	01000bf4 	movhi	r4,47
    2648:	21187104 	addi	r4,r4,25028
    264c:	01400044 	movi	r5,1
    2650:	01805004 	movi	r6,320
    2654:	01c00044 	movi	r7,1
    2658:	00007680 	call	768 <setAreaRange>
    265c:	e0bffe45 	stb	r2,-7(fp)
	status = status && status1;
    2660:	e0bffe03 	ldbu	r2,-8(fp)
    2664:	10000426 	beq	r2,zero,2678 <screenInit+0x54>
    2668:	e0bffe43 	ldbu	r2,-7(fp)
    266c:	10000226 	beq	r2,zero,2678 <screenInit+0x54>
    2670:	00800044 	movi	r2,1
    2674:	00000106 	br	267c <screenInit+0x58>
    2678:	0005883a 	mov	r2,zero
    267c:	e0bffe05 	stb	r2,-8(fp)
    2680:	e0bffe03 	ldbu	r2,-8(fp)
    2684:	1080004c 	andi	r2,r2,1
    2688:	e0bffe05 	stb	r2,-8(fp)

	//1. ( 1  y  headerHeight )
	short headerHeight = SCR_HEADER_HEIGHT;// (
    268c:	00800a04 	movi	r2,40
    2690:	e0bffe8d 	sth	r2,-6(fp)
	status1 = setAreaRange( &(tftlcdScreenInst.headerArea), 1, SCR_WIDTH, 1, headerHeight );
    2694:	e0bffe8f 	ldh	r2,-6(fp)
    2698:	d8800015 	stw	r2,0(sp)
    269c:	01000bf4 	movhi	r4,47
    26a0:	21187304 	addi	r4,r4,25036
    26a4:	01400044 	movi	r5,1
    26a8:	01805004 	movi	r6,320
    26ac:	01c00044 	movi	r7,1
    26b0:	00007680 	call	768 <setAreaRange>
    26b4:	e0bffe45 	stb	r2,-7(fp)
	status = status && status1;
    26b8:	e0bffe03 	ldbu	r2,-8(fp)
    26bc:	10000426 	beq	r2,zero,26d0 <screenInit+0xac>
    26c0:	e0bffe43 	ldbu	r2,-7(fp)
    26c4:	10000226 	beq	r2,zero,26d0 <screenInit+0xac>
    26c8:	00800044 	movi	r2,1
    26cc:	00000106 	br	26d4 <screenInit+0xb0>
    26d0:	0005883a 	mov	r2,zero
    26d4:	e0bffe05 	stb	r2,-8(fp)
    26d8:	e0bffe03 	ldbu	r2,-8(fp)
    26dc:	1080004c 	andi	r2,r2,1
    26e0:	e0bffe05 	stb	r2,-8(fp)

	status1 = screenHeaderInit( &(tftlcdScreenInst.scrHeader), SCR_WIDTH, headerHeight );
    26e4:	e0bffe8f 	ldh	r2,-6(fp)
    26e8:	01000bf4 	movhi	r4,47
    26ec:	21187504 	addi	r4,r4,25044
    26f0:	01405004 	movi	r5,320
    26f4:	100d883a 	mov	r6,r2
    26f8:	000299c0 	call	299c <screenHeaderInit>
    26fc:	e0bffe45 	stb	r2,-7(fp)
	status = status && status1;
    2700:	e0bffe03 	ldbu	r2,-8(fp)
    2704:	10000426 	beq	r2,zero,2718 <screenInit+0xf4>
    2708:	e0bffe43 	ldbu	r2,-7(fp)
    270c:	10000226 	beq	r2,zero,2718 <screenInit+0xf4>
    2710:	00800044 	movi	r2,1
    2714:	00000106 	br	271c <screenInit+0xf8>
    2718:	0005883a 	mov	r2,zero
    271c:	e0bffe05 	stb	r2,-8(fp)
    2720:	e0bffe03 	ldbu	r2,-8(fp)
    2724:	1080004c 	andi	r2,r2,1
    2728:	e0bffe05 	stb	r2,-8(fp)

	//2. ( SCR_HEIGHT - footerHeight + 1  y  SCR_HEIGHT )
	short footerHeight = SCR_FOTTER_HEIGHT;//
    272c:	00800f04 	movi	r2,60
    2730:	e0bfff0d 	sth	r2,-4(fp)
	status1 = setAreaRange( &(tftlcdScreenInst.footerArea), 1, SCR_WIDTH, SCR_HEIGHT - footerHeight + 1, SCR_HEIGHT );
    2734:	e0bfff0b 	ldhu	r2,-4(fp)
    2738:	00c07844 	movi	r3,481
    273c:	1885c83a 	sub	r2,r3,r2
    2740:	10ffffcc 	andi	r3,r2,65535
    2744:	18e0001c 	xori	r3,r3,32768
    2748:	18e00004 	addi	r3,r3,-32768
    274c:	00807804 	movi	r2,480
    2750:	d8800015 	stw	r2,0(sp)
    2754:	01000bf4 	movhi	r4,47
    2758:	21188504 	addi	r4,r4,25108
    275c:	01400044 	movi	r5,1
    2760:	01805004 	movi	r6,320
    2764:	180f883a 	mov	r7,r3
    2768:	00007680 	call	768 <setAreaRange>
    276c:	e0bffe45 	stb	r2,-7(fp)
	status = status && status1;
    2770:	e0bffe03 	ldbu	r2,-8(fp)
    2774:	10000426 	beq	r2,zero,2788 <screenInit+0x164>
    2778:	e0bffe43 	ldbu	r2,-7(fp)
    277c:	10000226 	beq	r2,zero,2788 <screenInit+0x164>
    2780:	00800044 	movi	r2,1
    2784:	00000106 	br	278c <screenInit+0x168>
    2788:	0005883a 	mov	r2,zero
    278c:	e0bffe05 	stb	r2,-8(fp)
    2790:	e0bffe03 	ldbu	r2,-8(fp)
    2794:	1080004c 	andi	r2,r2,1
    2798:	e0bffe05 	stb	r2,-8(fp)

	status1 = screenFooterInit( &(tftlcdScreenInst.scrFooter), SCR_WIDTH, footerHeight );
    279c:	e0bfff0f 	ldh	r2,-4(fp)
    27a0:	01000bf4 	movhi	r4,47
    27a4:	21188704 	addi	r4,r4,25116
    27a8:	01405004 	movi	r5,320
    27ac:	100d883a 	mov	r6,r2
    27b0:	0002b380 	call	2b38 <screenFooterInit>
    27b4:	e0bffe45 	stb	r2,-7(fp)
	status = status && status1;
    27b8:	e0bffe03 	ldbu	r2,-8(fp)
    27bc:	10000426 	beq	r2,zero,27d0 <screenInit+0x1ac>
    27c0:	e0bffe43 	ldbu	r2,-7(fp)
    27c4:	10000226 	beq	r2,zero,27d0 <screenInit+0x1ac>
    27c8:	00800044 	movi	r2,1
    27cc:	00000106 	br	27d4 <screenInit+0x1b0>
    27d0:	0005883a 	mov	r2,zero
    27d4:	e0bffe05 	stb	r2,-8(fp)
    27d8:	e0bffe03 	ldbu	r2,-8(fp)
    27dc:	1080004c 	andi	r2,r2,1
    27e0:	e0bffe05 	stb	r2,-8(fp)



	//3.  ( headerHeight + 1  y  SCR_HEIGHT - footerHeight )
	short mainAreaHeight = SCR_HEIGHT - headerHeight - footerHeight;
    27e4:	e0bffe8b 	ldhu	r2,-6(fp)
    27e8:	0085c83a 	sub	r2,zero,r2
    27ec:	1007883a 	mov	r3,r2
    27f0:	e0bfff0b 	ldhu	r2,-4(fp)
    27f4:	1885c83a 	sub	r2,r3,r2
    27f8:	10807804 	addi	r2,r2,480
    27fc:	e0bfff8d 	sth	r2,-2(fp)
	setAreaRange( &(tftlcdScreenInst.mainArea), 1, SCR_WIDTH, headerHeight + 1, SCR_HEIGHT - footerHeight );
    2800:	e0bffe8b 	ldhu	r2,-6(fp)
    2804:	10800044 	addi	r2,r2,1
    2808:	11ffffcc 	andi	r7,r2,65535
    280c:	39e0001c 	xori	r7,r7,32768
    2810:	39e00004 	addi	r7,r7,-32768
    2814:	e0bfff0b 	ldhu	r2,-4(fp)
    2818:	00c07804 	movi	r3,480
    281c:	1885c83a 	sub	r2,r3,r2
    2820:	10bfffcc 	andi	r2,r2,65535
    2824:	10a0001c 	xori	r2,r2,32768
    2828:	10a00004 	addi	r2,r2,-32768
    282c:	d8800015 	stw	r2,0(sp)
    2830:	01000bf4 	movhi	r4,47
    2834:	2118a104 	addi	r4,r4,25220
    2838:	01400044 	movi	r5,1
    283c:	01805004 	movi	r6,320
    2840:	00007680 	call	768 <setAreaRange>

	//txtFilesInfoSpacescreenInit()txtFilesInfoSpace
	status1 = screenMainHomeInit( &(tftlcdScreenInst.scrHome), SCR_WIDTH, mainAreaHeight, &txtFilesInfoSpace );
    2844:	e0bfff8f 	ldh	r2,-2(fp)
    2848:	01000bf4 	movhi	r4,47
    284c:	2118a304 	addi	r4,r4,25228
    2850:	01405004 	movi	r5,320
    2854:	100d883a 	mov	r6,r2
    2858:	01c00bf4 	movhi	r7,47
    285c:	39da5404 	addi	r7,r7,26960
    2860:	0002e9c0 	call	2e9c <screenMainHomeInit>
    2864:	e0bffe45 	stb	r2,-7(fp)
	status = status && status1;
    2868:	e0bffe03 	ldbu	r2,-8(fp)
    286c:	10000426 	beq	r2,zero,2880 <screenInit+0x25c>
    2870:	e0bffe43 	ldbu	r2,-7(fp)
    2874:	10000226 	beq	r2,zero,2880 <screenInit+0x25c>
    2878:	00800044 	movi	r2,1
    287c:	00000106 	br	2884 <screenInit+0x260>
    2880:	0005883a 	mov	r2,zero
    2884:	e0bffe05 	stb	r2,-8(fp)
    2888:	e0bffe03 	ldbu	r2,-8(fp)
    288c:	1080004c 	andi	r2,r2,1
    2890:	e0bffe05 	stb	r2,-8(fp)
	status1 = screenMainBookInit( &(tftlcdScreenInst.scrBook), SCR_WIDTH, mainAreaHeight );
    2894:	e0bfff8f 	ldh	r2,-2(fp)
    2898:	01000bf4 	movhi	r4,47
    289c:	2118e204 	addi	r4,r4,25480
    28a0:	01405004 	movi	r5,320
    28a4:	100d883a 	mov	r6,r2
    28a8:	0003a040 	call	3a04 <screenMainBookInit>
    28ac:	e0bffe45 	stb	r2,-7(fp)
	status = status && status1;
    28b0:	e0bffe03 	ldbu	r2,-8(fp)
    28b4:	10000426 	beq	r2,zero,28c8 <screenInit+0x2a4>
    28b8:	e0bffe43 	ldbu	r2,-7(fp)
    28bc:	10000226 	beq	r2,zero,28c8 <screenInit+0x2a4>
    28c0:	00800044 	movi	r2,1
    28c4:	00000106 	br	28cc <screenInit+0x2a8>
    28c8:	0005883a 	mov	r2,zero
    28cc:	e0bffe05 	stb	r2,-8(fp)
    28d0:	e0bffe03 	ldbu	r2,-8(fp)
    28d4:	1080004c 	andi	r2,r2,1
    28d8:	e0bffe05 	stb	r2,-8(fp)
	status1 = screenMainSettingInit( &(tftlcdScreenInst.scrSetting), SCR_WIDTH, mainAreaHeight );
    28dc:	e0bfff8f 	ldh	r2,-2(fp)
    28e0:	01000bf4 	movhi	r4,47
    28e4:	21194404 	addi	r4,r4,25872
    28e8:	01405004 	movi	r5,320
    28ec:	100d883a 	mov	r6,r2
    28f0:	000470c0 	call	470c <screenMainSettingInit>
    28f4:	e0bffe45 	stb	r2,-7(fp)
	status = status && status1;
    28f8:	e0bffe03 	ldbu	r2,-8(fp)
    28fc:	10000426 	beq	r2,zero,2910 <screenInit+0x2ec>
    2900:	e0bffe43 	ldbu	r2,-7(fp)
    2904:	10000226 	beq	r2,zero,2910 <screenInit+0x2ec>
    2908:	00800044 	movi	r2,1
    290c:	00000106 	br	2914 <screenInit+0x2f0>
    2910:	0005883a 	mov	r2,zero
    2914:	e0bffe05 	stb	r2,-8(fp)
    2918:	e0bffe03 	ldbu	r2,-8(fp)
    291c:	1080004c 	andi	r2,r2,1
    2920:	e0bffe05 	stb	r2,-8(fp)
	status1 = screenMainColorPickerInit( &(tftlcdScreenInst.scrColorPicker), SCR_WIDTH, mainAreaHeight );
    2924:	e0bfff8f 	ldh	r2,-2(fp)
    2928:	01000bf4 	movhi	r4,47
    292c:	211a3d04 	addi	r4,r4,26868
    2930:	01405004 	movi	r5,320
    2934:	100d883a 	mov	r6,r2
    2938:	00053100 	call	5310 <screenMainColorPickerInit>
    293c:	e0bffe45 	stb	r2,-7(fp)
	status = status && status1;
    2940:	e0bffe03 	ldbu	r2,-8(fp)
    2944:	10000426 	beq	r2,zero,2958 <screenInit+0x334>
    2948:	e0bffe43 	ldbu	r2,-7(fp)
    294c:	10000226 	beq	r2,zero,2958 <screenInit+0x334>
    2950:	00800044 	movi	r2,1
    2954:	00000106 	br	295c <screenInit+0x338>
    2958:	0005883a 	mov	r2,zero
    295c:	e0bffe05 	stb	r2,-8(fp)
    2960:	e0bffe03 	ldbu	r2,-8(fp)
    2964:	1080004c 	andi	r2,r2,1
    2968:	e0bffe05 	stb	r2,-8(fp)

	//4.
	screenMainAreaInfoInst( &(tftlcdScreenInst.mainAreaInfo) );
    296c:	01000bf4 	movhi	r4,47
    2970:	211a4504 	addi	r4,r4,26900
    2974:	00054540 	call	5454 <screenMainAreaInfoInst>


	//5.
    screenSetCustomInfo( &tftlcdScreenInst );
    2978:	01000bf4 	movhi	r4,47
    297c:	21187104 	addi	r4,r4,25028
    2980:	00054c40 	call	54c4 <screenSetCustomInfo>
	return status;
    2984:	e0bffe03 	ldbu	r2,-8(fp)
}
    2988:	e037883a 	mov	sp,fp
    298c:	dfc00117 	ldw	ra,4(sp)
    2990:	df000017 	ldw	fp,0(sp)
    2994:	dec00204 	addi	sp,sp,8
    2998:	f800283a 	ret

0000299c <screenHeaderInit>:

bool screenHeaderInit( ScreenHeaderTime *scrHeaderInst, short width, short height )
{
    299c:	defff804 	addi	sp,sp,-32
    29a0:	dfc00715 	stw	ra,28(sp)
    29a4:	df000615 	stw	fp,24(sp)
    29a8:	df000604 	addi	fp,sp,24
    29ac:	e13ffd15 	stw	r4,-12(fp)
    29b0:	2807883a 	mov	r3,r5
    29b4:	3005883a 	mov	r2,r6
    29b8:	e0fffe0d 	sth	r3,-8(fp)
    29bc:	e0bfff0d 	sth	r2,-4(fp)

	scrHeaderInst->bkgBorderColor = defaultColorInfo;
    29c0:	e0bffd17 	ldw	r2,-12(fp)
    29c4:	d0e0040b 	ldhu	r3,-32752(gp)
    29c8:	10c0000d 	sth	r3,0(r2)
    29cc:	d0e00484 	addi	r3,gp,-32750
    29d0:	18c0000b 	ldhu	r3,0(r3)
    29d4:	10c0008d 	sth	r3,2(r2)
    29d8:	d0e00504 	addi	r3,gp,-32748
    29dc:	18c0000b 	ldhu	r3,0(r3)
    29e0:	10c0010d 	sth	r3,4(r2)
    29e4:	d0e00584 	addi	r3,gp,-32746
    29e8:	18c0000b 	ldhu	r3,0(r3)
    29ec:	10c0018d 	sth	r3,6(r2)

	short marginX = 100;//
    29f0:	00801904 	movi	r2,100
    29f4:	e0bffb0d 	sth	r2,-20(fp)
	short marginY = 5;//
    29f8:	00800144 	movi	r2,5
    29fc:	e0bffb8d 	sth	r2,-18(fp)

	bool status = true, status1;
    2a00:	00800044 	movi	r2,1
    2a04:	e0bffc05 	stb	r2,-16(fp)

	status1 = setAreaRange( &(scrHeaderInst->tagTimeArea), marginX+1, width-marginX, marginY+1, height-marginY );
    2a08:	e0bffd17 	ldw	r2,-12(fp)
    2a0c:	11000204 	addi	r4,r2,8
    2a10:	e0bffb0b 	ldhu	r2,-20(fp)
    2a14:	10800044 	addi	r2,r2,1
    2a18:	117fffcc 	andi	r5,r2,65535
    2a1c:	2960001c 	xori	r5,r5,32768
    2a20:	29600004 	addi	r5,r5,-32768
    2a24:	e0fffe0b 	ldhu	r3,-8(fp)
    2a28:	e0bffb0b 	ldhu	r2,-20(fp)
    2a2c:	1885c83a 	sub	r2,r3,r2
    2a30:	11bfffcc 	andi	r6,r2,65535
    2a34:	31a0001c 	xori	r6,r6,32768
    2a38:	31a00004 	addi	r6,r6,-32768
    2a3c:	e0bffb8b 	ldhu	r2,-18(fp)
    2a40:	10800044 	addi	r2,r2,1
    2a44:	11ffffcc 	andi	r7,r2,65535
    2a48:	39e0001c 	xori	r7,r7,32768
    2a4c:	39e00004 	addi	r7,r7,-32768
    2a50:	e0ffff0b 	ldhu	r3,-4(fp)
    2a54:	e0bffb8b 	ldhu	r2,-18(fp)
    2a58:	1885c83a 	sub	r2,r3,r2
    2a5c:	10bfffcc 	andi	r2,r2,65535
    2a60:	10a0001c 	xori	r2,r2,32768
    2a64:	10a00004 	addi	r2,r2,-32768
    2a68:	d8800015 	stw	r2,0(sp)
    2a6c:	00007680 	call	768 <setAreaRange>
    2a70:	e0bffc45 	stb	r2,-15(fp)
	status = status && status1;
    2a74:	e0bffc03 	ldbu	r2,-16(fp)
    2a78:	10000426 	beq	r2,zero,2a8c <screenHeaderInit+0xf0>
    2a7c:	e0bffc43 	ldbu	r2,-15(fp)
    2a80:	10000226 	beq	r2,zero,2a8c <screenHeaderInit+0xf0>
    2a84:	00800044 	movi	r2,1
    2a88:	00000106 	br	2a90 <screenHeaderInit+0xf4>
    2a8c:	0005883a 	mov	r2,zero
    2a90:	e0bffc05 	stb	r2,-16(fp)
    2a94:	e0bffc03 	ldbu	r2,-16(fp)
    2a98:	1080004c 	andi	r2,r2,1
    2a9c:	e0bffc05 	stb	r2,-16(fp)


	//"00:00"(00)
	status1 = setDefaultTagBlock( &(scrHeaderInst->tagTime), "00:00:00", width - (marginX<<1), height - (marginY<<1) );
    2aa0:	e0bffd17 	ldw	r2,-12(fp)
    2aa4:	11000404 	addi	r4,r2,16
    2aa8:	e0fffe0b 	ldhu	r3,-8(fp)
    2aac:	e0bffb0b 	ldhu	r2,-20(fp)
    2ab0:	1085883a 	add	r2,r2,r2
    2ab4:	1885c83a 	sub	r2,r3,r2
    2ab8:	11bfffcc 	andi	r6,r2,65535
    2abc:	31a0001c 	xori	r6,r6,32768
    2ac0:	31a00004 	addi	r6,r6,-32768
    2ac4:	e0ffff0b 	ldhu	r3,-4(fp)
    2ac8:	e0bffb8b 	ldhu	r2,-18(fp)
    2acc:	1085883a 	add	r2,r2,r2
    2ad0:	1885c83a 	sub	r2,r3,r2
    2ad4:	10bfffcc 	andi	r2,r2,65535
    2ad8:	10a0001c 	xori	r2,r2,32768
    2adc:	10a00004 	addi	r2,r2,-32768
    2ae0:	014003f4 	movhi	r5,15
    2ae4:	29407e04 	addi	r5,r5,504
    2ae8:	100f883a 	mov	r7,r2
    2aec:	0000c6c0 	call	c6c <setDefaultTagBlock>
    2af0:	e0bffc45 	stb	r2,-15(fp)
	status = status && status1;
    2af4:	e0bffc03 	ldbu	r2,-16(fp)
    2af8:	10000426 	beq	r2,zero,2b0c <screenHeaderInit+0x170>
    2afc:	e0bffc43 	ldbu	r2,-15(fp)
    2b00:	10000226 	beq	r2,zero,2b0c <screenHeaderInit+0x170>
    2b04:	00800044 	movi	r2,1
    2b08:	00000106 	br	2b10 <screenHeaderInit+0x174>
    2b0c:	0005883a 	mov	r2,zero
    2b10:	e0bffc05 	stb	r2,-16(fp)
    2b14:	e0bffc03 	ldbu	r2,-16(fp)
    2b18:	1080004c 	andi	r2,r2,1
    2b1c:	e0bffc05 	stb	r2,-16(fp)
//	(scrHeaderInst->tagTime).borderVisible = false;

	return status;
    2b20:	e0bffc03 	ldbu	r2,-16(fp)
}
    2b24:	e037883a 	mov	sp,fp
    2b28:	dfc00117 	ldw	ra,4(sp)
    2b2c:	df000017 	ldw	fp,0(sp)
    2b30:	dec00204 	addi	sp,sp,8
    2b34:	f800283a 	ret

00002b38 <screenFooterInit>:
bool screenFooterInit( ScreenFooterBtn *scrFooterInst, short width, short height )
{
    2b38:	defff604 	addi	sp,sp,-40
    2b3c:	dfc00915 	stw	ra,36(sp)
    2b40:	df000815 	stw	fp,32(sp)
    2b44:	df000804 	addi	fp,sp,32
    2b48:	e13ffd15 	stw	r4,-12(fp)
    2b4c:	2807883a 	mov	r3,r5
    2b50:	3005883a 	mov	r2,r6
    2b54:	e0fffe0d 	sth	r3,-8(fp)
    2b58:	e0bfff0d 	sth	r2,-4(fp)
	scrFooterInst->bkgBorderColor = defaultColorInfo;
    2b5c:	e0bffd17 	ldw	r2,-12(fp)
    2b60:	d0e0040b 	ldhu	r3,-32752(gp)
    2b64:	10c0000d 	sth	r3,0(r2)
    2b68:	d0e00484 	addi	r3,gp,-32750
    2b6c:	18c0000b 	ldhu	r3,0(r3)
    2b70:	10c0008d 	sth	r3,2(r2)
    2b74:	d0e00504 	addi	r3,gp,-32748
    2b78:	18c0000b 	ldhu	r3,0(r3)
    2b7c:	10c0010d 	sth	r3,4(r2)
    2b80:	d0e00584 	addi	r3,gp,-32746
    2b84:	18c0000b 	ldhu	r3,0(r3)
    2b88:	10c0018d 	sth	r3,6(r2)

	//SETTING,HOME,BACK
	short marginX = 20;
    2b8c:	00800504 	movi	r2,20
    2b90:	e0bffa0d 	sth	r2,-24(fp)
	short marginY = 10;
    2b94:	00800284 	movi	r2,10
    2b98:	e0bffa8d 	sth	r2,-22(fp)
	short iconBlockHeight = height - (marginY<<1);
    2b9c:	e0ffff0b 	ldhu	r3,-4(fp)
    2ba0:	e0bffa8b 	ldhu	r2,-22(fp)
    2ba4:	1085883a 	add	r2,r2,r2
    2ba8:	1885c83a 	sub	r2,r3,r2
    2bac:	e0bffb0d 	sth	r2,-20(fp)
	short iconBlockWidth = width / 5;
    2bb0:	e0bffe0f 	ldh	r2,-8(fp)
    2bb4:	1009883a 	mov	r4,r2
    2bb8:	01400144 	movi	r5,5
    2bbc:	001b7840 	call	1b784 <__divsi3>
    2bc0:	e0bffb8d 	sth	r2,-18(fp)

	bool status = true, status1;
    2bc4:	00800044 	movi	r2,1
    2bc8:	e0bffc05 	stb	r2,-16(fp)

	status1 = setAreaRange( &(scrFooterInst->iconSettingArea), marginX+1, marginX+iconBlockWidth, marginY+1, height - marginY );
    2bcc:	e0bffd17 	ldw	r2,-12(fp)
    2bd0:	11000204 	addi	r4,r2,8
    2bd4:	e0bffa0b 	ldhu	r2,-24(fp)
    2bd8:	10800044 	addi	r2,r2,1
    2bdc:	117fffcc 	andi	r5,r2,65535
    2be0:	2960001c 	xori	r5,r5,32768
    2be4:	29600004 	addi	r5,r5,-32768
    2be8:	e0fffa0b 	ldhu	r3,-24(fp)
    2bec:	e0bffb8b 	ldhu	r2,-18(fp)
    2bf0:	1885883a 	add	r2,r3,r2
    2bf4:	11bfffcc 	andi	r6,r2,65535
    2bf8:	31a0001c 	xori	r6,r6,32768
    2bfc:	31a00004 	addi	r6,r6,-32768
    2c00:	e0bffa8b 	ldhu	r2,-22(fp)
    2c04:	10800044 	addi	r2,r2,1
    2c08:	11ffffcc 	andi	r7,r2,65535
    2c0c:	39e0001c 	xori	r7,r7,32768
    2c10:	39e00004 	addi	r7,r7,-32768
    2c14:	e0ffff0b 	ldhu	r3,-4(fp)
    2c18:	e0bffa8b 	ldhu	r2,-22(fp)
    2c1c:	1885c83a 	sub	r2,r3,r2
    2c20:	10bfffcc 	andi	r2,r2,65535
    2c24:	10a0001c 	xori	r2,r2,32768
    2c28:	10a00004 	addi	r2,r2,-32768
    2c2c:	d8800015 	stw	r2,0(sp)
    2c30:	00007680 	call	768 <setAreaRange>
    2c34:	e0bffc45 	stb	r2,-15(fp)
	status = status && status1;
    2c38:	e0bffc03 	ldbu	r2,-16(fp)
    2c3c:	10000426 	beq	r2,zero,2c50 <screenFooterInit+0x118>
    2c40:	e0bffc43 	ldbu	r2,-15(fp)
    2c44:	10000226 	beq	r2,zero,2c50 <screenFooterInit+0x118>
    2c48:	00800044 	movi	r2,1
    2c4c:	00000106 	br	2c54 <screenFooterInit+0x11c>
    2c50:	0005883a 	mov	r2,zero
    2c54:	e0bffc05 	stb	r2,-16(fp)
    2c58:	e0bffc03 	ldbu	r2,-16(fp)
    2c5c:	1080004c 	andi	r2,r2,1
    2c60:	e0bffc05 	stb	r2,-16(fp)
	status1 = setAreaRangeCentered( &(scrFooterInst->iconHomeArea), width, height, iconBlockWidth, iconBlockHeight );
    2c64:	e0bffd17 	ldw	r2,-12(fp)
    2c68:	11000a04 	addi	r4,r2,40
    2c6c:	e17ffe0f 	ldh	r5,-8(fp)
    2c70:	e1bfff0f 	ldh	r6,-4(fp)
    2c74:	e0fffb8f 	ldh	r3,-18(fp)
    2c78:	e0bffb0f 	ldh	r2,-20(fp)
    2c7c:	d8800015 	stw	r2,0(sp)
    2c80:	180f883a 	mov	r7,r3
    2c84:	0000af00 	call	af0 <setAreaRangeCentered>
    2c88:	e0bffc45 	stb	r2,-15(fp)
	status = status && status1;
    2c8c:	e0bffc03 	ldbu	r2,-16(fp)
    2c90:	10000426 	beq	r2,zero,2ca4 <screenFooterInit+0x16c>
    2c94:	e0bffc43 	ldbu	r2,-15(fp)
    2c98:	10000226 	beq	r2,zero,2ca4 <screenFooterInit+0x16c>
    2c9c:	00800044 	movi	r2,1
    2ca0:	00000106 	br	2ca8 <screenFooterInit+0x170>
    2ca4:	0005883a 	mov	r2,zero
    2ca8:	e0bffc05 	stb	r2,-16(fp)
    2cac:	e0bffc03 	ldbu	r2,-16(fp)
    2cb0:	1080004c 	andi	r2,r2,1
    2cb4:	e0bffc05 	stb	r2,-16(fp)
	status1 = setAreaRange( &(scrFooterInst->iconBackArea), width-marginX-iconBlockWidth+1, width-marginX, marginY+1, height - marginY );
    2cb8:	e0bffd17 	ldw	r2,-12(fp)
    2cbc:	11001204 	addi	r4,r2,72
    2cc0:	e0fffe0b 	ldhu	r3,-8(fp)
    2cc4:	e0bffa0b 	ldhu	r2,-24(fp)
    2cc8:	1885c83a 	sub	r2,r3,r2
    2ccc:	1007883a 	mov	r3,r2
    2cd0:	e0bffb8b 	ldhu	r2,-18(fp)
    2cd4:	1885c83a 	sub	r2,r3,r2
    2cd8:	10800044 	addi	r2,r2,1
    2cdc:	117fffcc 	andi	r5,r2,65535
    2ce0:	2960001c 	xori	r5,r5,32768
    2ce4:	29600004 	addi	r5,r5,-32768
    2ce8:	e0fffe0b 	ldhu	r3,-8(fp)
    2cec:	e0bffa0b 	ldhu	r2,-24(fp)
    2cf0:	1885c83a 	sub	r2,r3,r2
    2cf4:	11bfffcc 	andi	r6,r2,65535
    2cf8:	31a0001c 	xori	r6,r6,32768
    2cfc:	31a00004 	addi	r6,r6,-32768
    2d00:	e0bffa8b 	ldhu	r2,-22(fp)
    2d04:	10800044 	addi	r2,r2,1
    2d08:	11ffffcc 	andi	r7,r2,65535
    2d0c:	39e0001c 	xori	r7,r7,32768
    2d10:	39e00004 	addi	r7,r7,-32768
    2d14:	e0ffff0b 	ldhu	r3,-4(fp)
    2d18:	e0bffa8b 	ldhu	r2,-22(fp)
    2d1c:	1885c83a 	sub	r2,r3,r2
    2d20:	10bfffcc 	andi	r2,r2,65535
    2d24:	10a0001c 	xori	r2,r2,32768
    2d28:	10a00004 	addi	r2,r2,-32768
    2d2c:	d8800015 	stw	r2,0(sp)
    2d30:	00007680 	call	768 <setAreaRange>
    2d34:	e0bffc45 	stb	r2,-15(fp)
    status = status && status1;
    2d38:	e0bffc03 	ldbu	r2,-16(fp)
    2d3c:	10000426 	beq	r2,zero,2d50 <screenFooterInit+0x218>
    2d40:	e0bffc43 	ldbu	r2,-15(fp)
    2d44:	10000226 	beq	r2,zero,2d50 <screenFooterInit+0x218>
    2d48:	00800044 	movi	r2,1
    2d4c:	00000106 	br	2d54 <screenFooterInit+0x21c>
    2d50:	0005883a 	mov	r2,zero
    2d54:	e0bffc05 	stb	r2,-16(fp)
    2d58:	e0bffc03 	ldbu	r2,-16(fp)
    2d5c:	1080004c 	andi	r2,r2,1
    2d60:	e0bffc05 	stb	r2,-16(fp)

	status1 = setDefaultIconBlock( &(scrFooterInst->iconSetting), icon_setting, iconBlockWidth, iconBlockHeight, ICON_SETTING_X_SIZE, ICON_SETTING_Y_SIZE );
    2d64:	e0bffd17 	ldw	r2,-12(fp)
    2d68:	11000404 	addi	r4,r2,16
    2d6c:	e1bffb8f 	ldh	r6,-18(fp)
    2d70:	e0fffb0f 	ldh	r3,-20(fp)
    2d74:	00800404 	movi	r2,16
    2d78:	d8800015 	stw	r2,0(sp)
    2d7c:	00800404 	movi	r2,16
    2d80:	d8800115 	stw	r2,4(sp)
    2d84:	014003f4 	movhi	r5,15
    2d88:	29403e04 	addi	r5,r5,248
    2d8c:	180f883a 	mov	r7,r3
    2d90:	00016440 	call	1644 <setDefaultIconBlock>
    2d94:	e0bffc45 	stb	r2,-15(fp)
	status = status && status1;
    2d98:	e0bffc03 	ldbu	r2,-16(fp)
    2d9c:	10000426 	beq	r2,zero,2db0 <screenFooterInit+0x278>
    2da0:	e0bffc43 	ldbu	r2,-15(fp)
    2da4:	10000226 	beq	r2,zero,2db0 <screenFooterInit+0x278>
    2da8:	00800044 	movi	r2,1
    2dac:	00000106 	br	2db4 <screenFooterInit+0x27c>
    2db0:	0005883a 	mov	r2,zero
    2db4:	e0bffc05 	stb	r2,-16(fp)
    2db8:	e0bffc03 	ldbu	r2,-16(fp)
    2dbc:	1080004c 	andi	r2,r2,1
    2dc0:	e0bffc05 	stb	r2,-16(fp)
	status1 = setDefaultIconBlock( &(scrFooterInst->iconHome), icon_home, iconBlockWidth, iconBlockHeight, ICON_HOME_X_SIZE, ICON_HOME_Y_SIZE );
    2dc4:	e0bffd17 	ldw	r2,-12(fp)
    2dc8:	11000c04 	addi	r4,r2,48
    2dcc:	e1bffb8f 	ldh	r6,-18(fp)
    2dd0:	e0fffb0f 	ldh	r3,-20(fp)
    2dd4:	00800404 	movi	r2,16
    2dd8:	d8800015 	stw	r2,0(sp)
    2ddc:	00800404 	movi	r2,16
    2de0:	d8800115 	stw	r2,4(sp)
    2de4:	014003f4 	movhi	r5,15
    2de8:	29404604 	addi	r5,r5,280
    2dec:	180f883a 	mov	r7,r3
    2df0:	00016440 	call	1644 <setDefaultIconBlock>
    2df4:	e0bffc45 	stb	r2,-15(fp)
	status = status && status1;
    2df8:	e0bffc03 	ldbu	r2,-16(fp)
    2dfc:	10000426 	beq	r2,zero,2e10 <screenFooterInit+0x2d8>
    2e00:	e0bffc43 	ldbu	r2,-15(fp)
    2e04:	10000226 	beq	r2,zero,2e10 <screenFooterInit+0x2d8>
    2e08:	00800044 	movi	r2,1
    2e0c:	00000106 	br	2e14 <screenFooterInit+0x2dc>
    2e10:	0005883a 	mov	r2,zero
    2e14:	e0bffc05 	stb	r2,-16(fp)
    2e18:	e0bffc03 	ldbu	r2,-16(fp)
    2e1c:	1080004c 	andi	r2,r2,1
    2e20:	e0bffc05 	stb	r2,-16(fp)
	status1 = setDefaultIconBlock( &(scrFooterInst->iconBack), icon_back, iconBlockWidth, iconBlockHeight, ICON_BACK_X_SIZE, ICON_BACK_Y_SIZE );
    2e24:	e0bffd17 	ldw	r2,-12(fp)
    2e28:	11001404 	addi	r4,r2,80
    2e2c:	e1bffb8f 	ldh	r6,-18(fp)
    2e30:	e0fffb0f 	ldh	r3,-20(fp)
    2e34:	00800404 	movi	r2,16
    2e38:	d8800015 	stw	r2,0(sp)
    2e3c:	00800404 	movi	r2,16
    2e40:	d8800115 	stw	r2,4(sp)
    2e44:	014003f4 	movhi	r5,15
    2e48:	29404e04 	addi	r5,r5,312
    2e4c:	180f883a 	mov	r7,r3
    2e50:	00016440 	call	1644 <setDefaultIconBlock>
    2e54:	e0bffc45 	stb	r2,-15(fp)
    status = status && status1;
    2e58:	e0bffc03 	ldbu	r2,-16(fp)
    2e5c:	10000426 	beq	r2,zero,2e70 <screenFooterInit+0x338>
    2e60:	e0bffc43 	ldbu	r2,-15(fp)
    2e64:	10000226 	beq	r2,zero,2e70 <screenFooterInit+0x338>
    2e68:	00800044 	movi	r2,1
    2e6c:	00000106 	br	2e74 <screenFooterInit+0x33c>
    2e70:	0005883a 	mov	r2,zero
    2e74:	e0bffc05 	stb	r2,-16(fp)
    2e78:	e0bffc03 	ldbu	r2,-16(fp)
    2e7c:	1080004c 	andi	r2,r2,1
    2e80:	e0bffc05 	stb	r2,-16(fp)

	return status;
    2e84:	e0bffc03 	ldbu	r2,-16(fp)
}
    2e88:	e037883a 	mov	sp,fp
    2e8c:	dfc00117 	ldw	ra,4(sp)
    2e90:	df000017 	ldw	fp,0(sp)
    2e94:	dec00204 	addi	sp,sp,8
    2e98:	f800283a 	ret

00002e9c <screenMainHomeInit>:

bool screenMainHomeInit( ScreenHome *scrHomeInst, short width, short height, const TxtFilesInfo *txtFilesInfoPtr )
{
    2e9c:	deffda04 	addi	sp,sp,-152
    2ea0:	dfc02515 	stw	ra,148(sp)
    2ea4:	df002415 	stw	fp,144(sp)
    2ea8:	dc402315 	stw	r17,140(sp)
    2eac:	dc002215 	stw	r16,136(sp)
    2eb0:	df002404 	addi	fp,sp,144
    2eb4:	e13ffa15 	stw	r4,-24(fp)
    2eb8:	2807883a 	mov	r3,r5
    2ebc:	3005883a 	mov	r2,r6
    2ec0:	e1fffd15 	stw	r7,-12(fp)
    2ec4:	e0fffb0d 	sth	r3,-20(fp)
    2ec8:	e0bffc0d 	sth	r2,-16(fp)
	scrHomeInst->bkgBorderColor = defaultColorInfo;
    2ecc:	e0bffa17 	ldw	r2,-24(fp)
    2ed0:	d0e0040b 	ldhu	r3,-32752(gp)
    2ed4:	10c0000d 	sth	r3,0(r2)
    2ed8:	d0e00484 	addi	r3,gp,-32750
    2edc:	18c0000b 	ldhu	r3,0(r3)
    2ee0:	10c0008d 	sth	r3,2(r2)
    2ee4:	d0e00504 	addi	r3,gp,-32748
    2ee8:	18c0000b 	ldhu	r3,0(r3)
    2eec:	10c0010d 	sth	r3,4(r2)
    2ef0:	d0e00584 	addi	r3,gp,-32746
    2ef4:	18c0000b 	ldhu	r3,0(r3)
    2ef8:	10c0018d 	sth	r3,6(r2)

	bool status = true, status1;
    2efc:	00800044 	movi	r2,1
    2f00:	e0bfdf05 	stb	r2,-132(fp)

	//
	short blockMarginY = 1;
    2f04:	00800044 	movi	r2,1
    2f08:	e0bfdf8d 	sth	r2,-130(fp)
	short blockHeight = height - (blockMarginY<<1);
    2f0c:	e0fffc0b 	ldhu	r3,-16(fp)
    2f10:	e0bfdf8b 	ldhu	r2,-130(fp)
    2f14:	1085883a 	add	r2,r2,r2
    2f18:	1885c83a 	sub	r2,r3,r2
    2f1c:	e0bfe00d 	sth	r2,-128(fp)

	short numListMarginXL = 1;
    2f20:	00800044 	movi	r2,1
    2f24:	e0bfe08d 	sth	r2,-126(fp)
	short numListWidth = 50;//
    2f28:	00800c84 	movi	r2,50
    2f2c:	e0bfe10d 	sth	r2,-124(fp)

	short scrollBarMarginXR = 1;
    2f30:	00800044 	movi	r2,1
    2f34:	e0bfe18d 	sth	r2,-122(fp)
	short scrollBarWidth = 50;//
    2f38:	00800c84 	movi	r2,50
    2f3c:	e0bfe20d 	sth	r2,-120(fp)
	short scrollBarMarginXL = width - scrollBarMarginXR - scrollBarWidth;
    2f40:	e0fffb0b 	ldhu	r3,-20(fp)
    2f44:	e0bfe18b 	ldhu	r2,-122(fp)
    2f48:	1885c83a 	sub	r2,r3,r2
    2f4c:	1007883a 	mov	r3,r2
    2f50:	e0bfe20b 	ldhu	r2,-120(fp)
    2f54:	1885c83a 	sub	r2,r3,r2
    2f58:	e0bfe28d 	sth	r2,-118(fp)

	short catalogListSpacingL = 2;//txt
    2f5c:	00800084 	movi	r2,2
    2f60:	e0bfe30d 	sth	r2,-116(fp)
	short catalogListSpacingR = 2;//txt
    2f64:	00800084 	movi	r2,2
    2f68:	e0bfe38d 	sth	r2,-114(fp)
	short catalogListMarginXL = numListMarginXL + numListWidth + catalogListSpacingL;
    2f6c:	e0ffe08b 	ldhu	r3,-126(fp)
    2f70:	e0bfe10b 	ldhu	r2,-124(fp)
    2f74:	1885883a 	add	r2,r3,r2
    2f78:	1007883a 	mov	r3,r2
    2f7c:	e0bfe30b 	ldhu	r2,-116(fp)
    2f80:	1885883a 	add	r2,r3,r2
    2f84:	e0bfe40d 	sth	r2,-112(fp)
	short catalogListWidth = width - scrollBarMarginXR - scrollBarWidth - catalogListSpacingR - catalogListMarginXL;
    2f88:	e0fffb0b 	ldhu	r3,-20(fp)
    2f8c:	e0bfe18b 	ldhu	r2,-122(fp)
    2f90:	1885c83a 	sub	r2,r3,r2
    2f94:	1007883a 	mov	r3,r2
    2f98:	e0bfe20b 	ldhu	r2,-120(fp)
    2f9c:	1885c83a 	sub	r2,r3,r2
    2fa0:	1007883a 	mov	r3,r2
    2fa4:	e0bfe38b 	ldhu	r2,-114(fp)
    2fa8:	1885c83a 	sub	r2,r3,r2
    2fac:	1007883a 	mov	r3,r2
    2fb0:	e0bfe40b 	ldhu	r2,-112(fp)
    2fb4:	1885c83a 	sub	r2,r3,r2
    2fb8:	e0bfe48d 	sth	r2,-110(fp)

	//
	short listElemNum = txtFilesInfoPtr->txtFilesNum;//
    2fbc:	e0bffd17 	ldw	r2,-12(fp)
    2fc0:	10844117 	ldw	r2,4356(r2)
    2fc4:	e0bfe50d 	sth	r2,-108(fp)
	short listElemHeight = CATALOG_ROW_HEIGHT;//
    2fc8:	00800484 	movi	r2,18
    2fcc:	e0bfe58d 	sth	r2,-106(fp)


	//
	//TextListmalloctxtFilesInfoPtrTextList
	TextList numList;
	numList.textNum = listElemNum;
    2fd0:	e0bfe50b 	ldhu	r2,-108(fp)
    2fd4:	e0bfed0d 	sth	r2,-76(fp)
	numList.textArray = (TextType*)malloc( sizeof(TextType) * listElemNum );
    2fd8:	e0bfe50f 	ldh	r2,-108(fp)
    2fdc:	10800324 	muli	r2,r2,12
    2fe0:	1009883a 	mov	r4,r2
    2fe4:	001f6040 	call	1f604 <malloc>
    2fe8:	e0bfec15 	stw	r2,-80(fp)
	TextType *textAry = numList.textArray;
    2fec:	e0bfec17 	ldw	r2,-80(fp)
    2ff0:	e0bfe615 	stw	r2,-104(fp)
	int i;
	char tempStr[10];
	for ( i = 0; i < listElemNum; i ++ )
    2ff4:	e03fde15 	stw	zero,-136(fp)
    2ff8:	00003306 	br	30c8 <screenMainHomeInit+0x22c>
	{
		sprintf(tempStr, "%2d", i + 1 );//" 1","99"
    2ffc:	e0bfde17 	ldw	r2,-136(fp)
    3000:	10800044 	addi	r2,r2,1
    3004:	e0ffee04 	addi	r3,fp,-72
    3008:	1809883a 	mov	r4,r3
    300c:	014003f4 	movhi	r5,15
    3010:	29407d04 	addi	r5,r5,500
    3014:	100d883a 	mov	r6,r2
    3018:	00202300 	call	20230 <sprintf>
		(textAry[i]).text = (char*)malloc( sizeof(char) * 3 );
    301c:	e0bfde17 	ldw	r2,-136(fp)
    3020:	10800324 	muli	r2,r2,12
    3024:	e0ffe617 	ldw	r3,-104(fp)
    3028:	18a1883a 	add	r16,r3,r2
    302c:	010000c4 	movi	r4,3
    3030:	001f6040 	call	1f604 <malloc>
    3034:	80800015 	stw	r2,0(r16)
		((textAry[i]).text)[0] = tempStr[0];
    3038:	e0bfde17 	ldw	r2,-136(fp)
    303c:	10800324 	muli	r2,r2,12
    3040:	e0ffe617 	ldw	r3,-104(fp)
    3044:	1885883a 	add	r2,r3,r2
    3048:	10800017 	ldw	r2,0(r2)
    304c:	e0ffee03 	ldbu	r3,-72(fp)
    3050:	10c00005 	stb	r3,0(r2)
		((textAry[i]).text)[1] = tempStr[1];
    3054:	e0bfde17 	ldw	r2,-136(fp)
    3058:	10800324 	muli	r2,r2,12
    305c:	e0ffe617 	ldw	r3,-104(fp)
    3060:	1885883a 	add	r2,r3,r2
    3064:	10800017 	ldw	r2,0(r2)
    3068:	10800044 	addi	r2,r2,1
    306c:	e0ffee43 	ldbu	r3,-71(fp)
    3070:	10c00005 	stb	r3,0(r2)
		((textAry[i]).text)[2] = 0;
    3074:	e0bfde17 	ldw	r2,-136(fp)
    3078:	10800324 	muli	r2,r2,12
    307c:	e0ffe617 	ldw	r3,-104(fp)
    3080:	1885883a 	add	r2,r3,r2
    3084:	10800017 	ldw	r2,0(r2)
    3088:	10800084 	addi	r2,r2,2
    308c:	10000005 	stb	zero,0(r2)
		(textAry[i]).textLen = 2;
    3090:	e0bfde17 	ldw	r2,-136(fp)
    3094:	10800324 	muli	r2,r2,12
    3098:	e0ffe617 	ldw	r3,-104(fp)
    309c:	1885883a 	add	r2,r3,r2
    30a0:	00c00084 	movi	r3,2
    30a4:	10c0010d 	sth	r3,4(r2)
		(textAry[i]).fmt = GBK;
    30a8:	e0bfde17 	ldw	r2,-136(fp)
    30ac:	10800324 	muli	r2,r2,12
    30b0:	e0ffe617 	ldw	r3,-104(fp)
    30b4:	1885883a 	add	r2,r3,r2
    30b8:	10000215 	stw	zero,8(r2)
	numList.textNum = listElemNum;
	numList.textArray = (TextType*)malloc( sizeof(TextType) * listElemNum );
	TextType *textAry = numList.textArray;
	int i;
	char tempStr[10];
	for ( i = 0; i < listElemNum; i ++ )
    30bc:	e0bfde17 	ldw	r2,-136(fp)
    30c0:	10800044 	addi	r2,r2,1
    30c4:	e0bfde15 	stw	r2,-136(fp)
    30c8:	e0bfe50f 	ldh	r2,-108(fp)
    30cc:	e0ffde17 	ldw	r3,-136(fp)
    30d0:	18bfca16 	blt	r3,r2,2ffc <__alt_data_end+0xf8002ffc>
		(textAry[i]).fmt = GBK;
	}


	TextList catalogList;
	catalogList.textNum = listElemNum;
    30d4:	e0bfe50b 	ldhu	r2,-108(fp)
    30d8:	e0bff20d 	sth	r2,-56(fp)
	catalogList.textArray = (TextType*)malloc( sizeof(TextType) * listElemNum );
    30dc:	e0bfe50f 	ldh	r2,-108(fp)
    30e0:	10800324 	muli	r2,r2,12
    30e4:	1009883a 	mov	r4,r2
    30e8:	001f6040 	call	1f604 <malloc>
    30ec:	e0bff115 	stw	r2,-60(fp)
	TextType *catalogAry = catalogList.textArray;
    30f0:	e0bff117 	ldw	r2,-60(fp)
    30f4:	e0bfe715 	stw	r2,-100(fp)
	const TxtFile *txtFileArray = txtFilesInfoPtr->txtFileList;
    30f8:	e0bffd17 	ldw	r2,-12(fp)
    30fc:	e0bfe815 	stw	r2,-96(fp)

	for ( i = 0; i < listElemNum; i ++ )
    3100:	e03fde15 	stw	zero,-136(fp)
    3104:	00001106 	br	314c <screenMainHomeInit+0x2b0>
	{
		catalogAry[i] = (txtFileArray[i]).txtFileName;
    3108:	e0bfde17 	ldw	r2,-136(fp)
    310c:	10800324 	muli	r2,r2,12
    3110:	e0ffe717 	ldw	r3,-100(fp)
    3114:	1885883a 	add	r2,r3,r2
    3118:	e0ffde17 	ldw	r3,-136(fp)
    311c:	18c00b24 	muli	r3,r3,44
    3120:	e13fe817 	ldw	r4,-96(fp)
    3124:	20c7883a 	add	r3,r4,r3
    3128:	19000317 	ldw	r4,12(r3)
    312c:	11000015 	stw	r4,0(r2)
    3130:	19000417 	ldw	r4,16(r3)
    3134:	11000115 	stw	r4,4(r2)
    3138:	18c00517 	ldw	r3,20(r3)
    313c:	10c00215 	stw	r3,8(r2)
	catalogList.textNum = listElemNum;
	catalogList.textArray = (TextType*)malloc( sizeof(TextType) * listElemNum );
	TextType *catalogAry = catalogList.textArray;
	const TxtFile *txtFileArray = txtFilesInfoPtr->txtFileList;

	for ( i = 0; i < listElemNum; i ++ )
    3140:	e0bfde17 	ldw	r2,-136(fp)
    3144:	10800044 	addi	r2,r2,1
    3148:	e0bfde15 	stw	r2,-136(fp)
    314c:	e0bfe50f 	ldh	r2,-108(fp)
    3150:	e0ffde17 	ldw	r3,-136(fp)
    3154:	18bfec16 	blt	r3,r2,3108 <__alt_data_end+0xf8003108>
	{
		catalogAry[i] = (txtFileArray[i]).txtFileName;
	}
	if ( listElemNum <= 0 )
    3158:	e0bfe50f 	ldh	r2,-108(fp)
    315c:	00800416 	blt	zero,r2,3170 <screenMainHomeInit+0x2d4>
    {
        free(catalogList.textArray);
    3160:	e0bff117 	ldw	r2,-60(fp)
    3164:	1009883a 	mov	r4,r2
    3168:	001f6180 	call	1f618 <free>
        catalogList.textArray = NULL;
    316c:	e03ff115 	stw	zero,-60(fp)



	//
    ColorInfo numBarElemColorInfo;
    numBarElemColorInfo.bkgColor = getColor16BitByRGB( 242, 223, 85 );
    3170:	01003c84 	movi	r4,242
    3174:	014037c4 	movi	r5,223
    3178:	01801544 	movi	r6,85
    317c:	000028c0 	call	28c <getColor16BitByRGB>
    3180:	e0bff38d 	sth	r2,-50(fp)
    numBarElemColorInfo.borderColor = getColor16BitByRGB( 159, 152, 11 );
    3184:	010027c4 	movi	r4,159
    3188:	01402604 	movi	r5,152
    318c:	018002c4 	movi	r6,11
    3190:	000028c0 	call	28c <getColor16BitByRGB>
    3194:	e0bff30d 	sth	r2,-52(fp)
    numBarElemColorInfo.objColor = getColor16BitByRGB( 7, 135, 163 );
    3198:	010001c4 	movi	r4,7
    319c:	014021c4 	movi	r5,135
    31a0:	018028c4 	movi	r6,163
    31a4:	000028c0 	call	28c <getColor16BitByRGB>
    31a8:	e0bff40d 	sth	r2,-48(fp)
    numBarElemColorInfo.borderVisible = true;
    31ac:	00800044 	movi	r2,1
    31b0:	e0bff485 	stb	r2,-46(fp)
    numBarElemColorInfo.objVisible = true;
    31b4:	00800044 	movi	r2,1
    31b8:	e0bff4c5 	stb	r2,-45(fp)
	status1 = setAreaRange( &(scrHomeInst->numBarArea), numListMarginXL+1, numListMarginXL+numListWidth,\
    31bc:	e0bffa17 	ldw	r2,-24(fp)
    31c0:	11000604 	addi	r4,r2,24
    31c4:	e0bfe08b 	ldhu	r2,-126(fp)
    31c8:	10800044 	addi	r2,r2,1
    31cc:	117fffcc 	andi	r5,r2,65535
    31d0:	2960001c 	xori	r5,r5,32768
    31d4:	29600004 	addi	r5,r5,-32768
    31d8:	e0ffe08b 	ldhu	r3,-126(fp)
    31dc:	e0bfe10b 	ldhu	r2,-124(fp)
    31e0:	1885883a 	add	r2,r3,r2
    31e4:	11bfffcc 	andi	r6,r2,65535
    31e8:	31a0001c 	xori	r6,r6,32768
    31ec:	31a00004 	addi	r6,r6,-32768
    31f0:	e0bfdf8b 	ldhu	r2,-130(fp)
    31f4:	10800044 	addi	r2,r2,1
    31f8:	11ffffcc 	andi	r7,r2,65535
    31fc:	39e0001c 	xori	r7,r7,32768
    3200:	39e00004 	addi	r7,r7,-32768
    3204:	e0fffc0b 	ldhu	r3,-16(fp)
    3208:	e0bfdf8b 	ldhu	r2,-130(fp)
    320c:	1885c83a 	sub	r2,r3,r2
    3210:	10bfffcc 	andi	r2,r2,65535
    3214:	10a0001c 	xori	r2,r2,32768
    3218:	10a00004 	addi	r2,r2,-32768
    321c:	d8800015 	stw	r2,0(sp)
    3220:	00007680 	call	768 <setAreaRange>
    3224:	e0bfe905 	stb	r2,-92(fp)
							blockMarginY+1, height-blockMarginY );
    status = status && status1;
    3228:	e0bfdf03 	ldbu	r2,-132(fp)
    322c:	10000426 	beq	r2,zero,3240 <screenMainHomeInit+0x3a4>
    3230:	e0bfe903 	ldbu	r2,-92(fp)
    3234:	10000226 	beq	r2,zero,3240 <screenMainHomeInit+0x3a4>
    3238:	00800044 	movi	r2,1
    323c:	00000106 	br	3244 <screenMainHomeInit+0x3a8>
    3240:	0005883a 	mov	r2,zero
    3244:	e0bfdf05 	stb	r2,-132(fp)
    3248:	e0bfdf03 	ldbu	r2,-132(fp)
    324c:	1080004c 	andi	r2,r2,1
    3250:	e0bfdf05 	stb	r2,-132(fp)
    TextType tempText;
    tempText.text = "99";
    3254:	008003f4 	movhi	r2,15
    3258:	10808104 	addi	r2,r2,516
    325c:	e0bff515 	stw	r2,-44(fp)
    tempText.textLen = 2;
    3260:	00800084 	movi	r2,2
    3264:	e0bff60d 	sth	r2,-40(fp)
    tempText.fmt = GBK;
    3268:	e03ff715 	stw	zero,-36(fp)
    int textWidth = getWidthOfText( &tempText );
    326c:	e0bff504 	addi	r2,fp,-44
    3270:	1009883a 	mov	r4,r2
    3274:	0001bcc0 	call	1bcc <getWidthOfText>
    3278:	10bfffcc 	andi	r2,r2,65535
    327c:	10a0001c 	xori	r2,r2,32768
    3280:	10a00004 	addi	r2,r2,-32768
    3284:	e0bfea15 	stw	r2,-88(fp)
	status1 = setDefaultTagList( &(scrHomeInst->numBar), numListWidth, listElemHeight, textWidth,\
    3288:	e0bffa17 	ldw	r2,-24(fp)
    328c:	11000804 	addi	r4,r2,32
    3290:	e17fe10f 	ldh	r5,-124(fp)
    3294:	e1bfe58f 	ldh	r6,-106(fp)
    3298:	e0bfea17 	ldw	r2,-88(fp)
    329c:	10ffffcc 	andi	r3,r2,65535
    32a0:	18e0001c 	xori	r3,r3,32768
    32a4:	18e00004 	addi	r3,r3,-32768
    32a8:	e0bfec04 	addi	r2,fp,-80
    32ac:	d8800015 	stw	r2,0(sp)
    32b0:	e0bff304 	addi	r2,fp,-52
    32b4:	d8800115 	stw	r2,4(sp)
    32b8:	180f883a 	mov	r7,r3
    32bc:	00036cc0 	call	36cc <setDefaultTagList>
    32c0:	e0bfe905 	stb	r2,-92(fp)
                              &numList, &numBarElemColorInfo );
//    printf( "status1 = %s\n", status1?"true":"false" );
    status = status && status1;
    32c4:	e0bfdf03 	ldbu	r2,-132(fp)
    32c8:	10000426 	beq	r2,zero,32dc <screenMainHomeInit+0x440>
    32cc:	e0bfe903 	ldbu	r2,-92(fp)
    32d0:	10000226 	beq	r2,zero,32dc <screenMainHomeInit+0x440>
    32d4:	00800044 	movi	r2,1
    32d8:	00000106 	br	32e0 <screenMainHomeInit+0x444>
    32dc:	0005883a 	mov	r2,zero
    32e0:	e0bfdf05 	stb	r2,-132(fp)
    32e4:	e0bfdf03 	ldbu	r2,-132(fp)
    32e8:	1080004c 	andi	r2,r2,1
    32ec:	e0bfdf05 	stb	r2,-132(fp)
//    printf( "status2 = %s\n", status1?"true":"false" );

	//txt
    ColorInfo txtCatalogElemColorInfo;
    txtCatalogElemColorInfo.bkgColor = getColor16BitByRGB( 72, 193, 133 );
    32f0:	01001204 	movi	r4,72
    32f4:	01403044 	movi	r5,193
    32f8:	01802144 	movi	r6,133
    32fc:	000028c0 	call	28c <getColor16BitByRGB>
    3300:	e0bff88d 	sth	r2,-30(fp)
    txtCatalogElemColorInfo.borderColor = getColor16BitByRGB( 159, 152, 11 );
    3304:	010027c4 	movi	r4,159
    3308:	01402604 	movi	r5,152
    330c:	018002c4 	movi	r6,11
    3310:	000028c0 	call	28c <getColor16BitByRGB>
    3314:	e0bff80d 	sth	r2,-32(fp)
    txtCatalogElemColorInfo.objColor = getColor16BitByRGB( 7, 135, 163 );
    3318:	010001c4 	movi	r4,7
    331c:	014021c4 	movi	r5,135
    3320:	018028c4 	movi	r6,163
    3324:	000028c0 	call	28c <getColor16BitByRGB>
    3328:	e0bff90d 	sth	r2,-28(fp)
    txtCatalogElemColorInfo.borderVisible = true;
    332c:	00800044 	movi	r2,1
    3330:	e0bff985 	stb	r2,-26(fp)
    txtCatalogElemColorInfo.objVisible = true;
    3334:	00800044 	movi	r2,1
    3338:	e0bff9c5 	stb	r2,-25(fp)
	short textMarginXInlistElem = 5;
    333c:	00800144 	movi	r2,5
    3340:	e0bfeb0d 	sth	r2,-84(fp)
	status1 = setAreaRange( &(scrHomeInst->txtCatalogArea), catalogListMarginXL+1, catalogListMarginXL+catalogListWidth,\
    3344:	e0bffa17 	ldw	r2,-24(fp)
    3348:	11001104 	addi	r4,r2,68
    334c:	e0bfe40b 	ldhu	r2,-112(fp)
    3350:	10800044 	addi	r2,r2,1
    3354:	117fffcc 	andi	r5,r2,65535
    3358:	2960001c 	xori	r5,r5,32768
    335c:	29600004 	addi	r5,r5,-32768
    3360:	e0ffe40b 	ldhu	r3,-112(fp)
    3364:	e0bfe48b 	ldhu	r2,-110(fp)
    3368:	1885883a 	add	r2,r3,r2
    336c:	11bfffcc 	andi	r6,r2,65535
    3370:	31a0001c 	xori	r6,r6,32768
    3374:	31a00004 	addi	r6,r6,-32768
    3378:	e0bfdf8b 	ldhu	r2,-130(fp)
    337c:	10800044 	addi	r2,r2,1
    3380:	11ffffcc 	andi	r7,r2,65535
    3384:	39e0001c 	xori	r7,r7,32768
    3388:	39e00004 	addi	r7,r7,-32768
    338c:	e0fffc0b 	ldhu	r3,-16(fp)
    3390:	e0bfdf8b 	ldhu	r2,-130(fp)
    3394:	1885c83a 	sub	r2,r3,r2
    3398:	10bfffcc 	andi	r2,r2,65535
    339c:	10a0001c 	xori	r2,r2,32768
    33a0:	10a00004 	addi	r2,r2,-32768
    33a4:	d8800015 	stw	r2,0(sp)
    33a8:	00007680 	call	768 <setAreaRange>
    33ac:	e0bfe905 	stb	r2,-92(fp)
							blockMarginY+1, height-blockMarginY );
    status = status && status1;
    33b0:	e0bfdf03 	ldbu	r2,-132(fp)
    33b4:	10000426 	beq	r2,zero,33c8 <screenMainHomeInit+0x52c>
    33b8:	e0bfe903 	ldbu	r2,-92(fp)
    33bc:	10000226 	beq	r2,zero,33c8 <screenMainHomeInit+0x52c>
    33c0:	00800044 	movi	r2,1
    33c4:	00000106 	br	33cc <screenMainHomeInit+0x530>
    33c8:	0005883a 	mov	r2,zero
    33cc:	e0bfdf05 	stb	r2,-132(fp)
    33d0:	e0bfdf03 	ldbu	r2,-132(fp)
    33d4:	1080004c 	andi	r2,r2,1
    33d8:	e0bfdf05 	stb	r2,-132(fp)
	status1 = setDefaultTagList( &(scrHomeInst->txtCatalog), catalogListWidth, listElemHeight,\
    33dc:	e0bffa17 	ldw	r2,-24(fp)
    33e0:	11001304 	addi	r4,r2,76
    33e4:	e17fe48f 	ldh	r5,-110(fp)
    33e8:	e1bfe58f 	ldh	r6,-106(fp)
    33ec:	e0ffe48b 	ldhu	r3,-110(fp)
    33f0:	e0bfeb0b 	ldhu	r2,-84(fp)
    33f4:	1085883a 	add	r2,r2,r2
    33f8:	1885c83a 	sub	r2,r3,r2
    33fc:	10ffffcc 	andi	r3,r2,65535
    3400:	18e0001c 	xori	r3,r3,32768
    3404:	18e00004 	addi	r3,r3,-32768
    3408:	e0bff104 	addi	r2,fp,-60
    340c:	d8800015 	stw	r2,0(sp)
    3410:	e0bff804 	addi	r2,fp,-32
    3414:	d8800115 	stw	r2,4(sp)
    3418:	180f883a 	mov	r7,r3
    341c:	00036cc0 	call	36cc <setDefaultTagList>
    3420:	e0bfe905 	stb	r2,-92(fp)
                             catalogListWidth - (textMarginXInlistElem<<1),\
                              &catalogList, &txtCatalogElemColorInfo );
    status = status && status1;
    3424:	e0bfdf03 	ldbu	r2,-132(fp)
    3428:	10000426 	beq	r2,zero,343c <screenMainHomeInit+0x5a0>
    342c:	e0bfe903 	ldbu	r2,-92(fp)
    3430:	10000226 	beq	r2,zero,343c <screenMainHomeInit+0x5a0>
    3434:	00800044 	movi	r2,1
    3438:	00000106 	br	3440 <screenMainHomeInit+0x5a4>
    343c:	0005883a 	mov	r2,zero
    3440:	e0bfdf05 	stb	r2,-132(fp)
    3444:	e0bfdf03 	ldbu	r2,-132(fp)
    3448:	1080004c 	andi	r2,r2,1
    344c:	e0bfdf05 	stb	r2,-132(fp)
//    printf( "status3 = %s\n", status1?"true":"false" );
	//numListPtrcatalogListPtr
	free(numList.textArray);
    3450:	e0bfec17 	ldw	r2,-80(fp)
    3454:	1009883a 	mov	r4,r2
    3458:	001f6180 	call	1f618 <free>

	free(catalogList.textArray);
    345c:	e0bff117 	ldw	r2,-60(fp)
    3460:	1009883a 	mov	r4,r2
    3464:	001f6180 	call	1f618 <free>


	//
	scrHomeInst->listYOffset = 0;//
    3468:	e0bffa17 	ldw	r2,-24(fp)
    346c:	1000020d 	sth	zero,8(r2)
	scrHomeInst->listShowHeight = blockHeight;//
    3470:	e0bffa17 	ldw	r2,-24(fp)
    3474:	e0ffe00b 	ldhu	r3,-128(fp)
    3478:	10c0040d 	sth	r3,16(r2)
	scrHomeInst->listYSize = listElemNum * listElemHeight;//
    347c:	e0ffe50b 	ldhu	r3,-108(fp)
    3480:	e0bfe58b 	ldhu	r2,-106(fp)
    3484:	1885383a 	mul	r2,r3,r2
    3488:	1007883a 	mov	r3,r2
    348c:	e0bffa17 	ldw	r2,-24(fp)
    3490:	10c0030d 	sth	r3,12(r2)
	if ( listElemNum > 0 )
    3494:	e0bfe50f 	ldh	r2,-108(fp)
    3498:	0080220e 	bge	zero,r2,3524 <screenMainHomeInit+0x688>
    {
        scrHomeInst->listShowYRatio = 1.0 * scrHomeInst->listShowHeight / scrHomeInst->listYSize;
    349c:	e0bffa17 	ldw	r2,-24(fp)
    34a0:	1080040b 	ldhu	r2,16(r2)
    34a4:	10bfffcc 	andi	r2,r2,65535
    34a8:	10a0001c 	xori	r2,r2,32768
    34ac:	10a00004 	addi	r2,r2,-32768
    34b0:	1009883a 	mov	r4,r2
    34b4:	001f1840 	call	1f184 <__floatsidf>
    34b8:	1021883a 	mov	r16,r2
    34bc:	1823883a 	mov	r17,r3
    34c0:	e0bffa17 	ldw	r2,-24(fp)
    34c4:	1080030b 	ldhu	r2,12(r2)
    34c8:	10bfffcc 	andi	r2,r2,65535
    34cc:	10a0001c 	xori	r2,r2,32768
    34d0:	10a00004 	addi	r2,r2,-32768
    34d4:	1009883a 	mov	r4,r2
    34d8:	001f1840 	call	1f184 <__floatsidf>
    34dc:	100f883a 	mov	r7,r2
    34e0:	1811883a 	mov	r8,r3
    34e4:	8009883a 	mov	r4,r16
    34e8:	880b883a 	mov	r5,r17
    34ec:	380d883a 	mov	r6,r7
    34f0:	400f883a 	mov	r7,r8
    34f4:	001d75c0 	call	1d75c <__divdf3>
    34f8:	1009883a 	mov	r4,r2
    34fc:	180b883a 	mov	r5,r3
    3500:	2005883a 	mov	r2,r4
    3504:	2807883a 	mov	r3,r5
    3508:	1009883a 	mov	r4,r2
    350c:	180b883a 	mov	r5,r3
    3510:	001f4080 	call	1f408 <__truncdfsf2>
    3514:	1007883a 	mov	r3,r2
    3518:	e0bffa17 	ldw	r2,-24(fp)
    351c:	10c00515 	stw	r3,20(r2)
    3520:	00000406 	br	3534 <screenMainHomeInit+0x698>
    }
	else
    {
        scrHomeInst->listShowYRatio = 10000;
    3524:	e0fffa17 	ldw	r3,-24(fp)
    3528:	00918734 	movhi	r2,17948
    352c:	10900004 	addi	r2,r2,16384
    3530:	18800515 	stw	r2,20(r3)
    }
	scrHomeInst->listYOffsetMax = scrHomeInst->listYSize - blockHeight;
    3534:	e0bffa17 	ldw	r2,-24(fp)
    3538:	1080030b 	ldhu	r2,12(r2)
    353c:	1007883a 	mov	r3,r2
    3540:	e0bfe00b 	ldhu	r2,-128(fp)
    3544:	1885c83a 	sub	r2,r3,r2
    3548:	1007883a 	mov	r3,r2
    354c:	e0bffa17 	ldw	r2,-24(fp)
    3550:	10c0028d 	sth	r3,10(r2)
	scrHomeInst->listYStepSize = CATALOG_ROW_HEIGHT;
    3554:	e0bffa17 	ldw	r2,-24(fp)
    3558:	00c00484 	movi	r3,18
    355c:	10c0038d 	sth	r3,14(r2)

	if ( scrHomeInst->listYOffsetMax < 0 )//
    3560:	e0bffa17 	ldw	r2,-24(fp)
    3564:	1080028b 	ldhu	r2,10(r2)
    3568:	10bfffcc 	andi	r2,r2,65535
    356c:	10a0001c 	xori	r2,r2,32768
    3570:	10a00004 	addi	r2,r2,-32768
    3574:	1000020e 	bge	r2,zero,3580 <screenMainHomeInit+0x6e4>
    {
        scrHomeInst->listYOffsetMax = 0;
    3578:	e0bffa17 	ldw	r2,-24(fp)
    357c:	1000028d 	sth	zero,10(r2)
    }

	//
	status1 = setAreaRange( &(scrHomeInst->turnCatalogBarArea), scrollBarMarginXL + 1, scrollBarMarginXL + scrollBarWidth,\
    3580:	e0bffa17 	ldw	r2,-24(fp)
    3584:	11001f04 	addi	r4,r2,124
    3588:	e0bfe28b 	ldhu	r2,-118(fp)
    358c:	10800044 	addi	r2,r2,1
    3590:	117fffcc 	andi	r5,r2,65535
    3594:	2960001c 	xori	r5,r5,32768
    3598:	29600004 	addi	r5,r5,-32768
    359c:	e0ffe28b 	ldhu	r3,-118(fp)
    35a0:	e0bfe20b 	ldhu	r2,-120(fp)
    35a4:	1885883a 	add	r2,r3,r2
    35a8:	11bfffcc 	andi	r6,r2,65535
    35ac:	31a0001c 	xori	r6,r6,32768
    35b0:	31a00004 	addi	r6,r6,-32768
    35b4:	e0bfdf8b 	ldhu	r2,-130(fp)
    35b8:	10800044 	addi	r2,r2,1
    35bc:	11ffffcc 	andi	r7,r2,65535
    35c0:	39e0001c 	xori	r7,r7,32768
    35c4:	39e00004 	addi	r7,r7,-32768
    35c8:	e0fffc0b 	ldhu	r3,-16(fp)
    35cc:	e0bfdf8b 	ldhu	r2,-130(fp)
    35d0:	1885c83a 	sub	r2,r3,r2
    35d4:	10bfffcc 	andi	r2,r2,65535
    35d8:	10a0001c 	xori	r2,r2,32768
    35dc:	10a00004 	addi	r2,r2,-32768
    35e0:	d8800015 	stw	r2,0(sp)
    35e4:	00007680 	call	768 <setAreaRange>
    35e8:	e0bfe905 	stb	r2,-92(fp)
							blockMarginY+1, height-blockMarginY );
//    printf( "status4 = %s\n", status1?"true":"false" );
    status = status && status1;
    35ec:	e0bfdf03 	ldbu	r2,-132(fp)
    35f0:	10000426 	beq	r2,zero,3604 <screenMainHomeInit+0x768>
    35f4:	e0bfe903 	ldbu	r2,-92(fp)
    35f8:	10000226 	beq	r2,zero,3604 <screenMainHomeInit+0x768>
    35fc:	00800044 	movi	r2,1
    3600:	00000106 	br	3608 <screenMainHomeInit+0x76c>
    3604:	0005883a 	mov	r2,zero
    3608:	e0bfdf05 	stb	r2,-132(fp)
    360c:	e0bfdf03 	ldbu	r2,-132(fp)
    3610:	1080004c 	andi	r2,r2,1
    3614:	e0bfdf05 	stb	r2,-132(fp)
	status1 = setDefaultScrollBarY( &(scrHomeInst->turnCatalogBarY), scrollBarWidth, blockHeight, scrHomeInst->listShowYRatio );
    3618:	e0bffa17 	ldw	r2,-24(fp)
    361c:	11002104 	addi	r4,r2,132
    3620:	e17fe20f 	ldh	r5,-120(fp)
    3624:	e1bfe00f 	ldh	r6,-128(fp)
    3628:	e0bffa17 	ldw	r2,-24(fp)
    362c:	10c00517 	ldw	r3,20(r2)
    3630:	180f883a 	mov	r7,r3
    3634:	00010e80 	call	10e8 <setDefaultScrollBarY>
    3638:	e0bfe905 	stb	r2,-92(fp)
    status = status && status1;
    363c:	e0bfdf03 	ldbu	r2,-132(fp)
    3640:	10000426 	beq	r2,zero,3654 <screenMainHomeInit+0x7b8>
    3644:	e0bfe903 	ldbu	r2,-92(fp)
    3648:	10000226 	beq	r2,zero,3654 <screenMainHomeInit+0x7b8>
    364c:	00800044 	movi	r2,1
    3650:	00000106 	br	3658 <screenMainHomeInit+0x7bc>
    3654:	0005883a 	mov	r2,zero
    3658:	e0bfdf05 	stb	r2,-132(fp)
    365c:	e0bfdf03 	ldbu	r2,-132(fp)
    3660:	1080004c 	andi	r2,r2,1
    3664:	e0bfdf05 	stb	r2,-132(fp)

//    printf( "status5 = %s\n", status1?"true":"false" );

	//
	scrHomeInst->txtScrollable = false;//
    3668:	e0bffa17 	ldw	r2,-24(fp)
    366c:	10001c05 	stb	zero,112(r2)
	scrHomeInst->txtScrollrow = 0;//
    3670:	e0bffa17 	ldw	r2,-24(fp)
    3674:	10001c8d 	sth	zero,114(r2)
	scrHomeInst->txtScrollXOffset = 0;//
    3678:	e0bffa17 	ldw	r2,-24(fp)
    367c:	10001d0d 	sth	zero,116(r2)
	scrHomeInst->txtScrollXStepSize = 0;//
    3680:	e0bffa17 	ldw	r2,-24(fp)
    3684:	10001d8d 	sth	zero,118(r2)
	scrHomeInst->txtScrollwidth = 0;//
    3688:	e0bffa17 	ldw	r2,-24(fp)
    368c:	10001e0d 	sth	zero,120(r2)
	scrHomeInst->txtScrollSpacing = width / 2;//
    3690:	e0bffb0f 	ldh	r2,-20(fp)
    3694:	1006d7fa 	srli	r3,r2,31
    3698:	1885883a 	add	r2,r3,r2
    369c:	1005d07a 	srai	r2,r2,1
    36a0:	1007883a 	mov	r3,r2
    36a4:	e0bffa17 	ldw	r2,-24(fp)
    36a8:	10c01e8d 	sth	r3,122(r2)


	return status;
    36ac:	e0bfdf03 	ldbu	r2,-132(fp)
}
    36b0:	e6fffe04 	addi	sp,fp,-8
    36b4:	dfc00317 	ldw	ra,12(sp)
    36b8:	df000217 	ldw	fp,8(sp)
    36bc:	dc400117 	ldw	r17,4(sp)
    36c0:	dc000017 	ldw	r16,0(sp)
    36c4:	dec00404 	addi	sp,sp,16
    36c8:	f800283a 	ret

000036cc <setDefaultTagList>:
//
bool setDefaultTagList( TagList *TagListInst, short elemWidth, short elemHeight, short textWidth,\
                       TextList *textListPtr, ColorInfo *colorInfoPtr )
{
    36cc:	defff004 	addi	sp,sp,-64
    36d0:	dfc00f15 	stw	ra,60(sp)
    36d4:	df000e15 	stw	fp,56(sp)
    36d8:	df000e04 	addi	fp,sp,56
    36dc:	e13ffc15 	stw	r4,-16(fp)
    36e0:	2809883a 	mov	r4,r5
    36e4:	3007883a 	mov	r3,r6
    36e8:	3805883a 	mov	r2,r7
    36ec:	e13ffd0d 	sth	r4,-12(fp)
    36f0:	e0fffe0d 	sth	r3,-8(fp)
    36f4:	e0bfff0d 	sth	r2,-4(fp)
	//
	bool status = true, status1;
    36f8:	00800044 	movi	r2,1
    36fc:	e0bff305 	stb	r2,-52(fp)


	status1 = setAreaRange( &(TagListInst->elemBaseArea), 1, elemWidth, 1, elemHeight );
    3700:	e13ffc17 	ldw	r4,-16(fp)
    3704:	e0fffd0f 	ldh	r3,-12(fp)
    3708:	e0bffe0f 	ldh	r2,-8(fp)
    370c:	d8800015 	stw	r2,0(sp)
    3710:	01400044 	movi	r5,1
    3714:	180d883a 	mov	r6,r3
    3718:	01c00044 	movi	r7,1
    371c:	00007680 	call	768 <setAreaRange>
    3720:	e0bff885 	stb	r2,-30(fp)
	status = status && status1;
    3724:	e0bff303 	ldbu	r2,-52(fp)
    3728:	10000426 	beq	r2,zero,373c <setDefaultTagList+0x70>
    372c:	e0bff883 	ldbu	r2,-30(fp)
    3730:	10000226 	beq	r2,zero,373c <setDefaultTagList+0x70>
    3734:	00800044 	movi	r2,1
    3738:	00000106 	br	3740 <setDefaultTagList+0x74>
    373c:	0005883a 	mov	r2,zero
    3740:	e0bff305 	stb	r2,-52(fp)
    3744:	e0bff303 	ldbu	r2,-52(fp)
    3748:	1080004c 	andi	r2,r2,1
    374c:	e0bff305 	stb	r2,-52(fp)
	//
	short marginXL = ( elemWidth - textWidth )>>1;
    3750:	e0fffd0f 	ldh	r3,-12(fp)
    3754:	e0bfff0f 	ldh	r2,-4(fp)
    3758:	1885c83a 	sub	r2,r3,r2
    375c:	1005d07a 	srai	r2,r2,1
    3760:	e0bff38d 	sth	r2,-50(fp)
	short marginXR = elemWidth - marginXL - textWidth;
    3764:	e0fffd0b 	ldhu	r3,-12(fp)
    3768:	e0bff38b 	ldhu	r2,-50(fp)
    376c:	1885c83a 	sub	r2,r3,r2
    3770:	1007883a 	mov	r3,r2
    3774:	e0bfff0b 	ldhu	r2,-4(fp)
    3778:	1885c83a 	sub	r2,r3,r2
    377c:	e0bff40d 	sth	r2,-48(fp)
	short marginYU = ( elemHeight - SCR_WORD_SIZE_Y )>>1;
    3780:	e0bffe0f 	ldh	r2,-8(fp)
    3784:	10bffc04 	addi	r2,r2,-16
    3788:	1005d07a 	srai	r2,r2,1
    378c:	e0bff48d 	sth	r2,-46(fp)
	short marginYD = elemHeight - marginYU - SCR_WORD_SIZE_Y;
    3790:	e0fffe0b 	ldhu	r3,-8(fp)
    3794:	e0bff48b 	ldhu	r2,-46(fp)
    3798:	1885c83a 	sub	r2,r3,r2
    379c:	10bffc04 	addi	r2,r2,-16
    37a0:	e0bff50d 	sth	r2,-44(fp)

	if ( elemWidth < textWidth )
    37a4:	e0fffd0f 	ldh	r3,-12(fp)
    37a8:	e0bfff0f 	ldh	r2,-4(fp)
    37ac:	1880030e 	bge	r3,r2,37bc <setDefaultTagList+0xf0>
	{
		marginXL = 0;
    37b0:	e03ff38d 	sth	zero,-50(fp)
		marginXR = 0;
    37b4:	e03ff40d 	sth	zero,-48(fp)
		status = false;
    37b8:	e03ff305 	stb	zero,-52(fp)
	}
	if ( elemHeight < SCR_WORD_SIZE_Y )
    37bc:	e0bffe0f 	ldh	r2,-8(fp)
    37c0:	10800408 	cmpgei	r2,r2,16
    37c4:	1000031e 	bne	r2,zero,37d4 <setDefaultTagList+0x108>
    {
        marginYU = 0;
    37c8:	e03ff48d 	sth	zero,-46(fp)
		marginYD = 0;
    37cc:	e03ff50d 	sth	zero,-44(fp)
		status = false;
    37d0:	e03ff305 	stb	zero,-52(fp)
    }

	//
	status1 = setAreaRange( &(TagListInst->elemTextArea), marginXL+1, elemWidth-marginXR, marginYU+1, elemHeight-marginYD );
    37d4:	e0bffc17 	ldw	r2,-16(fp)
    37d8:	11000204 	addi	r4,r2,8
    37dc:	e0bff38b 	ldhu	r2,-50(fp)
    37e0:	10800044 	addi	r2,r2,1
    37e4:	117fffcc 	andi	r5,r2,65535
    37e8:	2960001c 	xori	r5,r5,32768
    37ec:	29600004 	addi	r5,r5,-32768
    37f0:	e0fffd0b 	ldhu	r3,-12(fp)
    37f4:	e0bff40b 	ldhu	r2,-48(fp)
    37f8:	1885c83a 	sub	r2,r3,r2
    37fc:	11bfffcc 	andi	r6,r2,65535
    3800:	31a0001c 	xori	r6,r6,32768
    3804:	31a00004 	addi	r6,r6,-32768
    3808:	e0bff48b 	ldhu	r2,-46(fp)
    380c:	10800044 	addi	r2,r2,1
    3810:	11ffffcc 	andi	r7,r2,65535
    3814:	39e0001c 	xori	r7,r7,32768
    3818:	39e00004 	addi	r7,r7,-32768
    381c:	e0fffe0b 	ldhu	r3,-8(fp)
    3820:	e0bff50b 	ldhu	r2,-44(fp)
    3824:	1885c83a 	sub	r2,r3,r2
    3828:	10bfffcc 	andi	r2,r2,65535
    382c:	10a0001c 	xori	r2,r2,32768
    3830:	10a00004 	addi	r2,r2,-32768
    3834:	d8800015 	stw	r2,0(sp)
    3838:	00007680 	call	768 <setAreaRange>
    383c:	e0bff885 	stb	r2,-30(fp)
	status = status && status1;
    3840:	e0bff303 	ldbu	r2,-52(fp)
    3844:	10000426 	beq	r2,zero,3858 <setDefaultTagList+0x18c>
    3848:	e0bff883 	ldbu	r2,-30(fp)
    384c:	10000226 	beq	r2,zero,3858 <setDefaultTagList+0x18c>
    3850:	00800044 	movi	r2,1
    3854:	00000106 	br	385c <setDefaultTagList+0x190>
    3858:	0005883a 	mov	r2,zero
    385c:	e0bff305 	stb	r2,-52(fp)
    3860:	e0bff303 	ldbu	r2,-52(fp)
    3864:	1080004c 	andi	r2,r2,1
    3868:	e0bff305 	stb	r2,-52(fp)

	short elemNum = textListPtr->textNum;
    386c:	e0800217 	ldw	r2,8(fp)
    3870:	1080010b 	ldhu	r2,4(r2)
    3874:	e0bff90d 	sth	r2,-28(fp)

	TagListInst->wordSpacing = DEFAULT_WORD_SPACING;
    3878:	e0bffc17 	ldw	r2,-16(fp)
    387c:	00c00084 	movi	r3,2
    3880:	10c0040d 	sth	r3,16(r2)
	TagListInst->letterSpacing = DEFAULT_LETTER_SPACING;
    3884:	e0bffc17 	ldw	r2,-16(fp)
    3888:	00c00044 	movi	r3,1
    388c:	10c0048d 	sth	r3,18(r2)

	TagListInst->elemNum = elemNum;
    3890:	e0bffc17 	ldw	r2,-16(fp)
    3894:	e0fff90b 	ldhu	r3,-28(fp)
    3898:	10c0070d 	sth	r3,28(r2)
	TagListInst->elemColorInfo = *colorInfoPtr;
    389c:	e0bffc17 	ldw	r2,-16(fp)
    38a0:	e0c00317 	ldw	r3,12(fp)
    38a4:	1900000b 	ldhu	r4,0(r3)
    38a8:	1100050d 	sth	r4,20(r2)
    38ac:	1900008b 	ldhu	r4,2(r3)
    38b0:	1100058d 	sth	r4,22(r2)
    38b4:	1900010b 	ldhu	r4,4(r3)
    38b8:	1100060d 	sth	r4,24(r2)
    38bc:	18c0018b 	ldhu	r3,6(r3)
    38c0:	10c0068d 	sth	r3,26(r2)

	int i;


	TagBlock *tagBolckArray = (TagBlock*)malloc( sizeof( TagBlock ) * elemNum );
    38c4:	e0bff90f 	ldh	r2,-28(fp)
    38c8:	10800a24 	muli	r2,r2,40
    38cc:	1009883a 	mov	r4,r2
    38d0:	001f6040 	call	1f604 <malloc>
    38d4:	e0bff715 	stw	r2,-36(fp)
	if ( elemNum <= 0 )
    38d8:	e0bff90f 	ldh	r2,-28(fp)
    38dc:	00800316 	blt	zero,r2,38ec <setDefaultTagList+0x220>
    {
        free(tagBolckArray);
    38e0:	e13ff717 	ldw	r4,-36(fp)
    38e4:	001f6180 	call	1f618 <free>
        tagBolckArray = NULL;
    38e8:	e03ff715 	stw	zero,-36(fp)
    }
    TagListInst->elemBlock = tagBolckArray;
    38ec:	e0bffc17 	ldw	r2,-16(fp)
    38f0:	e0fff717 	ldw	r3,-36(fp)
    38f4:	10c00815 	stw	r3,32(r2)


	TagBlock *curTagPtr;
	TextType *textArray = textListPtr->textArray;
    38f8:	e0800217 	ldw	r2,8(fp)
    38fc:	10800017 	ldw	r2,0(r2)
    3900:	e0bffa15 	stw	r2,-24(fp)

	short elemYPos = 0;
    3904:	e03ff80d 	sth	zero,-32(fp)
	for ( i = 0; i < elemNum; i ++ )
    3908:	e03ff615 	stw	zero,-40(fp)
    390c:	00003406 	br	39e0 <setDefaultTagList+0x314>
	{
		curTagPtr = &(tagBolckArray[i]);
    3910:	e0bff617 	ldw	r2,-40(fp)
    3914:	10800a24 	muli	r2,r2,40
    3918:	e0fff717 	ldw	r3,-36(fp)
    391c:	1885883a 	add	r2,r3,r2
    3920:	e0bffb15 	stw	r2,-20(fp)

		curTagPtr->tagColorInfo = TagListInst->elemColorInfo;
    3924:	e0bffb17 	ldw	r2,-20(fp)
    3928:	e0fffc17 	ldw	r3,-16(fp)
    392c:	19000517 	ldw	r4,20(r3)
    3930:	11000215 	stw	r4,8(r2)
    3934:	18c00617 	ldw	r3,24(r3)
    3938:	10c00315 	stw	r3,12(r2)
		curTagPtr->wordSpacing = TagListInst->wordSpacing;
    393c:	e0bffc17 	ldw	r2,-16(fp)
    3940:	10c0040b 	ldhu	r3,16(r2)
    3944:	e0bffb17 	ldw	r2,-20(fp)
    3948:	10c0040d 	sth	r3,16(r2)
		curTagPtr->letterSpacing = TagListInst->letterSpacing;
    394c:	e0bffc17 	ldw	r2,-16(fp)
    3950:	10c0048b 	ldhu	r3,18(r2)
    3954:	e0bffb17 	ldw	r2,-20(fp)
    3958:	10c0048d 	sth	r3,18(r2)
		curTagPtr->wordXSize = SCR_WORD_SIZE_X;
    395c:	e0bffb17 	ldw	r2,-20(fp)
    3960:	00c00404 	movi	r3,16
    3964:	10c0050d 	sth	r3,20(r2)
		curTagPtr->letterXSize = SCR_LETTER_SIZE_X;
    3968:	e0bffb17 	ldw	r2,-20(fp)
    396c:	00c00204 	movi	r3,8
    3970:	10c0058d 	sth	r3,22(r2)
		curTagPtr->objYSize = SCR_OBJ_SIZE_Y;
    3974:	e0bffb17 	ldw	r2,-20(fp)
    3978:	00c00404 	movi	r3,16
    397c:	10c0060d 	sth	r3,24(r2)
		curTagPtr->tagText = textArray[i];
    3980:	e0bff617 	ldw	r2,-40(fp)
    3984:	10800324 	muli	r2,r2,12
    3988:	e0fffa17 	ldw	r3,-24(fp)
    398c:	1887883a 	add	r3,r3,r2
    3990:	e0bffb17 	ldw	r2,-20(fp)
    3994:	19000017 	ldw	r4,0(r3)
    3998:	11000715 	stw	r4,28(r2)
    399c:	19000117 	ldw	r4,4(r3)
    39a0:	11000815 	stw	r4,32(r2)
    39a4:	18c00217 	ldw	r3,8(r3)
    39a8:	10c00915 	stw	r3,36(r2)
		curTagPtr->textArea = TagListInst->elemTextArea;
    39ac:	e0bffb17 	ldw	r2,-20(fp)
    39b0:	e0fffc17 	ldw	r3,-16(fp)
    39b4:	19000217 	ldw	r4,8(r3)
    39b8:	11000015 	stw	r4,0(r2)
    39bc:	18c00317 	ldw	r3,12(r3)
    39c0:	10c00115 	stw	r3,4(r2)

		elemYPos = elemYPos + elemHeight;
    39c4:	e0fff80b 	ldhu	r3,-32(fp)
    39c8:	e0bffe0b 	ldhu	r2,-8(fp)
    39cc:	1885883a 	add	r2,r3,r2
    39d0:	e0bff80d 	sth	r2,-32(fp)

	TagBlock *curTagPtr;
	TextType *textArray = textListPtr->textArray;

	short elemYPos = 0;
	for ( i = 0; i < elemNum; i ++ )
    39d4:	e0bff617 	ldw	r2,-40(fp)
    39d8:	10800044 	addi	r2,r2,1
    39dc:	e0bff615 	stw	r2,-40(fp)
    39e0:	e0bff90f 	ldh	r2,-28(fp)
    39e4:	e0fff617 	ldw	r3,-40(fp)
    39e8:	18bfc916 	blt	r3,r2,3910 <__alt_data_end+0xf8003910>
		curTagPtr->textArea = TagListInst->elemTextArea;

		elemYPos = elemYPos + elemHeight;
	}

	return status;
    39ec:	e0bff303 	ldbu	r2,-52(fp)

}
    39f0:	e037883a 	mov	sp,fp
    39f4:	dfc00117 	ldw	ra,4(sp)
    39f8:	df000017 	ldw	fp,0(sp)
    39fc:	dec00204 	addi	sp,sp,8
    3a00:	f800283a 	ret

00003a04 <screenMainBookInit>:

bool screenMainBookInit( ScreenBook *scrBookInst, short width, short height )
{
    3a04:	deffb004 	addi	sp,sp,-320
    3a08:	dfc04f15 	stw	ra,316(sp)
    3a0c:	df004e15 	stw	fp,312(sp)
    3a10:	df004e04 	addi	fp,sp,312
    3a14:	e13ffd15 	stw	r4,-12(fp)
    3a18:	2807883a 	mov	r3,r5
    3a1c:	3005883a 	mov	r2,r6
    3a20:	e0fffe0d 	sth	r3,-8(fp)
    3a24:	e0bfff0d 	sth	r2,-4(fp)
	bool status = true, status1;
    3a28:	00800044 	movi	r2,1
    3a2c:	e0bfb505 	stb	r2,-300(fp)

	scrBookInst->bookColorInfo = defaultColorInfo;
    3a30:	e0bffd17 	ldw	r2,-12(fp)
    3a34:	d0e0040b 	ldhu	r3,-32752(gp)
    3a38:	10c0000d 	sth	r3,0(r2)
    3a3c:	d0e00484 	addi	r3,gp,-32750
    3a40:	18c0000b 	ldhu	r3,0(r3)
    3a44:	10c0008d 	sth	r3,2(r2)
    3a48:	d0e00504 	addi	r3,gp,-32748
    3a4c:	18c0000b 	ldhu	r3,0(r3)
    3a50:	10c0010d 	sth	r3,4(r2)
    3a54:	d0e00584 	addi	r3,gp,-32746
    3a58:	18c0000b 	ldhu	r3,0(r3)
    3a5c:	10c0018d 	sth	r3,6(r2)


	//
	short leftAreaWidth = width/3;
    3a60:	e0bffe0f 	ldh	r2,-8(fp)
    3a64:	1009883a 	mov	r4,r2
    3a68:	014000c4 	movi	r5,3
    3a6c:	001b7840 	call	1b784 <__divsi3>
    3a70:	e0bfb58d 	sth	r2,-298(fp)
	short rightAreaWidth = width/3;
    3a74:	e0bffe0f 	ldh	r2,-8(fp)
    3a78:	1009883a 	mov	r4,r2
    3a7c:	014000c4 	movi	r5,3
    3a80:	001b7840 	call	1b784 <__divsi3>
    3a84:	e0bfb60d 	sth	r2,-296(fp)
	short middleAreaWidth = width - leftAreaWidth - rightAreaWidth;
    3a88:	e0fffe0b 	ldhu	r3,-8(fp)
    3a8c:	e0bfb58b 	ldhu	r2,-298(fp)
    3a90:	1885c83a 	sub	r2,r3,r2
    3a94:	1007883a 	mov	r3,r2
    3a98:	e0bfb60b 	ldhu	r2,-296(fp)
    3a9c:	1885c83a 	sub	r2,r3,r2
    3aa0:	e0bfb68d 	sth	r2,-294(fp)
	status1 = setAreaRange( &(scrBookInst->turnBackPageAreaPos), 1, leftAreaWidth, 1, height );
    3aa4:	e0bffd17 	ldw	r2,-12(fp)
    3aa8:	11000f04 	addi	r4,r2,60
    3aac:	e0ffb58f 	ldh	r3,-298(fp)
    3ab0:	e0bfff0f 	ldh	r2,-4(fp)
    3ab4:	d8800015 	stw	r2,0(sp)
    3ab8:	01400044 	movi	r5,1
    3abc:	180d883a 	mov	r6,r3
    3ac0:	01c00044 	movi	r7,1
    3ac4:	00007680 	call	768 <setAreaRange>
    3ac8:	e0bfb705 	stb	r2,-292(fp)
	status = status && status1;
    3acc:	e0bfb503 	ldbu	r2,-300(fp)
    3ad0:	10000426 	beq	r2,zero,3ae4 <screenMainBookInit+0xe0>
    3ad4:	e0bfb703 	ldbu	r2,-292(fp)
    3ad8:	10000226 	beq	r2,zero,3ae4 <screenMainBookInit+0xe0>
    3adc:	00800044 	movi	r2,1
    3ae0:	00000106 	br	3ae8 <screenMainBookInit+0xe4>
    3ae4:	0005883a 	mov	r2,zero
    3ae8:	e0bfb505 	stb	r2,-300(fp)
    3aec:	e0bfb503 	ldbu	r2,-300(fp)
    3af0:	1080004c 	andi	r2,r2,1
    3af4:	e0bfb505 	stb	r2,-300(fp)
	status1 = setAreaRange( &(scrBookInst->openPageInfoAreaPos), leftAreaWidth+1, leftAreaWidth+middleAreaWidth, 1, height );
    3af8:	e0bffd17 	ldw	r2,-12(fp)
    3afc:	11001304 	addi	r4,r2,76
    3b00:	e0bfb58b 	ldhu	r2,-298(fp)
    3b04:	10800044 	addi	r2,r2,1
    3b08:	117fffcc 	andi	r5,r2,65535
    3b0c:	2960001c 	xori	r5,r5,32768
    3b10:	29600004 	addi	r5,r5,-32768
    3b14:	e0ffb58b 	ldhu	r3,-298(fp)
    3b18:	e0bfb68b 	ldhu	r2,-294(fp)
    3b1c:	1885883a 	add	r2,r3,r2
    3b20:	10ffffcc 	andi	r3,r2,65535
    3b24:	18e0001c 	xori	r3,r3,32768
    3b28:	18e00004 	addi	r3,r3,-32768
    3b2c:	e0bfff0f 	ldh	r2,-4(fp)
    3b30:	d8800015 	stw	r2,0(sp)
    3b34:	180d883a 	mov	r6,r3
    3b38:	01c00044 	movi	r7,1
    3b3c:	00007680 	call	768 <setAreaRange>
    3b40:	e0bfb705 	stb	r2,-292(fp)
	status = status && status1;
    3b44:	e0bfb503 	ldbu	r2,-300(fp)
    3b48:	10000426 	beq	r2,zero,3b5c <screenMainBookInit+0x158>
    3b4c:	e0bfb703 	ldbu	r2,-292(fp)
    3b50:	10000226 	beq	r2,zero,3b5c <screenMainBookInit+0x158>
    3b54:	00800044 	movi	r2,1
    3b58:	00000106 	br	3b60 <screenMainBookInit+0x15c>
    3b5c:	0005883a 	mov	r2,zero
    3b60:	e0bfb505 	stb	r2,-300(fp)
    3b64:	e0bfb503 	ldbu	r2,-300(fp)
    3b68:	1080004c 	andi	r2,r2,1
    3b6c:	e0bfb505 	stb	r2,-300(fp)
	status1 = setAreaRange( &(scrBookInst->turnNextPageAreaPos), width-rightAreaWidth+1, width, 1, height );
    3b70:	e0bffd17 	ldw	r2,-12(fp)
    3b74:	11001104 	addi	r4,r2,68
    3b78:	e0fffe0b 	ldhu	r3,-8(fp)
    3b7c:	e0bfb60b 	ldhu	r2,-296(fp)
    3b80:	1885c83a 	sub	r2,r3,r2
    3b84:	10800044 	addi	r2,r2,1
    3b88:	117fffcc 	andi	r5,r2,65535
    3b8c:	2960001c 	xori	r5,r5,32768
    3b90:	29600004 	addi	r5,r5,-32768
    3b94:	e0fffe0f 	ldh	r3,-8(fp)
    3b98:	e0bfff0f 	ldh	r2,-4(fp)
    3b9c:	d8800015 	stw	r2,0(sp)
    3ba0:	180d883a 	mov	r6,r3
    3ba4:	01c00044 	movi	r7,1
    3ba8:	00007680 	call	768 <setAreaRange>
    3bac:	e0bfb705 	stb	r2,-292(fp)
	status = status && status1;
    3bb0:	e0bfb503 	ldbu	r2,-300(fp)
    3bb4:	10000426 	beq	r2,zero,3bc8 <screenMainBookInit+0x1c4>
    3bb8:	e0bfb703 	ldbu	r2,-292(fp)
    3bbc:	10000226 	beq	r2,zero,3bc8 <screenMainBookInit+0x1c4>
    3bc0:	00800044 	movi	r2,1
    3bc4:	00000106 	br	3bcc <screenMainBookInit+0x1c8>
    3bc8:	0005883a 	mov	r2,zero
    3bcc:	e0bfb505 	stb	r2,-300(fp)
    3bd0:	e0bfb503 	ldbu	r2,-300(fp)
    3bd4:	1080004c 	andi	r2,r2,1
    3bd8:	e0bfb505 	stb	r2,-300(fp)

	//
	short bookAreaHeight = BOOK_ROW_HEIGHT * BOOK_COL_NUM;
    3bdc:	00805e84 	movi	r2,378
    3be0:	e0bfb78d 	sth	r2,-290(fp)
	short marginYU = ( height - bookAreaHeight )>>1;
    3be4:	e0ffff0f 	ldh	r3,-4(fp)
    3be8:	e0bfb78f 	ldh	r2,-290(fp)
    3bec:	1885c83a 	sub	r2,r3,r2
    3bf0:	1005d07a 	srai	r2,r2,1
    3bf4:	e0bfb80d 	sth	r2,-288(fp)
	short marginYD = height - bookAreaHeight - marginYU;
    3bf8:	e0ffff0b 	ldhu	r3,-4(fp)
    3bfc:	e0bfb78b 	ldhu	r2,-290(fp)
    3c00:	1885c83a 	sub	r2,r3,r2
    3c04:	1007883a 	mov	r3,r2
    3c08:	e0bfb80b 	ldhu	r2,-288(fp)
    3c0c:	1885c83a 	sub	r2,r3,r2
    3c10:	e0bfb88d 	sth	r2,-286(fp)
	status1 = setAreaRange( &(scrBookInst->txtBookArea), 1, width, marginYU+1, height-marginYD );
    3c14:	e0bffd17 	ldw	r2,-12(fp)
    3c18:	11000204 	addi	r4,r2,8
    3c1c:	e1bffe0f 	ldh	r6,-8(fp)
    3c20:	e0bfb80b 	ldhu	r2,-288(fp)
    3c24:	10800044 	addi	r2,r2,1
    3c28:	11ffffcc 	andi	r7,r2,65535
    3c2c:	39e0001c 	xori	r7,r7,32768
    3c30:	39e00004 	addi	r7,r7,-32768
    3c34:	e0ffff0b 	ldhu	r3,-4(fp)
    3c38:	e0bfb88b 	ldhu	r2,-286(fp)
    3c3c:	1885c83a 	sub	r2,r3,r2
    3c40:	10bfffcc 	andi	r2,r2,65535
    3c44:	10a0001c 	xori	r2,r2,32768
    3c48:	10a00004 	addi	r2,r2,-32768
    3c4c:	d8800015 	stw	r2,0(sp)
    3c50:	01400044 	movi	r5,1
    3c54:	00007680 	call	768 <setAreaRange>
    3c58:	e0bfb705 	stb	r2,-292(fp)
	status = status && status1;
    3c5c:	e0bfb503 	ldbu	r2,-300(fp)
    3c60:	10000426 	beq	r2,zero,3c74 <screenMainBookInit+0x270>
    3c64:	e0bfb703 	ldbu	r2,-292(fp)
    3c68:	10000226 	beq	r2,zero,3c74 <screenMainBookInit+0x270>
    3c6c:	00800044 	movi	r2,1
    3c70:	00000106 	br	3c78 <screenMainBookInit+0x274>
    3c74:	0005883a 	mov	r2,zero
    3c78:	e0bfb505 	stb	r2,-300(fp)
    3c7c:	e0bfb503 	ldbu	r2,-300(fp)
    3c80:	1080004c 	andi	r2,r2,1
    3c84:	e0bfb505 	stb	r2,-300(fp)

	//
	short pageInfoAreaHeight = height/3;
    3c88:	e0bfff0f 	ldh	r2,-4(fp)
    3c8c:	1009883a 	mov	r4,r2
    3c90:	014000c4 	movi	r5,3
    3c94:	001b7840 	call	1b784 <__divsi3>
    3c98:	e0bfb90d 	sth	r2,-284(fp)
	status1 = setAreaRange( &(scrBookInst->pageInfoArea), 1, width, height-pageInfoAreaHeight, height-1 );
    3c9c:	e0bffd17 	ldw	r2,-12(fp)
    3ca0:	11001504 	addi	r4,r2,84
    3ca4:	e1bffe0f 	ldh	r6,-8(fp)
    3ca8:	e0ffff0b 	ldhu	r3,-4(fp)
    3cac:	e0bfb90b 	ldhu	r2,-284(fp)
    3cb0:	1885c83a 	sub	r2,r3,r2
    3cb4:	10ffffcc 	andi	r3,r2,65535
    3cb8:	18e0001c 	xori	r3,r3,32768
    3cbc:	18e00004 	addi	r3,r3,-32768
    3cc0:	e0bfff0b 	ldhu	r2,-4(fp)
    3cc4:	10bfffc4 	addi	r2,r2,-1
    3cc8:	10bfffcc 	andi	r2,r2,65535
    3ccc:	10a0001c 	xori	r2,r2,32768
    3cd0:	10a00004 	addi	r2,r2,-32768
    3cd4:	d8800015 	stw	r2,0(sp)
    3cd8:	01400044 	movi	r5,1
    3cdc:	180f883a 	mov	r7,r3
    3ce0:	00007680 	call	768 <setAreaRange>
    3ce4:	e0bfb705 	stb	r2,-292(fp)
	status = status && status1;
    3ce8:	e0bfb503 	ldbu	r2,-300(fp)
    3cec:	10000426 	beq	r2,zero,3d00 <screenMainBookInit+0x2fc>
    3cf0:	e0bfb703 	ldbu	r2,-292(fp)
    3cf4:	10000226 	beq	r2,zero,3d00 <screenMainBookInit+0x2fc>
    3cf8:	00800044 	movi	r2,1
    3cfc:	00000106 	br	3d04 <screenMainBookInit+0x300>
    3d00:	0005883a 	mov	r2,zero
    3d04:	e0bfb505 	stb	r2,-300(fp)
    3d08:	e0bfb503 	ldbu	r2,-300(fp)
    3d0c:	1080004c 	andi	r2,r2,1
    3d10:	e0bfb505 	stb	r2,-300(fp)

	//
	status1 = setAreaRange( &(scrBookInst->txtBookNarrowArea), 1, width, marginYU+1, height-pageInfoAreaHeight-1 );
    3d14:	e0bffd17 	ldw	r2,-12(fp)
    3d18:	11000404 	addi	r4,r2,16
    3d1c:	e1bffe0f 	ldh	r6,-8(fp)
    3d20:	e0bfb80b 	ldhu	r2,-288(fp)
    3d24:	10800044 	addi	r2,r2,1
    3d28:	11ffffcc 	andi	r7,r2,65535
    3d2c:	39e0001c 	xori	r7,r7,32768
    3d30:	39e00004 	addi	r7,r7,-32768
    3d34:	e0ffff0b 	ldhu	r3,-4(fp)
    3d38:	e0bfb90b 	ldhu	r2,-284(fp)
    3d3c:	1885c83a 	sub	r2,r3,r2
    3d40:	10bfffc4 	addi	r2,r2,-1
    3d44:	10bfffcc 	andi	r2,r2,65535
    3d48:	10a0001c 	xori	r2,r2,32768
    3d4c:	10a00004 	addi	r2,r2,-32768
    3d50:	d8800015 	stw	r2,0(sp)
    3d54:	01400044 	movi	r5,1
    3d58:	00007680 	call	768 <setAreaRange>
    3d5c:	e0bfb705 	stb	r2,-292(fp)
	status = status && status1;
    3d60:	e0bfb503 	ldbu	r2,-300(fp)
    3d64:	10000426 	beq	r2,zero,3d78 <screenMainBookInit+0x374>
    3d68:	e0bfb703 	ldbu	r2,-292(fp)
    3d6c:	10000226 	beq	r2,zero,3d78 <screenMainBookInit+0x374>
    3d70:	00800044 	movi	r2,1
    3d74:	00000106 	br	3d7c <screenMainBookInit+0x378>
    3d78:	0005883a 	mov	r2,zero
    3d7c:	e0bfb505 	stb	r2,-300(fp)
    3d80:	e0bfb503 	ldbu	r2,-300(fp)
    3d84:	1080004c 	andi	r2,r2,1
    3d88:	e0bfb505 	stb	r2,-300(fp)

	//
	scrBookInst->pageInfoVisible = false;
    3d8c:	e0bffd17 	ldw	r2,-12(fp)
    3d90:	10006105 	stb	zero,388(r2)

	TextType textArray[BOOK_COL_NUM];

	int i;
	for( i = 0; i < BOOK_COL_NUM; i ++ )
    3d94:	e03fb415 	stw	zero,-304(fp)
    3d98:	00001b06 	br	3e08 <screenMainBookInit+0x404>
	{
		(textArray[i]).text = txtBookSpace[i];
    3d9c:	e0bfb417 	ldw	r2,-304(fp)
    3da0:	10c011a4 	muli	r3,r2,70
    3da4:	00800bf4 	movhi	r2,47
    3da8:	1087c204 	addi	r2,r2,7944
    3dac:	1887883a 	add	r3,r3,r2
    3db0:	e0bfb417 	ldw	r2,-304(fp)
    3db4:	10800324 	muli	r2,r2,12
    3db8:	e13fb404 	addi	r4,fp,-304
    3dbc:	2085883a 	add	r2,r4,r2
    3dc0:	10800604 	addi	r2,r2,24
    3dc4:	10c00015 	stw	r3,0(r2)
		(textArray[i]).textLen = BOOK_ROW_BYTES*2;
    3dc8:	e0bfb417 	ldw	r2,-304(fp)
    3dcc:	10800324 	muli	r2,r2,12
    3dd0:	e0ffb404 	addi	r3,fp,-304
    3dd4:	1885883a 	add	r2,r3,r2
    3dd8:	10800704 	addi	r2,r2,28
    3ddc:	00c01104 	movi	r3,68
    3de0:	10c0000d 	sth	r3,0(r2)
		(textArray[i]).fmt = GBK;
    3de4:	e0bfb417 	ldw	r2,-304(fp)
    3de8:	10800324 	muli	r2,r2,12
    3dec:	e13fb404 	addi	r4,fp,-304
    3df0:	2085883a 	add	r2,r4,r2
    3df4:	10800804 	addi	r2,r2,32
    3df8:	10000015 	stw	zero,0(r2)
	scrBookInst->pageInfoVisible = false;

	TextType textArray[BOOK_COL_NUM];

	int i;
	for( i = 0; i < BOOK_COL_NUM; i ++ )
    3dfc:	e0bfb417 	ldw	r2,-304(fp)
    3e00:	10800044 	addi	r2,r2,1
    3e04:	e0bfb415 	stw	r2,-304(fp)
    3e08:	e0bfb417 	ldw	r2,-304(fp)
    3e0c:	10800550 	cmplti	r2,r2,21
    3e10:	103fe21e 	bne	r2,zero,3d9c <__alt_data_end+0xf8003d9c>
		(textArray[i]).textLen = BOOK_ROW_BYTES*2;
		(textArray[i]).fmt = GBK;
	}

	ColorInfo colorSel;
	colorSel.bkgColor = color_form[DEFAULT_BOOK_BKG_COLOR];
    3e14:	008000f4 	movhi	r2,3
    3e18:	108fae04 	addi	r2,r2,16056
    3e1c:	10801d8b 	ldhu	r2,118(r2)
    3e20:	e0bff98d 	sth	r2,-26(fp)
	colorSel.borderColor = DEFAULT_BORDER_COLOR;
    3e24:	00bfffc4 	movi	r2,-1
    3e28:	e0bff90d 	sth	r2,-28(fp)
	colorSel.objColor = color_form[DEFAULT_BOOK_TEXT_COLOR];
    3e2c:	008000f4 	movhi	r2,3
    3e30:	108fae04 	addi	r2,r2,16056
    3e34:	1080698b 	ldhu	r2,422(r2)
    3e38:	e0bffa0d 	sth	r2,-24(fp)
	colorSel.borderVisible = false;
    3e3c:	e03ffa85 	stb	zero,-22(fp)
	colorSel.objVisible = true;
    3e40:	00800044 	movi	r2,1
    3e44:	e0bffac5 	stb	r2,-21(fp)
	//TagBlockTagList
	TextList textList = { textArray, BOOK_COL_NUM };
    3e48:	e0bfba04 	addi	r2,fp,-280
    3e4c:	e0bffb15 	stw	r2,-20(fp)
    3e50:	00800544 	movi	r2,21
    3e54:	e0bffc0d 	sth	r2,-16(fp)
	status1 = setDefaultTagList( &(scrBookInst->txtBook), width, BOOK_ROW_HEIGHT, BOOK_ROW_WIDTH,\
    3e58:	e0bffd17 	ldw	r2,-12(fp)
    3e5c:	11000604 	addi	r4,r2,24
    3e60:	e0fffe0f 	ldh	r3,-8(fp)
    3e64:	e0bffb04 	addi	r2,fp,-20
    3e68:	d8800015 	stw	r2,0(sp)
    3e6c:	e0bff904 	addi	r2,fp,-28
    3e70:	d8800115 	stw	r2,4(sp)
    3e74:	180b883a 	mov	r5,r3
    3e78:	01800484 	movi	r6,18
    3e7c:	01c04c84 	movi	r7,306
    3e80:	00036cc0 	call	36cc <setDefaultTagList>
    3e84:	e0bfb705 	stb	r2,-292(fp)
                              &textList, &colorSel );
	status = status && status1;
    3e88:	e0bfb503 	ldbu	r2,-300(fp)
    3e8c:	10000426 	beq	r2,zero,3ea0 <screenMainBookInit+0x49c>
    3e90:	e0bfb703 	ldbu	r2,-292(fp)
    3e94:	10000226 	beq	r2,zero,3ea0 <screenMainBookInit+0x49c>
    3e98:	00800044 	movi	r2,1
    3e9c:	00000106 	br	3ea4 <screenMainBookInit+0x4a0>
    3ea0:	0005883a 	mov	r2,zero
    3ea4:	e0bfb505 	stb	r2,-300(fp)
    3ea8:	e0bfb503 	ldbu	r2,-300(fp)
    3eac:	1080004c 	andi	r2,r2,1
    3eb0:	e0bfb505 	stb	r2,-300(fp)


	//
	status1 = ScreenMainPageInfoInit( &(scrBookInst->pageInfo), width, pageInfoAreaHeight );
    3eb4:	e0bffd17 	ldw	r2,-12(fp)
    3eb8:	11001704 	addi	r4,r2,92
    3ebc:	e0fffe0f 	ldh	r3,-8(fp)
    3ec0:	e0bfb90f 	ldh	r2,-284(fp)
    3ec4:	180b883a 	mov	r5,r3
    3ec8:	100d883a 	mov	r6,r2
    3ecc:	0003f180 	call	3f18 <ScreenMainPageInfoInit>
    3ed0:	e0bfb705 	stb	r2,-292(fp)
	status = status && status1;
    3ed4:	e0bfb503 	ldbu	r2,-300(fp)
    3ed8:	10000426 	beq	r2,zero,3eec <screenMainBookInit+0x4e8>
    3edc:	e0bfb703 	ldbu	r2,-292(fp)
    3ee0:	10000226 	beq	r2,zero,3eec <screenMainBookInit+0x4e8>
    3ee4:	00800044 	movi	r2,1
    3ee8:	00000106 	br	3ef0 <screenMainBookInit+0x4ec>
    3eec:	0005883a 	mov	r2,zero
    3ef0:	e0bfb505 	stb	r2,-300(fp)
    3ef4:	e0bfb503 	ldbu	r2,-300(fp)
    3ef8:	1080004c 	andi	r2,r2,1
    3efc:	e0bfb505 	stb	r2,-300(fp)

	return status;
    3f00:	e0bfb503 	ldbu	r2,-300(fp)
}
    3f04:	e037883a 	mov	sp,fp
    3f08:	dfc00117 	ldw	ra,4(sp)
    3f0c:	df000017 	ldw	fp,0(sp)
    3f10:	dec00204 	addi	sp,sp,8
    3f14:	f800283a 	ret

00003f18 <ScreenMainPageInfoInit>:

bool ScreenMainPageInfoInit( ScreenPageInfo *scrPageInfoInst, short width, short height )
{
    3f18:	deffee04 	addi	sp,sp,-72
    3f1c:	dfc01115 	stw	ra,68(sp)
    3f20:	df001015 	stw	fp,64(sp)
    3f24:	df001004 	addi	fp,sp,64
    3f28:	e13ffd15 	stw	r4,-12(fp)
    3f2c:	2807883a 	mov	r3,r5
    3f30:	3005883a 	mov	r2,r6
    3f34:	e0fffe0d 	sth	r3,-8(fp)
    3f38:	e0bfff0d 	sth	r2,-4(fp)
	//
	scrPageInfoInst->bkgBorderColor = defaultColorInfo;
    3f3c:	e0bffd17 	ldw	r2,-12(fp)
    3f40:	d0e0040b 	ldhu	r3,-32752(gp)
    3f44:	10c0000d 	sth	r3,0(r2)
    3f48:	d0e00484 	addi	r3,gp,-32750
    3f4c:	18c0000b 	ldhu	r3,0(r3)
    3f50:	10c0008d 	sth	r3,2(r2)
    3f54:	d0e00504 	addi	r3,gp,-32748
    3f58:	18c0000b 	ldhu	r3,0(r3)
    3f5c:	10c0010d 	sth	r3,4(r2)
    3f60:	d0e00584 	addi	r3,gp,-32746
    3f64:	18c0000b 	ldhu	r3,0(r3)
    3f68:	10c0018d 	sth	r3,6(r2)
	scrPageInfoInst->txtFileInfo = NULL;
    3f6c:	e0bffd17 	ldw	r2,-12(fp)
    3f70:	10004915 	stw	zero,292(r2)


	bool status = true, status1;
    3f74:	00800044 	movi	r2,1
    3f78:	e0bff105 	stb	r2,-60(fp)

	//
	short prgBarMarginYU = 4;
    3f7c:	00800104 	movi	r2,4
    3f80:	e0bff18d 	sth	r2,-58(fp)
	short prgBarHeight = height * 0.3;
    3f84:	e0bfff0f 	ldh	r2,-4(fp)
    3f88:	1009883a 	mov	r4,r2
    3f8c:	001f1840 	call	1f184 <__floatsidf>
    3f90:	100b883a 	mov	r5,r2
    3f94:	180d883a 	mov	r6,r3
    3f98:	2809883a 	mov	r4,r5
    3f9c:	300b883a 	mov	r5,r6
    3fa0:	018cccf4 	movhi	r6,13107
    3fa4:	318cccc4 	addi	r6,r6,13107
    3fa8:	01cff4f4 	movhi	r7,16339
    3fac:	39ccccc4 	addi	r7,r7,13107
    3fb0:	001e1080 	call	1e108 <__muldf3>
    3fb4:	1009883a 	mov	r4,r2
    3fb8:	180b883a 	mov	r5,r3
    3fbc:	2005883a 	mov	r2,r4
    3fc0:	2807883a 	mov	r3,r5
    3fc4:	1009883a 	mov	r4,r2
    3fc8:	180b883a 	mov	r5,r3
    3fcc:	001f0fc0 	call	1f0fc <__fixdfsi>
    3fd0:	e0bff20d 	sth	r2,-56(fp)
	short prgBarMarginX = 2;
    3fd4:	00800084 	movi	r2,2
    3fd8:	e0bff28d 	sth	r2,-54(fp)
	status1 = setAreaRange( &(scrPageInfoInst->prgBarArea), prgBarMarginX+1, width-prgBarMarginX, prgBarMarginYU+1,\
    3fdc:	e0bffd17 	ldw	r2,-12(fp)
    3fe0:	11000204 	addi	r4,r2,8
    3fe4:	e0bff28b 	ldhu	r2,-54(fp)
    3fe8:	10800044 	addi	r2,r2,1
    3fec:	117fffcc 	andi	r5,r2,65535
    3ff0:	2960001c 	xori	r5,r5,32768
    3ff4:	29600004 	addi	r5,r5,-32768
    3ff8:	e0fffe0b 	ldhu	r3,-8(fp)
    3ffc:	e0bff28b 	ldhu	r2,-54(fp)
    4000:	1885c83a 	sub	r2,r3,r2
    4004:	11bfffcc 	andi	r6,r2,65535
    4008:	31a0001c 	xori	r6,r6,32768
    400c:	31a00004 	addi	r6,r6,-32768
    4010:	e0bff18b 	ldhu	r2,-58(fp)
    4014:	10800044 	addi	r2,r2,1
    4018:	11ffffcc 	andi	r7,r2,65535
    401c:	39e0001c 	xori	r7,r7,32768
    4020:	39e00004 	addi	r7,r7,-32768
    4024:	e0fff18b 	ldhu	r3,-58(fp)
    4028:	e0bff20b 	ldhu	r2,-56(fp)
    402c:	1885883a 	add	r2,r3,r2
    4030:	10bfffcc 	andi	r2,r2,65535
    4034:	10a0001c 	xori	r2,r2,32768
    4038:	10a00004 	addi	r2,r2,-32768
    403c:	d8800015 	stw	r2,0(sp)
    4040:	00007680 	call	768 <setAreaRange>
    4044:	e0bff305 	stb	r2,-52(fp)
						prgBarMarginYU + prgBarHeight  );
    status = status && status1;
    4048:	e0bff103 	ldbu	r2,-60(fp)
    404c:	10000426 	beq	r2,zero,4060 <ScreenMainPageInfoInit+0x148>
    4050:	e0bff303 	ldbu	r2,-52(fp)
    4054:	10000226 	beq	r2,zero,4060 <ScreenMainPageInfoInit+0x148>
    4058:	00800044 	movi	r2,1
    405c:	00000106 	br	4064 <ScreenMainPageInfoInit+0x14c>
    4060:	0005883a 	mov	r2,zero
    4064:	e0bff105 	stb	r2,-60(fp)
    4068:	e0bff103 	ldbu	r2,-60(fp)
    406c:	1080004c 	andi	r2,r2,1
    4070:	e0bff105 	stb	r2,-60(fp)


	status1 = setDefaultProgressBarX( &(scrPageInfoInst->prgBarX), width - (prgBarMarginX<<1), prgBarHeight );
    4074:	e0bffd17 	ldw	r2,-12(fp)
    4078:	11000404 	addi	r4,r2,16
    407c:	e0fffe0b 	ldhu	r3,-8(fp)
    4080:	e0bff28b 	ldhu	r2,-54(fp)
    4084:	1085883a 	add	r2,r2,r2
    4088:	1885c83a 	sub	r2,r3,r2
    408c:	10ffffcc 	andi	r3,r2,65535
    4090:	18e0001c 	xori	r3,r3,32768
    4094:	18e00004 	addi	r3,r3,-32768
    4098:	e0bff20f 	ldh	r2,-56(fp)
    409c:	180b883a 	mov	r5,r3
    40a0:	100d883a 	mov	r6,r2
    40a4:	0000da00 	call	da0 <setDefaultProgressBarX>
    40a8:	e0bff305 	stb	r2,-52(fp)
	status = status && status1;
    40ac:	e0bff103 	ldbu	r2,-60(fp)
    40b0:	10000426 	beq	r2,zero,40c4 <ScreenMainPageInfoInit+0x1ac>
    40b4:	e0bff303 	ldbu	r2,-52(fp)
    40b8:	10000226 	beq	r2,zero,40c4 <ScreenMainPageInfoInit+0x1ac>
    40bc:	00800044 	movi	r2,1
    40c0:	00000106 	br	40c8 <ScreenMainPageInfoInit+0x1b0>
    40c4:	0005883a 	mov	r2,zero
    40c8:	e0bff105 	stb	r2,-60(fp)
    40cc:	e0bff103 	ldbu	r2,-60(fp)
    40d0:	1080004c 	andi	r2,r2,1
    40d4:	e0bff105 	stb	r2,-60(fp)

    //
    short fileBarMarginYU = 4;
    40d8:	00800104 	movi	r2,4
    40dc:	e0bff38d 	sth	r2,-50(fp)
	short fileBarHeight = height * 0.3;
    40e0:	e0bfff0f 	ldh	r2,-4(fp)
    40e4:	1009883a 	mov	r4,r2
    40e8:	001f1840 	call	1f184 <__floatsidf>
    40ec:	100b883a 	mov	r5,r2
    40f0:	180d883a 	mov	r6,r3
    40f4:	2809883a 	mov	r4,r5
    40f8:	300b883a 	mov	r5,r6
    40fc:	018cccf4 	movhi	r6,13107
    4100:	318cccc4 	addi	r6,r6,13107
    4104:	01cff4f4 	movhi	r7,16339
    4108:	39ccccc4 	addi	r7,r7,13107
    410c:	001e1080 	call	1e108 <__muldf3>
    4110:	1009883a 	mov	r4,r2
    4114:	180b883a 	mov	r5,r3
    4118:	2005883a 	mov	r2,r4
    411c:	2807883a 	mov	r3,r5
    4120:	1009883a 	mov	r4,r2
    4124:	180b883a 	mov	r5,r3
    4128:	001f0fc0 	call	1f0fc <__fixdfsi>
    412c:	e0bff40d 	sth	r2,-48(fp)
	short fileBarMarginX = 2;
    4130:	00800084 	movi	r2,2
    4134:	e0bff48d 	sth	r2,-46(fp)
	status1 = setAreaRange( &(scrPageInfoInst->tagFileNameArea), fileBarMarginX + 1, width - fileBarMarginX, \
    4138:	e0bffd17 	ldw	r2,-12(fp)
    413c:	11002504 	addi	r4,r2,148
    4140:	e0bff48b 	ldhu	r2,-46(fp)
    4144:	10800044 	addi	r2,r2,1
    4148:	117fffcc 	andi	r5,r2,65535
    414c:	2960001c 	xori	r5,r5,32768
    4150:	29600004 	addi	r5,r5,-32768
    4154:	e0fffe0b 	ldhu	r3,-8(fp)
    4158:	e0bff48b 	ldhu	r2,-46(fp)
    415c:	1885c83a 	sub	r2,r3,r2
    4160:	11bfffcc 	andi	r6,r2,65535
    4164:	31a0001c 	xori	r6,r6,32768
    4168:	31a00004 	addi	r6,r6,-32768
    416c:	e0fff18b 	ldhu	r3,-58(fp)
    4170:	e0bff20b 	ldhu	r2,-56(fp)
    4174:	1885883a 	add	r2,r3,r2
    4178:	1007883a 	mov	r3,r2
    417c:	e0bff38b 	ldhu	r2,-50(fp)
    4180:	1885883a 	add	r2,r3,r2
    4184:	10800044 	addi	r2,r2,1
    4188:	11ffffcc 	andi	r7,r2,65535
    418c:	39e0001c 	xori	r7,r7,32768
    4190:	39e00004 	addi	r7,r7,-32768
    4194:	e0fff18b 	ldhu	r3,-58(fp)
    4198:	e0bff20b 	ldhu	r2,-56(fp)
    419c:	1885883a 	add	r2,r3,r2
    41a0:	1007883a 	mov	r3,r2
    41a4:	e0bff38b 	ldhu	r2,-50(fp)
    41a8:	1885883a 	add	r2,r3,r2
    41ac:	1007883a 	mov	r3,r2
    41b0:	e0bff40b 	ldhu	r2,-48(fp)
    41b4:	1885883a 	add	r2,r3,r2
    41b8:	10bfffcc 	andi	r2,r2,65535
    41bc:	10a0001c 	xori	r2,r2,32768
    41c0:	10a00004 	addi	r2,r2,-32768
    41c4:	d8800015 	stw	r2,0(sp)
    41c8:	00007680 	call	768 <setAreaRange>
    41cc:	e0bff305 	stb	r2,-52(fp)
                            prgBarMarginYU + prgBarHeight + fileBarMarginYU + 1,\
                            prgBarMarginYU + prgBarHeight + fileBarMarginYU + fileBarHeight   );
    status = status && status1;
    41d0:	e0bff103 	ldbu	r2,-60(fp)
    41d4:	10000426 	beq	r2,zero,41e8 <ScreenMainPageInfoInit+0x2d0>
    41d8:	e0bff303 	ldbu	r2,-52(fp)
    41dc:	10000226 	beq	r2,zero,41e8 <ScreenMainPageInfoInit+0x2d0>
    41e0:	00800044 	movi	r2,1
    41e4:	00000106 	br	41ec <ScreenMainPageInfoInit+0x2d4>
    41e8:	0005883a 	mov	r2,zero
    41ec:	e0bff105 	stb	r2,-60(fp)
    41f0:	e0bff103 	ldbu	r2,-60(fp)
    41f4:	1080004c 	andi	r2,r2,1
    41f8:	e0bff105 	stb	r2,-60(fp)
	status1 = setDefaultTagBlock( &(scrPageInfoInst->tagFileName), "", width-2*fileBarMarginX, fileBarHeight );
    41fc:	e0bffd17 	ldw	r2,-12(fp)
    4200:	11002704 	addi	r4,r2,156
    4204:	e0bff48b 	ldhu	r2,-46(fp)
    4208:	0007883a 	mov	r3,zero
    420c:	1885c83a 	sub	r2,r3,r2
    4210:	1085883a 	add	r2,r2,r2
    4214:	1007883a 	mov	r3,r2
    4218:	e0bffe0b 	ldhu	r2,-8(fp)
    421c:	1885883a 	add	r2,r3,r2
    4220:	10ffffcc 	andi	r3,r2,65535
    4224:	18e0001c 	xori	r3,r3,32768
    4228:	18e00004 	addi	r3,r3,-32768
    422c:	e0bff40f 	ldh	r2,-48(fp)
    4230:	014003f4 	movhi	r5,15
    4234:	29408204 	addi	r5,r5,520
    4238:	180d883a 	mov	r6,r3
    423c:	100f883a 	mov	r7,r2
    4240:	0000c6c0 	call	c6c <setDefaultTagBlock>
    4244:	e0bff305 	stb	r2,-52(fp)

	status = status && status1;
    4248:	e0bff103 	ldbu	r2,-60(fp)
    424c:	10000426 	beq	r2,zero,4260 <ScreenMainPageInfoInit+0x348>
    4250:	e0bff303 	ldbu	r2,-52(fp)
    4254:	10000226 	beq	r2,zero,4260 <ScreenMainPageInfoInit+0x348>
    4258:	00800044 	movi	r2,1
    425c:	00000106 	br	4264 <ScreenMainPageInfoInit+0x34c>
    4260:	0005883a 	mov	r2,zero
    4264:	e0bff105 	stb	r2,-60(fp)
    4268:	e0bff103 	ldbu	r2,-60(fp)
    426c:	1080004c 	andi	r2,r2,1
    4270:	e0bff105 	stb	r2,-60(fp)

    //()
    short tagMarginYU = 5;
    4274:	00800144 	movi	r2,5
    4278:	e0bff50d 	sth	r2,-44(fp)
	short tagMarginYD = 5;
    427c:	00800144 	movi	r2,5
    4280:	e0bff58d 	sth	r2,-42(fp)
	short tagHeight = height - prgBarMarginYU - prgBarHeight - fileBarMarginYU - fileBarHeight - tagMarginYU - tagMarginYD;
    4284:	e0ffff0b 	ldhu	r3,-4(fp)
    4288:	e0bff18b 	ldhu	r2,-58(fp)
    428c:	1885c83a 	sub	r2,r3,r2
    4290:	1007883a 	mov	r3,r2
    4294:	e0bff20b 	ldhu	r2,-56(fp)
    4298:	1885c83a 	sub	r2,r3,r2
    429c:	1007883a 	mov	r3,r2
    42a0:	e0bff38b 	ldhu	r2,-50(fp)
    42a4:	1885c83a 	sub	r2,r3,r2
    42a8:	1007883a 	mov	r3,r2
    42ac:	e0bff40b 	ldhu	r2,-48(fp)
    42b0:	1885c83a 	sub	r2,r3,r2
    42b4:	1007883a 	mov	r3,r2
    42b8:	e0bff50b 	ldhu	r2,-44(fp)
    42bc:	1885c83a 	sub	r2,r3,r2
    42c0:	1007883a 	mov	r3,r2
    42c4:	e0bff58b 	ldhu	r2,-42(fp)
    42c8:	1885c83a 	sub	r2,r3,r2
    42cc:	e0bff60d 	sth	r2,-40(fp)


	//()"100.00%"
	short tagPercentMarginXL = 10;
    42d0:	00800284 	movi	r2,10
    42d4:	e0bff68d 	sth	r2,-38(fp)
	short tagPercWidth = 6 * SCR_LETTER_SIZE_X + 5 * DEFAULT_LETTER_SPACING + 20;//20
    42d8:	00801244 	movi	r2,73
    42dc:	e0bff70d 	sth	r2,-36(fp)
	status1 = setAreaRange( &(scrPageInfoInst->tagPagePercTageArea), tagPercentMarginXL + 1, tagPercentMarginXL + tagPercWidth,\
    42e0:	e0bffd17 	ldw	r2,-12(fp)
    42e4:	11001904 	addi	r4,r2,100
    42e8:	e0bff68b 	ldhu	r2,-38(fp)
    42ec:	10800044 	addi	r2,r2,1
    42f0:	117fffcc 	andi	r5,r2,65535
    42f4:	2960001c 	xori	r5,r5,32768
    42f8:	29600004 	addi	r5,r5,-32768
    42fc:	e0fff68b 	ldhu	r3,-38(fp)
    4300:	e0bff70b 	ldhu	r2,-36(fp)
    4304:	1885883a 	add	r2,r3,r2
    4308:	11bfffcc 	andi	r6,r2,65535
    430c:	31a0001c 	xori	r6,r6,32768
    4310:	31a00004 	addi	r6,r6,-32768
    4314:	e0ffff0b 	ldhu	r3,-4(fp)
    4318:	e0bff58b 	ldhu	r2,-42(fp)
    431c:	1885c83a 	sub	r2,r3,r2
    4320:	1007883a 	mov	r3,r2
    4324:	e0bff60b 	ldhu	r2,-40(fp)
    4328:	1885c83a 	sub	r2,r3,r2
    432c:	10800044 	addi	r2,r2,1
    4330:	11ffffcc 	andi	r7,r2,65535
    4334:	39e0001c 	xori	r7,r7,32768
    4338:	39e00004 	addi	r7,r7,-32768
    433c:	e0ffff0b 	ldhu	r3,-4(fp)
    4340:	e0bff58b 	ldhu	r2,-42(fp)
    4344:	1885c83a 	sub	r2,r3,r2
    4348:	10bfffcc 	andi	r2,r2,65535
    434c:	10a0001c 	xori	r2,r2,32768
    4350:	10a00004 	addi	r2,r2,-32768
    4354:	d8800015 	stw	r2,0(sp)
    4358:	00007680 	call	768 <setAreaRange>
    435c:	e0bff305 	stb	r2,-52(fp)
						height - tagMarginYD - tagHeight + 1 , height - tagMarginYD );
    status = status && status1;
    4360:	e0bff103 	ldbu	r2,-60(fp)
    4364:	10000426 	beq	r2,zero,4378 <ScreenMainPageInfoInit+0x460>
    4368:	e0bff303 	ldbu	r2,-52(fp)
    436c:	10000226 	beq	r2,zero,4378 <ScreenMainPageInfoInit+0x460>
    4370:	00800044 	movi	r2,1
    4374:	00000106 	br	437c <ScreenMainPageInfoInit+0x464>
    4378:	0005883a 	mov	r2,zero
    437c:	e0bff105 	stb	r2,-60(fp)
    4380:	e0bff103 	ldbu	r2,-60(fp)
    4384:	1080004c 	andi	r2,r2,1
    4388:	e0bff105 	stb	r2,-60(fp)
    char *strPercent = (char*)malloc( 10 );
    438c:	01000284 	movi	r4,10
    4390:	001f6040 	call	1f604 <malloc>
    4394:	e0bff815 	stw	r2,-32(fp)
    strcpy( strPercent, "100.00%" );
    4398:	e0bff817 	ldw	r2,-32(fp)
    439c:	00c00c44 	movi	r3,49
    43a0:	10c00005 	stb	r3,0(r2)
    43a4:	00c00c04 	movi	r3,48
    43a8:	10c00045 	stb	r3,1(r2)
    43ac:	00c00c04 	movi	r3,48
    43b0:	10c00085 	stb	r3,2(r2)
    43b4:	00c00b84 	movi	r3,46
    43b8:	10c000c5 	stb	r3,3(r2)
    43bc:	00c00c04 	movi	r3,48
    43c0:	10c00105 	stb	r3,4(r2)
    43c4:	00c00c04 	movi	r3,48
    43c8:	10c00145 	stb	r3,5(r2)
    43cc:	00c00944 	movi	r3,37
    43d0:	10c00185 	stb	r3,6(r2)
    43d4:	100001c5 	stb	zero,7(r2)
	status1 = setDefaultTagBlock( &(scrPageInfoInst->tagPagePercTage), strPercent, tagPercWidth, tagHeight );
    43d8:	e0bffd17 	ldw	r2,-12(fp)
    43dc:	11001b04 	addi	r4,r2,108
    43e0:	e0fff70f 	ldh	r3,-36(fp)
    43e4:	e0bff60f 	ldh	r2,-40(fp)
    43e8:	e17ff817 	ldw	r5,-32(fp)
    43ec:	180d883a 	mov	r6,r3
    43f0:	100f883a 	mov	r7,r2
    43f4:	0000c6c0 	call	c6c <setDefaultTagBlock>
    43f8:	e0bff305 	stb	r2,-52(fp)
	status = status && status1;
    43fc:	e0bff103 	ldbu	r2,-60(fp)
    4400:	10000426 	beq	r2,zero,4414 <ScreenMainPageInfoInit+0x4fc>
    4404:	e0bff303 	ldbu	r2,-52(fp)
    4408:	10000226 	beq	r2,zero,4414 <ScreenMainPageInfoInit+0x4fc>
    440c:	00800044 	movi	r2,1
    4410:	00000106 	br	4418 <ScreenMainPageInfoInit+0x500>
    4414:	0005883a 	mov	r2,zero
    4418:	e0bff105 	stb	r2,-60(fp)
    441c:	e0bff103 	ldbu	r2,-60(fp)
    4420:	1080004c 	andi	r2,r2,1
    4424:	e0bff105 	stb	r2,-60(fp)

    //"1000.2KB"
	short tagFileSizeMarginXR = 10;
    4428:	00800284 	movi	r2,10
    442c:	e0bff90d 	sth	r2,-28(fp)
	short tagFileSizeWidth = 8 * SCR_LETTER_SIZE_X + 7 * DEFAULT_LETTER_SPACING + 10;//10
    4430:	00801444 	movi	r2,81
    4434:	e0bff98d 	sth	r2,-26(fp)

	status1 = setAreaRange( &(scrPageInfoInst->tagFileSizeArea), width-tagFileSizeMarginXR-tagFileSizeWidth+1, width-tagFileSizeMarginXR,\
    4438:	e0bffd17 	ldw	r2,-12(fp)
    443c:	11003d04 	addi	r4,r2,244
    4440:	e0fffe0b 	ldhu	r3,-8(fp)
    4444:	e0bff90b 	ldhu	r2,-28(fp)
    4448:	1885c83a 	sub	r2,r3,r2
    444c:	1007883a 	mov	r3,r2
    4450:	e0bff98b 	ldhu	r2,-26(fp)
    4454:	1885c83a 	sub	r2,r3,r2
    4458:	10800044 	addi	r2,r2,1
    445c:	117fffcc 	andi	r5,r2,65535
    4460:	2960001c 	xori	r5,r5,32768
    4464:	29600004 	addi	r5,r5,-32768
    4468:	e0fffe0b 	ldhu	r3,-8(fp)
    446c:	e0bff90b 	ldhu	r2,-28(fp)
    4470:	1885c83a 	sub	r2,r3,r2
    4474:	11bfffcc 	andi	r6,r2,65535
    4478:	31a0001c 	xori	r6,r6,32768
    447c:	31a00004 	addi	r6,r6,-32768
    4480:	e0ffff0b 	ldhu	r3,-4(fp)
    4484:	e0bff58b 	ldhu	r2,-42(fp)
    4488:	1885c83a 	sub	r2,r3,r2
    448c:	1007883a 	mov	r3,r2
    4490:	e0bff60b 	ldhu	r2,-40(fp)
    4494:	1885c83a 	sub	r2,r3,r2
    4498:	10800044 	addi	r2,r2,1
    449c:	11ffffcc 	andi	r7,r2,65535
    44a0:	39e0001c 	xori	r7,r7,32768
    44a4:	39e00004 	addi	r7,r7,-32768
    44a8:	e0ffff0b 	ldhu	r3,-4(fp)
    44ac:	e0bff58b 	ldhu	r2,-42(fp)
    44b0:	1885c83a 	sub	r2,r3,r2
    44b4:	10bfffcc 	andi	r2,r2,65535
    44b8:	10a0001c 	xori	r2,r2,32768
    44bc:	10a00004 	addi	r2,r2,-32768
    44c0:	d8800015 	stw	r2,0(sp)
    44c4:	00007680 	call	768 <setAreaRange>
    44c8:	e0bff305 	stb	r2,-52(fp)
                        height - tagMarginYD - tagHeight + 1 , height - tagMarginYD );
    status = status && status1;
    44cc:	e0bff103 	ldbu	r2,-60(fp)
    44d0:	10000426 	beq	r2,zero,44e4 <ScreenMainPageInfoInit+0x5cc>
    44d4:	e0bff303 	ldbu	r2,-52(fp)
    44d8:	10000226 	beq	r2,zero,44e4 <ScreenMainPageInfoInit+0x5cc>
    44dc:	00800044 	movi	r2,1
    44e0:	00000106 	br	44e8 <ScreenMainPageInfoInit+0x5d0>
    44e4:	0005883a 	mov	r2,zero
    44e8:	e0bff105 	stb	r2,-60(fp)
    44ec:	e0bff103 	ldbu	r2,-60(fp)
    44f0:	1080004c 	andi	r2,r2,1
    44f4:	e0bff105 	stb	r2,-60(fp)
    char *strFileSize = (char*)malloc( 10 );
    44f8:	01000284 	movi	r4,10
    44fc:	001f6040 	call	1f604 <malloc>
    4500:	e0bffa15 	stw	r2,-24(fp)
    strcpy( strFileSize, "1000.2KB" );
    4504:	e0bffa17 	ldw	r2,-24(fp)
    4508:	00c00c44 	movi	r3,49
    450c:	10c00005 	stb	r3,0(r2)
    4510:	00c00c04 	movi	r3,48
    4514:	10c00045 	stb	r3,1(r2)
    4518:	00c00c04 	movi	r3,48
    451c:	10c00085 	stb	r3,2(r2)
    4520:	00c00c04 	movi	r3,48
    4524:	10c000c5 	stb	r3,3(r2)
    4528:	00c00b84 	movi	r3,46
    452c:	10c00105 	stb	r3,4(r2)
    4530:	00c00c84 	movi	r3,50
    4534:	10c00145 	stb	r3,5(r2)
    4538:	00c012c4 	movi	r3,75
    453c:	10c00185 	stb	r3,6(r2)
    4540:	00c01084 	movi	r3,66
    4544:	10c001c5 	stb	r3,7(r2)
    4548:	10000205 	stb	zero,8(r2)
	status1 = setDefaultTagBlock( &(scrPageInfoInst->tagFileSize), strFileSize, tagFileSizeWidth, tagHeight );
    454c:	e0bffd17 	ldw	r2,-12(fp)
    4550:	11003f04 	addi	r4,r2,252
    4554:	e0fff98f 	ldh	r3,-26(fp)
    4558:	e0bff60f 	ldh	r2,-40(fp)
    455c:	e17ffa17 	ldw	r5,-24(fp)
    4560:	180d883a 	mov	r6,r3
    4564:	100f883a 	mov	r7,r2
    4568:	0000c6c0 	call	c6c <setDefaultTagBlock>
    456c:	e0bff305 	stb	r2,-52(fp)
	status = status && status1;
    4570:	e0bff103 	ldbu	r2,-60(fp)
    4574:	10000426 	beq	r2,zero,4588 <ScreenMainPageInfoInit+0x670>
    4578:	e0bff303 	ldbu	r2,-52(fp)
    457c:	10000226 	beq	r2,zero,4588 <ScreenMainPageInfoInit+0x670>
    4580:	00800044 	movi	r2,1
    4584:	00000106 	br	458c <ScreenMainPageInfoInit+0x674>
    4588:	0005883a 	mov	r2,zero
    458c:	e0bff105 	stb	r2,-60(fp)
    4590:	e0bff103 	ldbu	r2,-60(fp)
    4594:	1080004c 	andi	r2,r2,1
    4598:	e0bff105 	stb	r2,-60(fp)

    //"    GBK    ", " UCS2 BIG  ", "UCS2 LITTLE", "   NONE    " 

	short tagPageCodeWidth = 12 * SCR_LETTER_SIZE_X + 11 * DEFAULT_LETTER_SPACING + 10;//10
    459c:	00801d44 	movi	r2,117
    45a0:	e0bffb0d 	sth	r2,-20(fp)
	short tagPageCodeXSpacing = (width - tagPercentMarginXL - tagFileSizeMarginXR - tagPercWidth - tagFileSizeWidth - tagPageCodeWidth)>>1;
    45a4:	e0fffe0f 	ldh	r3,-8(fp)
    45a8:	e0bff68f 	ldh	r2,-38(fp)
    45ac:	1887c83a 	sub	r3,r3,r2
    45b0:	e0bff90f 	ldh	r2,-28(fp)
    45b4:	1887c83a 	sub	r3,r3,r2
    45b8:	e0bff70f 	ldh	r2,-36(fp)
    45bc:	1887c83a 	sub	r3,r3,r2
    45c0:	e0bff98f 	ldh	r2,-26(fp)
    45c4:	1887c83a 	sub	r3,r3,r2
    45c8:	e0bffb0f 	ldh	r2,-20(fp)
    45cc:	1885c83a 	sub	r2,r3,r2
    45d0:	1005d07a 	srai	r2,r2,1
    45d4:	e0bffb8d 	sth	r2,-18(fp)
    short tagPageCodeMarginX = tagPercentMarginXL + tagPercWidth + tagPageCodeXSpacing;
    45d8:	e0fff68b 	ldhu	r3,-38(fp)
    45dc:	e0bff70b 	ldhu	r2,-36(fp)
    45e0:	1885883a 	add	r2,r3,r2
    45e4:	1007883a 	mov	r3,r2
    45e8:	e0bffb8b 	ldhu	r2,-18(fp)
    45ec:	1885883a 	add	r2,r3,r2
    45f0:	e0bffc0d 	sth	r2,-16(fp)

	status1 = setAreaRange( &(scrPageInfoInst->tagPageCodeArea), tagPageCodeMarginX + 1, tagPageCodeMarginX + tagPageCodeWidth,\
    45f4:	e0bffd17 	ldw	r2,-12(fp)
    45f8:	11003104 	addi	r4,r2,196
    45fc:	e0bffc0b 	ldhu	r2,-16(fp)
    4600:	10800044 	addi	r2,r2,1
    4604:	117fffcc 	andi	r5,r2,65535
    4608:	2960001c 	xori	r5,r5,32768
    460c:	29600004 	addi	r5,r5,-32768
    4610:	e0fffc0b 	ldhu	r3,-16(fp)
    4614:	e0bffb0b 	ldhu	r2,-20(fp)
    4618:	1885883a 	add	r2,r3,r2
    461c:	11bfffcc 	andi	r6,r2,65535
    4620:	31a0001c 	xori	r6,r6,32768
    4624:	31a00004 	addi	r6,r6,-32768
    4628:	e0ffff0b 	ldhu	r3,-4(fp)
