
ebook_1.elf:     file format elf32-littlenios2
ebook_1.elf
architecture: nios2:r1, flags 0x00000112:
EXEC_P, HAS_SYMS, D_PAGED
start address 0x00000244

Program Header:
    LOAD off    0x00001000 vaddr 0x00000000 paddr 0x00000000 align 2**12
         filesz 0x00000020 memsz 0x00000020 flags r-x
    LOAD off    0x00001020 vaddr 0x00000020 paddr 0x00000020 align 2**12
         filesz 0x000d0e10 memsz 0x000d0e10 flags r-x
    LOAD off    0x000d1e30 vaddr 0x000d0e30 paddr 0x000d2a68 align 2**12
         filesz 0x00001c38 memsz 0x00001c38 flags rw-
    LOAD off    0x000d46a0 vaddr 0x000d46a0 paddr 0x000d46a0 align 2**12
         filesz 0x00000000 memsz 0x0004bd48 flags rw-

Sections:
Idx Name          Size      VMA       LMA       File off  Algn
  0 .entry        00000020  00000000  00000000  00001000  2**5
                  CONTENTS, ALLOC, LOAD, READONLY, CODE
  1 .exceptions   00000224  00000020  00000020  00001020  2**2
                  CONTENTS, ALLOC, LOAD, READONLY, CODE
  2 .text         00014ee4  00000244  00000244  00001244  2**2
                  CONTENTS, ALLOC, LOAD, READONLY, CODE
  3 .rodata       000bbd08  00015128  00015128  00016128  2**2
                  CONTENTS, ALLOC, LOAD, READONLY, DATA
  4 .rwdata       00001c38  000d0e30  000d2a68  000d1e30  2**2
                  CONTENTS, ALLOC, LOAD, DATA, SMALL_DATA
  5 .bss          0004bff5  000d46a0  000d46a0  000d46a0  2**2
                  ALLOC, SMALL_DATA
  6 .sdram        00000000  001203e8  001203e8  000d3a68  2**0
                  CONTENTS
  7 .sram         00000000  08000000  08000000  000d3a68  2**0
                  CONTENTS
  8 .comment      00000023  00000000  00000000  000d3a68  2**0
                  CONTENTS, READONLY
  9 .debug_aranges 00000b08  00000000  00000000  000d3a90  2**3
                  CONTENTS, READONLY, DEBUGGING
 10 .debug_info   0001a36d  00000000  00000000  000d4598  2**0
                  CONTENTS, READONLY, DEBUGGING
 11 .debug_abbrev 00006777  00000000  00000000  000ee905  2**0
                  CONTENTS, READONLY, DEBUGGING
 12 .debug_line   00009d79  00000000  00000000  000f507c  2**0
                  CONTENTS, READONLY, DEBUGGING
 13 .debug_frame  00001dfc  00000000  00000000  000fedf8  2**2
                  CONTENTS, READONLY, DEBUGGING
 14 .debug_str    00004845  00000000  00000000  00100bf4  2**0
                  CONTENTS, READONLY, DEBUGGING
 15 .debug_loc    00014d7d  00000000  00000000  00105439  2**0
                  CONTENTS, READONLY, DEBUGGING
 16 .debug_alt_sim_info 00000030  00000000  00000000  0011a1b8  2**2
                  CONTENTS, READONLY, DEBUGGING
 17 .debug_ranges 00001190  00000000  00000000  0011a1e8  2**3
                  CONTENTS, READONLY, DEBUGGING
 18 .thread_model 00000003  00000000  00000000  0011e643  2**0
                  CONTENTS, READONLY
 19 .cpu          00000003  00000000  00000000  0011e646  2**0
                  CONTENTS, READONLY
 20 .qsys         00000001  00000000  00000000  0011e649  2**0
                  CONTENTS, READONLY
 21 .simulation_enabled 00000001  00000000  00000000  0011e64a  2**0
                  CONTENTS, READONLY
 22 .sysid_hash   00000004  00000000  00000000  0011e64b  2**0
                  CONTENTS, READONLY
 23 .sysid_base   00000004  00000000  00000000  0011e64f  2**0
                  CONTENTS, READONLY
 24 .sysid_time   00000004  00000000  00000000  0011e653  2**0
                  CONTENTS, READONLY
 25 .stderr_dev   00000009  00000000  00000000  0011e657  2**0
                  CONTENTS, READONLY
 26 .stdin_dev    00000009  00000000  00000000  0011e660  2**0
                  CONTENTS, READONLY
 27 .stdout_dev   00000009  00000000  00000000  0011e669  2**0
                  CONTENTS, READONLY
 28 .sopc_system_name 0000000b  00000000  00000000  0011e672  2**0
                  CONTENTS, READONLY
 29 .quartus_project_dir 0000002f  00000000  00000000  0011e67d  2**0
                  CONTENTS, READONLY
 30 .sopcinfo     00087392  00000000  00000000  0011e6ac  2**0
                  CONTENTS, READONLY
SYMBOL TABLE:
00000000 l    d  .entry	00000000 .entry
00000020 l    d  .exceptions	00000000 .exceptions
00000244 l    d  .text	00000000 .text
00015128 l    d  .rodata	00000000 .rodata
000d0e30 l    d  .rwdata	00000000 .rwdata
000d46a0 l    d  .bss	00000000 .bss
001203e8 l    d  .sdram	00000000 .sdram
08000000 l    d  .sram	00000000 .sram
00000000 l    d  .comment	00000000 .comment
00000000 l    d  .debug_aranges	00000000 .debug_aranges
00000000 l    d  .debug_info	00000000 .debug_info
00000000 l    d  .debug_abbrev	00000000 .debug_abbrev
00000000 l    d  .debug_line	00000000 .debug_line
00000000 l    d  .debug_frame	00000000 .debug_frame
00000000 l    d  .debug_str	00000000 .debug_str
00000000 l    d  .debug_loc	00000000 .debug_loc
00000000 l    d  .debug_alt_sim_info	00000000 .debug_alt_sim_info
00000000 l    d  .debug_ranges	00000000 .debug_ranges
00000000 l    df *ABS*	00000000 ../ebook_1_bsp//obj/HAL/src/crt0.o
0000028c l       .text	00000000 alt_after_alt_main
00000000 l    df *ABS*	00000000 alt_irq_handler.c
00000000 l    df *ABS*	00000000 alt_instruction_exception_entry.c
00000000 l    df *ABS*	00000000 ascii_font.c
00000000 l    df *ABS*	00000000 color.c
00000000 l    df *ABS*	00000000 font_manage.c
00000000 l    df *ABS*	00000000 gbk_font.c
00000000 l    df *ABS*	00000000 icon_pic.c
00000000 l    df *ABS*	00000000 main.c
00000000 l    df *ABS*	00000000 screen.c
00000000 l    df *ABS*	00000000 screen_display.c
00000000 l    df *ABS*	00000000 time_count.c
00000000 l    df *ABS*	00000000 touch_resp.c
00000000 l    df *ABS*	00000000 txt_read.c
00000000 l    df *ABS*	00000000 lib2-divmod.c
000082f8 l     F .text	0000006c udivmodsi4
00000000 l    df *ABS*	00000000 mulsf3.c
00000000 l    df *ABS*	00000000 fixsfsi.c
00000000 l    df *ABS*	00000000 floatsisf.c
00000000 l    df *ABS*	00000000 libgcc2.c
00000000 l    df *ABS*	00000000 libgcc2.c
00000000 l    df *ABS*	00000000 malloc.c
00000000 l    df *ABS*	00000000 mallocr.c
00000000 l    df *ABS*	00000000 sbrkr.c
00000000 l    df *ABS*	00000000 sprintf.c
00000000 l    df *ABS*	00000000 strlen.c
00000000 l    df *ABS*	00000000 vfprintf.c
000d0bea l     O .rodata	00000010 zeroes.4166
000d0bfa l     O .rodata	00000010 blanks.4165
00000000 l    df *ABS*	00000000 dtoa.c
0000b368 l     F .text	00000200 quorem
00000000 l    df *ABS*	00000000 mallocr.c
00000000 l    df *ABS*	00000000 impure.c
000d1238 l     O .rwdata	00000424 impure_data
00000000 l    df *ABS*	00000000 int_errno.c
00000000 l    df *ABS*	00000000 locale.c
000d167c l     O .rwdata	00000020 lc_ctype_charset
000d165c l     O .rwdata	00000020 lc_message_charset
000d169c l     O .rwdata	00000038 lconv
00000000 l    df *ABS*	00000000 memchr.c
00000000 l    df *ABS*	00000000 memcpy.c
00000000 l    df *ABS*	00000000 mprec.c
000d0c2c l     O .rodata	0000000c p05.2678
00000000 l    df *ABS*	00000000 s_fpclassify.c
00000000 l    df *ABS*	00000000 strcmp.c
00000000 l    df *ABS*	00000000 vfprintf.c
000d0d50 l     O .rodata	00000010 zeroes.4110
000d0d60 l     O .rodata	00000010 blanks.4109
00000000 l    df *ABS*	00000000 mallocr.c
00000000 l    df *ABS*	00000000 memmove.c
00000000 l    df *ABS*	00000000 memset.c
00000000 l    df *ABS*	00000000 mallocr.c
00000000 l    df *ABS*	00000000 libgcc2.c
00000000 l    df *ABS*	00000000 libgcc2.c
00000000 l    df *ABS*	00000000 adddf3.c
00000000 l    df *ABS*	00000000 divdf3.c
00000000 l    df *ABS*	00000000 eqdf2.c
00000000 l    df *ABS*	00000000 gedf2.c
00000000 l    df *ABS*	00000000 ledf2.c
00000000 l    df *ABS*	00000000 muldf3.c
00000000 l    df *ABS*	00000000 subdf3.c
00000000 l    df *ABS*	00000000 fixdfsi.c
00000000 l    df *ABS*	00000000 floatsidf.c
00000000 l    df *ABS*	00000000 floatunsidf.c
00000000 l    df *ABS*	00000000 alt_load.c
00013048 l     F .text	00000064 alt_load_section
00000000 l    df *ABS*	00000000 alt_main.c
00000000 l    df *ABS*	00000000 alt_malloc_lock.c
00000000 l    df *ABS*	00000000 alt_sbrk.c
000d2a40 l     O .rwdata	00000004 heap_end
00000000 l    df *ABS*	00000000 alt_sys_init.c
00013294 l     F .text	00000038 alt_dev_reg
000d16d4 l     O .rwdata	00001060 jtag_uart
000d2734 l     O .rwdata	0000002c led_green
000d2760 l     O .rwdata	0000002c led_red
000d278c l     O .rwdata	0000002c push_buttons
000d27b8 l     O .rwdata	0000002c seg7_0to3
000d27e4 l     O .rwdata	0000002c seg7_4to7
000d2810 l     O .rwdata	0000002c slider_switch
000d283c l     O .rwdata	0000002c Altera_UP_SD_Card_Avalon_Interface_0
00000000 l    df *ABS*	00000000 altera_avalon_jtag_uart_fd.c
00000000 l    df *ABS*	00000000 altera_avalon_jtag_uart_init.c
000135b8 l     F .text	00000208 altera_avalon_jtag_uart_irq
000137c0 l     F .text	000000a8 altera_avalon_jtag_uart_timeout
00000000 l    df *ABS*	00000000 altera_avalon_jtag_uart_ioctl.c
00000000 l    df *ABS*	00000000 altera_avalon_jtag_uart_read.c
00000000 l    df *ABS*	00000000 altera_avalon_jtag_uart_write.c
00000000 l    df *ABS*	00000000 alt_alarm_start.c
00000000 l    df *ABS*	00000000 alt_close.c
00013f20 l     F .text	00000050 alt_get_errno
00000000 l    df *ABS*	00000000 alt_dcache_flush_all.c
00000000 l    df *ABS*	00000000 alt_dev.c
00014084 l     F .text	0000002c alt_dev_null_write
00000000 l    df *ABS*	00000000 alt_dev_llist_insert.c
000140b0 l     F .text	00000050 alt_get_errno
00000000 l    df *ABS*	00000000 alt_do_ctors.c
00000000 l    df *ABS*	00000000 alt_do_dtors.c
00000000 l    df *ABS*	00000000 alt_errno.c
00000000 l    df *ABS*	00000000 alt_icache_flush_all.c
00000000 l    df *ABS*	00000000 alt_io_redirect.c
0001428c l     F .text	000000c0 alt_open_fd
00000000 l    df *ABS*	00000000 alt_irq_register.c
00000000 l    df *ABS*	00000000 alt_irq_vars.c
00000000 l    df *ABS*	00000000 alt_open.c
00014574 l     F .text	00000050 alt_get_errno
000145c4 l     F .text	000000cc alt_file_locked
00000000 l    df *ABS*	00000000 alt_release_fd.c
00000000 l    df *ABS*	00000000 alt_tick.c
00000000 l    df *ABS*	00000000 altera_nios2_gen2_irq.c
00000000 l    df *ABS*	00000000 alt_find_dev.c
00000000 l    df *ABS*	00000000 alt_find_file.c
00000000 l    df *ABS*	00000000 alt_get_fd.c
00000000 l    df *ABS*	00000000 alt_icache_flush.c
00000000 l    df *ABS*	00000000 atexit.c
00000000 l    df *ABS*	00000000 exit.c
00000000 l    df *ABS*	00000000 memcmp.c
00000000 l    df *ABS*	00000000 __atexit.c
00000000 l    df *ABS*	00000000 __call_atexit.c
00000000 l    df *ABS*	00000000 alt_exit.c
000d46d4 g     O .bss	00000004 alt_instruction_exception_handler
000043e8 g     F .text	00000128 screenMainColorPickerInit
0000e1b8 g     F .text	00000074 _mprec_log10
0000e2a4 g     F .text	0000008c __any_on
000d0c38 g     O .rodata	00000028 __mprec_tinytens
0001312c g     F .text	00000078 alt_main
001202e8 g     O .bss	00000100 alt_irq
00006c20 g     F .text	0000020c showScreenPageInfo
000d2a68 g       *ABS*	00000000 __flash_rwdata_start
00011c14 g     F .text	00000084 .hidden __eqdf2
001203e8 g       *ABS*	00000000 __alt_heap_start
08000000 g       *ABS*	00000000 __alt_mem_sram
0000d0a4 g     F .text	0000007c _setlocale_r
00002d7c g     F .text	000002f8 setDefaultTagList
000131c4 g     F .text	00000020 __malloc_unlock
0000f73c g     F .text	0000015c memmove
0000d3a4 g     F .text	000000a8 _Balloc
00008848 g     F .text	00000078 .hidden __fixsfsi
00011c98 g     F .text	000000e0 .hidden __gtdf2
000149e4 g     F .text	00000020 altera_nios2_gen2_irq_init
00000000  w      *UND*	00000000 __errno
00000000 g     F .entry	0000001c __reset
000063c8 g     F .text	00000290 showTagIconGroup
00000020 g       *ABS*	00000000 __flash_exceptions_start
000d46ac g     O .bss	00000004 errno
00004b24 g     F .text	000003c0 showBkgAndBorder
0000e610 g     F .text	00001068 ___svfiprintf_internal_r
00004648 g     F .text	00000218 getXVaildRange
000d46c0 g     O .bss	00000004 alt_argv
000daa10 g       *ABS*	00000000 _gp
00006240 g     F .text	00000188 showTagGroup
000d2890 g     O .rwdata	00000180 alt_fd_list
00003520 g     F .text	000003ec ScreenMainPageInfoInit
000080a0 g     F .text	00000258 showScreen
00014a04 g     F .text	00000090 alt_find_dev
0000d26c g     F .text	00000138 memcpy
00012ed4 g     F .text	000000d0 .hidden __floatsidf
0001434c g     F .text	00000078 alt_io_redirect
00011d78 g     F .text	000000e0 .hidden __ltdf2
00007698 g     F .text	00000234 showScreenMainHome
00015128 g       *ABS*	00000000 __DTOR_END__
00014ce8 g     F .text	0000009c alt_exception_cause_generated_bad_addr
000017a8 g     F .text	00000204 setDefaultTagGroup
0000e330 g     F .text	00000074 __fpclassifyd
0000e114 g     F .text	000000a4 __ratio
00004ee4 g     F .text	00000234 showTextOrIcon
000139bc g     F .text	0000020c altera_avalon_jtag_uart_read
00008a58 g     F .text	00000014 malloc
00008414 g     F .text	00000008 .hidden __udivsi3
000d0c88 g     O .rodata	000000c8 __mprec_tens
00004860 g     F .text	000002c4 showBorder
0000d120 g     F .text	0000000c __locale_charset
00014c5c g     F .text	0000008c alt_icache_flush
000d46a8 g     O .bss	00000004 __malloc_top_pad
000d2a3c g     O .rwdata	00000004 __mb_cur_max
0000d150 g     F .text	0000000c _localeconv_r
000078cc g     F .text	00000250 showScreenMainBook
0011ffc8 g     O .bss	0000000c txtFilesInfoSpace
000d4900 g     O .bss	000006c8 tftlcdScreenInst
0000d7a4 g     F .text	0000003c __i2b
00009228 g     F .text	00000054 _sbrk_r
000057e8 g     F .text	000008d8 showTagWithYOffset
000d2a54 g     O .rwdata	00000004 alt_max_fd
000d46a4 g     O .bss	00000004 __malloc_max_sbrked_mem
000143c4 g     F .text	000001b0 alt_irq_register
00010aac g     F .text	0000089c .hidden __adddf3
0000debc g     F .text	0000011c __b2d
0001051c g     F .text	00000590 .hidden __umoddi3
000d2a34 g     O .rwdata	00000004 _global_impure_ptr
0000f9bc g     F .text	000005a0 _realloc_r
001203e8 g       *ABS*	00000000 __bss_end
00001370 g     F .text	000000dc setDefaultIconBlock
000148e0 g     F .text	00000104 alt_tick
000009c4 g     F .text	0000011c setDefaultTagBlock
0000ff5c g     F .text	000005c0 .hidden __udivdi3
0000044c g     F .text	00000090 setAreaRange
000d0c60 g     O .rodata	00000028 __mprec_bigtens
0000d588 g     F .text	00000104 __s2b
00012fa4 g     F .text	000000a4 .hidden __floatunsidf
0000dc64 g     F .text	00000060 __mcmp
00014848 g     F .text	00000098 alt_alarm_stop
000d46c8 g     O .bss	00000004 alt_irq_active
0011ffd4 g     O .bss	000002df txtBookSpace
000000fc g     F .exceptions	000000d4 alt_irq_handler
000d2868 g     O .rwdata	00000028 alt_dev_null
00007fbc g     F .text	000000e4 showScreenMainColorPicker
000d2a18 g     O .rwdata	00000008 icon_minus
000023c0 g     F .text	0000034c screenFooterInit
00014040 g     F .text	00000044 alt_dcache_flush_all
0000d68c g     F .text	00000068 __hi0bits
00012e4c g     F .text	00000088 .hidden __fixdfsi
000014ec g     F .text	00000128 getWordLetterArrange
000d2a68 g       *ABS*	00000000 __ram_rwdata_end
000d2a4c g     O .rwdata	00000008 alt_dev_list
000d0e30 g       *ABS*	00000000 __ram_rodata_end
00011d78 g     F .text	000000e0 .hidden __ledf2
0000d9dc g     F .text	00000140 __pow5mult
000d46b8 g     O .bss	00000004 __nlocale_changed
0000841c g     F .text	00000008 .hidden __umodsi3
00000e24 g     F .text	0000054c setDefaultScrollBarY
001203e8 g       *ABS*	00000000 end
00013500 g     F .text	000000b8 altera_avalon_jtag_uart_init
000001d0 g     F .exceptions	00000074 alt_instruction_exception_entry
00015128 g       *ABS*	00000000 __CTOR_LIST__
08000000 g       *ABS*	00000000 __alt_stack_pointer
000089f4 g     F .text	00000064 .hidden __clzsi2
000019ac g     F .text	00000520 setDefaultNumEditGroup
00004510 g     F .text	00000070 screenMainAreaInfo
00013bc8 g     F .text	00000218 altera_avalon_jtag_uart_write
0000d184 g     F .text	000000e8 memchr
0000927c g     F .text	00000058 _sprintf_r
0000cdb4 g     F .text	000002f0 _free_r
0000d12c g     F .text	00000010 __locale_mb_cur_max
00014f60 g     F .text	00000194 __call_exitprocs
000d46b4 g     O .bss	00000004 __mlocale_changed
000d2a2c g     O .rwdata	00000004 __malloc_sbrk_base
00000244 g     F .text	0000004c _start
000d46cc g     O .bss	00000004 _alt_tick_rate
0000db1c g     F .text	00000148 __lshift
00006fcc g     F .text	000003dc showColorBoard
000d46d0 g     O .bss	00000004 _alt_nticks
00013300 g     F .text	0000009c alt_sys_init
000088c0 g     F .text	00000134 .hidden __floatsisf
0000e448 g     F .text	000001c8 __ssprint_r
00014e4c g     F .text	00000114 __register_exitproc
000004dc g     F .text	00000258 setAreaRangeByAreaFmt
000d09c8 g     O .rodata	00000020 icon_home
0000d7e0 g     F .text	000001fc __multiply
00013868 g     F .text	00000068 altera_avalon_jtag_uart_close
000d0e30 g       *ABS*	00000000 __ram_rwdata_start
00015128 g       *ABS*	00000000 __ram_rodata_start
000d46d8 g     O .bss	00000028 __malloc_current_mallinfo
0000dfd8 g     F .text	0000013c __d2b
0001339c g     F .text	00000060 altera_avalon_jtag_uart_read_fd
00014ba8 g     F .text	000000b4 alt_get_fd
00014dd0 g     F .text	0000007c memcmp
0001345c g     F .text	00000050 altera_avalon_jtag_uart_close_fd
001203e8 g       *ABS*	00000000 __alt_stack_base
000134ac g     F .text	00000054 altera_avalon_jtag_uart_ioctl_fd
00011348 g     F .text	000008cc .hidden __divdf3
0000e22c g     F .text	00000078 __copybits
000d2a28 g     O .rwdata	00000004 str1
000d0e30 g     O .rwdata	00000408 __malloc_av_
00000734 g     F .text	0000010c setAreaFmt
00011e58 g     F .text	00000724 .hidden __muldf3
0000748c g     F .text	0000020c showScreenFooter
00014a94 g     F .text	00000114 alt_find_file
00014100 g     F .text	000000a4 alt_dev_llist_insert
000131a4 g     F .text	00000020 __malloc_lock
000131e4 g     F .text	000000b0 sbrk
000093d8 g     F .text	00001f90 ___svfprintf_internal_r
0000f678 g     F .text	000000c4 _calloc_r
000d4700 g     O .bss	00000200 color_form
000d46a0 g       *ABS*	00000000 __bss_start
0000f898 g     F .text	00000124 memset
000003bc g     F .text	00000090 main
000d46c4 g     O .bss	00000004 alt_envp
000d46a0 g     O .bss	00000004 __malloc_max_total_mem
00007b1c g     F .text	000004a0 showScreenMainSetting
000d2a20 g     O .rwdata	00000008 defaultColorInfo
000133fc g     F .text	00000060 altera_avalon_jtag_uart_write_fd
000d0a08 g     O .rodata	00000018 icon_dot
08000000 g       *ABS*	00000000 __alt_heap_limit
0000b568 g     F .text	00001728 _dtoa_r
00008a80 g     F .text	000007a8 _malloc_r
00003074 g     F .text	000004ac screenMainBookInit
000d2a58 g     O .rwdata	00000004 alt_errno
00006968 g     F .text	000002b8 showScrollBarY
00008364 g     F .text	00000054 .hidden __divsi3
0000cc90 g     F .text	00000124 _malloc_trim_r
00015128 g       *ABS*	00000000 __CTOR_END__
00008424 g     F .text	00000424 .hidden __mulsf3
0000e3a4 g     F .text	000000a4 strcmp
00015128 g       *ABS*	00000000 __flash_rodata_start
00015128 g       *ABS*	00000000 __DTOR_LIST__
00000ae0 g     F .text	00000344 setDefaultProgressBarX
00004580 g     F .text	000000c8 getAbsPos
00011c14 g     F .text	00000084 .hidden __nedf2
000132cc g     F .text	00000034 alt_irq_init
00015128 g     O .rodata	00000800 ascii_font_x8y16
000147e8 g     F .text	00000060 alt_release_fd
000092d4 g     F .text	0000006c sprintf
000d0aa8 g     O .rodata	00000100 .hidden __clz_tab
000d46b0 g     O .bss	00000004 _PathLocale
00014d84 g     F .text	00000014 atexit
0000d15c g     F .text	0000001c setlocale
0000144c g     F .text	000000a0 setDefaultColorBoard
00015928 g     O .rodata	000bb080 gbk_font_x16y16
00001614 g     F .text	00000194 getWidthOfText
000d2a38 g     O .rwdata	00000004 _impure_ptr
000d46bc g     O .bss	00000004 alt_argc
00014200 g     F .text	0000005c _do_dtors
0000d148 g     F .text	00000008 __locale_cjk_lang
0000270c g     F .text	00000670 screenMainHomeInit
0000390c g     F .text	00000adc screenMainSettingInit
000002dc g     F .text	000000e0 getGbkFont
00000840 g     F .text	00000184 setAreaRangeCentered
00000020 g       .exceptions	00000000 alt_irq_entry
0000de5c g     F .text	00000060 __ulp
000d2a44 g     O .rwdata	00000008 alt_fs_list
00000290 g     F .text	0000004c getAsciiFont
000d09e8 g     O .rodata	00000020 icon_back
00000020 g       *ABS*	00000000 __ram_exceptions_start
0000d178 g     F .text	0000000c localeconv
000d09a8 g     O .rodata	00000020 icon_setting
000d2a68 g       *ABS*	00000000 _edata
000d4fc8 g     O .bss	0004b000 screenShowSpace
000d0a30 g     O .rodata	00000010 icon_move_down
001203e8 g       *ABS*	00000000 _end
00000244 g       *ABS*	00000000 __ram_exceptions_end
000138d0 g     F .text	000000ec altera_avalon_jtag_uart_ioctl
001202b3 g     O .bss	00000033 sdCardFileName
000d2a30 g     O .rwdata	00000004 __malloc_trim_threshold
0000d13c g     F .text	0000000c __locale_msgcharset
00014d98 g     F .text	00000038 exit
0000dcc4 g     F .text	00000198 __mdiff
00002214 g     F .text	000001ac screenHeaderInit
00006e2c g     F .text	000001a0 showProgressBarX
000083b8 g     F .text	0000005c .hidden __modsi3
08000000 g       *ABS*	00000000 __alt_data_end
00000020 g     F .exceptions	00000000 alt_exception
00000000 g       *ABS*	00000000 __alt_mem_sdram
00001ecc g     F .text	00000348 screenInit
000150f4 g     F .text	00000034 _exit
00013de0 g     F .text	00000140 alt_alarm_start
00009340 g     F .text	00000098 strlen
00014690 g     F .text	00000158 open
00011c98 g     F .text	000000e0 .hidden __gedf2
0001425c g     F .text	00000030 alt_icache_flush_all
000d2a5c g     O .rwdata	00000004 alt_priority_mask
000d0a20 g     O .rodata	00000010 icon_move_up
000060c0 g     F .text	00000180 showIconBlock
0001257c g     F .text	000008d0 .hidden __subdf3
000d2a10 g     O .rwdata	00000008 icon_plus
0000d6f4 g     F .text	000000b0 __lo0bits
000d2a60 g     O .rwdata	00000008 alt_alarm_list
00006658 g     F .text	00000310 showTagList
000141a4 g     F .text	0000005c _do_ctors
00013f70 g     F .text	000000d0 close
00005118 g     F .text	000006d0 showTagBlock
000130ac g     F .text	00000080 alt_load
00008a6c g     F .text	00000014 free
0000d474 g     F .text	00000114 __multadd
000073a8 g     F .text	000000e4 showScreenHeader
0000d44c g     F .text	00000028 _Bfree



Disassembly of section .entry:

00000000 <__reset>:
#if NIOS2_ICACHE_SIZE > 0 && defined(ALT_ALLOW_CODE_AT_RESET) && (!defined(ALT_SIM_OPTIMIZE) || defined(NIOS2_ECC_PRESENT))
    /* Assume the instruction cache size is always a power of two. */
#if NIOS2_ICACHE_SIZE > 0x8000
    movhi r2, %hi(NIOS2_ICACHE_SIZE)
#else
    movui r2, NIOS2_ICACHE_SIZE
   0:	00840014 	movui	r2,4096
#endif

0:
    initi r2
   4:	1001483a 	initi	r2
    addi r2, r2, -NIOS2_ICACHE_LINE_SIZE
   8:	10bff804 	addi	r2,r2,-32
    bgt r2, zero, 0b
   c:	00bffd16 	blt	zero,r2,4 <__alt_data_end+0xf8000004>
 * Jump to the _start entry point in the .text section if reset code
 * is allowed or if optimizing for RTL simulation.
 */
#if defined(ALT_ALLOW_CODE_AT_RESET) || defined(ALT_SIM_OPTIMIZE)
    /* Jump to the _start entry point in the .text section. */
    movhi r1, %hi(_start)
  10:	00400034 	movhi	at,0
    ori r1, r1, %lo(_start)
  14:	08409114 	ori	at,at,580
    jmp r1
  18:	0800683a 	jmp	at
  1c:	00000000 	call	0 <__reset>

Disassembly of section .exceptions:

00000020 <alt_exception>:

#else /* ALT_EXCEPTION_STACK disabled */
        /* 
         * Reserve space on normal stack for registers about to be pushed.
         */
        addi  sp, sp, -76
  20:	deffed04 	addi	sp,sp,-76
         * documentation for details).
         *
         * Leave a gap in the stack frame at 4(sp) for the muldiv handler to
         * store zero into.
         */
        stw   ra,  0(sp)
  24:	dfc00015 	stw	ra,0(sp)
        stw   r1,   8(sp)
  28:	d8400215 	stw	at,8(sp)
        stw   r2,  12(sp)
  2c:	d8800315 	stw	r2,12(sp)
        stw   r3,  16(sp)
  30:	d8c00415 	stw	r3,16(sp)
        stw   r4,  20(sp)
  34:	d9000515 	stw	r4,20(sp)
        stw   r5,  24(sp)
  38:	d9400615 	stw	r5,24(sp)
        stw   r6,  28(sp)
  3c:	d9800715 	stw	r6,28(sp)
        stw   r7,  32(sp)
  40:	d9c00815 	stw	r7,32(sp)
        rdctl r5, estatus   /* Read early to avoid usage stall */
  44:	000b307a 	rdctl	r5,estatus
        stw   r8,  36(sp)
  48:	da000915 	stw	r8,36(sp)
        stw   r9,  40(sp)
  4c:	da400a15 	stw	r9,40(sp)
        stw   r10, 44(sp)
  50:	da800b15 	stw	r10,44(sp)
        stw   r11, 48(sp)
  54:	dac00c15 	stw	r11,48(sp)
        stw   r12, 52(sp)
  58:	db000d15 	stw	r12,52(sp)
        stw   r13, 56(sp)
  5c:	db400e15 	stw	r13,56(sp)
        stw   r14, 60(sp)
  60:	db800f15 	stw	r14,60(sp)
        stw   r15, 64(sp)
  64:	dbc01015 	stw	r15,64(sp)
        /*
         * ea-4 contains the address of the instruction being executed
         * when the exception occured. For interrupt exceptions, we will
         * will be re-issue the isntruction. Store it in 72(sp)
         */
        stw   r5,  68(sp)  /* estatus */
  68:	d9401115 	stw	r5,68(sp)
        addi  r15, ea, -4  /* instruction that caused exception */
  6c:	ebffff04 	addi	r15,ea,-4
        stw   r15,  72(sp)
  70:	dbc01215 	stw	r15,72(sp)
#else
        /*
         * Test to see if the exception was a software exception or caused 
         * by an external interrupt, and vector accordingly.
         */
        rdctl r4, ipending
  74:	0009313a 	rdctl	r4,ipending
        andi  r2, r5, 1
  78:	2880004c 	andi	r2,r5,1
        beq   r2, zero, .Lnot_irq
  7c:	10000326 	beq	r2,zero,8c <alt_exception+0x6c>
        beq   r4, zero, .Lnot_irq
  80:	20000226 	beq	r4,zero,8c <alt_exception+0x6c>
        /*
         * Now that all necessary registers have been preserved, call 
         * alt_irq_handler() to process the interrupts.
         */

        call alt_irq_handler
  84:	00000fc0 	call	fc <alt_irq_handler>

        .section .exceptions.irqreturn, "xa"

        br    .Lexception_exit
  88:	00000706 	br	a8 <alt_exception+0x88>
         * upon completion, so we write ea (address of instruction *after*
         * the one where the exception occured) into 72(sp). The actual
         * instruction that caused the exception is written in r2, which these
         * handlers will utilize.
         */
        stw   ea,  72(sp)  /* Don't re-issue */
  8c:	df401215 	stw	ea,72(sp)
        ldhu.n  r2, 0(r4)
        ldhu.n  r3, 2(r4)
        slli.n  r3, r3, 16
        or.n    r2, r2, r3 /* Instruction that caused exception */
#else
        ldw   r2, -4(ea)   /* Instruction that caused exception */
  90:	e8bfff17 	ldw	r2,-4(ea)
         * debugger is present) or go into an infinite loop since the
         * handling behavior is undefined; in that case we will not return here.
         */

        /* Load exception-causing address as first argument (r4) */
        addi   r4, ea, -4
  94:	e93fff04 	addi	r4,ea,-4

        /* Call the instruction-exception entry */
        call   alt_instruction_exception_entry
  98:	00001d00 	call	1d0 <alt_instruction_exception_entry>
         * instruction
         *
         * Return code was 0: Skip. The instruction after the exception is
         * already stored in 72(sp).
         */
        bne   r2, r0, .Lexception_exit
  9c:	1000021e 	bne	r2,zero,a8 <alt_exception+0x88>

        /*
         * Otherwise, modify 72(sp) to re-issue the instruction that caused the
         * exception.
         */
        addi  r15, ea, -4  /* instruction that caused exception */
  a0:	ebffff04 	addi	r15,ea,-4
        stw   r15,  72(sp)
  a4:	dbc01215 	stw	r15,72(sp)
        /* 
         * Restore the saved registers, so that all general purpose registers 
         * have been restored to their state at the time the interrupt occured.
         */

        ldw   r5,  68(sp)
  a8:	d9401117 	ldw	r5,68(sp)
        ldw   ea,  72(sp)  /* This becomes the PC once eret is executed */
  ac:	df401217 	ldw	ea,72(sp)
        ldw   ra,   0(sp)
  b0:	dfc00017 	ldw	ra,0(sp)

        wrctl estatus, r5
  b4:	2801707a 	wrctl	estatus,r5

        ldw   r1,   8(sp)
  b8:	d8400217 	ldw	at,8(sp)
        ldw   r2,  12(sp)
  bc:	d8800317 	ldw	r2,12(sp)
        ldw   r3,  16(sp)
  c0:	d8c00417 	ldw	r3,16(sp)
        ldw   r4,  20(sp)
  c4:	d9000517 	ldw	r4,20(sp)
        ldw   r5,  24(sp)
  c8:	d9400617 	ldw	r5,24(sp)
        ldw   r6,  28(sp)
  cc:	d9800717 	ldw	r6,28(sp)
        ldw   r7,  32(sp)
  d0:	d9c00817 	ldw	r7,32(sp)

#if defined(ALT_EXCEPTION_STACK) && defined(ALT_STACK_CHECK)
        ldw   et, %gprel(alt_exception_old_stack_limit)(gp)
#endif

        ldw   r8,  36(sp)
  d4:	da000917 	ldw	r8,36(sp)
        ldw   r9,  40(sp)
  d8:	da400a17 	ldw	r9,40(sp)
        ldw   r10, 44(sp)
  dc:	da800b17 	ldw	r10,44(sp)
        ldw   r11, 48(sp)
  e0:	dac00c17 	ldw	r11,48(sp)
        ldw   r12, 52(sp)
  e4:	db000d17 	ldw	r12,52(sp)
        ldw   r13, 56(sp)
  e8:	db400e17 	ldw	r13,56(sp)
        ldw   r14, 60(sp)
  ec:	db800f17 	ldw	r14,60(sp)
        ldw   r15, 64(sp)
  f0:	dbc01017 	ldw	r15,64(sp)
        stw   et, %gprel(alt_stack_limit_value)(gp)
        stw   zero, %gprel(alt_exception_old_stack_limit)(gp)
#endif /* ALT_STACK_CHECK */
        ldw   sp,  76(sp)
#else /* ALT_EXCEPTION_STACK disabled */
        addi  sp, sp, 76
  f4:	dec01304 	addi	sp,sp,76

        /*
         * Return to the interrupted instruction.
         */

        eret
  f8:	ef80083a 	eret

000000fc <alt_irq_handler>:
 * instruction is present if the macro ALT_CI_INTERRUPT_VECTOR defined.
 */

void alt_irq_handler (void) __attribute__ ((section (".exceptions")));
void alt_irq_handler (void)
{
  fc:	defff904 	addi	sp,sp,-28
 100:	dfc00615 	stw	ra,24(sp)
 104:	df000515 	stw	fp,20(sp)
 108:	df000504 	addi	fp,sp,20
  
  /*
   * Notify the operating system that we are at interrupt level.
   */ 
  
  ALT_OS_INT_ENTER();
 10c:	0001883a 	nop
#ifndef NIOS2_EIC_PRESENT
static ALT_INLINE alt_u32 ALT_ALWAYS_INLINE alt_irq_pending (void)
{
  alt_u32 active;

  NIOS2_READ_IPENDING (active);
 110:	0005313a 	rdctl	r2,ipending
 114:	e0bffe15 	stw	r2,-8(fp)

  return active;
 118:	e0bffe17 	ldw	r2,-8(fp)
   * Consider the case where the high priority interupt is asserted during
   * the interrupt entry sequence for a lower priority interrupt to see why
   * this is the case.
   */

  active = alt_irq_pending ();
 11c:	e0bffb15 	stw	r2,-20(fp)

  do
  {
    i = 0;
 120:	e03ffd15 	stw	zero,-12(fp)
    mask = 1;
 124:	00800044 	movi	r2,1
 128:	e0bffc15 	stw	r2,-16(fp)
     * called to clear the interrupt condition.
     */

    do
    {
      if (active & mask)
 12c:	e0fffb17 	ldw	r3,-20(fp)
 130:	e0bffc17 	ldw	r2,-16(fp)
 134:	1884703a 	and	r2,r3,r2
 138:	10001526 	beq	r2,zero,190 <alt_irq_handler+0x94>
      { 
#ifdef ALT_ENHANCED_INTERRUPT_API_PRESENT
        alt_irq[i].handler(alt_irq[i].context); 
#else
        alt_irq[i].handler(alt_irq[i].context, i); 
 13c:	008004b4 	movhi	r2,18
 140:	1080ba04 	addi	r2,r2,744
 144:	e0fffd17 	ldw	r3,-12(fp)
 148:	180690fa 	slli	r3,r3,3
 14c:	10c5883a 	add	r2,r2,r3
 150:	10c00017 	ldw	r3,0(r2)
 154:	008004b4 	movhi	r2,18
 158:	1080ba04 	addi	r2,r2,744
 15c:	e13ffd17 	ldw	r4,-12(fp)
 160:	200890fa 	slli	r4,r4,3
 164:	1105883a 	add	r2,r2,r4
 168:	10800104 	addi	r2,r2,4
 16c:	10800017 	ldw	r2,0(r2)
 170:	1009883a 	mov	r4,r2
 174:	e17ffd17 	ldw	r5,-12(fp)
 178:	183ee83a 	callr	r3
#endif
        break;
 17c:	0001883a 	nop
#ifndef NIOS2_EIC_PRESENT
static ALT_INLINE alt_u32 ALT_ALWAYS_INLINE alt_irq_pending (void)
{
  alt_u32 active;

  NIOS2_READ_IPENDING (active);
 180:	0005313a 	rdctl	r2,ipending
 184:	e0bfff15 	stw	r2,-4(fp)

  return active;
 188:	e0bfff17 	ldw	r2,-4(fp)
 18c:	00000706 	br	1ac <alt_irq_handler+0xb0>
      }
      mask <<= 1;
 190:	e0bffc17 	ldw	r2,-16(fp)
 194:	1085883a 	add	r2,r2,r2
 198:	e0bffc15 	stw	r2,-16(fp)
      i++;
 19c:	e0bffd17 	ldw	r2,-12(fp)
 1a0:	10800044 	addi	r2,r2,1
 1a4:	e0bffd15 	stw	r2,-12(fp)

    } while (1);
 1a8:	003fe006 	br	12c <__alt_data_end+0xf800012c>

    active = alt_irq_pending ();
 1ac:	e0bffb15 	stw	r2,-20(fp)
    
  } while (active);
 1b0:	e0bffb17 	ldw	r2,-20(fp)
 1b4:	103fda1e 	bne	r2,zero,120 <__alt_data_end+0xf8000120>

  /*
   * Notify the operating system that interrupt processing is complete.
   */ 

  ALT_OS_INT_EXIT();
 1b8:	0001883a 	nop
}
 1bc:	e037883a 	mov	sp,fp
 1c0:	dfc00117 	ldw	ra,4(sp)
 1c4:	df000017 	ldw	fp,0(sp)
 1c8:	dec00204 	addi	sp,sp,8
 1cc:	f800283a 	ret

000001d0 <alt_instruction_exception_entry>:
 * that handler if it has been registered. Absent a handler, it will
 * break break or hang as discussed below.
 */
int 
alt_instruction_exception_entry (alt_u32 exception_pc)
{
 1d0:	defffb04 	addi	sp,sp,-20
 1d4:	dfc00415 	stw	ra,16(sp)
 1d8:	df000315 	stw	fp,12(sp)
 1dc:	df000304 	addi	fp,sp,12
 1e0:	e13fff15 	stw	r4,-4(fp)
 * NIOS2_EXCEPTION_CAUSE_NOT_PRESENT. Your handling routine should
 * check the validity of the cause argument before proceeding.
 */
#ifdef NIOS2_HAS_EXTRA_EXCEPTION_INFO
  /* Get exception cause & "badaddr" */
  NIOS2_READ_EXCEPTION(cause);
 1e4:	000531fa 	rdctl	r2,exception
 1e8:	e0bffd15 	stw	r2,-12(fp)
  cause = ( (cause & NIOS2_EXCEPTION_REG_CAUSE_MASK) >>
 1ec:	e0bffd17 	ldw	r2,-12(fp)
 1f0:	10801f0c 	andi	r2,r2,124
 1f4:	1004d0ba 	srli	r2,r2,2
 1f8:	e0bffd15 	stw	r2,-12(fp)
              NIOS2_EXCEPTION_REG_CAUSE_OFST );

  NIOS2_READ_BADADDR(badaddr);
 1fc:	0005333a 	rdctl	r2,badaddr
 200:	e0bffe15 	stw	r2,-8(fp)
#else
  cause = NIOS2_EXCEPTION_CAUSE_NOT_PRESENT;
  badaddr = 0;
#endif /* NIOS2_HAS_EXTRA_EXCEPTION_INFO */

  if(alt_instruction_exception_handler) {
 204:	d0a73117 	ldw	r2,-25404(gp)
 208:	10000726 	beq	r2,zero,228 <alt_instruction_exception_entry+0x58>
     * Call handler. Its return value indicates whether the exception-causing
     * instruction should be re-issued. The code that called us,
     * alt_eceptions_entry.S, will look at this value and adjust the ea
     * register as necessary
     */
    return alt_instruction_exception_handler(cause, exception_pc, badaddr);
 20c:	d0a73117 	ldw	r2,-25404(gp)
 210:	e0fffd17 	ldw	r3,-12(fp)
 214:	1809883a 	mov	r4,r3
 218:	e17fff17 	ldw	r5,-4(fp)
 21c:	e1bffe17 	ldw	r6,-8(fp)
 220:	103ee83a 	callr	r2
 224:	00000206 	br	230 <alt_instruction_exception_entry+0x60>
   *    (a peripheral which negates its interrupt output before its
   *    interrupt handler has been executed will cause spurious interrupts)
   */
  else {
#ifdef NIOS2_HAS_DEBUG_STUB
    NIOS2_BREAK();
 228:	003da03a 	break	0
      ;
#endif /* NIOS2_HAS_DEBUG_STUB */
  }

  /* We should not get here. Remove compiler warning. */
  return NIOS2_EXCEPTION_RETURN_REISSUE_INST;
 22c:	0005883a 	mov	r2,zero
}
 230:	e037883a 	mov	sp,fp
 234:	dfc00117 	ldw	ra,4(sp)
 238:	df000017 	ldw	fp,0(sp)
 23c:	dec00204 	addi	sp,sp,8
 240:	f800283a 	ret

Disassembly of section .text:

00000244 <_start>:

    /* Assume the data cache size is always a power of two. */
#if NIOS2_DCACHE_SIZE > 0x8000
    movhi r2, %hi(NIOS2_DCACHE_SIZE)
#else
    movui r2, NIOS2_DCACHE_SIZE
     244:	00820014 	movui	r2,2048
#endif

0:
    initd 0(r2)
     248:	10000033 	initd	0(r2)
#ifdef NIOS2_ECC_PRESENT
    addi r2, r2, -4
#else
    addi r2, r2, -NIOS2_DCACHE_LINE_SIZE
     24c:	10bff804 	addi	r2,r2,-32
#endif
    bgt r2, zero, 0b
     250:	00bffd16 	blt	zero,r2,248 <__alt_data_end+0xf8000248>

    /*
     * Now that the caches are initialized, set up the stack pointer and global pointer.
     * The values provided by the linker are assumed to be correctly aligned.
     */
    movhi sp, %hi(__alt_stack_pointer)
     254:	06c20034 	movhi	sp,2048
    ori sp, sp, %lo(__alt_stack_pointer)
     258:	dec00014 	ori	sp,sp,0
    movhi gp, %hi(_gp)
     25c:	06800374 	movhi	gp,13
    ori gp, gp, %lo(_gp)
     260:	d6aa8414 	ori	gp,gp,43536
 */
#ifndef ALT_SIM_OPTIMIZE
    /* Log that the BSS is about to be cleared. */
    ALT_LOG_PUTS(alt_log_msg_bss)

    movhi r2, %hi(__bss_start)
     264:	00800374 	movhi	r2,13
    ori r2, r2, %lo(__bss_start)
     268:	1091a814 	ori	r2,r2,18080

    movhi r3, %hi(__bss_end)
     26c:	00c004b4 	movhi	r3,18
    ori r3, r3, %lo(__bss_end)
     270:	18c0fa14 	ori	r3,r3,1000

    beq r2, r3, 1f
     274:	10c00326 	beq	r2,r3,284 <_start+0x40>

0:
    stw zero, (r2)
     278:	10000015 	stw	zero,0(r2)
    addi r2, r2, 4
     27c:	10800104 	addi	r2,r2,4
    bltu r2, r3, 0b
     280:	10fffd36 	bltu	r2,r3,278 <__alt_data_end+0xf8000278>
     * section aren't defined until alt_load() has been called).
     */
    mov   et, zero
#endif

    call alt_load
     284:	00130ac0 	call	130ac <alt_load>

    /* Log that alt_main is about to be called. */
    ALT_LOG_PUTS(alt_log_msg_alt_main)

    /* Call the C entry point. It should never return. */
    call alt_main
     288:	001312c0 	call	1312c <alt_main>

0000028c <alt_after_alt_main>:

    /* Wait in infinite loop in case alt_main does return. */
alt_after_alt_main:
    br alt_after_alt_main
     28c:	003fff06 	br	28c <__alt_data_end+0xf800028c>

00000290 <getAsciiFont>:
#include "font_manage.h"

extern const alt_u8 ascii_font_x8y16[];

alt_u8 *getAsciiFont( char asciiVal )
{
     290:	defffe04 	addi	sp,sp,-8
     294:	df000115 	stw	fp,4(sp)
     298:	df000104 	addi	fp,sp,4
     29c:	2005883a 	mov	r2,r4
     2a0:	e0bfff05 	stb	r2,-4(fp)
	if ( asciiVal < 0 )
     2a4:	e0bfff07 	ldb	r2,-4(fp)
     2a8:	1000020e 	bge	r2,zero,2b4 <getAsciiFont+0x24>
	{
		return (void*)0;
     2ac:	0005883a 	mov	r2,zero
     2b0:	00000606 	br	2cc <getAsciiFont+0x3c>
	}
	//ASCII码范围是0~127
	return ascii_font_x8y16 + (((int)asciiVal)*ASCII_LETTER_BYTES);
     2b4:	e0bfff07 	ldb	r2,-4(fp)
     2b8:	1004913a 	slli	r2,r2,4
     2bc:	1007883a 	mov	r3,r2
     2c0:	00800074 	movhi	r2,1
     2c4:	10944a04 	addi	r2,r2,20776
     2c8:	1885883a 	add	r2,r3,r2
}
     2cc:	e037883a 	mov	sp,fp
     2d0:	df000017 	ldw	fp,0(sp)
     2d4:	dec00104 	addi	sp,sp,4
     2d8:	f800283a 	ret

000002dc <getGbkFont>:

extern const alt_u8 gbk_font_x16y16[];

alt_u8 *getGbkFont( alt_u8 gbkHighByte, alt_u8 gbkLowByte )
{
     2dc:	defffc04 	addi	sp,sp,-16
     2e0:	df000315 	stw	fp,12(sp)
     2e4:	df000304 	addi	fp,sp,12
     2e8:	2007883a 	mov	r3,r4
     2ec:	2805883a 	mov	r2,r5
     2f0:	e0fffe05 	stb	r3,-8(fp)
     2f4:	e0bfff05 	stb	r2,-4(fp)

	if ( gbkLowByte < 0x40 )//非GBK编码
     2f8:	e0bfff03 	ldbu	r2,-4(fp)
     2fc:	10801028 	cmpgeui	r2,r2,64
     300:	1000021e 	bne	r2,zero,30c <getGbkFont+0x30>
	{
		return (void*)0;
     304:	0005883a 	mov	r2,zero
     308:	00002806 	br	3ac <getGbkFont+0xd0>
	}
	else
	{
		int wordPos = ( gbkHighByte - 0x81 ) * 190;
     30c:	e0bffe03 	ldbu	r2,-8(fp)
     310:	10bfdfc4 	addi	r2,r2,-129
     314:	10802fa4 	muli	r2,r2,190
     318:	e0bffd15 	stw	r2,-12(fp)
		if ( gbkLowByte < 0x7F )
     31c:	e0bfff03 	ldbu	r2,-4(fp)
     320:	10801fe8 	cmpgeui	r2,r2,127
     324:	10000c1e 	bne	r2,zero,358 <getGbkFont+0x7c>
		{
			wordPos = wordPos + gbkLowByte - 0x40;
     328:	e0ffff03 	ldbu	r3,-4(fp)
     32c:	e0bffd17 	ldw	r2,-12(fp)
     330:	1885883a 	add	r2,r3,r2
     334:	10bff004 	addi	r2,r2,-64
     338:	e0bffd15 	stw	r2,-12(fp)
			return gbk_font_x16y16 + (wordPos*GBK_WORD_BYTES);
     33c:	e0bffd17 	ldw	r2,-12(fp)
     340:	1004917a 	slli	r2,r2,5
     344:	1007883a 	mov	r3,r2
     348:	00800074 	movhi	r2,1
     34c:	10964a04 	addi	r2,r2,22824
     350:	1885883a 	add	r2,r3,r2
     354:	00001506 	br	3ac <getGbkFont+0xd0>
		}
		else if ( gbkLowByte > 0x7F && gbkLowByte < 0xFF )
     358:	e0bfff03 	ldbu	r2,-4(fp)
     35c:	10803fcc 	andi	r2,r2,255
     360:	1080201c 	xori	r2,r2,128
     364:	10bfe004 	addi	r2,r2,-128
     368:	10000f0e 	bge	r2,zero,3a8 <getGbkFont+0xcc>
     36c:	e0bfff03 	ldbu	r2,-4(fp)
     370:	10803fe0 	cmpeqi	r2,r2,255
     374:	10000c1e 	bne	r2,zero,3a8 <getGbkFont+0xcc>
		{
			wordPos = wordPos + gbkLowByte - 0x41;
     378:	e0ffff03 	ldbu	r3,-4(fp)
     37c:	e0bffd17 	ldw	r2,-12(fp)
     380:	1885883a 	add	r2,r3,r2
     384:	10bfefc4 	addi	r2,r2,-65
     388:	e0bffd15 	stw	r2,-12(fp)
			return gbk_font_x16y16 + (wordPos*GBK_WORD_BYTES);
     38c:	e0bffd17 	ldw	r2,-12(fp)
     390:	1004917a 	slli	r2,r2,5
     394:	1007883a 	mov	r3,r2
     398:	00800074 	movhi	r2,1
     39c:	10964a04 	addi	r2,r2,22824
     3a0:	1885883a 	add	r2,r3,r2
     3a4:	00000106 	br	3ac <getGbkFont+0xd0>
		}
		else
		{
			return (void*)0;
     3a8:	0005883a 	mov	r2,zero
		}
	}
}
     3ac:	e037883a 	mov	sp,fp
     3b0:	df000017 	ldw	fp,0(sp)
     3b4:	dec00104 	addi	sp,sp,4
     3b8:	f800283a 	ret

000003bc <main>:

#include "screen.h"
#include "screen_display.h"

int main( void )
{
     3bc:	defffd04 	addi	sp,sp,-12
     3c0:	dfc00215 	stw	ra,8(sp)
     3c4:	df000115 	stw	fp,4(sp)
     3c8:	df000104 	addi	fp,sp,4

	bool status = true;
     3cc:	00800044 	movi	r2,1
     3d0:	e0bfff05 	stb	r2,-4(fp)

	//1.读取并保存SD卡中的所有txt文件的文件名


	//2.初始化ScreenContainer屏幕显示信息结构体
	status = status && screenInit();
     3d4:	e0bfff03 	ldbu	r2,-4(fp)
     3d8:	10000526 	beq	r2,zero,3f0 <main+0x34>
     3dc:	0001ecc0 	call	1ecc <screenInit>
     3e0:	10803fcc 	andi	r2,r2,255
     3e4:	10000226 	beq	r2,zero,3f0 <main+0x34>
     3e8:	00800044 	movi	r2,1
     3ec:	00000106 	br	3f4 <main+0x38>
     3f0:	0005883a 	mov	r2,zero
     3f4:	e0bfff05 	stb	r2,-4(fp)
     3f8:	e0bfff03 	ldbu	r2,-4(fp)
     3fc:	1080004c 	andi	r2,r2,1
     400:	e0bfff05 	stb	r2,-4(fp)

	//3.执行屏幕显示函数
	status = status && showScreen( );
     404:	e0bfff03 	ldbu	r2,-4(fp)
     408:	10000526 	beq	r2,zero,420 <main+0x64>
     40c:	00080a00 	call	80a0 <showScreen>
     410:	10803fcc 	andi	r2,r2,255
     414:	10000226 	beq	r2,zero,420 <main+0x64>
     418:	00800044 	movi	r2,1
     41c:	00000106 	br	424 <main+0x68>
     420:	0005883a 	mov	r2,zero
     424:	e0bfff05 	stb	r2,-4(fp)
     428:	e0bfff03 	ldbu	r2,-4(fp)
     42c:	1080004c 	andi	r2,r2,1
     430:	e0bfff05 	stb	r2,-4(fp)

	return 0;
     434:	0005883a 	mov	r2,zero
}
     438:	e037883a 	mov	sp,fp
     43c:	dfc00117 	ldw	ra,4(sp)
     440:	df000017 	ldw	fp,0(sp)
     444:	dec00204 	addi	sp,sp,8
     448:	f800283a 	ret

0000044c <setAreaRange>:

char *str1 = "Happy";

//设置区域范围
bool setAreaRange( AreaRange *areaPtr, short x_min, short x_max, short y_min, short y_max )
{
     44c:	defffa04 	addi	sp,sp,-24
     450:	df000515 	stw	fp,20(sp)
     454:	df000504 	addi	fp,sp,20
     458:	e13ffb15 	stw	r4,-20(fp)
     45c:	3009883a 	mov	r4,r6
     460:	3807883a 	mov	r3,r7
     464:	e0800117 	ldw	r2,4(fp)
     468:	e17ffc0d 	sth	r5,-16(fp)
     46c:	e13ffd0d 	sth	r4,-12(fp)
     470:	e0fffe0d 	sth	r3,-8(fp)
     474:	e0bfff0d 	sth	r2,-4(fp)
	areaPtr->x_min = x_min;
     478:	e0bffb17 	ldw	r2,-20(fp)
     47c:	e0fffc0b 	ldhu	r3,-16(fp)
     480:	10c0000d 	sth	r3,0(r2)
	areaPtr->x_max = x_max;
     484:	e0bffb17 	ldw	r2,-20(fp)
     488:	e0fffd0b 	ldhu	r3,-12(fp)
     48c:	10c0008d 	sth	r3,2(r2)
	areaPtr->y_min = y_min;
     490:	e0bffb17 	ldw	r2,-20(fp)
     494:	e0fffe0b 	ldhu	r3,-8(fp)
     498:	10c0010d 	sth	r3,4(r2)
	areaPtr->y_max = y_max;
     49c:	e0bffb17 	ldw	r2,-20(fp)
     4a0:	e0ffff0b 	ldhu	r3,-4(fp)
     4a4:	10c0018d 	sth	r3,6(r2)
	if ( x_min > x_max || y_min > y_max )
     4a8:	e0bffc0f 	ldh	r2,-16(fp)
     4ac:	e0fffd0f 	ldh	r3,-12(fp)
     4b0:	18800316 	blt	r3,r2,4c0 <setAreaRange+0x74>
     4b4:	e0bffe0f 	ldh	r2,-8(fp)
     4b8:	e0ffff0f 	ldh	r3,-4(fp)
     4bc:	1880020e 	bge	r3,r2,4c8 <setAreaRange+0x7c>
	{
		return false;
     4c0:	0005883a 	mov	r2,zero
     4c4:	00000106 	br	4cc <setAreaRange+0x80>
	}
	return true;
     4c8:	00800044 	movi	r2,1
}
     4cc:	e037883a 	mov	sp,fp
     4d0:	df000017 	ldw	fp,0(sp)
     4d4:	dec00104 	addi	sp,sp,4
     4d8:	f800283a 	ret

000004dc <setAreaRangeByAreaFmt>:
//区域范围自动转换
bool setAreaRangeByAreaFmt( AreaRange *areaPtr, AreaFmt *areaFmtPos, short width, short height )
{
     4dc:	defff804 	addi	sp,sp,-32
     4e0:	df000715 	stw	fp,28(sp)
     4e4:	df000704 	addi	fp,sp,28
     4e8:	e13ffc15 	stw	r4,-16(fp)
     4ec:	e17ffd15 	stw	r5,-12(fp)
     4f0:	3007883a 	mov	r3,r6
     4f4:	3805883a 	mov	r2,r7
     4f8:	e0fffe0d 	sth	r3,-8(fp)
     4fc:	e0bfff0d 	sth	r2,-4(fp)

	AreaFmtCenter *tempFmtCenterPos;
	AreaFmtMargin *tempFmtMarginPos;

	bool status = true;
     500:	00800044 	movi	r2,1
     504:	e0bff905 	stb	r2,-28(fp)

	//处理x方向
	switch( areaFmtPos->fmtTypeX )
     508:	e0bffd17 	ldw	r2,-12(fp)
     50c:	10800017 	ldw	r2,0(r2)
     510:	10000326 	beq	r2,zero,520 <setAreaRangeByAreaFmt+0x44>
     514:	10800060 	cmpeqi	r2,r2,1
     518:	1000181e 	bne	r2,zero,57c <setAreaRangeByAreaFmt+0xa0>
     51c:	00002806 	br	5c0 <setAreaRangeByAreaFmt+0xe4>
	{
		case AREA_FMT_CENTER:
			tempFmtCenterPos = &((areaFmtPos->fmtValX).fmtCenterVal);
     520:	e0bffd17 	ldw	r2,-12(fp)
     524:	10800204 	addi	r2,r2,8
     528:	e0bffa15 	stw	r2,-24(fp)

			areaPtr->x_min = tempFmtCenterPos->center - tempFmtCenterPos->half + 1;
     52c:	e0bffa17 	ldw	r2,-24(fp)
     530:	1080000b 	ldhu	r2,0(r2)
     534:	1007883a 	mov	r3,r2
     538:	e0bffa17 	ldw	r2,-24(fp)
     53c:	1080008b 	ldhu	r2,2(r2)
     540:	1885c83a 	sub	r2,r3,r2
     544:	10800044 	addi	r2,r2,1
     548:	1007883a 	mov	r3,r2
     54c:	e0bffc17 	ldw	r2,-16(fp)
     550:	10c0000d 	sth	r3,0(r2)
			areaPtr->x_max = tempFmtCenterPos->center + tempFmtCenterPos->half;
     554:	e0bffa17 	ldw	r2,-24(fp)
     558:	1080000b 	ldhu	r2,0(r2)
     55c:	1007883a 	mov	r3,r2
     560:	e0bffa17 	ldw	r2,-24(fp)
     564:	1080008b 	ldhu	r2,2(r2)
     568:	1885883a 	add	r2,r3,r2
     56c:	1007883a 	mov	r3,r2
     570:	e0bffc17 	ldw	r2,-16(fp)
     574:	10c0008d 	sth	r3,2(r2)

			break;
     578:	00001206 	br	5c4 <setAreaRangeByAreaFmt+0xe8>

		case AREA_FMT_MARGIN:
			tempFmtMarginPos = &((areaFmtPos->fmtValX).fmtMarginVal);
     57c:	e0bffd17 	ldw	r2,-12(fp)
     580:	10800204 	addi	r2,r2,8
     584:	e0bffb15 	stw	r2,-20(fp)

			areaPtr->x_min = tempFmtMarginPos->margin_LU + 1;
     588:	e0bffb17 	ldw	r2,-20(fp)
     58c:	1080000b 	ldhu	r2,0(r2)
     590:	10800044 	addi	r2,r2,1
     594:	1007883a 	mov	r3,r2
     598:	e0bffc17 	ldw	r2,-16(fp)
     59c:	10c0000d 	sth	r3,0(r2)
			areaPtr->x_max = width - tempFmtMarginPos->margin_RD;
     5a0:	e0bffe0b 	ldhu	r2,-8(fp)
     5a4:	e0fffb17 	ldw	r3,-20(fp)
     5a8:	18c0008b 	ldhu	r3,2(r3)
     5ac:	10c5c83a 	sub	r2,r2,r3
     5b0:	1007883a 	mov	r3,r2
     5b4:	e0bffc17 	ldw	r2,-16(fp)
     5b8:	10c0008d 	sth	r3,2(r2)

			break;
     5bc:	00000106 	br	5c4 <setAreaRangeByAreaFmt+0xe8>
		default:
			status = false;
     5c0:	e03ff905 	stb	zero,-28(fp)
	}
	//处理y方向
	switch( areaFmtPos->fmtTypeY )
     5c4:	e0bffd17 	ldw	r2,-12(fp)
     5c8:	10800117 	ldw	r2,4(r2)
     5cc:	10000326 	beq	r2,zero,5dc <setAreaRangeByAreaFmt+0x100>
     5d0:	10800060 	cmpeqi	r2,r2,1
     5d4:	1000181e 	bne	r2,zero,638 <setAreaRangeByAreaFmt+0x15c>
     5d8:	00002806 	br	67c <setAreaRangeByAreaFmt+0x1a0>
	{
		case AREA_FMT_CENTER:
			tempFmtCenterPos = &((areaFmtPos->fmtValY).fmtCenterVal);
     5dc:	e0bffd17 	ldw	r2,-12(fp)
     5e0:	10800304 	addi	r2,r2,12
     5e4:	e0bffa15 	stw	r2,-24(fp)

			areaPtr->y_min = tempFmtCenterPos->center - tempFmtCenterPos->half + 1;
     5e8:	e0bffa17 	ldw	r2,-24(fp)
     5ec:	1080000b 	ldhu	r2,0(r2)
     5f0:	1007883a 	mov	r3,r2
     5f4:	e0bffa17 	ldw	r2,-24(fp)
     5f8:	1080008b 	ldhu	r2,2(r2)
     5fc:	1885c83a 	sub	r2,r3,r2
     600:	10800044 	addi	r2,r2,1
     604:	1007883a 	mov	r3,r2
     608:	e0bffc17 	ldw	r2,-16(fp)
     60c:	10c0010d 	sth	r3,4(r2)
			areaPtr->y_max = tempFmtCenterPos->center + tempFmtCenterPos->half;
     610:	e0bffa17 	ldw	r2,-24(fp)
     614:	1080000b 	ldhu	r2,0(r2)
     618:	1007883a 	mov	r3,r2
     61c:	e0bffa17 	ldw	r2,-24(fp)
     620:	1080008b 	ldhu	r2,2(r2)
     624:	1885883a 	add	r2,r3,r2
     628:	1007883a 	mov	r3,r2
     62c:	e0bffc17 	ldw	r2,-16(fp)
     630:	10c0018d 	sth	r3,6(r2)

			break;
     634:	00001206 	br	680 <setAreaRangeByAreaFmt+0x1a4>

		case AREA_FMT_MARGIN:
			tempFmtMarginPos = &((areaFmtPos->fmtValY).fmtMarginVal);
     638:	e0bffd17 	ldw	r2,-12(fp)
     63c:	10800304 	addi	r2,r2,12
     640:	e0bffb15 	stw	r2,-20(fp)

			areaPtr->y_min = tempFmtMarginPos->margin_LU + 1;
     644:	e0bffb17 	ldw	r2,-20(fp)
     648:	1080000b 	ldhu	r2,0(r2)
     64c:	10800044 	addi	r2,r2,1
     650:	1007883a 	mov	r3,r2
     654:	e0bffc17 	ldw	r2,-16(fp)
     658:	10c0010d 	sth	r3,4(r2)
			areaPtr->y_max = width - tempFmtMarginPos->margin_RD;
     65c:	e0bffe0b 	ldhu	r2,-8(fp)
     660:	e0fffb17 	ldw	r3,-20(fp)
     664:	18c0008b 	ldhu	r3,2(r3)
     668:	10c5c83a 	sub	r2,r2,r3
     66c:	1007883a 	mov	r3,r2
     670:	e0bffc17 	ldw	r2,-16(fp)
     674:	10c0018d 	sth	r3,6(r2)

			break;
     678:	00000106 	br	680 <setAreaRangeByAreaFmt+0x1a4>
		default:
			status = false;
     67c:	e03ff905 	stb	zero,-28(fp)
	}

	if ( areaPtr->x_min > areaPtr->x_max || areaPtr->y_min > areaPtr->y_max )
     680:	e0bffc17 	ldw	r2,-16(fp)
     684:	1100000b 	ldhu	r4,0(r2)
     688:	e0bffc17 	ldw	r2,-16(fp)
     68c:	10c0008b 	ldhu	r3,2(r2)
     690:	20bfffcc 	andi	r2,r4,65535
     694:	10a0001c 	xori	r2,r2,32768
     698:	10a00004 	addi	r2,r2,-32768
     69c:	18ffffcc 	andi	r3,r3,65535
     6a0:	18e0001c 	xori	r3,r3,32768
     6a4:	18e00004 	addi	r3,r3,-32768
     6a8:	18800b16 	blt	r3,r2,6d8 <setAreaRangeByAreaFmt+0x1fc>
     6ac:	e0bffc17 	ldw	r2,-16(fp)
     6b0:	1100010b 	ldhu	r4,4(r2)
     6b4:	e0bffc17 	ldw	r2,-16(fp)
     6b8:	10c0018b 	ldhu	r3,6(r2)
     6bc:	20bfffcc 	andi	r2,r4,65535
     6c0:	10a0001c 	xori	r2,r2,32768
     6c4:	10a00004 	addi	r2,r2,-32768
     6c8:	18ffffcc 	andi	r3,r3,65535
     6cc:	18e0001c 	xori	r3,r3,32768
     6d0:	18e00004 	addi	r3,r3,-32768
     6d4:	1880020e 	bge	r3,r2,6e0 <setAreaRangeByAreaFmt+0x204>
	{
		return false;
     6d8:	0005883a 	mov	r2,zero
     6dc:	00001106 	br	724 <setAreaRangeByAreaFmt+0x248>
	}
	if ( areaPtr->x_max > width || areaPtr->y_max > height )
     6e0:	e0bffc17 	ldw	r2,-16(fp)
     6e4:	1080008b 	ldhu	r2,2(r2)
     6e8:	10bfffcc 	andi	r2,r2,65535
     6ec:	10a0001c 	xori	r2,r2,32768
     6f0:	10a00004 	addi	r2,r2,-32768
     6f4:	e0fffe0f 	ldh	r3,-8(fp)
     6f8:	18800716 	blt	r3,r2,718 <setAreaRangeByAreaFmt+0x23c>
     6fc:	e0bffc17 	ldw	r2,-16(fp)
     700:	1080018b 	ldhu	r2,6(r2)
     704:	10bfffcc 	andi	r2,r2,65535
     708:	10a0001c 	xori	r2,r2,32768
     70c:	10a00004 	addi	r2,r2,-32768
     710:	e0ffff0f 	ldh	r3,-4(fp)
     714:	1880020e 	bge	r3,r2,720 <setAreaRangeByAreaFmt+0x244>
	{
		return false;
     718:	0005883a 	mov	r2,zero
     71c:	00000106 	br	724 <setAreaRangeByAreaFmt+0x248>
	}

	return status;
     720:	e0bff903 	ldbu	r2,-28(fp)

}
     724:	e037883a 	mov	sp,fp
     728:	df000017 	ldw	fp,0(sp)
     72c:	dec00104 	addi	sp,sp,4
     730:	f800283a 	ret

00000734 <setAreaFmt>:

//设置区域格式
bool setAreaFmt( AreaFmt *areaFmtPos, enum areaFmtID fmtXID, enum areaFmtID fmtYID, short xC_xML, short xHf_xMR, short yC_yMU, short yHf_yMD )
{
     734:	defff704 	addi	sp,sp,-36
     738:	df000815 	stw	fp,32(sp)
     73c:	df000804 	addi	fp,sp,32
     740:	e13ff915 	stw	r4,-28(fp)
     744:	e17ffa15 	stw	r5,-24(fp)
     748:	e1bffb15 	stw	r6,-20(fp)
     74c:	380b883a 	mov	r5,r7
     750:	e1000117 	ldw	r4,4(fp)
     754:	e0c00217 	ldw	r3,8(fp)
     758:	e0800317 	ldw	r2,12(fp)
     75c:	e17ffc0d 	sth	r5,-16(fp)
     760:	e13ffd0d 	sth	r4,-12(fp)
     764:	e0fffe0d 	sth	r3,-8(fp)
     768:	e0bfff0d 	sth	r2,-4(fp)
	bool status = true;
     76c:	00800044 	movi	r2,1
     770:	e0bff805 	stb	r2,-32(fp)
	areaFmtPos->fmtTypeX = fmtXID;
     774:	e0bff917 	ldw	r2,-28(fp)
     778:	e0fffa17 	ldw	r3,-24(fp)
     77c:	10c00015 	stw	r3,0(r2)
	areaFmtPos->fmtTypeY = fmtYID;
     780:	e0bff917 	ldw	r2,-28(fp)
     784:	e0fffb17 	ldw	r3,-20(fp)
     788:	10c00115 	stw	r3,4(r2)

	switch( fmtXID )
     78c:	e0bffa17 	ldw	r2,-24(fp)
     790:	10000326 	beq	r2,zero,7a0 <setAreaFmt+0x6c>
     794:	10800060 	cmpeqi	r2,r2,1
     798:	1000081e 	bne	r2,zero,7bc <setAreaFmt+0x88>
     79c:	00000e06 	br	7d8 <setAreaFmt+0xa4>
	{
		case AREA_FMT_CENTER:
			(areaFmtPos->fmtValX).fmtCenterVal.center = xC_xML;
     7a0:	e0bff917 	ldw	r2,-28(fp)
     7a4:	e0fffc0b 	ldhu	r3,-16(fp)
     7a8:	10c0020d 	sth	r3,8(r2)
			(areaFmtPos->fmtValX).fmtCenterVal.half = xHf_xMR;
     7ac:	e0bff917 	ldw	r2,-28(fp)
     7b0:	e0fffd0b 	ldhu	r3,-12(fp)
     7b4:	10c0028d 	sth	r3,10(r2)
			break;
     7b8:	00000806 	br	7dc <setAreaFmt+0xa8>

		case AREA_FMT_MARGIN:
			(areaFmtPos->fmtValX).fmtMarginVal.margin_LU = xC_xML;
     7bc:	e0bff917 	ldw	r2,-28(fp)
     7c0:	e0fffc0b 	ldhu	r3,-16(fp)
     7c4:	10c0020d 	sth	r3,8(r2)
			(areaFmtPos->fmtValX).fmtMarginVal.margin_RD = xHf_xMR;
     7c8:	e0bff917 	ldw	r2,-28(fp)
     7cc:	e0fffd0b 	ldhu	r3,-12(fp)
     7d0:	10c0028d 	sth	r3,10(r2)
			break;
     7d4:	00000106 	br	7dc <setAreaFmt+0xa8>
		default:
			status = false;
     7d8:	e03ff805 	stb	zero,-32(fp)
	}
	switch( fmtYID )
     7dc:	e0bffb17 	ldw	r2,-20(fp)
     7e0:	10000326 	beq	r2,zero,7f0 <setAreaFmt+0xbc>
     7e4:	10800060 	cmpeqi	r2,r2,1
     7e8:	1000081e 	bne	r2,zero,80c <setAreaFmt+0xd8>
     7ec:	00000e06 	br	828 <setAreaFmt+0xf4>
	{
		case AREA_FMT_CENTER:
			(areaFmtPos->fmtValY).fmtCenterVal.center = yC_yMU;
     7f0:	e0bff917 	ldw	r2,-28(fp)
     7f4:	e0fffe0b 	ldhu	r3,-8(fp)
     7f8:	10c0030d 	sth	r3,12(r2)
			(areaFmtPos->fmtValY).fmtCenterVal.half = yHf_yMD;
     7fc:	e0bff917 	ldw	r2,-28(fp)
     800:	e0ffff0b 	ldhu	r3,-4(fp)
     804:	10c0038d 	sth	r3,14(r2)
			break;
     808:	00000806 	br	82c <setAreaFmt+0xf8>

		case AREA_FMT_MARGIN:
			(areaFmtPos->fmtValY).fmtMarginVal.margin_LU = yC_yMU;
     80c:	e0bff917 	ldw	r2,-28(fp)
     810:	e0fffe0b 	ldhu	r3,-8(fp)
     814:	10c0030d 	sth	r3,12(r2)
			(areaFmtPos->fmtValY).fmtMarginVal.margin_RD = yHf_yMD;
     818:	e0bff917 	ldw	r2,-28(fp)
     81c:	e0ffff0b 	ldhu	r3,-4(fp)
     820:	10c0038d 	sth	r3,14(r2)
			break;
     824:	00000106 	br	82c <setAreaFmt+0xf8>
		default:
			status = false;
     828:	e03ff805 	stb	zero,-32(fp)
	}
	return status;
     82c:	e0bff803 	ldbu	r2,-32(fp)
}
     830:	e037883a 	mov	sp,fp
     834:	df000017 	ldw	fp,0(sp)
     838:	dec00104 	addi	sp,sp,4
     83c:	f800283a 	ret

00000840 <setAreaRangeCentered>:

//居中设置区域范围(如果不是偶数，就稍微偏左上角)
bool setAreaRangeCentered( AreaRange *areaPtr, short width, short height, short objXSize, short objYSize )
{
     840:	defff504 	addi	sp,sp,-44
     844:	dfc00a15 	stw	ra,40(sp)
     848:	df000915 	stw	fp,36(sp)
     84c:	df000904 	addi	fp,sp,36
     850:	e13ffb15 	stw	r4,-20(fp)
     854:	3009883a 	mov	r4,r6
     858:	3807883a 	mov	r3,r7
     85c:	e0800217 	ldw	r2,8(fp)
     860:	e17ffc0d 	sth	r5,-16(fp)
     864:	e13ffd0d 	sth	r4,-12(fp)
     868:	e0fffe0d 	sth	r3,-8(fp)
     86c:	e0bfff0d 	sth	r2,-4(fp)
	bool status = true;
     870:	00800044 	movi	r2,1
     874:	e0bff805 	stb	r2,-32(fp)

	if ( width < objXSize || height < objYSize )//obj尺寸超出模块范围，不考虑对象obj的需求尺寸，obj直接使用模块尺寸
     878:	e0fffc0f 	ldh	r3,-16(fp)
     87c:	e0bffe0f 	ldh	r2,-8(fp)
     880:	18800316 	blt	r3,r2,890 <setAreaRangeCentered+0x50>
     884:	e0fffd0f 	ldh	r3,-12(fp)
     888:	e0bfff0f 	ldh	r2,-4(fp)
     88c:	18800b0e 	bge	r3,r2,8bc <setAreaRangeCentered+0x7c>
	{
		setAreaRange( areaPtr, 1, width, 1, height );
     890:	e0fffc0f 	ldh	r3,-16(fp)
     894:	e0bffd0f 	ldh	r2,-12(fp)
     898:	d8800015 	stw	r2,0(sp)
     89c:	e13ffb17 	ldw	r4,-20(fp)
     8a0:	01400044 	movi	r5,1
     8a4:	180d883a 	mov	r6,r3
     8a8:	01c00044 	movi	r7,1
     8ac:	000044c0 	call	44c <setAreaRange>
		status = false;//参数设置有误（有模块的对象尺寸超出边界）
     8b0:	e03ff805 	stb	zero,-32(fp)
		return status;
     8b4:	e0bff803 	ldbu	r2,-32(fp)
     8b8:	00003d06 	br	9b0 <setAreaRangeCentered+0x170>
	}

	//区域范围正常
	short marginXL = ( width - objXSize ) >> 1;//左边距
     8bc:	e0fffc0f 	ldh	r3,-16(fp)
     8c0:	e0bffe0f 	ldh	r2,-8(fp)
     8c4:	1885c83a 	sub	r2,r3,r2
     8c8:	1005d07a 	srai	r2,r2,1
     8cc:	e0bff88d 	sth	r2,-30(fp)
	short marginXR = ( width - objXSize ) - marginXL;//右边距
     8d0:	e0fffc0b 	ldhu	r3,-16(fp)
     8d4:	e0bffe0b 	ldhu	r2,-8(fp)
     8d8:	1885c83a 	sub	r2,r3,r2
     8dc:	1007883a 	mov	r3,r2
     8e0:	e0bff88b 	ldhu	r2,-30(fp)
     8e4:	1885c83a 	sub	r2,r3,r2
     8e8:	e0bff90d 	sth	r2,-28(fp)
	short marginYU = ( height - objYSize )>> 1;//上边距
     8ec:	e0fffd0f 	ldh	r3,-12(fp)
     8f0:	e0bfff0f 	ldh	r2,-4(fp)
     8f4:	1885c83a 	sub	r2,r3,r2
     8f8:	1005d07a 	srai	r2,r2,1
     8fc:	e0bff98d 	sth	r2,-26(fp)
	short marginYD = ( height - objYSize ) - marginYU;//下边距
     900:	e0fffd0b 	ldhu	r3,-12(fp)
     904:	e0bfff0b 	ldhu	r2,-4(fp)
     908:	1885c83a 	sub	r2,r3,r2
     90c:	1007883a 	mov	r3,r2
     910:	e0bff98b 	ldhu	r2,-26(fp)
     914:	1885c83a 	sub	r2,r3,r2
     918:	e0bffa0d 	sth	r2,-24(fp)

	status = status && setAreaRange( areaPtr, marginXL+1, width-marginXR, marginYU+1, height-marginYD );
     91c:	e0bff803 	ldbu	r2,-32(fp)
     920:	10001d26 	beq	r2,zero,998 <setAreaRangeCentered+0x158>
     924:	e0bff88b 	ldhu	r2,-30(fp)
     928:	10800044 	addi	r2,r2,1
     92c:	117fffcc 	andi	r5,r2,65535
     930:	2960001c 	xori	r5,r5,32768
     934:	29600004 	addi	r5,r5,-32768
     938:	e0fffc0b 	ldhu	r3,-16(fp)
     93c:	e0bff90b 	ldhu	r2,-28(fp)
     940:	1885c83a 	sub	r2,r3,r2
     944:	11bfffcc 	andi	r6,r2,65535
     948:	31a0001c 	xori	r6,r6,32768
     94c:	31a00004 	addi	r6,r6,-32768
     950:	e0bff98b 	ldhu	r2,-26(fp)
     954:	10800044 	addi	r2,r2,1
     958:	11ffffcc 	andi	r7,r2,65535
     95c:	39e0001c 	xori	r7,r7,32768
     960:	39e00004 	addi	r7,r7,-32768
     964:	e0fffd0b 	ldhu	r3,-12(fp)
     968:	e0bffa0b 	ldhu	r2,-24(fp)
     96c:	1885c83a 	sub	r2,r3,r2
     970:	10bfffcc 	andi	r2,r2,65535
     974:	10a0001c 	xori	r2,r2,32768
     978:	10a00004 	addi	r2,r2,-32768
     97c:	d8800015 	stw	r2,0(sp)
     980:	e13ffb17 	ldw	r4,-20(fp)
     984:	000044c0 	call	44c <setAreaRange>
     988:	10803fcc 	andi	r2,r2,255
     98c:	10000226 	beq	r2,zero,998 <setAreaRangeCentered+0x158>
     990:	00800044 	movi	r2,1
     994:	00000106 	br	99c <setAreaRangeCentered+0x15c>
     998:	0005883a 	mov	r2,zero
     99c:	e0bff805 	stb	r2,-32(fp)
     9a0:	e0bff803 	ldbu	r2,-32(fp)
     9a4:	1080004c 	andi	r2,r2,1
     9a8:	e0bff805 	stb	r2,-32(fp)

	return status;
     9ac:	e0bff803 	ldbu	r2,-32(fp)
}
     9b0:	e037883a 	mov	sp,fp
     9b4:	dfc00117 	ldw	ra,4(sp)
     9b8:	df000017 	ldw	fp,0(sp)
     9bc:	dec00204 	addi	sp,sp,8
     9c0:	f800283a 	ret

000009c4 <setDefaultTagBlock>:
//设置默认居中标签
bool setDefaultTagBlock( TagBlock *tagPtr, char *text, short width, short height )
{
     9c4:	defff704 	addi	sp,sp,-36
     9c8:	dfc00815 	stw	ra,32(sp)
     9cc:	df000715 	stw	fp,28(sp)
     9d0:	df000704 	addi	fp,sp,28
     9d4:	e13ffc15 	stw	r4,-16(fp)
     9d8:	e17ffd15 	stw	r5,-12(fp)
     9dc:	3007883a 	mov	r3,r6
     9e0:	3805883a 	mov	r2,r7
     9e4:	e0fffe0d 	sth	r3,-8(fp)
     9e8:	e0bfff0d 	sth	r2,-4(fp)
	tagPtr->tagColorInfo = defaultColorInfo;
     9ec:	e0bffc17 	ldw	r2,-16(fp)
     9f0:	d0e0040b 	ldhu	r3,-32752(gp)
     9f4:	10c0020d 	sth	r3,8(r2)
     9f8:	d0e00484 	addi	r3,gp,-32750
     9fc:	18c0000b 	ldhu	r3,0(r3)
     a00:	10c0028d 	sth	r3,10(r2)
     a04:	d0e00504 	addi	r3,gp,-32748
     a08:	18c0000b 	ldhu	r3,0(r3)
     a0c:	10c0030d 	sth	r3,12(r2)
     a10:	d0e00584 	addi	r3,gp,-32746
     a14:	18c0000b 	ldhu	r3,0(r3)
     a18:	10c0038d 	sth	r3,14(r2)

	tagPtr->wordSpacing = DEFAULT_WORD_SPACING;
     a1c:	e0bffc17 	ldw	r2,-16(fp)
     a20:	00c00084 	movi	r3,2
     a24:	10c0040d 	sth	r3,16(r2)
	tagPtr->letterSpacing = DEFAULT_LETTER_SPACING;
     a28:	e0bffc17 	ldw	r2,-16(fp)
     a2c:	00c00044 	movi	r3,1
     a30:	10c0048d 	sth	r3,18(r2)
	tagPtr->wordXSize = SRC_WORD_SIZE_X;//汉字横向宽度
     a34:	e0bffc17 	ldw	r2,-16(fp)
     a38:	00c00404 	movi	r3,16
     a3c:	10c0058d 	sth	r3,22(r2)
	tagPtr->letterXSize = SRC_LETTER_SIZE_X;//字母横向宽度
     a40:	e0bffc17 	ldw	r2,-16(fp)
     a44:	00c00204 	movi	r3,8
     a48:	10c0060d 	sth	r3,24(r2)
	tagPtr->objYSize = SRC_OBJ_SIZE_Y;//文字纵向高度
     a4c:	e0bffc17 	ldw	r2,-16(fp)
     a50:	00c00404 	movi	r3,16
     a54:	10c0068d 	sth	r3,26(r2)
	(tagPtr->tagText).text = text;
     a58:	e0bffc17 	ldw	r2,-16(fp)
     a5c:	e0fffd17 	ldw	r3,-12(fp)
     a60:	10c00715 	stw	r3,28(r2)

	short textLen = strlen(text);
     a64:	e13ffd17 	ldw	r4,-12(fp)
     a68:	00093400 	call	9340 <strlen>
     a6c:	e0bffa0d 	sth	r2,-24(fp)
	(tagPtr->tagText).textLen = textLen;
     a70:	e0bffc17 	ldw	r2,-16(fp)
     a74:	e0fffa0b 	ldhu	r3,-24(fp)
     a78:	10c0080d 	sth	r3,32(r2)

	(tagPtr->tagColorInfo).objVisible = ( text == NULL ) ? false : true;
     a7c:	e0bffd17 	ldw	r2,-12(fp)
     a80:	1004c03a 	cmpne	r2,r2,zero
     a84:	1007883a 	mov	r3,r2
     a88:	e0bffc17 	ldw	r2,-16(fp)
     a8c:	10c003c5 	stb	r3,15(r2)

	short textWidthSum = getWidthOfText( text, textLen );
     a90:	e0bffa0f 	ldh	r2,-24(fp)
     a94:	e13ffd17 	ldw	r4,-12(fp)
     a98:	100b883a 	mov	r5,r2
     a9c:	00016140 	call	1614 <getWidthOfText>
     aa0:	e0bffa8d 	sth	r2,-22(fp)

	bool status = setAreaRangeCentered( &(tagPtr->textArea ), width, height, textWidthSum, SRC_OBJ_SIZE_Y );
     aa4:	e13ffc17 	ldw	r4,-16(fp)
     aa8:	e17ffe0f 	ldh	r5,-8(fp)
     aac:	e1bfff0f 	ldh	r6,-4(fp)
     ab0:	e0fffa8f 	ldh	r3,-22(fp)
     ab4:	00800404 	movi	r2,16
     ab8:	d8800015 	stw	r2,0(sp)
     abc:	180f883a 	mov	r7,r3
     ac0:	00008400 	call	840 <setAreaRangeCentered>
     ac4:	e0bffb05 	stb	r2,-20(fp)

	return status;
     ac8:	e0bffb03 	ldbu	r2,-20(fp)
}
     acc:	e037883a 	mov	sp,fp
     ad0:	dfc00117 	ldw	ra,4(sp)
     ad4:	df000017 	ldw	fp,0(sp)
     ad8:	dec00204 	addi	sp,sp,8
     adc:	f800283a 	ret

00000ae0 <setDefaultProgressBarX>:
//设置默认进度条
bool setDefaultProgressBarX( ProgressBarX *prgBarInst, short width, short height )
{
     ae0:	defff504 	addi	sp,sp,-44
     ae4:	dfc00a15 	stw	ra,40(sp)
     ae8:	df000915 	stw	fp,36(sp)
     aec:	df000904 	addi	fp,sp,36
     af0:	e13ffd15 	stw	r4,-12(fp)
     af4:	2807883a 	mov	r3,r5
     af8:	3005883a 	mov	r2,r6
     afc:	e0fffe0d 	sth	r3,-8(fp)
     b00:	e0bfff0d 	sth	r2,-4(fp)
	bool status = true;
     b04:	00800044 	movi	r2,1
     b08:	e0bff905 	stb	r2,-28(fp)
	//基本信息
	prgBarInst->bkgBorderColor = defaultColorInfo;
     b0c:	e0bffd17 	ldw	r2,-12(fp)
     b10:	d0e0040b 	ldhu	r3,-32752(gp)
     b14:	10c0000d 	sth	r3,0(r2)
     b18:	d0e00484 	addi	r3,gp,-32750
     b1c:	18c0000b 	ldhu	r3,0(r3)
     b20:	10c0008d 	sth	r3,2(r2)
     b24:	d0e00504 	addi	r3,gp,-32748
     b28:	18c0000b 	ldhu	r3,0(r3)
     b2c:	10c0010d 	sth	r3,4(r2)
     b30:	d0e00584 	addi	r3,gp,-32746
     b34:	18c0000b 	ldhu	r3,0(r3)
     b38:	10c0018d 	sth	r3,6(r2)

	prgBarInst->xOffset = 0;
     b3c:	e0bffd17 	ldw	r2,-12(fp)
     b40:	1000140d 	sth	zero,80(r2)
	prgBarInst->xOffsetMax = 280;
     b44:	e0bffd17 	ldw	r2,-12(fp)
     b48:	00c04604 	movi	r3,280
     b4c:	10c0148d 	sth	r3,82(r2)

	//运动轴
	short dotHeight = ICON_DOT_Y_SIZE;
     b50:	00800304 	movi	r2,12
     b54:	e0bff98d 	sth	r2,-26(fp)
	short axisHeight = dotHeight / 2;
     b58:	e0bff98f 	ldh	r2,-26(fp)
     b5c:	1006d7fa 	srli	r3,r2,31
     b60:	1885883a 	add	r2,r3,r2
     b64:	1005d07a 	srai	r2,r2,1
     b68:	e0bffa0d 	sth	r2,-24(fp)
	short axisWidth = prgBarInst->xOffsetMax + 1;
     b6c:	e0bffd17 	ldw	r2,-12(fp)
     b70:	1080148b 	ldhu	r2,82(r2)
     b74:	10800044 	addi	r2,r2,1
     b78:	e0bffa8d 	sth	r2,-22(fp)
	status = status && setAreaRangeCentered( &(prgBarInst->axisArea), width, height, axisWidth, axisHeight );
     b7c:	e0bff903 	ldbu	r2,-28(fp)
     b80:	10000d26 	beq	r2,zero,bb8 <setDefaultProgressBarX+0xd8>
     b84:	e0bffd17 	ldw	r2,-12(fp)
     b88:	11000204 	addi	r4,r2,8
     b8c:	e17ffe0f 	ldh	r5,-8(fp)
     b90:	e1bfff0f 	ldh	r6,-4(fp)
     b94:	e0fffa8f 	ldh	r3,-22(fp)
     b98:	e0bffa0f 	ldh	r2,-24(fp)
     b9c:	d8800015 	stw	r2,0(sp)
     ba0:	180f883a 	mov	r7,r3
     ba4:	00008400 	call	840 <setAreaRangeCentered>
     ba8:	10803fcc 	andi	r2,r2,255
     bac:	10000226 	beq	r2,zero,bb8 <setDefaultProgressBarX+0xd8>
     bb0:	00800044 	movi	r2,1
     bb4:	00000106 	br	bbc <setDefaultProgressBarX+0xdc>
     bb8:	0005883a 	mov	r2,zero
     bbc:	e0bff905 	stb	r2,-28(fp)
     bc0:	e0bff903 	ldbu	r2,-28(fp)
     bc4:	1080004c 	andi	r2,r2,1
     bc8:	e0bff905 	stb	r2,-28(fp)
	//轴采用长方形区域的边界和填充的颜色体现
	status = status && setDefaultIconBlock( &(prgBarInst->axis), (void*)0, axisWidth, axisHeight, 0, 0 );
     bcc:	e0bff903 	ldbu	r2,-28(fp)
     bd0:	10000e26 	beq	r2,zero,c0c <setDefaultProgressBarX+0x12c>
     bd4:	e0bffd17 	ldw	r2,-12(fp)
     bd8:	11000404 	addi	r4,r2,16
     bdc:	e0fffa8f 	ldh	r3,-22(fp)
     be0:	e0bffa0f 	ldh	r2,-24(fp)
     be4:	d8000015 	stw	zero,0(sp)
     be8:	d8000115 	stw	zero,4(sp)
     bec:	000b883a 	mov	r5,zero
     bf0:	180d883a 	mov	r6,r3
     bf4:	100f883a 	mov	r7,r2
     bf8:	00013700 	call	1370 <setDefaultIconBlock>
     bfc:	10803fcc 	andi	r2,r2,255
     c00:	10000226 	beq	r2,zero,c0c <setDefaultProgressBarX+0x12c>
     c04:	00800044 	movi	r2,1
     c08:	00000106 	br	c10 <setDefaultProgressBarX+0x130>
     c0c:	0005883a 	mov	r2,zero
     c10:	e0bff905 	stb	r2,-28(fp)
     c14:	e0bff903 	ldbu	r2,-28(fp)
     c18:	1080004c 	andi	r2,r2,1
     c1c:	e0bff905 	stb	r2,-28(fp)


	//进度点基本区域（无偏移量时）
	short dotWidth = ICON_DOT_X_SIZE;
     c20:	00800304 	movi	r2,12
     c24:	e0bffb0d 	sth	r2,-20(fp)
	short dotMarginXL = (prgBarInst->axisArea).x_min - dotWidth/2 - 1;
     c28:	e0bffd17 	ldw	r2,-12(fp)
     c2c:	1080020b 	ldhu	r2,8(r2)
     c30:	1009883a 	mov	r4,r2
     c34:	e0bffb0f 	ldh	r2,-20(fp)
     c38:	1006d7fa 	srli	r3,r2,31
     c3c:	1885883a 	add	r2,r3,r2
     c40:	1005d07a 	srai	r2,r2,1
     c44:	2085c83a 	sub	r2,r4,r2
     c48:	10bfffc4 	addi	r2,r2,-1
     c4c:	e0bffb8d 	sth	r2,-18(fp)
	short dotMarginYU = ( (prgBarInst->axisArea).y_min - 1 + (prgBarInst->axisArea).y_max - dotHeight ) / 2;
     c50:	e0bffd17 	ldw	r2,-12(fp)
     c54:	1080030b 	ldhu	r2,12(r2)
     c58:	10bfffcc 	andi	r2,r2,65535
     c5c:	10a0001c 	xori	r2,r2,32768
     c60:	10a00004 	addi	r2,r2,-32768
     c64:	10ffffc4 	addi	r3,r2,-1
     c68:	e0bffd17 	ldw	r2,-12(fp)
     c6c:	1080038b 	ldhu	r2,14(r2)
     c70:	10bfffcc 	andi	r2,r2,65535
     c74:	10a0001c 	xori	r2,r2,32768
     c78:	10a00004 	addi	r2,r2,-32768
     c7c:	1887883a 	add	r3,r3,r2
     c80:	e0bff98f 	ldh	r2,-26(fp)
     c84:	1885c83a 	sub	r2,r3,r2
     c88:	1006d7fa 	srli	r3,r2,31
     c8c:	1885883a 	add	r2,r3,r2
     c90:	1005d07a 	srai	r2,r2,1
     c94:	e0bffc0d 	sth	r2,-16(fp)
	status = status && setAreaRange( &(prgBarInst->dotBaseArea), dotMarginXL + 1, dotMarginXL + dotWidth,\
     c98:	e0bff903 	ldbu	r2,-28(fp)
     c9c:	10001e26 	beq	r2,zero,d18 <setDefaultProgressBarX+0x238>
     ca0:	e0bffd17 	ldw	r2,-12(fp)
     ca4:	11000a04 	addi	r4,r2,40
     ca8:	e0bffb8b 	ldhu	r2,-18(fp)
     cac:	10800044 	addi	r2,r2,1
     cb0:	117fffcc 	andi	r5,r2,65535
     cb4:	2960001c 	xori	r5,r5,32768
     cb8:	29600004 	addi	r5,r5,-32768
     cbc:	e0fffb8b 	ldhu	r3,-18(fp)
     cc0:	e0bffb0b 	ldhu	r2,-20(fp)
     cc4:	1885883a 	add	r2,r3,r2
     cc8:	11bfffcc 	andi	r6,r2,65535
     ccc:	31a0001c 	xori	r6,r6,32768
     cd0:	31a00004 	addi	r6,r6,-32768
     cd4:	e0bffc0b 	ldhu	r2,-16(fp)
     cd8:	10800044 	addi	r2,r2,1
     cdc:	11ffffcc 	andi	r7,r2,65535
     ce0:	39e0001c 	xori	r7,r7,32768
     ce4:	39e00004 	addi	r7,r7,-32768
     ce8:	e0fffc0b 	ldhu	r3,-16(fp)
     cec:	e0bff98b 	ldhu	r2,-26(fp)
     cf0:	1885883a 	add	r2,r3,r2
     cf4:	10bfffcc 	andi	r2,r2,65535
     cf8:	10a0001c 	xori	r2,r2,32768
     cfc:	10a00004 	addi	r2,r2,-32768
     d00:	d8800015 	stw	r2,0(sp)
     d04:	000044c0 	call	44c <setAreaRange>
     d08:	10803fcc 	andi	r2,r2,255
     d0c:	10000226 	beq	r2,zero,d18 <setDefaultProgressBarX+0x238>
     d10:	00800044 	movi	r2,1
     d14:	00000106 	br	d1c <setDefaultProgressBarX+0x23c>
     d18:	0005883a 	mov	r2,zero
     d1c:	e0bff905 	stb	r2,-28(fp)
     d20:	e0bff903 	ldbu	r2,-28(fp)
     d24:	1080004c 	andi	r2,r2,1
     d28:	e0bff905 	stb	r2,-28(fp)
					dotMarginYU + 1, dotMarginYU + dotHeight);
	status = status && setDefaultIconBlock( &(prgBarInst->dot), icon_dot, axisWidth, axisHeight, dotWidth, dotHeight );
     d2c:	e0bff903 	ldbu	r2,-28(fp)
     d30:	10000f26 	beq	r2,zero,d70 <setDefaultProgressBarX+0x290>
     d34:	e0bffd17 	ldw	r2,-12(fp)
     d38:	11000c04 	addi	r4,r2,48
     d3c:	e1bffa8f 	ldh	r6,-22(fp)
     d40:	e1fffa0f 	ldh	r7,-24(fp)
     d44:	e0fffb0f 	ldh	r3,-20(fp)
     d48:	e0bff98f 	ldh	r2,-26(fp)
     d4c:	d8c00015 	stw	r3,0(sp)
     d50:	d8800115 	stw	r2,4(sp)
     d54:	01400374 	movhi	r5,13
     d58:	29428204 	addi	r5,r5,2568
     d5c:	00013700 	call	1370 <setDefaultIconBlock>
     d60:	10803fcc 	andi	r2,r2,255
     d64:	10000226 	beq	r2,zero,d70 <setDefaultProgressBarX+0x290>
     d68:	00800044 	movi	r2,1
     d6c:	00000106 	br	d74 <setDefaultProgressBarX+0x294>
     d70:	0005883a 	mov	r2,zero
     d74:	e0bff905 	stb	r2,-28(fp)
     d78:	e0bff903 	ldbu	r2,-28(fp)
     d7c:	1080004c 	andi	r2,r2,1
     d80:	e0bff905 	stb	r2,-28(fp)

	//用户点击区
	status = status && setAreaRangeCentered( &(prgBarInst->clickArea), width, height, axisWidth + dotWidth/2, height / 2 );
     d84:	e0bff903 	ldbu	r2,-28(fp)
     d88:	10001b26 	beq	r2,zero,df8 <setDefaultProgressBarX+0x318>
     d8c:	e0bffd17 	ldw	r2,-12(fp)
     d90:	11001204 	addi	r4,r2,72
     d94:	e17ffe0f 	ldh	r5,-8(fp)
     d98:	e1bfff0f 	ldh	r6,-4(fp)
     d9c:	e0bffb0f 	ldh	r2,-20(fp)
     da0:	1006d7fa 	srli	r3,r2,31
     da4:	1885883a 	add	r2,r3,r2
     da8:	1005d07a 	srai	r2,r2,1
     dac:	1007883a 	mov	r3,r2
     db0:	e0bffa8b 	ldhu	r2,-22(fp)
     db4:	1885883a 	add	r2,r3,r2
     db8:	11ffffcc 	andi	r7,r2,65535
     dbc:	39e0001c 	xori	r7,r7,32768
     dc0:	39e00004 	addi	r7,r7,-32768
     dc4:	e0bfff0f 	ldh	r2,-4(fp)
     dc8:	1006d7fa 	srli	r3,r2,31
     dcc:	1885883a 	add	r2,r3,r2
     dd0:	1005d07a 	srai	r2,r2,1
     dd4:	10bfffcc 	andi	r2,r2,65535
     dd8:	10a0001c 	xori	r2,r2,32768
     ddc:	10a00004 	addi	r2,r2,-32768
     de0:	d8800015 	stw	r2,0(sp)
     de4:	00008400 	call	840 <setAreaRangeCentered>
     de8:	10803fcc 	andi	r2,r2,255
     dec:	10000226 	beq	r2,zero,df8 <setDefaultProgressBarX+0x318>
     df0:	00800044 	movi	r2,1
     df4:	00000106 	br	dfc <setDefaultProgressBarX+0x31c>
     df8:	0005883a 	mov	r2,zero
     dfc:	e0bff905 	stb	r2,-28(fp)
     e00:	e0bff903 	ldbu	r2,-28(fp)
     e04:	1080004c 	andi	r2,r2,1
     e08:	e0bff905 	stb	r2,-28(fp)


	return status;
     e0c:	e0bff903 	ldbu	r2,-28(fp)

}
     e10:	e037883a 	mov	sp,fp
     e14:	dfc00117 	ldw	ra,4(sp)
     e18:	df000017 	ldw	fp,0(sp)
     e1c:	dec00204 	addi	sp,sp,8
     e20:	f800283a 	ret

00000e24 <setDefaultScrollBarY>:
//设置默认垂直滚动条
bool setDefaultScrollBarY( ScrollBarY *scrollBarYInst, short width, short height, float barYRatio )
{
     e24:	defff204 	addi	sp,sp,-56
     e28:	dfc00d15 	stw	ra,52(sp)
     e2c:	df000c15 	stw	fp,48(sp)
     e30:	df000c04 	addi	fp,sp,48
     e34:	e13ffc15 	stw	r4,-16(fp)
     e38:	2807883a 	mov	r3,r5
     e3c:	3005883a 	mov	r2,r6
     e40:	e1ffff15 	stw	r7,-4(fp)
     e44:	e0fffd0d 	sth	r3,-12(fp)
     e48:	e0bffe0d 	sth	r2,-8(fp)
	bool status = true;
     e4c:	00800044 	movi	r2,1
     e50:	e0bff605 	stb	r2,-40(fp)

	scrollBarYInst->barYColorInfo = defaultColorInfo;
     e54:	e0bffc17 	ldw	r2,-16(fp)
     e58:	d0e0040b 	ldhu	r3,-32752(gp)
     e5c:	10c0000d 	sth	r3,0(r2)
     e60:	d0e00484 	addi	r3,gp,-32750
     e64:	18c0000b 	ldhu	r3,0(r3)
     e68:	10c0008d 	sth	r3,2(r2)
     e6c:	d0e00504 	addi	r3,gp,-32748
     e70:	18c0000b 	ldhu	r3,0(r3)
     e74:	10c0010d 	sth	r3,4(r2)
     e78:	d0e00584 	addi	r3,gp,-32746
     e7c:	18c0000b 	ldhu	r3,0(r3)
     e80:	10c0018d 	sth	r3,6(r2)

	short iconMarginXL = 1;
     e84:	00800044 	movi	r2,1
     e88:	e0bff68d 	sth	r2,-38(fp)
	short iconMarginXR = 1;
     e8c:	00800044 	movi	r2,1
     e90:	e0bff70d 	sth	r2,-36(fp)
	short iconUpMarginYU = 1;
     e94:	00800044 	movi	r2,1
     e98:	e0bff78d 	sth	r2,-34(fp)
	short iconDownMarginYD = 1;
     e9c:	00800044 	movi	r2,1
     ea0:	e0bff80d 	sth	r2,-32(fp)
	short iconWidth = width - iconMarginXL - iconMarginXR;
     ea4:	e0fffd0b 	ldhu	r3,-12(fp)
     ea8:	e0bff68b 	ldhu	r2,-38(fp)
     eac:	1885c83a 	sub	r2,r3,r2
     eb0:	1007883a 	mov	r3,r2
     eb4:	e0bff70b 	ldhu	r2,-36(fp)
     eb8:	1885c83a 	sub	r2,r3,r2
     ebc:	e0bff88d 	sth	r2,-30(fp)
	short iconUpHeight = iconWidth;
     ec0:	e0bff88b 	ldhu	r2,-30(fp)
     ec4:	e0bff90d 	sth	r2,-28(fp)
	short iconDownHeight = iconWidth;
     ec8:	e0bff88b 	ldhu	r2,-30(fp)
     ecc:	e0bff98d 	sth	r2,-26(fp)
	short iconDownMarginYU = height - iconDownHeight - iconUpMarginYU;
     ed0:	e0fffe0b 	ldhu	r3,-8(fp)
     ed4:	e0bff98b 	ldhu	r2,-26(fp)
     ed8:	1885c83a 	sub	r2,r3,r2
     edc:	1007883a 	mov	r3,r2
     ee0:	e0bff78b 	ldhu	r2,-34(fp)
     ee4:	1885c83a 	sub	r2,r3,r2
     ee8:	e0bffa0d 	sth	r2,-24(fp)
	short iconSpacing = 2;//iconBlock之间的纵向间隔
     eec:	00800084 	movi	r2,2
     ef0:	e0bffa8d 	sth	r2,-22(fp)
	short iconBarMoveMarginYU = iconUpMarginYU + iconUpHeight + iconSpacing;
     ef4:	e0fff78b 	ldhu	r3,-34(fp)
     ef8:	e0bff90b 	ldhu	r2,-28(fp)
     efc:	1885883a 	add	r2,r3,r2
     f00:	1007883a 	mov	r3,r2
     f04:	e0bffa8b 	ldhu	r2,-22(fp)
     f08:	1885883a 	add	r2,r3,r2
     f0c:	e0bffb0d 	sth	r2,-20(fp)
	short iconBarMoveHeight = height - iconDownMarginYD - iconDownHeight - iconSpacing - iconBarMoveMarginYU;
     f10:	e0fffe0b 	ldhu	r3,-8(fp)
     f14:	e0bff80b 	ldhu	r2,-32(fp)
     f18:	1885c83a 	sub	r2,r3,r2
     f1c:	1007883a 	mov	r3,r2
     f20:	e0bff98b 	ldhu	r2,-26(fp)
     f24:	1885c83a 	sub	r2,r3,r2
     f28:	1007883a 	mov	r3,r2
     f2c:	e0bffa8b 	ldhu	r2,-22(fp)
     f30:	1885c83a 	sub	r2,r3,r2
     f34:	1007883a 	mov	r3,r2
     f38:	e0bffb0b 	ldhu	r2,-20(fp)
     f3c:	1885c83a 	sub	r2,r3,r2
     f40:	e0bffb8d 	sth	r2,-18(fp)

	//上移键图标
	status = status && setAreaRange( &(scrollBarYInst->iconMoveUpArea), iconMarginXL+1, iconMarginXL+iconWidth,\
     f44:	e0bff603 	ldbu	r2,-40(fp)
     f48:	10001e26 	beq	r2,zero,fc4 <setDefaultScrollBarY+0x1a0>
     f4c:	e0bffc17 	ldw	r2,-16(fp)
     f50:	11000204 	addi	r4,r2,8
     f54:	e0bff68b 	ldhu	r2,-38(fp)
     f58:	10800044 	addi	r2,r2,1
     f5c:	117fffcc 	andi	r5,r2,65535
     f60:	2960001c 	xori	r5,r5,32768
     f64:	29600004 	addi	r5,r5,-32768
     f68:	e0fff68b 	ldhu	r3,-38(fp)
     f6c:	e0bff88b 	ldhu	r2,-30(fp)
     f70:	1885883a 	add	r2,r3,r2
     f74:	11bfffcc 	andi	r6,r2,65535
     f78:	31a0001c 	xori	r6,r6,32768
     f7c:	31a00004 	addi	r6,r6,-32768
     f80:	e0bff78b 	ldhu	r2,-34(fp)
     f84:	10800044 	addi	r2,r2,1
     f88:	11ffffcc 	andi	r7,r2,65535
     f8c:	39e0001c 	xori	r7,r7,32768
     f90:	39e00004 	addi	r7,r7,-32768
     f94:	e0fff78b 	ldhu	r3,-34(fp)
     f98:	e0bff90b 	ldhu	r2,-28(fp)
     f9c:	1885883a 	add	r2,r3,r2
     fa0:	10bfffcc 	andi	r2,r2,65535
     fa4:	10a0001c 	xori	r2,r2,32768
     fa8:	10a00004 	addi	r2,r2,-32768
     fac:	d8800015 	stw	r2,0(sp)
     fb0:	000044c0 	call	44c <setAreaRange>
     fb4:	10803fcc 	andi	r2,r2,255
     fb8:	10000226 	beq	r2,zero,fc4 <setDefaultScrollBarY+0x1a0>
     fbc:	00800044 	movi	r2,1
     fc0:	00000106 	br	fc8 <setDefaultScrollBarY+0x1a4>
     fc4:	0005883a 	mov	r2,zero
     fc8:	e0bff605 	stb	r2,-40(fp)
     fcc:	e0bff603 	ldbu	r2,-40(fp)
     fd0:	1080004c 	andi	r2,r2,1
     fd4:	e0bff605 	stb	r2,-40(fp)
					iconUpMarginYU+1, iconUpMarginYU+iconUpHeight );
	status = status && setDefaultIconBlock( &(scrollBarYInst->iconMoveUp), icon_move_up, iconWidth, iconUpHeight,\
     fd8:	e0bff603 	ldbu	r2,-40(fp)
     fdc:	10001026 	beq	r2,zero,1020 <setDefaultScrollBarY+0x1fc>
     fe0:	e0bffc17 	ldw	r2,-16(fp)
     fe4:	11000404 	addi	r4,r2,16
     fe8:	e1bff88f 	ldh	r6,-30(fp)
     fec:	e0fff90f 	ldh	r3,-28(fp)
     ff0:	00800304 	movi	r2,12
     ff4:	d8800015 	stw	r2,0(sp)
     ff8:	00800204 	movi	r2,8
     ffc:	d8800115 	stw	r2,4(sp)
    1000:	01400374 	movhi	r5,13
    1004:	29428804 	addi	r5,r5,2592
    1008:	180f883a 	mov	r7,r3
    100c:	00013700 	call	1370 <setDefaultIconBlock>
    1010:	10803fcc 	andi	r2,r2,255
    1014:	10000226 	beq	r2,zero,1020 <setDefaultScrollBarY+0x1fc>
    1018:	00800044 	movi	r2,1
    101c:	00000106 	br	1024 <setDefaultScrollBarY+0x200>
    1020:	0005883a 	mov	r2,zero
    1024:	e0bff605 	stb	r2,-40(fp)
    1028:	e0bff603 	ldbu	r2,-40(fp)
    102c:	1080004c 	andi	r2,r2,1
    1030:	e0bff605 	stb	r2,-40(fp)
					ICON_MOVE_UP_X_SIZE, ICON_MOVE_UP_Y_SIZE );

	//下移键图标
	status = status && setAreaRange( &(scrollBarYInst->iconMoveDownArea), iconMarginXL+1, iconMarginXL+iconWidth,\
    1034:	e0bff603 	ldbu	r2,-40(fp)
    1038:	10001e26 	beq	r2,zero,10b4 <setDefaultScrollBarY+0x290>
    103c:	e0bffc17 	ldw	r2,-16(fp)
    1040:	11000a04 	addi	r4,r2,40
    1044:	e0bff68b 	ldhu	r2,-38(fp)
    1048:	10800044 	addi	r2,r2,1
    104c:	117fffcc 	andi	r5,r2,65535
    1050:	2960001c 	xori	r5,r5,32768
    1054:	29600004 	addi	r5,r5,-32768
    1058:	e0fff68b 	ldhu	r3,-38(fp)
    105c:	e0bff88b 	ldhu	r2,-30(fp)
    1060:	1885883a 	add	r2,r3,r2
    1064:	11bfffcc 	andi	r6,r2,65535
    1068:	31a0001c 	xori	r6,r6,32768
    106c:	31a00004 	addi	r6,r6,-32768
    1070:	e0bffa0b 	ldhu	r2,-24(fp)
    1074:	10800044 	addi	r2,r2,1
    1078:	11ffffcc 	andi	r7,r2,65535
    107c:	39e0001c 	xori	r7,r7,32768
    1080:	39e00004 	addi	r7,r7,-32768
    1084:	e0fffa0b 	ldhu	r3,-24(fp)
    1088:	e0bff98b 	ldhu	r2,-26(fp)
    108c:	1885883a 	add	r2,r3,r2
    1090:	10bfffcc 	andi	r2,r2,65535
    1094:	10a0001c 	xori	r2,r2,32768
    1098:	10a00004 	addi	r2,r2,-32768
    109c:	d8800015 	stw	r2,0(sp)
    10a0:	000044c0 	call	44c <setAreaRange>
    10a4:	10803fcc 	andi	r2,r2,255
    10a8:	10000226 	beq	r2,zero,10b4 <setDefaultScrollBarY+0x290>
    10ac:	00800044 	movi	r2,1
    10b0:	00000106 	br	10b8 <setDefaultScrollBarY+0x294>
    10b4:	0005883a 	mov	r2,zero
    10b8:	e0bff605 	stb	r2,-40(fp)
    10bc:	e0bff603 	ldbu	r2,-40(fp)
    10c0:	1080004c 	andi	r2,r2,1
    10c4:	e0bff605 	stb	r2,-40(fp)
					iconDownMarginYU+1, iconDownMarginYU+iconDownHeight );
	status = status && setDefaultIconBlock( &(scrollBarYInst->iconMoveDown), icon_move_down, iconWidth, iconDownHeight,\
    10c8:	e0bff603 	ldbu	r2,-40(fp)
    10cc:	10001026 	beq	r2,zero,1110 <setDefaultScrollBarY+0x2ec>
    10d0:	e0bffc17 	ldw	r2,-16(fp)
    10d4:	11000c04 	addi	r4,r2,48
    10d8:	e1bff88f 	ldh	r6,-30(fp)
    10dc:	e0fff98f 	ldh	r3,-26(fp)
    10e0:	00800304 	movi	r2,12
    10e4:	d8800015 	stw	r2,0(sp)
    10e8:	00800204 	movi	r2,8
    10ec:	d8800115 	stw	r2,4(sp)
    10f0:	01400374 	movhi	r5,13
    10f4:	29428c04 	addi	r5,r5,2608
    10f8:	180f883a 	mov	r7,r3
    10fc:	00013700 	call	1370 <setDefaultIconBlock>
    1100:	10803fcc 	andi	r2,r2,255
    1104:	10000226 	beq	r2,zero,1110 <setDefaultScrollBarY+0x2ec>
    1108:	00800044 	movi	r2,1
    110c:	00000106 	br	1114 <setDefaultScrollBarY+0x2f0>
    1110:	0005883a 	mov	r2,zero
    1114:	e0bff605 	stb	r2,-40(fp)
    1118:	e0bff603 	ldbu	r2,-40(fp)
    111c:	1080004c 	andi	r2,r2,1
    1120:	e0bff605 	stb	r2,-40(fp)
					ICON_MOVE_DOWN_X_SIZE, ICON_MOVE_DOWN_Y_SIZE );


	//滚动条
	//运动区
	status = status && setAreaRange( &(scrollBarYInst->barMoveArea), iconMarginXL+1, iconMarginXL+iconWidth, \
    1124:	e0bff603 	ldbu	r2,-40(fp)
    1128:	10001e26 	beq	r2,zero,11a4 <setDefaultScrollBarY+0x380>
    112c:	e0bffc17 	ldw	r2,-16(fp)
    1130:	11001a04 	addi	r4,r2,104
    1134:	e0bff68b 	ldhu	r2,-38(fp)
    1138:	10800044 	addi	r2,r2,1
    113c:	117fffcc 	andi	r5,r2,65535
    1140:	2960001c 	xori	r5,r5,32768
    1144:	29600004 	addi	r5,r5,-32768
    1148:	e0fff68b 	ldhu	r3,-38(fp)
    114c:	e0bff88b 	ldhu	r2,-30(fp)
    1150:	1885883a 	add	r2,r3,r2
    1154:	11bfffcc 	andi	r6,r2,65535
    1158:	31a0001c 	xori	r6,r6,32768
    115c:	31a00004 	addi	r6,r6,-32768
    1160:	e0bffb0b 	ldhu	r2,-20(fp)
    1164:	10800044 	addi	r2,r2,1
    1168:	11ffffcc 	andi	r7,r2,65535
    116c:	39e0001c 	xori	r7,r7,32768
    1170:	39e00004 	addi	r7,r7,-32768
    1174:	e0fffb0b 	ldhu	r3,-20(fp)
    1178:	e0bffb8b 	ldhu	r2,-18(fp)
    117c:	1885883a 	add	r2,r3,r2
    1180:	10bfffcc 	andi	r2,r2,65535
    1184:	10a0001c 	xori	r2,r2,32768
    1188:	10a00004 	addi	r2,r2,-32768
    118c:	d8800015 	stw	r2,0(sp)
    1190:	000044c0 	call	44c <setAreaRange>
    1194:	10803fcc 	andi	r2,r2,255
    1198:	10000226 	beq	r2,zero,11a4 <setDefaultScrollBarY+0x380>
    119c:	00800044 	movi	r2,1
    11a0:	00000106 	br	11a8 <setDefaultScrollBarY+0x384>
    11a4:	0005883a 	mov	r2,zero
    11a8:	e0bff605 	stb	r2,-40(fp)
    11ac:	e0bff603 	ldbu	r2,-40(fp)
    11b0:	1080004c 	andi	r2,r2,1
    11b4:	e0bff605 	stb	r2,-40(fp)
					iconBarMoveMarginYU+1, iconBarMoveMarginYU+iconBarMoveHeight );

	//滚动条纵向偏移量
	scrollBarYInst->barHeight = barYRatio * iconBarMoveHeight;//计算滚动条的长度，barYRatio是滚动条高度占整个运动区高度的比率
    11b8:	e0bffb8f 	ldh	r2,-18(fp)
    11bc:	1009883a 	mov	r4,r2
    11c0:	00088c00 	call	88c0 <__floatsisf>
    11c4:	1007883a 	mov	r3,r2
    11c8:	1809883a 	mov	r4,r3
    11cc:	e17fff17 	ldw	r5,-4(fp)
    11d0:	00084240 	call	8424 <__mulsf3>
    11d4:	1007883a 	mov	r3,r2
    11d8:	1805883a 	mov	r2,r3
    11dc:	1009883a 	mov	r4,r2
    11e0:	00088480 	call	8848 <__fixsfsi>
    11e4:	1007883a 	mov	r3,r2
    11e8:	e0bffc17 	ldw	r2,-16(fp)
    11ec:	10c01d0d 	sth	r3,116(r2)
	if ( scrollBarYInst->barHeight > iconBarMoveHeight )//文件数很少，不需要滚动条
    11f0:	e0bffc17 	ldw	r2,-16(fp)
    11f4:	10801d0b 	ldhu	r2,116(r2)
    11f8:	10bfffcc 	andi	r2,r2,65535
    11fc:	10a0001c 	xori	r2,r2,32768
    1200:	10a00004 	addi	r2,r2,-32768
    1204:	e0fffb8f 	ldh	r3,-18(fp)
    1208:	1880060e 	bge	r3,r2,1224 <setDefaultScrollBarY+0x400>
	{
		scrollBarYInst->iconBarVisible = false;
    120c:	e0bffc17 	ldw	r2,-16(fp)
    1210:	10001d85 	stb	zero,118(r2)
		scrollBarYInst->barHeight = iconBarMoveHeight;
    1214:	e0bffc17 	ldw	r2,-16(fp)
    1218:	e0fffb8b 	ldhu	r3,-18(fp)
    121c:	10c01d0d 	sth	r3,116(r2)
    1220:	00000306 	br	1230 <setDefaultScrollBarY+0x40c>
	}
	else//文件很多，需要滚动条
	{
		scrollBarYInst->iconBarVisible = true;
    1224:	e0bffc17 	ldw	r2,-16(fp)
    1228:	00c00044 	movi	r3,1
    122c:	10c01d85 	stb	r3,118(r2)
	}

	scrollBarYInst->barYOffsetMax = iconBarMoveHeight - scrollBarYInst->barHeight;
    1230:	e0bffb8b 	ldhu	r2,-18(fp)
    1234:	e0fffc17 	ldw	r3,-16(fp)
    1238:	18c01d0b 	ldhu	r3,116(r3)
    123c:	10c5c83a 	sub	r2,r2,r3
    1240:	1007883a 	mov	r3,r2
    1244:	e0bffc17 	ldw	r2,-16(fp)
    1248:	10c01c8d 	sth	r3,114(r2)
	scrollBarYInst->barYoffset = 0;
    124c:	e0bffc17 	ldw	r2,-16(fp)
    1250:	10001c0d 	sth	zero,112(r2)

	//基本区（纵向偏移量为0时的位置）
	status = status && setAreaRange( &(scrollBarYInst->barBaseArea), iconMarginXL+1, iconMarginXL+iconWidth,\
    1254:	e0bff603 	ldbu	r2,-40(fp)
    1258:	10002126 	beq	r2,zero,12e0 <setDefaultScrollBarY+0x4bc>
    125c:	e0bffc17 	ldw	r2,-16(fp)
    1260:	11001204 	addi	r4,r2,72
    1264:	e0bff68b 	ldhu	r2,-38(fp)
    1268:	10800044 	addi	r2,r2,1
    126c:	117fffcc 	andi	r5,r2,65535
    1270:	2960001c 	xori	r5,r5,32768
    1274:	29600004 	addi	r5,r5,-32768
    1278:	e0fff68b 	ldhu	r3,-38(fp)
    127c:	e0bff88b 	ldhu	r2,-30(fp)
    1280:	1885883a 	add	r2,r3,r2
    1284:	11bfffcc 	andi	r6,r2,65535
    1288:	31a0001c 	xori	r6,r6,32768
    128c:	31a00004 	addi	r6,r6,-32768
    1290:	e0bffb0b 	ldhu	r2,-20(fp)
    1294:	10800044 	addi	r2,r2,1
    1298:	10ffffcc 	andi	r3,r2,65535
    129c:	18e0001c 	xori	r3,r3,32768
    12a0:	18e00004 	addi	r3,r3,-32768
					iconBarMoveMarginYU+1, iconBarMoveMarginYU+scrollBarYInst->barHeight );
    12a4:	e0bffc17 	ldw	r2,-16(fp)
    12a8:	10801d0b 	ldhu	r2,116(r2)

	scrollBarYInst->barYOffsetMax = iconBarMoveHeight - scrollBarYInst->barHeight;
	scrollBarYInst->barYoffset = 0;

	//基本区（纵向偏移量为0时的位置）
	status = status && setAreaRange( &(scrollBarYInst->barBaseArea), iconMarginXL+1, iconMarginXL+iconWidth,\
    12ac:	100f883a 	mov	r7,r2
    12b0:	e0bffb0b 	ldhu	r2,-20(fp)
    12b4:	3885883a 	add	r2,r7,r2
    12b8:	10bfffcc 	andi	r2,r2,65535
    12bc:	10a0001c 	xori	r2,r2,32768
    12c0:	10a00004 	addi	r2,r2,-32768
    12c4:	d8800015 	stw	r2,0(sp)
    12c8:	180f883a 	mov	r7,r3
    12cc:	000044c0 	call	44c <setAreaRange>
    12d0:	10803fcc 	andi	r2,r2,255
    12d4:	10000226 	beq	r2,zero,12e0 <setDefaultScrollBarY+0x4bc>
    12d8:	00800044 	movi	r2,1
    12dc:	00000106 	br	12e4 <setDefaultScrollBarY+0x4c0>
    12e0:	0005883a 	mov	r2,zero
    12e4:	e0bff605 	stb	r2,-40(fp)
    12e8:	e0bff603 	ldbu	r2,-40(fp)
    12ec:	1080004c 	andi	r2,r2,1
    12f0:	e0bff605 	stb	r2,-40(fp)
					iconBarMoveMarginYU+1, iconBarMoveMarginYU+scrollBarYInst->barHeight );
	status = status && setDefaultIconBlock( &(scrollBarYInst->iconMoveDown), (void*)0, iconWidth, scrollBarYInst->barHeight, 0, 0 );
    12f4:	e0bff603 	ldbu	r2,-40(fp)
    12f8:	10001226 	beq	r2,zero,1344 <setDefaultScrollBarY+0x520>
    12fc:	e0bffc17 	ldw	r2,-16(fp)
    1300:	11000c04 	addi	r4,r2,48
    1304:	e0fff88f 	ldh	r3,-30(fp)
    1308:	e0bffc17 	ldw	r2,-16(fp)
    130c:	10801d0b 	ldhu	r2,116(r2)
    1310:	10bfffcc 	andi	r2,r2,65535
    1314:	10a0001c 	xori	r2,r2,32768
    1318:	10a00004 	addi	r2,r2,-32768
    131c:	d8000015 	stw	zero,0(sp)
    1320:	d8000115 	stw	zero,4(sp)
    1324:	000b883a 	mov	r5,zero
    1328:	180d883a 	mov	r6,r3
    132c:	100f883a 	mov	r7,r2
    1330:	00013700 	call	1370 <setDefaultIconBlock>
    1334:	10803fcc 	andi	r2,r2,255
    1338:	10000226 	beq	r2,zero,1344 <setDefaultScrollBarY+0x520>
    133c:	00800044 	movi	r2,1
    1340:	00000106 	br	1348 <setDefaultScrollBarY+0x524>
    1344:	0005883a 	mov	r2,zero
    1348:	e0bff605 	stb	r2,-40(fp)
    134c:	e0bff603 	ldbu	r2,-40(fp)
    1350:	1080004c 	andi	r2,r2,1
    1354:	e0bff605 	stb	r2,-40(fp)


	return status;
    1358:	e0bff603 	ldbu	r2,-40(fp)
}
    135c:	e037883a 	mov	sp,fp
    1360:	dfc00117 	ldw	ra,4(sp)
    1364:	df000017 	ldw	fp,0(sp)
    1368:	dec00204 	addi	sp,sp,8
    136c:	f800283a 	ret

00001370 <setDefaultIconBlock>:
//设置默认居中图标
bool setDefaultIconBlock( IconBlock *iconPtr, const alt_u8 *iconModel, short width, short height, short iconXSize, short iconYSize )
{
    1370:	defff604 	addi	sp,sp,-40
    1374:	dfc00915 	stw	ra,36(sp)
    1378:	df000815 	stw	fp,32(sp)
    137c:	df000804 	addi	fp,sp,32
    1380:	e13ffa15 	stw	r4,-24(fp)
    1384:	e17ffb15 	stw	r5,-20(fp)
    1388:	300b883a 	mov	r5,r6
    138c:	3809883a 	mov	r4,r7
    1390:	e0c00217 	ldw	r3,8(fp)
    1394:	e0800317 	ldw	r2,12(fp)
    1398:	e17ffc0d 	sth	r5,-16(fp)
    139c:	e13ffd0d 	sth	r4,-12(fp)
    13a0:	e0fffe0d 	sth	r3,-8(fp)
    13a4:	e0bfff0d 	sth	r2,-4(fp)
	iconPtr->iconColorInfo = defaultColorInfo;
    13a8:	e0bffa17 	ldw	r2,-24(fp)
    13ac:	d0e0040b 	ldhu	r3,-32752(gp)
    13b0:	10c0020d 	sth	r3,8(r2)
    13b4:	d0e00484 	addi	r3,gp,-32750
    13b8:	18c0000b 	ldhu	r3,0(r3)
    13bc:	10c0028d 	sth	r3,10(r2)
    13c0:	d0e00504 	addi	r3,gp,-32748
    13c4:	18c0000b 	ldhu	r3,0(r3)
    13c8:	10c0030d 	sth	r3,12(r2)
    13cc:	d0e00584 	addi	r3,gp,-32746
    13d0:	18c0000b 	ldhu	r3,0(r3)
    13d4:	10c0038d 	sth	r3,14(r2)

	iconPtr->iconPic = iconModel;
    13d8:	e0bffa17 	ldw	r2,-24(fp)
    13dc:	e0fffb17 	ldw	r3,-20(fp)
    13e0:	10c00415 	stw	r3,16(r2)
	iconPtr->iconXSize = iconXSize;
    13e4:	e0bffa17 	ldw	r2,-24(fp)
    13e8:	e0fffe0b 	ldhu	r3,-8(fp)
    13ec:	10c0050d 	sth	r3,20(r2)
	iconPtr->iconYSize = iconYSize;
    13f0:	e0bffa17 	ldw	r2,-24(fp)
    13f4:	e0ffff0b 	ldhu	r3,-4(fp)
    13f8:	10c0058d 	sth	r3,22(r2)

	(iconPtr->iconColorInfo).objVisible = ( iconModel == NULL )? false : true;
    13fc:	e0bffb17 	ldw	r2,-20(fp)
    1400:	1004c03a 	cmpne	r2,r2,zero
    1404:	1007883a 	mov	r3,r2
    1408:	e0bffa17 	ldw	r2,-24(fp)
    140c:	10c003c5 	stb	r3,15(r2)



	bool status = setAreaRangeCentered( &(iconPtr->picArea ), width, height, iconXSize, iconYSize );
    1410:	e13ffa17 	ldw	r4,-24(fp)
    1414:	e17ffc0f 	ldh	r5,-16(fp)
    1418:	e1bffd0f 	ldh	r6,-12(fp)
    141c:	e0fffe0f 	ldh	r3,-8(fp)
    1420:	e0bfff0f 	ldh	r2,-4(fp)
    1424:	d8800015 	stw	r2,0(sp)
    1428:	180f883a 	mov	r7,r3
    142c:	00008400 	call	840 <setAreaRangeCentered>
    1430:	e0bff905 	stb	r2,-28(fp)

	return status;
    1434:	e0bff903 	ldbu	r2,-28(fp)
}
    1438:	e037883a 	mov	sp,fp
    143c:	dfc00117 	ldw	ra,4(sp)
    1440:	df000017 	ldw	fp,0(sp)
    1444:	dec00204 	addi	sp,sp,8
    1448:	f800283a 	ret

0000144c <setDefaultColorBoard>:

//设置取色板信息(颜色的位置colorPos表示屏幕中选中的位置，根据该位置，显示器会突出该块颜色的边界)
void setDefaultColorBoard( ColorBoard *colorPickerInst, color_u8 *colorSel, short width, short height )
{
    144c:	defffb04 	addi	sp,sp,-20
    1450:	df000415 	stw	fp,16(sp)
    1454:	df000404 	addi	fp,sp,16
    1458:	e13ffc15 	stw	r4,-16(fp)
    145c:	e17ffd15 	stw	r5,-12(fp)
    1460:	3007883a 	mov	r3,r6
    1464:	3805883a 	mov	r2,r7
    1468:	e0fffe0d 	sth	r3,-8(fp)
    146c:	e0bfff0d 	sth	r2,-4(fp)
	colorPickerInst->colorIndex = colorSel;
    1470:	e0bffc17 	ldw	r2,-16(fp)
    1474:	e0fffd17 	ldw	r3,-12(fp)
    1478:	10c00315 	stw	r3,12(r2)
	colorPickerInst->colorXNum = COLOR_FORM_X_NUM;//颜色有16行
    147c:	e0bffc17 	ldw	r2,-16(fp)
    1480:	00c00404 	movi	r3,16
    1484:	10c0010d 	sth	r3,4(r2)
	colorPickerInst->colorYNum = COLOR_FORM_Y_NUM;//颜色有16列
    1488:	e0bffc17 	ldw	r2,-16(fp)
    148c:	00c00404 	movi	r3,16
    1490:	10c0018d 	sth	r3,6(r2)
	colorPickerInst->colorXSize = width / 16;
    1494:	e0bffe0f 	ldh	r2,-8(fp)
    1498:	1000010e 	bge	r2,zero,14a0 <setDefaultColorBoard+0x54>
    149c:	108003c4 	addi	r2,r2,15
    14a0:	1005d13a 	srai	r2,r2,4
    14a4:	1007883a 	mov	r3,r2
    14a8:	e0bffc17 	ldw	r2,-16(fp)
    14ac:	10c0000d 	sth	r3,0(r2)
	colorPickerInst->colorYSize = height / 16;
    14b0:	e0bfff0f 	ldh	r2,-4(fp)
    14b4:	1000010e 	bge	r2,zero,14bc <setDefaultColorBoard+0x70>
    14b8:	108003c4 	addi	r2,r2,15
    14bc:	1005d13a 	srai	r2,r2,4
    14c0:	1007883a 	mov	r3,r2
    14c4:	e0bffc17 	ldw	r2,-16(fp)
    14c8:	10c0008d 	sth	r3,2(r2)
	colorPickerInst->colorSpace = color_form;
    14cc:	e0fffc17 	ldw	r3,-16(fp)
    14d0:	00800374 	movhi	r2,13
    14d4:	1091c004 	addi	r2,r2,18176
    14d8:	18800215 	stw	r2,8(r3)
}
    14dc:	e037883a 	mov	sp,fp
    14e0:	df000017 	ldw	fp,0(sp)
    14e4:	dec00104 	addi	sp,sp,4
    14e8:	f800283a 	ret

000014ec <getWordLetterArrange>:

//获取文本中汉字与字母的分布表(值为'c'，代表汉字，值为'e'，代表英文字母
char *getWordLetterArrange( char *str, short len )
{
    14ec:	defff804 	addi	sp,sp,-32
    14f0:	dfc00715 	stw	ra,28(sp)
    14f4:	df000615 	stw	fp,24(sp)
    14f8:	df000604 	addi	fp,sp,24
    14fc:	e13ffe15 	stw	r4,-8(fp)
    1500:	2805883a 	mov	r2,r5
    1504:	e0bfff0d 	sth	r2,-4(fp)
	char *strType = (char*)malloc( sizeof( char ) * (len+1) );
    1508:	e0bfff0f 	ldh	r2,-4(fp)
    150c:	10800044 	addi	r2,r2,1
    1510:	1009883a 	mov	r4,r2
    1514:	0008a580 	call	8a58 <malloc>
    1518:	e0bffc15 	stw	r2,-16(fp)
	short strTypeVaildNum = 0;
    151c:	e03ffa0d 	sth	zero,-24(fp)

	int i;
	for ( i = 0; i < len; i ++ )
    1520:	e03ffb15 	stw	zero,-20(fp)
    1524:	00002e06 	br	15e0 <getWordLetterArrange+0xf4>
	{
		char curChar = str[i];
    1528:	e0bffb17 	ldw	r2,-20(fp)
    152c:	e0fffe17 	ldw	r3,-8(fp)
    1530:	1885883a 	add	r2,r3,r2
    1534:	10800003 	ldbu	r2,0(r2)
    1538:	e0bffd05 	stb	r2,-12(fp)
		if ( curChar == 0 )//结束标志
    153c:	e0bffd07 	ldb	r2,-12(fp)
    1540:	1000011e 	bne	r2,zero,1548 <getWordLetterArrange+0x5c>
		{
			break;
    1544:	00002906 	br	15ec <getWordLetterArrange+0x100>
		}
		if ( curChar < 0 )//当前字节为汉字高字节
    1548:	e0bffd07 	ldb	r2,-12(fp)
    154c:	1000190e 	bge	r2,zero,15b4 <getWordLetterArrange+0xc8>
		{
			strType[strTypeVaildNum] = 'c';//中文CHINESE
    1550:	e0bffa0f 	ldh	r2,-24(fp)
    1554:	e0fffc17 	ldw	r3,-16(fp)
    1558:	1885883a 	add	r2,r3,r2
    155c:	00c018c4 	movi	r3,99
    1560:	10c00005 	stb	r3,0(r2)
			i = i + 1;
    1564:	e0bffb17 	ldw	r2,-20(fp)
    1568:	10800044 	addi	r2,r2,1
    156c:	e0bffb15 	stw	r2,-20(fp)
			if ( i == len || str[i] == 0 )//到了字符串结束，低字节却不存在，有问题
    1570:	e0ffff0f 	ldh	r3,-4(fp)
    1574:	e0bffb17 	ldw	r2,-20(fp)
    1578:	18800826 	beq	r3,r2,159c <getWordLetterArrange+0xb0>
    157c:	e0bffb17 	ldw	r2,-20(fp)
    1580:	e0fffe17 	ldw	r3,-8(fp)
    1584:	1885883a 	add	r2,r3,r2
    1588:	10800003 	ldbu	r2,0(r2)
    158c:	10803fcc 	andi	r2,r2,255
    1590:	1080201c 	xori	r2,r2,128
    1594:	10bfe004 	addi	r2,r2,-128
    1598:	10000b1e 	bne	r2,zero,15c8 <getWordLetterArrange+0xdc>
			{
				strType[strTypeVaildNum] = 0;//结束标志
    159c:	e0bffa0f 	ldh	r2,-24(fp)
    15a0:	e0fffc17 	ldw	r3,-16(fp)
    15a4:	1885883a 	add	r2,r3,r2
    15a8:	10000005 	stb	zero,0(r2)
				return strType;
    15ac:	e0bffc17 	ldw	r2,-16(fp)
    15b0:	00001306 	br	1600 <getWordLetterArrange+0x114>
			}
		}
		else
		{
			strType[strTypeVaildNum] = 'e';//英文ENGLISH
    15b4:	e0bffa0f 	ldh	r2,-24(fp)
    15b8:	e0fffc17 	ldw	r3,-16(fp)
    15bc:	1885883a 	add	r2,r3,r2
    15c0:	00c01944 	movi	r3,101
    15c4:	10c00005 	stb	r3,0(r2)
		}
		strTypeVaildNum ++;
    15c8:	e0bffa0b 	ldhu	r2,-24(fp)
    15cc:	10800044 	addi	r2,r2,1
    15d0:	e0bffa0d 	sth	r2,-24(fp)
{
	char *strType = (char*)malloc( sizeof( char ) * (len+1) );
	short strTypeVaildNum = 0;

	int i;
	for ( i = 0; i < len; i ++ )
    15d4:	e0bffb17 	ldw	r2,-20(fp)
    15d8:	10800044 	addi	r2,r2,1
    15dc:	e0bffb15 	stw	r2,-20(fp)
    15e0:	e0bfff0f 	ldh	r2,-4(fp)
    15e4:	e0fffb17 	ldw	r3,-20(fp)
    15e8:	18bfcf16 	blt	r3,r2,1528 <__alt_data_end+0xf8001528>
		{
			strType[strTypeVaildNum] = 'e';//英文ENGLISH
		}
		strTypeVaildNum ++;
	}
	strType[strTypeVaildNum] = 0;//结束标志
    15ec:	e0bffa0f 	ldh	r2,-24(fp)
    15f0:	e0fffc17 	ldw	r3,-16(fp)
    15f4:	1885883a 	add	r2,r3,r2
    15f8:	10000005 	stb	zero,0(r2)
	return strType;
    15fc:	e0bffc17 	ldw	r2,-16(fp)
}
    1600:	e037883a 	mov	sp,fp
    1604:	dfc00117 	ldw	ra,4(sp)
    1608:	df000017 	ldw	fp,0(sp)
    160c:	dec00204 	addi	sp,sp,8
    1610:	f800283a 	ret

00001614 <getWidthOfText>:

//计算有效文本全部显示时的像素宽度
short getWidthOfText( char *str, short len )
{
    1614:	defff904 	addi	sp,sp,-28
    1618:	dfc00615 	stw	ra,24(sp)
    161c:	df000515 	stw	fp,20(sp)
    1620:	df000504 	addi	fp,sp,20
    1624:	e13ffe15 	stw	r4,-8(fp)
    1628:	2805883a 	mov	r2,r5
    162c:	e0bfff0d 	sth	r2,-4(fp)
	char *strType = getWordLetterArrange( str, len );
    1630:	e0bfff0f 	ldh	r2,-4(fp)
    1634:	e13ffe17 	ldw	r4,-8(fp)
    1638:	100b883a 	mov	r5,r2
    163c:	00014ec0 	call	14ec <getWordLetterArrange>
    1640:	e0bffd15 	stw	r2,-12(fp)

	if ( strType == NULL )
    1644:	e0bffd17 	ldw	r2,-12(fp)
    1648:	1000021e 	bne	r2,zero,1654 <getWidthOfText+0x40>
	{
		return 0;
    164c:	0005883a 	mov	r2,zero
    1650:	00005006 	br	1794 <getWidthOfText+0x180>
	}
	if ( strType[0] == 0 )
    1654:	e0bffd17 	ldw	r2,-12(fp)
    1658:	10800003 	ldbu	r2,0(r2)
    165c:	10803fcc 	andi	r2,r2,255
    1660:	1080201c 	xori	r2,r2,128
    1664:	10bfe004 	addi	r2,r2,-128
    1668:	1000041e 	bne	r2,zero,167c <getWidthOfText+0x68>
	{
		free(strType);
    166c:	e13ffd17 	ldw	r4,-12(fp)
    1670:	0008a6c0 	call	8a6c <free>
		return 0;
    1674:	0005883a 	mov	r2,zero
    1678:	00004606 	br	1794 <getWidthOfText+0x180>
	}

	short textWidth = ( strType[0] == 'e' ) ? SRC_LETTER_SIZE_X : SRC_WORD_SIZE_X;
    167c:	e0bffd17 	ldw	r2,-12(fp)
    1680:	10800003 	ldbu	r2,0(r2)
    1684:	10803fcc 	andi	r2,r2,255
    1688:	1080201c 	xori	r2,r2,128
    168c:	10bfe004 	addi	r2,r2,-128
    1690:	10801958 	cmpnei	r2,r2,101
    1694:	1000021e 	bne	r2,zero,16a0 <getWidthOfText+0x8c>
    1698:	00800204 	movi	r2,8
    169c:	00000106 	br	16a4 <getWidthOfText+0x90>
    16a0:	00800404 	movi	r2,16
    16a4:	e0bffb0d 	sth	r2,-20(fp)

	int i;
	for ( i = 1; strType[i] != 0; i ++ )
    16a8:	00800044 	movi	r2,1
    16ac:	e0bffc15 	stw	r2,-16(fp)
    16b0:	00002d06 	br	1768 <getWidthOfText+0x154>
	{
		if( strType[i-1] == 'e' && strType[i] == 'e' )
    16b4:	e0bffc17 	ldw	r2,-16(fp)
    16b8:	10bfffc4 	addi	r2,r2,-1
    16bc:	e0fffd17 	ldw	r3,-12(fp)
    16c0:	1885883a 	add	r2,r3,r2
    16c4:	10800003 	ldbu	r2,0(r2)
    16c8:	10803fcc 	andi	r2,r2,255
    16cc:	1080201c 	xori	r2,r2,128
    16d0:	10bfe004 	addi	r2,r2,-128
    16d4:	10801958 	cmpnei	r2,r2,101
    16d8:	10000d1e 	bne	r2,zero,1710 <getWidthOfText+0xfc>
    16dc:	e0bffc17 	ldw	r2,-16(fp)
    16e0:	e0fffd17 	ldw	r3,-12(fp)
    16e4:	1885883a 	add	r2,r3,r2
    16e8:	10800003 	ldbu	r2,0(r2)
    16ec:	10803fcc 	andi	r2,r2,255
    16f0:	1080201c 	xori	r2,r2,128
    16f4:	10bfe004 	addi	r2,r2,-128
    16f8:	10801958 	cmpnei	r2,r2,101
    16fc:	1000041e 	bne	r2,zero,1710 <getWidthOfText+0xfc>
		{
			textWidth = textWidth + DEFAULT_LETTER_SPACING;
    1700:	e0bffb0b 	ldhu	r2,-20(fp)
    1704:	10800044 	addi	r2,r2,1
    1708:	e0bffb0d 	sth	r2,-20(fp)
    170c:	00000306 	br	171c <getWidthOfText+0x108>
		}
		else
		{
			textWidth = textWidth + DEFAULT_WORD_SPACING;
    1710:	e0bffb0b 	ldhu	r2,-20(fp)
    1714:	10800084 	addi	r2,r2,2
    1718:	e0bffb0d 	sth	r2,-20(fp)
		}
		if ( strType[i] == 'e' )
    171c:	e0bffc17 	ldw	r2,-16(fp)
    1720:	e0fffd17 	ldw	r3,-12(fp)
    1724:	1885883a 	add	r2,r3,r2
    1728:	10800003 	ldbu	r2,0(r2)
    172c:	10803fcc 	andi	r2,r2,255
    1730:	1080201c 	xori	r2,r2,128
    1734:	10bfe004 	addi	r2,r2,-128
    1738:	10801958 	cmpnei	r2,r2,101
    173c:	1000041e 	bne	r2,zero,1750 <getWidthOfText+0x13c>
		{
			textWidth = textWidth + SRC_LETTER_SIZE_X;
    1740:	e0bffb0b 	ldhu	r2,-20(fp)
    1744:	10800204 	addi	r2,r2,8
    1748:	e0bffb0d 	sth	r2,-20(fp)
    174c:	00000306 	br	175c <getWidthOfText+0x148>
		}
		else
		{
			textWidth = textWidth + SRC_WORD_SIZE_X;
    1750:	e0bffb0b 	ldhu	r2,-20(fp)
    1754:	10800404 	addi	r2,r2,16
    1758:	e0bffb0d 	sth	r2,-20(fp)
	}

	short textWidth = ( strType[0] == 'e' ) ? SRC_LETTER_SIZE_X : SRC_WORD_SIZE_X;

	int i;
	for ( i = 1; strType[i] != 0; i ++ )
    175c:	e0bffc17 	ldw	r2,-16(fp)
    1760:	10800044 	addi	r2,r2,1
    1764:	e0bffc15 	stw	r2,-16(fp)
    1768:	e0bffc17 	ldw	r2,-16(fp)
    176c:	e0fffd17 	ldw	r3,-12(fp)
    1770:	1885883a 	add	r2,r3,r2
    1774:	10800003 	ldbu	r2,0(r2)
    1778:	10803fcc 	andi	r2,r2,255
    177c:	1080201c 	xori	r2,r2,128
    1780:	10bfe004 	addi	r2,r2,-128
    1784:	103fcb1e 	bne	r2,zero,16b4 <__alt_data_end+0xf80016b4>
		else
		{
			textWidth = textWidth + SRC_WORD_SIZE_X;
		}
	}
	free(strType);
    1788:	e13ffd17 	ldw	r4,-12(fp)
    178c:	0008a6c0 	call	8a6c <free>
	return textWidth;
    1790:	e0bffb0b 	ldhu	r2,-20(fp)
}
    1794:	e037883a 	mov	sp,fp
    1798:	dfc00117 	ldw	ra,4(sp)
    179c:	df000017 	ldw	fp,0(sp)
    17a0:	dec00204 	addi	sp,sp,8
    17a4:	f800283a 	ret

000017a8 <setDefaultTagGroup>:


//设置默认标签组
bool setDefaultTagGroup( TagGroup *tagGroupInst, AreaFmt *tagStaticPos, AreaFmt *tagVarPos, short width, short height,\
			char *tagStaText, char *tagVarText )
{
    17a8:	defff704 	addi	sp,sp,-36
    17ac:	dfc00815 	stw	ra,32(sp)
    17b0:	df000715 	stw	fp,28(sp)
    17b4:	df000704 	addi	fp,sp,28
    17b8:	e13ffb15 	stw	r4,-20(fp)
    17bc:	e17ffc15 	stw	r5,-16(fp)
    17c0:	e1bffd15 	stw	r6,-12(fp)
    17c4:	3807883a 	mov	r3,r7
    17c8:	e0800217 	ldw	r2,8(fp)
    17cc:	e0fffe0d 	sth	r3,-8(fp)
    17d0:	e0bfff0d 	sth	r2,-4(fp)
	bool status = true;
    17d4:	00800044 	movi	r2,1
    17d8:	e0bff905 	stb	r2,-28(fp)

	tagGroupInst->bkgBorderColor = defaultColorInfo;
    17dc:	e0bffb17 	ldw	r2,-20(fp)
    17e0:	d0e0040b 	ldhu	r3,-32752(gp)
    17e4:	10c0000d 	sth	r3,0(r2)
    17e8:	d0e00484 	addi	r3,gp,-32750
    17ec:	18c0000b 	ldhu	r3,0(r3)
    17f0:	10c0008d 	sth	r3,2(r2)
    17f4:	d0e00504 	addi	r3,gp,-32748
    17f8:	18c0000b 	ldhu	r3,0(r3)
    17fc:	10c0010d 	sth	r3,4(r2)
    1800:	d0e00584 	addi	r3,gp,-32746
    1804:	18c0000b 	ldhu	r3,0(r3)
    1808:	10c0018d 	sth	r3,6(r2)

	//设置静态标签的位置
	AreaRange *tempArea = &(tagGroupInst->staticTagArea);
    180c:	e0bffb17 	ldw	r2,-20(fp)
    1810:	10800204 	addi	r2,r2,8
    1814:	e0bffa15 	stw	r2,-24(fp)
	status = status && setAreaRangeByAreaFmt( tempArea, tagStaticPos, width, height );
    1818:	e0bff903 	ldbu	r2,-28(fp)
    181c:	10000b26 	beq	r2,zero,184c <setDefaultTagGroup+0xa4>
    1820:	e0fffe0f 	ldh	r3,-8(fp)
    1824:	e0bfff0f 	ldh	r2,-4(fp)
    1828:	e13ffa17 	ldw	r4,-24(fp)
    182c:	e17ffc17 	ldw	r5,-16(fp)
    1830:	180d883a 	mov	r6,r3
    1834:	100f883a 	mov	r7,r2
    1838:	00004dc0 	call	4dc <setAreaRangeByAreaFmt>
    183c:	10803fcc 	andi	r2,r2,255
    1840:	10000226 	beq	r2,zero,184c <setDefaultTagGroup+0xa4>
    1844:	00800044 	movi	r2,1
    1848:	00000106 	br	1850 <setDefaultTagGroup+0xa8>
    184c:	0005883a 	mov	r2,zero
    1850:	e0bff905 	stb	r2,-28(fp)
    1854:	e0bff903 	ldbu	r2,-28(fp)
    1858:	1080004c 	andi	r2,r2,1
    185c:	e0bff905 	stb	r2,-28(fp)
	//设置静态标签内容
	status = status && setDefaultTagBlock( &(tagGroupInst->staticTag), tagStaText, \
    1860:	e0bff903 	ldbu	r2,-28(fp)
    1864:	10001526 	beq	r2,zero,18bc <setDefaultTagGroup+0x114>
    1868:	e0bffb17 	ldw	r2,-20(fp)
    186c:	10c00404 	addi	r3,r2,16
			tempArea->x_max - tempArea->x_min + 1, tempArea->y_max - tempArea->y_max + 1);
    1870:	e0bffa17 	ldw	r2,-24(fp)
    1874:	1080008b 	ldhu	r2,2(r2)

	//设置静态标签的位置
	AreaRange *tempArea = &(tagGroupInst->staticTagArea);
	status = status && setAreaRangeByAreaFmt( tempArea, tagStaticPos, width, height );
	//设置静态标签内容
	status = status && setDefaultTagBlock( &(tagGroupInst->staticTag), tagStaText, \
    1878:	1009883a 	mov	r4,r2
			tempArea->x_max - tempArea->x_min + 1, tempArea->y_max - tempArea->y_max + 1);
    187c:	e0bffa17 	ldw	r2,-24(fp)
    1880:	1080000b 	ldhu	r2,0(r2)

	//设置静态标签的位置
	AreaRange *tempArea = &(tagGroupInst->staticTagArea);
	status = status && setAreaRangeByAreaFmt( tempArea, tagStaticPos, width, height );
	//设置静态标签内容
	status = status && setDefaultTagBlock( &(tagGroupInst->staticTag), tagStaText, \
    1884:	2085c83a 	sub	r2,r4,r2
    1888:	10800044 	addi	r2,r2,1
    188c:	10bfffcc 	andi	r2,r2,65535
    1890:	10a0001c 	xori	r2,r2,32768
    1894:	10a00004 	addi	r2,r2,-32768
    1898:	1809883a 	mov	r4,r3
    189c:	e1400317 	ldw	r5,12(fp)
    18a0:	100d883a 	mov	r6,r2
    18a4:	01c00044 	movi	r7,1
    18a8:	00009c40 	call	9c4 <setDefaultTagBlock>
    18ac:	10803fcc 	andi	r2,r2,255
    18b0:	10000226 	beq	r2,zero,18bc <setDefaultTagGroup+0x114>
    18b4:	00800044 	movi	r2,1
    18b8:	00000106 	br	18c0 <setDefaultTagGroup+0x118>
    18bc:	0005883a 	mov	r2,zero
    18c0:	e0bff905 	stb	r2,-28(fp)
    18c4:	e0bff903 	ldbu	r2,-28(fp)
    18c8:	1080004c 	andi	r2,r2,1
    18cc:	e0bff905 	stb	r2,-28(fp)
			tempArea->x_max - tempArea->x_min + 1, tempArea->y_max - tempArea->y_max + 1);


	//设置动态标签的位置
	tempArea = &(tagGroupInst->varTagArea);
    18d0:	e0bffb17 	ldw	r2,-20(fp)
    18d4:	10800d04 	addi	r2,r2,52
    18d8:	e0bffa15 	stw	r2,-24(fp)
	status = status && setAreaRangeByAreaFmt( tempArea, tagVarPos, width, height );
    18dc:	e0bff903 	ldbu	r2,-28(fp)
    18e0:	10000b26 	beq	r2,zero,1910 <setDefaultTagGroup+0x168>
    18e4:	e0fffe0f 	ldh	r3,-8(fp)
    18e8:	e0bfff0f 	ldh	r2,-4(fp)
    18ec:	e13ffa17 	ldw	r4,-24(fp)
    18f0:	e17ffd17 	ldw	r5,-12(fp)
    18f4:	180d883a 	mov	r6,r3
    18f8:	100f883a 	mov	r7,r2
    18fc:	00004dc0 	call	4dc <setAreaRangeByAreaFmt>
    1900:	10803fcc 	andi	r2,r2,255
    1904:	10000226 	beq	r2,zero,1910 <setDefaultTagGroup+0x168>
    1908:	00800044 	movi	r2,1
    190c:	00000106 	br	1914 <setDefaultTagGroup+0x16c>
    1910:	0005883a 	mov	r2,zero
    1914:	e0bff905 	stb	r2,-28(fp)
    1918:	e0bff903 	ldbu	r2,-28(fp)
    191c:	1080004c 	andi	r2,r2,1
    1920:	e0bff905 	stb	r2,-28(fp)
	//设置动态标签内容
	status = status && setDefaultTagBlock( &(tagGroupInst->varTag), tagVarText, \
    1924:	e0bff903 	ldbu	r2,-28(fp)
    1928:	10001526 	beq	r2,zero,1980 <setDefaultTagGroup+0x1d8>
    192c:	e0bffb17 	ldw	r2,-20(fp)
    1930:	10c00f04 	addi	r3,r2,60
			tempArea->x_max - tempArea->x_min + 1, tempArea->y_max - tempArea->y_max + 1);
    1934:	e0bffa17 	ldw	r2,-24(fp)
    1938:	1080008b 	ldhu	r2,2(r2)

	//设置动态标签的位置
	tempArea = &(tagGroupInst->varTagArea);
	status = status && setAreaRangeByAreaFmt( tempArea, tagVarPos, width, height );
	//设置动态标签内容
	status = status && setDefaultTagBlock( &(tagGroupInst->varTag), tagVarText, \
    193c:	1009883a 	mov	r4,r2
			tempArea->x_max - tempArea->x_min + 1, tempArea->y_max - tempArea->y_max + 1);
    1940:	e0bffa17 	ldw	r2,-24(fp)
    1944:	1080000b 	ldhu	r2,0(r2)

	//设置动态标签的位置
	tempArea = &(tagGroupInst->varTagArea);
	status = status && setAreaRangeByAreaFmt( tempArea, tagVarPos, width, height );
	//设置动态标签内容
	status = status && setDefaultTagBlock( &(tagGroupInst->varTag), tagVarText, \
    1948:	2085c83a 	sub	r2,r4,r2
    194c:	10800044 	addi	r2,r2,1
    1950:	10bfffcc 	andi	r2,r2,65535
    1954:	10a0001c 	xori	r2,r2,32768
    1958:	10a00004 	addi	r2,r2,-32768
    195c:	1809883a 	mov	r4,r3
    1960:	e1400417 	ldw	r5,16(fp)
    1964:	100d883a 	mov	r6,r2
    1968:	01c00044 	movi	r7,1
    196c:	00009c40 	call	9c4 <setDefaultTagBlock>
    1970:	10803fcc 	andi	r2,r2,255
    1974:	10000226 	beq	r2,zero,1980 <setDefaultTagGroup+0x1d8>
    1978:	00800044 	movi	r2,1
    197c:	00000106 	br	1984 <setDefaultTagGroup+0x1dc>
    1980:	0005883a 	mov	r2,zero
    1984:	e0bff905 	stb	r2,-28(fp)
    1988:	e0bff903 	ldbu	r2,-28(fp)
    198c:	1080004c 	andi	r2,r2,1
    1990:	e0bff905 	stb	r2,-28(fp)
			tempArea->x_max - tempArea->x_min + 1, tempArea->y_max - tempArea->y_max + 1);

	return status;
    1994:	e0bff903 	ldbu	r2,-28(fp)
}
    1998:	e037883a 	mov	sp,fp
    199c:	dfc00117 	ldw	ra,4(sp)
    19a0:	df000017 	ldw	fp,0(sp)
    19a4:	dec00204 	addi	sp,sp,8
    19a8:	f800283a 	ret

000019ac <setDefaultNumEditGroup>:

//设置默认可编辑数字(动态标签+静态图标)
bool setDefaultNumEditGroup( TagIconGroup *numEditGrpInst, short width, short height, short numMax, short numMin, short num, char *unitName )
{
    19ac:	defff004 	addi	sp,sp,-64
    19b0:	dfc00f15 	stw	ra,60(sp)
    19b4:	df000e15 	stw	fp,56(sp)
    19b8:	df000e04 	addi	fp,sp,56
    19bc:	e13ffa15 	stw	r4,-24(fp)
    19c0:	2811883a 	mov	r8,r5
    19c4:	300b883a 	mov	r5,r6
    19c8:	3809883a 	mov	r4,r7
    19cc:	e0c00217 	ldw	r3,8(fp)
    19d0:	e0800317 	ldw	r2,12(fp)
    19d4:	e23ffb0d 	sth	r8,-20(fp)
    19d8:	e17ffc0d 	sth	r5,-16(fp)
    19dc:	e13ffd0d 	sth	r4,-12(fp)
    19e0:	e0fffe0d 	sth	r3,-8(fp)
    19e4:	e0bfff0d 	sth	r2,-4(fp)
	bool status = true;
    19e8:	00800044 	movi	r2,1
    19ec:	e0bff405 	stb	r2,-48(fp)

	//设置基本信息
	numEditGrpInst->bkgBorderColor = defaultColorInfo;
    19f0:	e0bffa17 	ldw	r2,-24(fp)
    19f4:	d0e0040b 	ldhu	r3,-32752(gp)
    19f8:	10c0000d 	sth	r3,0(r2)
    19fc:	d0e00484 	addi	r3,gp,-32750
    1a00:	18c0000b 	ldhu	r3,0(r3)
    1a04:	10c0008d 	sth	r3,2(r2)
    1a08:	d0e00504 	addi	r3,gp,-32748
    1a0c:	18c0000b 	ldhu	r3,0(r3)
    1a10:	10c0010d 	sth	r3,4(r2)
    1a14:	d0e00584 	addi	r3,gp,-32746
    1a18:	18c0000b 	ldhu	r3,0(r3)
    1a1c:	10c0018d 	sth	r3,6(r2)

	//设置数字变化范围
	numEditGrpInst->value = num;
    1a20:	e0bffa17 	ldw	r2,-24(fp)
    1a24:	e0ffff0b 	ldhu	r3,-4(fp)
    1a28:	10c0280d 	sth	r3,160(r2)
	numEditGrpInst->valueMax = numMax;
    1a2c:	e0bffa17 	ldw	r2,-24(fp)
    1a30:	e0fffd0b 	ldhu	r3,-12(fp)
    1a34:	10c0288d 	sth	r3,162(r2)
	numEditGrpInst->valueMin = numMin;
    1a38:	e0bffa17 	ldw	r2,-24(fp)
    1a3c:	e0fffe0b 	ldhu	r3,-8(fp)
    1a40:	10c0290d 	sth	r3,164(r2)
	 * |                      |
	 * |  minusIcon           |
	 * |______________________|
	 */

	short tagHeight = 30;
    1a44:	00800784 	movi	r2,30
    1a48:	e0bff48d 	sth	r2,-46(fp)
	short tagWidth = 30;
    1a4c:	00800784 	movi	r2,30
    1a50:	e0bff50d 	sth	r2,-44(fp)
	short iconBlockWidth = 30;
    1a54:	00800784 	movi	r2,30
    1a58:	e0bff58d 	sth	r2,-42(fp)
	short iconBlockHeight = 20;
    1a5c:	00800504 	movi	r2,20
    1a60:	e0bff60d 	sth	r2,-40(fp)
	short numTagMarginXL = 10;
    1a64:	00800284 	movi	r2,10
    1a68:	e0bff68d 	sth	r2,-38(fp)
	short plusIconMarginYU = 10;
    1a6c:	00800284 	movi	r2,10
    1a70:	e0bff70d 	sth	r2,-36(fp)
	short minusIconMarginYD = 10;
    1a74:	00800284 	movi	r2,10
    1a78:	e0bff78d 	sth	r2,-34(fp)
	short twoTagSpacingX = 20;
    1a7c:	00800504 	movi	r2,20
    1a80:	e0bff80d 	sth	r2,-32(fp)

	//设置plusIcon
	status = status && setAreaRange( &(numEditGrpInst->plusIconArea), numTagMarginXL+1, numTagMarginXL+iconBlockWidth,\
    1a84:	e0bff403 	ldbu	r2,-48(fp)
    1a88:	10001e26 	beq	r2,zero,1b04 <setDefaultNumEditGroup+0x158>
    1a8c:	e0bffa17 	ldw	r2,-24(fp)
    1a90:	11000204 	addi	r4,r2,8
    1a94:	e0bff68b 	ldhu	r2,-38(fp)
    1a98:	10800044 	addi	r2,r2,1
    1a9c:	117fffcc 	andi	r5,r2,65535
    1aa0:	2960001c 	xori	r5,r5,32768
    1aa4:	29600004 	addi	r5,r5,-32768
    1aa8:	e0fff68b 	ldhu	r3,-38(fp)
    1aac:	e0bff58b 	ldhu	r2,-42(fp)
    1ab0:	1885883a 	add	r2,r3,r2
    1ab4:	11bfffcc 	andi	r6,r2,65535
    1ab8:	31a0001c 	xori	r6,r6,32768
    1abc:	31a00004 	addi	r6,r6,-32768
    1ac0:	e0bff70b 	ldhu	r2,-36(fp)
    1ac4:	10800044 	addi	r2,r2,1
    1ac8:	11ffffcc 	andi	r7,r2,65535
    1acc:	39e0001c 	xori	r7,r7,32768
    1ad0:	39e00004 	addi	r7,r7,-32768
    1ad4:	e0fff70b 	ldhu	r3,-36(fp)
    1ad8:	e0bff60b 	ldhu	r2,-40(fp)
    1adc:	1885883a 	add	r2,r3,r2
    1ae0:	10bfffcc 	andi	r2,r2,65535
    1ae4:	10a0001c 	xori	r2,r2,32768
    1ae8:	10a00004 	addi	r2,r2,-32768
    1aec:	d8800015 	stw	r2,0(sp)
    1af0:	000044c0 	call	44c <setAreaRange>
    1af4:	10803fcc 	andi	r2,r2,255
    1af8:	10000226 	beq	r2,zero,1b04 <setDefaultNumEditGroup+0x158>
    1afc:	00800044 	movi	r2,1
    1b00:	00000106 	br	1b08 <setDefaultNumEditGroup+0x15c>
    1b04:	0005883a 	mov	r2,zero
    1b08:	e0bff405 	stb	r2,-48(fp)
    1b0c:	e0bff403 	ldbu	r2,-48(fp)
    1b10:	1080004c 	andi	r2,r2,1
    1b14:	e0bff405 	stb	r2,-48(fp)
				plusIconMarginYU + 1, plusIconMarginYU + iconBlockHeight );
	status = status && setDefaultIconBlock( &(numEditGrpInst->plusIcon), icon_plus, \
    1b18:	e0bff403 	ldbu	r2,-48(fp)
    1b1c:	10001026 	beq	r2,zero,1b60 <setDefaultNumEditGroup+0x1b4>
    1b20:	e0bffa17 	ldw	r2,-24(fp)
    1b24:	11000404 	addi	r4,r2,16
    1b28:	e1bff58f 	ldh	r6,-42(fp)
    1b2c:	e0fff60f 	ldh	r3,-40(fp)
    1b30:	00800204 	movi	r2,8
    1b34:	d8800015 	stw	r2,0(sp)
    1b38:	00800204 	movi	r2,8
    1b3c:	d8800115 	stw	r2,4(sp)
    1b40:	01400374 	movhi	r5,13
    1b44:	294a8404 	addi	r5,r5,10768
    1b48:	180f883a 	mov	r7,r3
    1b4c:	00013700 	call	1370 <setDefaultIconBlock>
    1b50:	10803fcc 	andi	r2,r2,255
    1b54:	10000226 	beq	r2,zero,1b60 <setDefaultNumEditGroup+0x1b4>
    1b58:	00800044 	movi	r2,1
    1b5c:	00000106 	br	1b64 <setDefaultNumEditGroup+0x1b8>
    1b60:	0005883a 	mov	r2,zero
    1b64:	e0bff405 	stb	r2,-48(fp)
    1b68:	e0bff403 	ldbu	r2,-48(fp)
    1b6c:	1080004c 	andi	r2,r2,1
    1b70:	e0bff405 	stb	r2,-48(fp)
				iconBlockWidth, iconBlockHeight, ICON_PLUS_X_SIZE, ICON_PLUS_Y_SIZE );

	//设置numberTag
	char numStr[3];
	sprintf(numStr, "%2d", num);
    1b74:	e0bfff0f 	ldh	r2,-4(fp)
    1b78:	e0fff904 	addi	r3,fp,-28
    1b7c:	1809883a 	mov	r4,r3
    1b80:	01400374 	movhi	r5,13
    1b84:	29429204 	addi	r5,r5,2632
    1b88:	100d883a 	mov	r6,r2
    1b8c:	00092d40 	call	92d4 <sprintf>
	status = status && setAreaRange( &(numEditGrpInst->valueTagArea), numTagMarginXL+1, numTagMarginXL+tagWidth,\
    1b90:	e0bff403 	ldbu	r2,-48(fp)
    1b94:	10002726 	beq	r2,zero,1c34 <setDefaultNumEditGroup+0x288>
    1b98:	e0bffa17 	ldw	r2,-24(fp)
    1b9c:	11001204 	addi	r4,r2,72
    1ba0:	e0bff68b 	ldhu	r2,-38(fp)
    1ba4:	10800044 	addi	r2,r2,1
    1ba8:	117fffcc 	andi	r5,r2,65535
    1bac:	2960001c 	xori	r5,r5,32768
    1bb0:	29600004 	addi	r5,r5,-32768
    1bb4:	e0fff68b 	ldhu	r3,-38(fp)
    1bb8:	e0bff50b 	ldhu	r2,-44(fp)
    1bbc:	1885883a 	add	r2,r3,r2
    1bc0:	11bfffcc 	andi	r6,r2,65535
    1bc4:	31a0001c 	xori	r6,r6,32768
    1bc8:	31a00004 	addi	r6,r6,-32768
    1bcc:	e0bffc0f 	ldh	r2,-16(fp)
    1bd0:	1005d07a 	srai	r2,r2,1
    1bd4:	1007883a 	mov	r3,r2
    1bd8:	e0bff48f 	ldh	r2,-46(fp)
    1bdc:	1005d07a 	srai	r2,r2,1
    1be0:	1885c83a 	sub	r2,r3,r2
    1be4:	10800044 	addi	r2,r2,1
    1be8:	10ffffcc 	andi	r3,r2,65535
    1bec:	18e0001c 	xori	r3,r3,32768
    1bf0:	18e00004 	addi	r3,r3,-32768
    1bf4:	e0bffc0f 	ldh	r2,-16(fp)
    1bf8:	1005d07a 	srai	r2,r2,1
    1bfc:	100f883a 	mov	r7,r2
    1c00:	e0bff48f 	ldh	r2,-46(fp)
    1c04:	1005d07a 	srai	r2,r2,1
    1c08:	3885883a 	add	r2,r7,r2
    1c0c:	10bfffcc 	andi	r2,r2,65535
    1c10:	10a0001c 	xori	r2,r2,32768
    1c14:	10a00004 	addi	r2,r2,-32768
    1c18:	d8800015 	stw	r2,0(sp)
    1c1c:	180f883a 	mov	r7,r3
    1c20:	000044c0 	call	44c <setAreaRange>
    1c24:	10803fcc 	andi	r2,r2,255
    1c28:	10000226 	beq	r2,zero,1c34 <setDefaultNumEditGroup+0x288>
    1c2c:	00800044 	movi	r2,1
    1c30:	00000106 	br	1c38 <setDefaultNumEditGroup+0x28c>
    1c34:	0005883a 	mov	r2,zero
    1c38:	e0bff405 	stb	r2,-48(fp)
    1c3c:	e0bff403 	ldbu	r2,-48(fp)
    1c40:	1080004c 	andi	r2,r2,1
    1c44:	e0bff405 	stb	r2,-48(fp)
				(height>>1)-(tagHeight>>1)+1, (height>>1)+(tagHeight>>1) );
	status = status && setDefaultTagBlock( &(numEditGrpInst->valueTag), numStr, tagWidth, tagHeight );
    1c48:	e0bff403 	ldbu	r2,-48(fp)
    1c4c:	10000c26 	beq	r2,zero,1c80 <setDefaultNumEditGroup+0x2d4>
    1c50:	e0bffa17 	ldw	r2,-24(fp)
    1c54:	11001404 	addi	r4,r2,80
    1c58:	e0fff50f 	ldh	r3,-44(fp)
    1c5c:	e0bff48f 	ldh	r2,-46(fp)
    1c60:	e17ff904 	addi	r5,fp,-28
    1c64:	180d883a 	mov	r6,r3
    1c68:	100f883a 	mov	r7,r2
    1c6c:	00009c40 	call	9c4 <setDefaultTagBlock>
    1c70:	10803fcc 	andi	r2,r2,255
    1c74:	10000226 	beq	r2,zero,1c80 <setDefaultNumEditGroup+0x2d4>
    1c78:	00800044 	movi	r2,1
    1c7c:	00000106 	br	1c84 <setDefaultNumEditGroup+0x2d8>
    1c80:	0005883a 	mov	r2,zero
    1c84:	e0bff405 	stb	r2,-48(fp)
    1c88:	e0bff403 	ldbu	r2,-48(fp)
    1c8c:	1080004c 	andi	r2,r2,1
    1c90:	e0bff405 	stb	r2,-48(fp)


	//设置minusIcon
	status = status && setAreaRange( &(numEditGrpInst->valueTagArea), numTagMarginXL+1, numTagMarginXL+tagWidth,\
    1c94:	e0bff403 	ldbu	r2,-48(fp)
    1c98:	10002226 	beq	r2,zero,1d24 <setDefaultNumEditGroup+0x378>
    1c9c:	e0bffa17 	ldw	r2,-24(fp)
    1ca0:	11001204 	addi	r4,r2,72
    1ca4:	e0bff68b 	ldhu	r2,-38(fp)
    1ca8:	10800044 	addi	r2,r2,1
    1cac:	117fffcc 	andi	r5,r2,65535
    1cb0:	2960001c 	xori	r5,r5,32768
    1cb4:	29600004 	addi	r5,r5,-32768
    1cb8:	e0fff68b 	ldhu	r3,-38(fp)
    1cbc:	e0bff50b 	ldhu	r2,-44(fp)
    1cc0:	1885883a 	add	r2,r3,r2
    1cc4:	11bfffcc 	andi	r6,r2,65535
    1cc8:	31a0001c 	xori	r6,r6,32768
    1ccc:	31a00004 	addi	r6,r6,-32768
    1cd0:	e0fffc0b 	ldhu	r3,-16(fp)
    1cd4:	e0bff78b 	ldhu	r2,-34(fp)
    1cd8:	1885c83a 	sub	r2,r3,r2
    1cdc:	1007883a 	mov	r3,r2
    1ce0:	e0bff60b 	ldhu	r2,-40(fp)
    1ce4:	1885c83a 	sub	r2,r3,r2
    1ce8:	11ffffcc 	andi	r7,r2,65535
    1cec:	39e0001c 	xori	r7,r7,32768
    1cf0:	39e00004 	addi	r7,r7,-32768
    1cf4:	e0fffc0b 	ldhu	r3,-16(fp)
    1cf8:	e0bff78b 	ldhu	r2,-34(fp)
    1cfc:	1885c83a 	sub	r2,r3,r2
    1d00:	10bfffcc 	andi	r2,r2,65535
    1d04:	10a0001c 	xori	r2,r2,32768
    1d08:	10a00004 	addi	r2,r2,-32768
    1d0c:	d8800015 	stw	r2,0(sp)
    1d10:	000044c0 	call	44c <setAreaRange>
    1d14:	10803fcc 	andi	r2,r2,255
    1d18:	10000226 	beq	r2,zero,1d24 <setDefaultNumEditGroup+0x378>
    1d1c:	00800044 	movi	r2,1
    1d20:	00000106 	br	1d28 <setDefaultNumEditGroup+0x37c>
    1d24:	0005883a 	mov	r2,zero
    1d28:	e0bff405 	stb	r2,-48(fp)
    1d2c:	e0bff403 	ldbu	r2,-48(fp)
    1d30:	1080004c 	andi	r2,r2,1
    1d34:	e0bff405 	stb	r2,-48(fp)
				height - minusIconMarginYD - iconBlockHeight, height - minusIconMarginYD );
	status = status && setDefaultIconBlock( &(numEditGrpInst->minusIcon), icon_minus, \
    1d38:	e0bff403 	ldbu	r2,-48(fp)
    1d3c:	10001026 	beq	r2,zero,1d80 <setDefaultNumEditGroup+0x3d4>
    1d40:	e0bffa17 	ldw	r2,-24(fp)
    1d44:	11000c04 	addi	r4,r2,48
    1d48:	e1bff58f 	ldh	r6,-42(fp)
    1d4c:	e0fff60f 	ldh	r3,-40(fp)
    1d50:	00800204 	movi	r2,8
    1d54:	d8800015 	stw	r2,0(sp)
    1d58:	00800204 	movi	r2,8
    1d5c:	d8800115 	stw	r2,4(sp)
    1d60:	01400374 	movhi	r5,13
    1d64:	294a8604 	addi	r5,r5,10776
    1d68:	180f883a 	mov	r7,r3
    1d6c:	00013700 	call	1370 <setDefaultIconBlock>
    1d70:	10803fcc 	andi	r2,r2,255
    1d74:	10000226 	beq	r2,zero,1d80 <setDefaultNumEditGroup+0x3d4>
    1d78:	00800044 	movi	r2,1
    1d7c:	00000106 	br	1d84 <setDefaultNumEditGroup+0x3d8>
    1d80:	0005883a 	mov	r2,zero
    1d84:	e0bff405 	stb	r2,-48(fp)
    1d88:	e0bff403 	ldbu	r2,-48(fp)
    1d8c:	1080004c 	andi	r2,r2,1
    1d90:	e0bff405 	stb	r2,-48(fp)
				iconBlockWidth, iconBlockHeight, ICON_MINUS_X_SIZE, ICON_MINUS_Y_SIZE );


	//设置unitTag
	short unitTagMarginXL = numTagMarginXL+tagWidth + twoTagSpacingX;
    1d94:	e0fff68b 	ldhu	r3,-38(fp)
    1d98:	e0bff50b 	ldhu	r2,-44(fp)
    1d9c:	1885883a 	add	r2,r3,r2
    1da0:	1007883a 	mov	r3,r2
    1da4:	e0bff80b 	ldhu	r2,-32(fp)
    1da8:	1885883a 	add	r2,r3,r2
    1dac:	e0bff88d 	sth	r2,-30(fp)
	status = status && setAreaRange( &(numEditGrpInst->valueTagArea), unitTagMarginXL+1, unitTagMarginXL+tagWidth,\
    1db0:	e0bff403 	ldbu	r2,-48(fp)
    1db4:	10002726 	beq	r2,zero,1e54 <setDefaultNumEditGroup+0x4a8>
    1db8:	e0bffa17 	ldw	r2,-24(fp)
    1dbc:	11001204 	addi	r4,r2,72
    1dc0:	e0bff88b 	ldhu	r2,-30(fp)
    1dc4:	10800044 	addi	r2,r2,1
    1dc8:	117fffcc 	andi	r5,r2,65535
    1dcc:	2960001c 	xori	r5,r5,32768
    1dd0:	29600004 	addi	r5,r5,-32768
    1dd4:	e0fff88b 	ldhu	r3,-30(fp)
    1dd8:	e0bff50b 	ldhu	r2,-44(fp)
    1ddc:	1885883a 	add	r2,r3,r2
    1de0:	11bfffcc 	andi	r6,r2,65535
    1de4:	31a0001c 	xori	r6,r6,32768
    1de8:	31a00004 	addi	r6,r6,-32768
    1dec:	e0bffc0f 	ldh	r2,-16(fp)
    1df0:	1005d07a 	srai	r2,r2,1
    1df4:	1007883a 	mov	r3,r2
    1df8:	e0bff48f 	ldh	r2,-46(fp)
    1dfc:	1005d07a 	srai	r2,r2,1
    1e00:	1885c83a 	sub	r2,r3,r2
    1e04:	10800044 	addi	r2,r2,1
    1e08:	10ffffcc 	andi	r3,r2,65535
    1e0c:	18e0001c 	xori	r3,r3,32768
    1e10:	18e00004 	addi	r3,r3,-32768
    1e14:	e0bffc0f 	ldh	r2,-16(fp)
    1e18:	1005d07a 	srai	r2,r2,1
    1e1c:	100f883a 	mov	r7,r2
    1e20:	e0bff48f 	ldh	r2,-46(fp)
    1e24:	1005d07a 	srai	r2,r2,1
    1e28:	3885883a 	add	r2,r7,r2
    1e2c:	10bfffcc 	andi	r2,r2,65535
    1e30:	10a0001c 	xori	r2,r2,32768
    1e34:	10a00004 	addi	r2,r2,-32768
    1e38:	d8800015 	stw	r2,0(sp)
    1e3c:	180f883a 	mov	r7,r3
    1e40:	000044c0 	call	44c <setAreaRange>
    1e44:	10803fcc 	andi	r2,r2,255
    1e48:	10000226 	beq	r2,zero,1e54 <setDefaultNumEditGroup+0x4a8>
    1e4c:	00800044 	movi	r2,1
    1e50:	00000106 	br	1e58 <setDefaultNumEditGroup+0x4ac>
    1e54:	0005883a 	mov	r2,zero
    1e58:	e0bff405 	stb	r2,-48(fp)
    1e5c:	e0bff403 	ldbu	r2,-48(fp)
    1e60:	1080004c 	andi	r2,r2,1
    1e64:	e0bff405 	stb	r2,-48(fp)
					(height>>1)-(tagHeight>>1)+1, (height>>1)+(tagHeight>>1) );
	status = status && setDefaultTagBlock( &(numEditGrpInst->valueTag), unitName, tagWidth, tagHeight );
    1e68:	e0bff403 	ldbu	r2,-48(fp)
    1e6c:	10000c26 	beq	r2,zero,1ea0 <setDefaultNumEditGroup+0x4f4>
    1e70:	e0bffa17 	ldw	r2,-24(fp)
    1e74:	11001404 	addi	r4,r2,80
    1e78:	e0fff50f 	ldh	r3,-44(fp)
    1e7c:	e0bff48f 	ldh	r2,-46(fp)
    1e80:	e1400417 	ldw	r5,16(fp)
    1e84:	180d883a 	mov	r6,r3
    1e88:	100f883a 	mov	r7,r2
    1e8c:	00009c40 	call	9c4 <setDefaultTagBlock>
    1e90:	10803fcc 	andi	r2,r2,255
    1e94:	10000226 	beq	r2,zero,1ea0 <setDefaultNumEditGroup+0x4f4>
    1e98:	00800044 	movi	r2,1
    1e9c:	00000106 	br	1ea4 <setDefaultNumEditGroup+0x4f8>
    1ea0:	0005883a 	mov	r2,zero
    1ea4:	e0bff405 	stb	r2,-48(fp)
    1ea8:	e0bff403 	ldbu	r2,-48(fp)
    1eac:	1080004c 	andi	r2,r2,1
    1eb0:	e0bff405 	stb	r2,-48(fp)


	return status;
    1eb4:	e0bff403 	ldbu	r2,-48(fp)
}
    1eb8:	e037883a 	mov	sp,fp
    1ebc:	dfc00117 	ldw	ra,4(sp)
    1ec0:	df000017 	ldw	fp,0(sp)
    1ec4:	dec00204 	addi	sp,sp,8
    1ec8:	f800283a 	ret

00001ecc <screenInit>:


//初始化
bool screenInit()
{
    1ecc:	defffb04 	addi	sp,sp,-20
    1ed0:	dfc00415 	stw	ra,16(sp)
    1ed4:	df000315 	stw	fp,12(sp)
    1ed8:	df000304 	addi	fp,sp,12
	//以下子模块宽度都相同 ( 1 ≤ x ≤ SCR_WIDE )

	bool status = true;
    1edc:	00800044 	movi	r2,1
    1ee0:	e0bffe05 	stb	r2,-8(fp)
	//初始化屏幕总体尺寸 ( 1 ≤ y ≤ SCR_HEIGHT )
	status = status && setAreaRange( &(tftlcdScreenInst.screenArea), 1, SCR_WIDTH, 1, SCR_HEIGHT );
    1ee4:	e0bffe03 	ldbu	r2,-8(fp)
    1ee8:	10000c26 	beq	r2,zero,1f1c <screenInit+0x50>
    1eec:	00807804 	movi	r2,480
    1ef0:	d8800015 	stw	r2,0(sp)
    1ef4:	01000374 	movhi	r4,13
    1ef8:	21124004 	addi	r4,r4,18688
    1efc:	01400044 	movi	r5,1
    1f00:	01805004 	movi	r6,320
    1f04:	01c00044 	movi	r7,1
    1f08:	000044c0 	call	44c <setAreaRange>
    1f0c:	10803fcc 	andi	r2,r2,255
    1f10:	10000226 	beq	r2,zero,1f1c <screenInit+0x50>
    1f14:	00800044 	movi	r2,1
    1f18:	00000106 	br	1f20 <screenInit+0x54>
    1f1c:	0005883a 	mov	r2,zero
    1f20:	e0bffe05 	stb	r2,-8(fp)
    1f24:	e0bffe03 	ldbu	r2,-8(fp)
    1f28:	1080004c 	andi	r2,r2,1
    1f2c:	e0bffe05 	stb	r2,-8(fp)

	//1.初始化顶栏 ( 1 ≤ y ≤ headerHeight )
	short headerHeight = SCR_HEADER_HEIGHT;//顶栏高度 (
    1f30:	00800a04 	movi	r2,40
    1f34:	e0bffe8d 	sth	r2,-6(fp)
	status = status && setAreaRange( &(tftlcdScreenInst.headerArea), 1, SCR_WIDTH, 1, headerHeight );
    1f38:	e0bffe03 	ldbu	r2,-8(fp)
    1f3c:	10000c26 	beq	r2,zero,1f70 <screenInit+0xa4>
    1f40:	e0bffe8f 	ldh	r2,-6(fp)
    1f44:	d8800015 	stw	r2,0(sp)
    1f48:	01000374 	movhi	r4,13
    1f4c:	21124204 	addi	r4,r4,18696
    1f50:	01400044 	movi	r5,1
    1f54:	01805004 	movi	r6,320
    1f58:	01c00044 	movi	r7,1
    1f5c:	000044c0 	call	44c <setAreaRange>
    1f60:	10803fcc 	andi	r2,r2,255
    1f64:	10000226 	beq	r2,zero,1f70 <screenInit+0xa4>
    1f68:	00800044 	movi	r2,1
    1f6c:	00000106 	br	1f74 <screenInit+0xa8>
    1f70:	0005883a 	mov	r2,zero
    1f74:	e0bffe05 	stb	r2,-8(fp)
    1f78:	e0bffe03 	ldbu	r2,-8(fp)
    1f7c:	1080004c 	andi	r2,r2,1
    1f80:	e0bffe05 	stb	r2,-8(fp)

	status = status && screenHeaderInit( &(tftlcdScreenInst.scrHeader), SCR_WIDTH, headerHeight );
    1f84:	e0bffe03 	ldbu	r2,-8(fp)
    1f88:	10000a26 	beq	r2,zero,1fb4 <screenInit+0xe8>
    1f8c:	e0bffe8f 	ldh	r2,-6(fp)
    1f90:	01000374 	movhi	r4,13
    1f94:	21124404 	addi	r4,r4,18704
    1f98:	01405004 	movi	r5,320
    1f9c:	100d883a 	mov	r6,r2
    1fa0:	00022140 	call	2214 <screenHeaderInit>
    1fa4:	10803fcc 	andi	r2,r2,255
    1fa8:	10000226 	beq	r2,zero,1fb4 <screenInit+0xe8>
    1fac:	00800044 	movi	r2,1
    1fb0:	00000106 	br	1fb8 <screenInit+0xec>
    1fb4:	0005883a 	mov	r2,zero
    1fb8:	e0bffe05 	stb	r2,-8(fp)
    1fbc:	e0bffe03 	ldbu	r2,-8(fp)
    1fc0:	1080004c 	andi	r2,r2,1
    1fc4:	e0bffe05 	stb	r2,-8(fp)

	//2.初始化底栏 ( SCR_HEIGHT - footerHeight + 1 ≤ y ≤ SCR_HEIGHT )
	short footerHeight = SCR_FOTTER_HEIGHT;//底栏高度
    1fc8:	00800f04 	movi	r2,60
    1fcc:	e0bfff0d 	sth	r2,-4(fp)
	status = status && setAreaRange( &(tftlcdScreenInst.headerArea), 1, SCR_WIDTH, SCR_HEIGHT - footerHeight + 1, SCR_HEIGHT );
    1fd0:	e0bffe03 	ldbu	r2,-8(fp)
    1fd4:	10001226 	beq	r2,zero,2020 <screenInit+0x154>
    1fd8:	e0bfff0b 	ldhu	r2,-4(fp)
    1fdc:	00c07844 	movi	r3,481
    1fe0:	1885c83a 	sub	r2,r3,r2
    1fe4:	10ffffcc 	andi	r3,r2,65535
    1fe8:	18e0001c 	xori	r3,r3,32768
    1fec:	18e00004 	addi	r3,r3,-32768
    1ff0:	00807804 	movi	r2,480
    1ff4:	d8800015 	stw	r2,0(sp)
    1ff8:	01000374 	movhi	r4,13
    1ffc:	21124204 	addi	r4,r4,18696
    2000:	01400044 	movi	r5,1
    2004:	01805004 	movi	r6,320
    2008:	180f883a 	mov	r7,r3
    200c:	000044c0 	call	44c <setAreaRange>
    2010:	10803fcc 	andi	r2,r2,255
    2014:	10000226 	beq	r2,zero,2020 <screenInit+0x154>
    2018:	00800044 	movi	r2,1
    201c:	00000106 	br	2024 <screenInit+0x158>
    2020:	0005883a 	mov	r2,zero
    2024:	e0bffe05 	stb	r2,-8(fp)
    2028:	e0bffe03 	ldbu	r2,-8(fp)
    202c:	1080004c 	andi	r2,r2,1
    2030:	e0bffe05 	stb	r2,-8(fp)

	status = status && screenFooterInit( &(tftlcdScreenInst.scrFooter), SCR_WIDTH, footerHeight );
    2034:	e0bffe03 	ldbu	r2,-8(fp)
    2038:	10000a26 	beq	r2,zero,2064 <screenInit+0x198>
    203c:	e0bfff0f 	ldh	r2,-4(fp)
    2040:	01000374 	movhi	r4,13
    2044:	21125504 	addi	r4,r4,18772
    2048:	01405004 	movi	r5,320
    204c:	100d883a 	mov	r6,r2
    2050:	00023c00 	call	23c0 <screenFooterInit>
    2054:	10803fcc 	andi	r2,r2,255
    2058:	10000226 	beq	r2,zero,2064 <screenInit+0x198>
    205c:	00800044 	movi	r2,1
    2060:	00000106 	br	2068 <screenInit+0x19c>
    2064:	0005883a 	mov	r2,zero
    2068:	e0bffe05 	stb	r2,-8(fp)
    206c:	e0bffe03 	ldbu	r2,-8(fp)
    2070:	1080004c 	andi	r2,r2,1
    2074:	e0bffe05 	stb	r2,-8(fp)

	//3.初始化主栏  ( headerHeight + 1 ≤ y ≤ SCR_HEIGHT - footerHeight )
	short mainAreaHeight = SCR_HEIGHT - headerHeight - footerHeight;
    2078:	e0bffe8b 	ldhu	r2,-6(fp)
    207c:	0085c83a 	sub	r2,zero,r2
    2080:	1007883a 	mov	r3,r2
    2084:	e0bfff0b 	ldhu	r2,-4(fp)
    2088:	1885c83a 	sub	r2,r3,r2
    208c:	10807804 	addi	r2,r2,480
    2090:	e0bfff8d 	sth	r2,-2(fp)
	setAreaRange( &(tftlcdScreenInst.mainArea), 1, SCR_WIDTH, headerHeight + 1, SCR_HEIGHT - footerHeight );
    2094:	e0bffe8b 	ldhu	r2,-6(fp)
    2098:	10800044 	addi	r2,r2,1
    209c:	11ffffcc 	andi	r7,r2,65535
    20a0:	39e0001c 	xori	r7,r7,32768
    20a4:	39e00004 	addi	r7,r7,-32768
    20a8:	e0bfff0b 	ldhu	r2,-4(fp)
    20ac:	00c07804 	movi	r3,480
    20b0:	1885c83a 	sub	r2,r3,r2
    20b4:	10bfffcc 	andi	r2,r2,65535
    20b8:	10a0001c 	xori	r2,r2,32768
    20bc:	10a00004 	addi	r2,r2,-32768
    20c0:	d8800015 	stw	r2,0(sp)
    20c4:	01000374 	movhi	r4,13
    20c8:	21126f04 	addi	r4,r4,18876
    20cc:	01400044 	movi	r5,1
    20d0:	01805004 	movi	r6,320
    20d4:	000044c0 	call	44c <setAreaRange>
	//注意：txtFilesInfoSpace内的数据必须提前填充好，否则可能运行出错。因此，执行screenInit()之前，首先运行txtFilesInfoSpace信息填充
	status = status && screenMainHomeInit( &(tftlcdScreenInst.scrHome), SCR_WIDTH, mainAreaHeight, &txtFilesInfoSpace );
    20d8:	e0bffe03 	ldbu	r2,-8(fp)
    20dc:	10000c26 	beq	r2,zero,2110 <screenInit+0x244>
    20e0:	e0bfff8f 	ldh	r2,-2(fp)
    20e4:	01000374 	movhi	r4,13
    20e8:	21127104 	addi	r4,r4,18884
    20ec:	01405004 	movi	r5,320
    20f0:	100d883a 	mov	r6,r2
    20f4:	01c004b4 	movhi	r7,18
    20f8:	39fff204 	addi	r7,r7,-56
    20fc:	000270c0 	call	270c <screenMainHomeInit>
    2100:	10803fcc 	andi	r2,r2,255
    2104:	10000226 	beq	r2,zero,2110 <screenInit+0x244>
    2108:	00800044 	movi	r2,1
    210c:	00000106 	br	2114 <screenInit+0x248>
    2110:	0005883a 	mov	r2,zero
    2114:	e0bffe05 	stb	r2,-8(fp)
    2118:	e0bffe03 	ldbu	r2,-8(fp)
    211c:	1080004c 	andi	r2,r2,1
    2120:	e0bffe05 	stb	r2,-8(fp)
	status = status && screenMainBookInit( &(tftlcdScreenInst.scrBook), SCR_WIDTH, mainAreaHeight );
    2124:	e0bffe03 	ldbu	r2,-8(fp)
    2128:	10000a26 	beq	r2,zero,2154 <screenInit+0x288>
    212c:	e0bfff8f 	ldh	r2,-2(fp)
    2130:	01000374 	movhi	r4,13
    2134:	2112b004 	addi	r4,r4,19136
    2138:	01405004 	movi	r5,320
    213c:	100d883a 	mov	r6,r2
    2140:	00030740 	call	3074 <screenMainBookInit>
    2144:	10803fcc 	andi	r2,r2,255
    2148:	10000226 	beq	r2,zero,2154 <screenInit+0x288>
    214c:	00800044 	movi	r2,1
    2150:	00000106 	br	2158 <screenInit+0x28c>
    2154:	0005883a 	mov	r2,zero
    2158:	e0bffe05 	stb	r2,-8(fp)
    215c:	e0bffe03 	ldbu	r2,-8(fp)
    2160:	1080004c 	andi	r2,r2,1
    2164:	e0bffe05 	stb	r2,-8(fp)
	status = status && screenMainSettingInit( &(tftlcdScreenInst.scrSetting), SCR_WIDTH, mainAreaHeight );
    2168:	e0bffe03 	ldbu	r2,-8(fp)
    216c:	10000a26 	beq	r2,zero,2198 <screenInit+0x2cc>
    2170:	e0bfff8f 	ldh	r2,-2(fp)
    2174:	01000374 	movhi	r4,13
    2178:	2112fa04 	addi	r4,r4,19432
    217c:	01405004 	movi	r5,320
    2180:	100d883a 	mov	r6,r2
    2184:	000390c0 	call	390c <screenMainSettingInit>
    2188:	10803fcc 	andi	r2,r2,255
    218c:	10000226 	beq	r2,zero,2198 <screenInit+0x2cc>
    2190:	00800044 	movi	r2,1
    2194:	00000106 	br	219c <screenInit+0x2d0>
    2198:	0005883a 	mov	r2,zero
    219c:	e0bffe05 	stb	r2,-8(fp)
    21a0:	e0bffe03 	ldbu	r2,-8(fp)
    21a4:	1080004c 	andi	r2,r2,1
    21a8:	e0bffe05 	stb	r2,-8(fp)
	status = status && screenMainColorPickerInit( &(tftlcdScreenInst.scrColorPicker), SCR_WIDTH, mainAreaHeight );
    21ac:	e0bffe03 	ldbu	r2,-8(fp)
    21b0:	10000a26 	beq	r2,zero,21dc <screenInit+0x310>
    21b4:	e0bfff8f 	ldh	r2,-2(fp)
    21b8:	01000374 	movhi	r4,13
    21bc:	2113e504 	addi	r4,r4,20372
    21c0:	01405004 	movi	r5,320
    21c4:	100d883a 	mov	r6,r2
    21c8:	00043e80 	call	43e8 <screenMainColorPickerInit>
    21cc:	10803fcc 	andi	r2,r2,255
    21d0:	10000226 	beq	r2,zero,21dc <screenInit+0x310>
    21d4:	00800044 	movi	r2,1
    21d8:	00000106 	br	21e0 <screenInit+0x314>
    21dc:	0005883a 	mov	r2,zero
    21e0:	e0bffe05 	stb	r2,-8(fp)
    21e4:	e0bffe03 	ldbu	r2,-8(fp)
    21e8:	1080004c 	andi	r2,r2,1
    21ec:	e0bffe05 	stb	r2,-8(fp)

	//4.初始化主栏页面信息
	screenMainAreaInfo( &(tftlcdScreenInst.mainAreaInfo) );
    21f0:	01000374 	movhi	r4,13
    21f4:	2113ed04 	addi	r4,r4,20404
    21f8:	00045100 	call	4510 <screenMainAreaInfo>

	return status;
    21fc:	e0bffe03 	ldbu	r2,-8(fp)
}
    2200:	e037883a 	mov	sp,fp
    2204:	dfc00117 	ldw	ra,4(sp)
    2208:	df000017 	ldw	fp,0(sp)
    220c:	dec00204 	addi	sp,sp,8
    2210:	f800283a 	ret

00002214 <screenHeaderInit>:

bool screenHeaderInit( ScreenHeaderTime *scrHeaderInst, short width, short height )
{
    2214:	defff804 	addi	sp,sp,-32
    2218:	dfc00715 	stw	ra,28(sp)
    221c:	df000615 	stw	fp,24(sp)
    2220:	df000604 	addi	fp,sp,24
    2224:	e13ffd15 	stw	r4,-12(fp)
    2228:	2807883a 	mov	r3,r5
    222c:	3005883a 	mov	r2,r6
    2230:	e0fffe0d 	sth	r3,-8(fp)
    2234:	e0bfff0d 	sth	r2,-4(fp)

	scrHeaderInst->bkgBorderColor = defaultColorInfo;
    2238:	e0bffd17 	ldw	r2,-12(fp)
    223c:	d0e0040b 	ldhu	r3,-32752(gp)
    2240:	10c0000d 	sth	r3,0(r2)
    2244:	d0e00484 	addi	r3,gp,-32750
    2248:	18c0000b 	ldhu	r3,0(r3)
    224c:	10c0008d 	sth	r3,2(r2)
    2250:	d0e00504 	addi	r3,gp,-32748
    2254:	18c0000b 	ldhu	r3,0(r3)
    2258:	10c0010d 	sth	r3,4(r2)
    225c:	d0e00584 	addi	r3,gp,-32746
    2260:	18c0000b 	ldhu	r3,0(r3)
    2264:	10c0018d 	sth	r3,6(r2)

	short marginX = 100;//横向边距
    2268:	00801904 	movi	r2,100
    226c:	e0bffb0d 	sth	r2,-20(fp)
	short marginY = 5;//纵向边距
    2270:	00800144 	movi	r2,5
    2274:	e0bffb8d 	sth	r2,-18(fp)

	bool status = true;
    2278:	00800044 	movi	r2,1
    227c:	e0bffc05 	stb	r2,-16(fp)

	status = status && setAreaRange( &(scrHeaderInst->tagTimeArea), marginX+1, width-marginX, marginY+1, height-marginY );
    2280:	e0bffc03 	ldbu	r2,-16(fp)
    2284:	10001e26 	beq	r2,zero,2300 <screenHeaderInit+0xec>
    2288:	e0bffd17 	ldw	r2,-12(fp)
    228c:	11000204 	addi	r4,r2,8
    2290:	e0bffb0b 	ldhu	r2,-20(fp)
    2294:	10800044 	addi	r2,r2,1
    2298:	117fffcc 	andi	r5,r2,65535
    229c:	2960001c 	xori	r5,r5,32768
    22a0:	29600004 	addi	r5,r5,-32768
    22a4:	e0fffe0b 	ldhu	r3,-8(fp)
    22a8:	e0bffb0b 	ldhu	r2,-20(fp)
    22ac:	1885c83a 	sub	r2,r3,r2
    22b0:	11bfffcc 	andi	r6,r2,65535
    22b4:	31a0001c 	xori	r6,r6,32768
    22b8:	31a00004 	addi	r6,r6,-32768
    22bc:	e0bffb8b 	ldhu	r2,-18(fp)
    22c0:	10800044 	addi	r2,r2,1
    22c4:	11ffffcc 	andi	r7,r2,65535
    22c8:	39e0001c 	xori	r7,r7,32768
    22cc:	39e00004 	addi	r7,r7,-32768
    22d0:	e0ffff0b 	ldhu	r3,-4(fp)
    22d4:	e0bffb8b 	ldhu	r2,-18(fp)
    22d8:	1885c83a 	sub	r2,r3,r2
    22dc:	10bfffcc 	andi	r2,r2,65535
    22e0:	10a0001c 	xori	r2,r2,32768
    22e4:	10a00004 	addi	r2,r2,-32768
    22e8:	d8800015 	stw	r2,0(sp)
    22ec:	000044c0 	call	44c <setAreaRange>
    22f0:	10803fcc 	andi	r2,r2,255
    22f4:	10000226 	beq	r2,zero,2300 <screenHeaderInit+0xec>
    22f8:	00800044 	movi	r2,1
    22fc:	00000106 	br	2304 <screenHeaderInit+0xf0>
    2300:	0005883a 	mov	r2,zero
    2304:	e0bffc05 	stb	r2,-16(fp)
    2308:	e0bffc03 	ldbu	r2,-16(fp)
    230c:	1080004c 	andi	r2,r2,1
    2310:	e0bffc05 	stb	r2,-16(fp)

	scrHeaderInst->timeHour = 0;
    2314:	e0bffd17 	ldw	r2,-12(fp)
    2318:	10000d0d 	sth	zero,52(r2)
	scrHeaderInst->timeMinute = 0;
    231c:	e0bffd17 	ldw	r2,-12(fp)
    2320:	10000d8d 	sth	zero,54(r2)
	scrHeaderInst->timeSecond = 0;
    2324:	e0bffd17 	ldw	r2,-12(fp)
    2328:	10000e0d 	sth	zero,56(r2)

	//时间文本为"00:00"(0时0分)
	status = status && setDefaultTagBlock( &(scrHeaderInst->tagTime), "00:00", width - (marginX<<1), height - (marginY<<1) );
    232c:	e0bffc03 	ldbu	r2,-16(fp)
    2330:	10001826 	beq	r2,zero,2394 <screenHeaderInit+0x180>
    2334:	e0bffd17 	ldw	r2,-12(fp)
    2338:	11000404 	addi	r4,r2,16
    233c:	e0fffe0b 	ldhu	r3,-8(fp)
    2340:	e0bffb0b 	ldhu	r2,-20(fp)
    2344:	1085883a 	add	r2,r2,r2
    2348:	1885c83a 	sub	r2,r3,r2
    234c:	11bfffcc 	andi	r6,r2,65535
    2350:	31a0001c 	xori	r6,r6,32768
    2354:	31a00004 	addi	r6,r6,-32768
    2358:	e0ffff0b 	ldhu	r3,-4(fp)
    235c:	e0bffb8b 	ldhu	r2,-18(fp)
    2360:	1085883a 	add	r2,r2,r2
    2364:	1885c83a 	sub	r2,r3,r2
    2368:	10bfffcc 	andi	r2,r2,65535
    236c:	10a0001c 	xori	r2,r2,32768
    2370:	10a00004 	addi	r2,r2,-32768
    2374:	01400374 	movhi	r5,13
    2378:	29429304 	addi	r5,r5,2636
    237c:	100f883a 	mov	r7,r2
    2380:	00009c40 	call	9c4 <setDefaultTagBlock>
    2384:	10803fcc 	andi	r2,r2,255
    2388:	10000226 	beq	r2,zero,2394 <screenHeaderInit+0x180>
    238c:	00800044 	movi	r2,1
    2390:	00000106 	br	2398 <screenHeaderInit+0x184>
    2394:	0005883a 	mov	r2,zero
    2398:	e0bffc05 	stb	r2,-16(fp)
    239c:	e0bffc03 	ldbu	r2,-16(fp)
    23a0:	1080004c 	andi	r2,r2,1
    23a4:	e0bffc05 	stb	r2,-16(fp)
//	(scrHeaderInst->tagTime).borderVisible = false;

	return status;
    23a8:	e0bffc03 	ldbu	r2,-16(fp)
}
    23ac:	e037883a 	mov	sp,fp
    23b0:	dfc00117 	ldw	ra,4(sp)
    23b4:	df000017 	ldw	fp,0(sp)
    23b8:	dec00204 	addi	sp,sp,8
    23bc:	f800283a 	ret

000023c0 <screenFooterInit>:
bool screenFooterInit( ScreenFooterBtn *scrFooterInst, short width, short height )
{
    23c0:	defff604 	addi	sp,sp,-40
    23c4:	dfc00915 	stw	ra,36(sp)
    23c8:	df000815 	stw	fp,32(sp)
    23cc:	df000804 	addi	fp,sp,32
    23d0:	e13ffd15 	stw	r4,-12(fp)
    23d4:	2807883a 	mov	r3,r5
    23d8:	3005883a 	mov	r2,r6
    23dc:	e0fffe0d 	sth	r3,-8(fp)
    23e0:	e0bfff0d 	sth	r2,-4(fp)
	scrFooterInst->bkgBorderColor = defaultColorInfo;
    23e4:	e0bffd17 	ldw	r2,-12(fp)
    23e8:	d0e0040b 	ldhu	r3,-32752(gp)
    23ec:	10c0000d 	sth	r3,0(r2)
    23f0:	d0e00484 	addi	r3,gp,-32750
    23f4:	18c0000b 	ldhu	r3,0(r3)
    23f8:	10c0008d 	sth	r3,2(r2)
    23fc:	d0e00504 	addi	r3,gp,-32748
    2400:	18c0000b 	ldhu	r3,0(r3)
    2404:	10c0010d 	sth	r3,4(r2)
    2408:	d0e00584 	addi	r3,gp,-32746
    240c:	18c0000b 	ldhu	r3,0(r3)
    2410:	10c0018d 	sth	r3,6(r2)

	//SETTING键,HOME键,BACK键分别处于下边栏的左、中、右位置
	short marginX = 20;
    2414:	00800504 	movi	r2,20
    2418:	e0bffa0d 	sth	r2,-24(fp)
	short marginY = 10;
    241c:	00800284 	movi	r2,10
    2420:	e0bffa8d 	sth	r2,-22(fp)
	short iconBlockHeight = height - (marginY<<1);
    2424:	e0ffff0b 	ldhu	r3,-4(fp)
    2428:	e0bffa8b 	ldhu	r2,-22(fp)
    242c:	1085883a 	add	r2,r2,r2
    2430:	1885c83a 	sub	r2,r3,r2
    2434:	e0bffb0d 	sth	r2,-20(fp)
	short iconBlockWidth = width / 5;
    2438:	e0bffe0f 	ldh	r2,-8(fp)
    243c:	1009883a 	mov	r4,r2
    2440:	01400144 	movi	r5,5
    2444:	00083640 	call	8364 <__divsi3>
    2448:	e0bffb8d 	sth	r2,-18(fp)

	bool status = true;
    244c:	00800044 	movi	r2,1
    2450:	e0bffc05 	stb	r2,-16(fp)

	status = status && setAreaRange( &(scrFooterInst->iconSettingArea), marginX+1, marginX+iconBlockWidth, marginY+1, height - marginY );
    2454:	e0bffc03 	ldbu	r2,-16(fp)
    2458:	10001e26 	beq	r2,zero,24d4 <screenFooterInit+0x114>
    245c:	e0bffd17 	ldw	r2,-12(fp)
    2460:	11000204 	addi	r4,r2,8
    2464:	e0bffa0b 	ldhu	r2,-24(fp)
    2468:	10800044 	addi	r2,r2,1
    246c:	117fffcc 	andi	r5,r2,65535
    2470:	2960001c 	xori	r5,r5,32768
    2474:	29600004 	addi	r5,r5,-32768
    2478:	e0fffa0b 	ldhu	r3,-24(fp)
    247c:	e0bffb8b 	ldhu	r2,-18(fp)
    2480:	1885883a 	add	r2,r3,r2
    2484:	11bfffcc 	andi	r6,r2,65535
    2488:	31a0001c 	xori	r6,r6,32768
    248c:	31a00004 	addi	r6,r6,-32768
    2490:	e0bffa8b 	ldhu	r2,-22(fp)
    2494:	10800044 	addi	r2,r2,1
    2498:	11ffffcc 	andi	r7,r2,65535
    249c:	39e0001c 	xori	r7,r7,32768
    24a0:	39e00004 	addi	r7,r7,-32768
    24a4:	e0ffff0b 	ldhu	r3,-4(fp)
    24a8:	e0bffa8b 	ldhu	r2,-22(fp)
    24ac:	1885c83a 	sub	r2,r3,r2
    24b0:	10bfffcc 	andi	r2,r2,65535
    24b4:	10a0001c 	xori	r2,r2,32768
    24b8:	10a00004 	addi	r2,r2,-32768
    24bc:	d8800015 	stw	r2,0(sp)
    24c0:	000044c0 	call	44c <setAreaRange>
    24c4:	10803fcc 	andi	r2,r2,255
    24c8:	10000226 	beq	r2,zero,24d4 <screenFooterInit+0x114>
    24cc:	00800044 	movi	r2,1
    24d0:	00000106 	br	24d8 <screenFooterInit+0x118>
    24d4:	0005883a 	mov	r2,zero
    24d8:	e0bffc05 	stb	r2,-16(fp)
    24dc:	e0bffc03 	ldbu	r2,-16(fp)
    24e0:	1080004c 	andi	r2,r2,1
    24e4:	e0bffc05 	stb	r2,-16(fp)
	status = status && setAreaRangeCentered( &(scrFooterInst->iconHomeArea), width, height, iconBlockWidth, iconBlockHeight );
    24e8:	e0bffc03 	ldbu	r2,-16(fp)
    24ec:	10000d26 	beq	r2,zero,2524 <screenFooterInit+0x164>
    24f0:	e0bffd17 	ldw	r2,-12(fp)
    24f4:	11000a04 	addi	r4,r2,40
    24f8:	e17ffe0f 	ldh	r5,-8(fp)
    24fc:	e1bfff0f 	ldh	r6,-4(fp)
    2500:	e0fffb8f 	ldh	r3,-18(fp)
    2504:	e0bffb0f 	ldh	r2,-20(fp)
    2508:	d8800015 	stw	r2,0(sp)
    250c:	180f883a 	mov	r7,r3
    2510:	00008400 	call	840 <setAreaRangeCentered>
    2514:	10803fcc 	andi	r2,r2,255
    2518:	10000226 	beq	r2,zero,2524 <screenFooterInit+0x164>
    251c:	00800044 	movi	r2,1
    2520:	00000106 	br	2528 <screenFooterInit+0x168>
    2524:	0005883a 	mov	r2,zero
    2528:	e0bffc05 	stb	r2,-16(fp)
    252c:	e0bffc03 	ldbu	r2,-16(fp)
    2530:	1080004c 	andi	r2,r2,1
    2534:	e0bffc05 	stb	r2,-16(fp)
	status = status && setAreaRange( &(scrFooterInst->iconSettingArea), width-marginX-iconBlockWidth+1, width-marginX, marginY+1, height - marginY );
    2538:	e0bffc03 	ldbu	r2,-16(fp)
    253c:	10002326 	beq	r2,zero,25cc <screenFooterInit+0x20c>
    2540:	e0bffd17 	ldw	r2,-12(fp)
    2544:	11000204 	addi	r4,r2,8
    2548:	e0fffe0b 	ldhu	r3,-8(fp)
    254c:	e0bffa0b 	ldhu	r2,-24(fp)
    2550:	1885c83a 	sub	r2,r3,r2
    2554:	1007883a 	mov	r3,r2
    2558:	e0bffb8b 	ldhu	r2,-18(fp)
    255c:	1885c83a 	sub	r2,r3,r2
    2560:	10800044 	addi	r2,r2,1
    2564:	117fffcc 	andi	r5,r2,65535
    2568:	2960001c 	xori	r5,r5,32768
    256c:	29600004 	addi	r5,r5,-32768
    2570:	e0fffe0b 	ldhu	r3,-8(fp)
    2574:	e0bffa0b 	ldhu	r2,-24(fp)
    2578:	1885c83a 	sub	r2,r3,r2
    257c:	11bfffcc 	andi	r6,r2,65535
    2580:	31a0001c 	xori	r6,r6,32768
    2584:	31a00004 	addi	r6,r6,-32768
    2588:	e0bffa8b 	ldhu	r2,-22(fp)
    258c:	10800044 	addi	r2,r2,1
    2590:	11ffffcc 	andi	r7,r2,65535
    2594:	39e0001c 	xori	r7,r7,32768
    2598:	39e00004 	addi	r7,r7,-32768
    259c:	e0ffff0b 	ldhu	r3,-4(fp)
    25a0:	e0bffa8b 	ldhu	r2,-22(fp)
    25a4:	1885c83a 	sub	r2,r3,r2
    25a8:	10bfffcc 	andi	r2,r2,65535
    25ac:	10a0001c 	xori	r2,r2,32768
    25b0:	10a00004 	addi	r2,r2,-32768
    25b4:	d8800015 	stw	r2,0(sp)
    25b8:	000044c0 	call	44c <setAreaRange>
    25bc:	10803fcc 	andi	r2,r2,255
    25c0:	10000226 	beq	r2,zero,25cc <screenFooterInit+0x20c>
    25c4:	00800044 	movi	r2,1
    25c8:	00000106 	br	25d0 <screenFooterInit+0x210>
    25cc:	0005883a 	mov	r2,zero
    25d0:	e0bffc05 	stb	r2,-16(fp)
    25d4:	e0bffc03 	ldbu	r2,-16(fp)
    25d8:	1080004c 	andi	r2,r2,1
    25dc:	e0bffc05 	stb	r2,-16(fp)


	status = status && setDefaultIconBlock( &(scrFooterInst->iconSetting), icon_setting, iconBlockWidth, iconBlockHeight, ICON_SETTING_X_SIZE, ICON_SETTING_Y_SIZE );
    25e0:	e0bffc03 	ldbu	r2,-16(fp)
    25e4:	10001026 	beq	r2,zero,2628 <screenFooterInit+0x268>
    25e8:	e0bffd17 	ldw	r2,-12(fp)
    25ec:	11000404 	addi	r4,r2,16
    25f0:	e1bffb8f 	ldh	r6,-18(fp)
    25f4:	e0fffb0f 	ldh	r3,-20(fp)
    25f8:	00800404 	movi	r2,16
    25fc:	d8800015 	stw	r2,0(sp)
    2600:	00800404 	movi	r2,16
    2604:	d8800115 	stw	r2,4(sp)
    2608:	01400374 	movhi	r5,13
    260c:	29426a04 	addi	r5,r5,2472
    2610:	180f883a 	mov	r7,r3
    2614:	00013700 	call	1370 <setDefaultIconBlock>
    2618:	10803fcc 	andi	r2,r2,255
    261c:	10000226 	beq	r2,zero,2628 <screenFooterInit+0x268>
    2620:	00800044 	movi	r2,1
    2624:	00000106 	br	262c <screenFooterInit+0x26c>
    2628:	0005883a 	mov	r2,zero
    262c:	e0bffc05 	stb	r2,-16(fp)
    2630:	e0bffc03 	ldbu	r2,-16(fp)
    2634:	1080004c 	andi	r2,r2,1
    2638:	e0bffc05 	stb	r2,-16(fp)
	status = status && setDefaultIconBlock( &(scrFooterInst->iconHome), icon_setting, iconBlockWidth, iconBlockHeight, ICON_HOME_X_SIZE, ICON_HOME_Y_SIZE );
    263c:	e0bffc03 	ldbu	r2,-16(fp)
    2640:	10001026 	beq	r2,zero,2684 <screenFooterInit+0x2c4>
    2644:	e0bffd17 	ldw	r2,-12(fp)
    2648:	11000c04 	addi	r4,r2,48
    264c:	e1bffb8f 	ldh	r6,-18(fp)
    2650:	e0fffb0f 	ldh	r3,-20(fp)
    2654:	00800404 	movi	r2,16
    2658:	d8800015 	stw	r2,0(sp)
    265c:	00800404 	movi	r2,16
    2660:	d8800115 	stw	r2,4(sp)
    2664:	01400374 	movhi	r5,13
    2668:	29426a04 	addi	r5,r5,2472
    266c:	180f883a 	mov	r7,r3
    2670:	00013700 	call	1370 <setDefaultIconBlock>
    2674:	10803fcc 	andi	r2,r2,255
    2678:	10000226 	beq	r2,zero,2684 <screenFooterInit+0x2c4>
    267c:	00800044 	movi	r2,1
    2680:	00000106 	br	2688 <screenFooterInit+0x2c8>
    2684:	0005883a 	mov	r2,zero
    2688:	e0bffc05 	stb	r2,-16(fp)
    268c:	e0bffc03 	ldbu	r2,-16(fp)
    2690:	1080004c 	andi	r2,r2,1
    2694:	e0bffc05 	stb	r2,-16(fp)
	status = status && setDefaultIconBlock( &(scrFooterInst->iconBack), icon_setting, iconBlockWidth, iconBlockHeight, ICON_BACK_X_SIZE, ICON_BACK_Y_SIZE );
    2698:	e0bffc03 	ldbu	r2,-16(fp)
    269c:	10001026 	beq	r2,zero,26e0 <screenFooterInit+0x320>
    26a0:	e0bffd17 	ldw	r2,-12(fp)
    26a4:	11001404 	addi	r4,r2,80
    26a8:	e1bffb8f 	ldh	r6,-18(fp)
    26ac:	e0fffb0f 	ldh	r3,-20(fp)
    26b0:	00800404 	movi	r2,16
    26b4:	d8800015 	stw	r2,0(sp)
    26b8:	00800404 	movi	r2,16
    26bc:	d8800115 	stw	r2,4(sp)
    26c0:	01400374 	movhi	r5,13
    26c4:	29426a04 	addi	r5,r5,2472
    26c8:	180f883a 	mov	r7,r3
    26cc:	00013700 	call	1370 <setDefaultIconBlock>
    26d0:	10803fcc 	andi	r2,r2,255
    26d4:	10000226 	beq	r2,zero,26e0 <screenFooterInit+0x320>
    26d8:	00800044 	movi	r2,1
    26dc:	00000106 	br	26e4 <screenFooterInit+0x324>
    26e0:	0005883a 	mov	r2,zero
    26e4:	e0bffc05 	stb	r2,-16(fp)
    26e8:	e0bffc03 	ldbu	r2,-16(fp)
    26ec:	1080004c 	andi	r2,r2,1
    26f0:	e0bffc05 	stb	r2,-16(fp)

	return status;
    26f4:	e0bffc03 	ldbu	r2,-16(fp)
}
    26f8:	e037883a 	mov	sp,fp
    26fc:	dfc00117 	ldw	ra,4(sp)
    2700:	df000017 	ldw	fp,0(sp)
    2704:	dec00204 	addi	sp,sp,8
    2708:	f800283a 	ret

0000270c <screenMainHomeInit>:

bool screenMainHomeInit( ScreenHome *scrHomeInst, short width, short height, const TxtFilesInfo *txtFilesInfoPtr )
{
    270c:	deffe504 	addi	sp,sp,-108
    2710:	dfc01a15 	stw	ra,104(sp)
    2714:	df001915 	stw	fp,100(sp)
    2718:	dc001815 	stw	r16,96(sp)
    271c:	df001904 	addi	fp,sp,100
    2720:	e13ffb15 	stw	r4,-20(fp)
    2724:	2807883a 	mov	r3,r5
    2728:	3005883a 	mov	r2,r6
    272c:	e1fffe15 	stw	r7,-8(fp)
    2730:	e0fffc0d 	sth	r3,-16(fp)
    2734:	e0bffd0d 	sth	r2,-12(fp)
	scrHomeInst->bkgBorderColor = defaultColorInfo;
    2738:	e0bffb17 	ldw	r2,-20(fp)
    273c:	d0e0040b 	ldhu	r3,-32752(gp)
    2740:	10c0000d 	sth	r3,0(r2)
    2744:	d0e00484 	addi	r3,gp,-32750
    2748:	18c0000b 	ldhu	r3,0(r3)
    274c:	10c0008d 	sth	r3,2(r2)
    2750:	d0e00504 	addi	r3,gp,-32748
    2754:	18c0000b 	ldhu	r3,0(r3)
    2758:	10c0010d 	sth	r3,4(r2)
    275c:	d0e00584 	addi	r3,gp,-32746
    2760:	18c0000b 	ldhu	r3,0(r3)
    2764:	10c0018d 	sth	r3,6(r2)

	bool status = true;
    2768:	00800044 	movi	r2,1
    276c:	e0bfea05 	stb	r2,-88(fp)

	//列表
	short blockMarginY = 1;
    2770:	00800044 	movi	r2,1
    2774:	e0bfea8d 	sth	r2,-86(fp)
	short blockHeight = height - (blockMarginY<<1);
    2778:	e0fffd0b 	ldhu	r3,-12(fp)
    277c:	e0bfea8b 	ldhu	r2,-86(fp)
    2780:	1085883a 	add	r2,r2,r2
    2784:	1885c83a 	sub	r2,r3,r2
    2788:	e0bfeb0d 	sth	r2,-84(fp)

	short numListMarginXL = 1;
    278c:	00800044 	movi	r2,1
    2790:	e0bfeb8d 	sth	r2,-82(fp)
	short numListWidth = 50;//数字编号列表元素宽度
    2794:	00800c84 	movi	r2,50
    2798:	e0bfec0d 	sth	r2,-80(fp)

	short scrollBarMarginXR = 1;
    279c:	00800044 	movi	r2,1
    27a0:	e0bfec8d 	sth	r2,-78(fp)
	short scrollBarWidth = 50;//滚动条宽度
    27a4:	00800c84 	movi	r2,50
    27a8:	e0bfed0d 	sth	r2,-76(fp)
	short scrollBarMarginXL = width - scrollBarMarginXR - scrollBarWidth;
    27ac:	e0fffc0b 	ldhu	r3,-16(fp)
    27b0:	e0bfec8b 	ldhu	r2,-78(fp)
    27b4:	1885c83a 	sub	r2,r3,r2
    27b8:	1007883a 	mov	r3,r2
    27bc:	e0bfed0b 	ldhu	r2,-76(fp)
    27c0:	1885c83a 	sub	r2,r3,r2
    27c4:	e0bfed8d 	sth	r2,-74(fp)

	short catalogListSpacingL = 2;//txt文件目录与左侧数字编号列表的间隔
    27c8:	00800084 	movi	r2,2
    27cc:	e0bfee0d 	sth	r2,-72(fp)
	short catalogListSpacingR = 2;//txt文件目录与右侧滚动条的间隔
    27d0:	00800084 	movi	r2,2
    27d4:	e0bfee8d 	sth	r2,-70(fp)
	short catalogListMarginXL = numListMarginXL + numListWidth + catalogListSpacingL;
    27d8:	e0ffeb8b 	ldhu	r3,-82(fp)
    27dc:	e0bfec0b 	ldhu	r2,-80(fp)
    27e0:	1885883a 	add	r2,r3,r2
    27e4:	1007883a 	mov	r3,r2
    27e8:	e0bfee0b 	ldhu	r2,-72(fp)
    27ec:	1885883a 	add	r2,r3,r2
    27f0:	e0bfef0d 	sth	r2,-68(fp)
	short catalogListWidth = width - scrollBarMarginXR - scrollBarWidth - catalogListSpacingR - catalogListMarginXL;
    27f4:	e0fffc0b 	ldhu	r3,-16(fp)
    27f8:	e0bfec8b 	ldhu	r2,-78(fp)
    27fc:	1885c83a 	sub	r2,r3,r2
    2800:	1007883a 	mov	r3,r2
    2804:	e0bfed0b 	ldhu	r2,-76(fp)
    2808:	1885c83a 	sub	r2,r3,r2
    280c:	1007883a 	mov	r3,r2
    2810:	e0bfee8b 	ldhu	r2,-70(fp)
    2814:	1885c83a 	sub	r2,r3,r2
    2818:	1007883a 	mov	r3,r2
    281c:	e0bfef0b 	ldhu	r2,-68(fp)
    2820:	1885c83a 	sub	r2,r3,r2
    2824:	e0bfef8d 	sth	r2,-66(fp)

	//列表元素个数
	short listElemNum = txtFilesInfoPtr->txtFilesNum;//列表元素个数
    2828:	e0bffe17 	ldw	r2,-8(fp)
    282c:	10800117 	ldw	r2,4(r2)
    2830:	e0bff00d 	sth	r2,-64(fp)
	short listElemHeight = CATALOG_ROW_HEIGHT;//列表元素高度
    2834:	00800484 	movi	r2,18
    2838:	e0bff08d 	sth	r2,-62(fp)


	//列表内容设置
	//两个TextList变量malloc索要空间，并将txtFilesInfoPtr中的有效信息保存到索要的TextList空间中
	TextList numList;
	numList.textNum = listElemNum;
    283c:	e0bff00b 	ldhu	r2,-64(fp)
    2840:	e0bff50d 	sth	r2,-44(fp)
	numList.textArray = (TextType*)malloc( sizeof(TextType) * listElemNum );
    2844:	e0bff00f 	ldh	r2,-64(fp)
    2848:	100490fa 	slli	r2,r2,3
    284c:	1009883a 	mov	r4,r2
    2850:	0008a580 	call	8a58 <malloc>
    2854:	e0bff415 	stw	r2,-48(fp)
	TextType *textAry = numList.textArray;
    2858:	e0bff417 	ldw	r2,-48(fp)
    285c:	e0bff115 	stw	r2,-60(fp)
	int i;
	char tempStr[10];
	for ( i = 0; i < listElemNum; i ++ )
    2860:	e03fe915 	stw	zero,-92(fp)
    2864:	00002e06 	br	2920 <screenMainHomeInit+0x214>
	{
		sprintf(tempStr, "%2d", i + 1 );//获取编号字符串（从" 1"开始,最大"99"）
    2868:	e0bfe917 	ldw	r2,-92(fp)
    286c:	10800044 	addi	r2,r2,1
    2870:	e0fff604 	addi	r3,fp,-40
    2874:	1809883a 	mov	r4,r3
    2878:	01400374 	movhi	r5,13
    287c:	29429204 	addi	r5,r5,2632
    2880:	100d883a 	mov	r6,r2
    2884:	00092d40 	call	92d4 <sprintf>
		(textAry[i]).text = (char*)malloc( sizeof(char) * 3 );
    2888:	e0bfe917 	ldw	r2,-92(fp)
    288c:	100490fa 	slli	r2,r2,3
    2890:	e0fff117 	ldw	r3,-60(fp)
    2894:	18a1883a 	add	r16,r3,r2
    2898:	010000c4 	movi	r4,3
    289c:	0008a580 	call	8a58 <malloc>
    28a0:	80800015 	stw	r2,0(r16)
		((textAry[i]).text)[0] = tempStr[0];
    28a4:	e0bfe917 	ldw	r2,-92(fp)
    28a8:	100490fa 	slli	r2,r2,3
    28ac:	e0fff117 	ldw	r3,-60(fp)
    28b0:	1885883a 	add	r2,r3,r2
    28b4:	10800017 	ldw	r2,0(r2)
    28b8:	e0fff603 	ldbu	r3,-40(fp)
    28bc:	10c00005 	stb	r3,0(r2)
		((textAry[i]).text)[1] = tempStr[1];
    28c0:	e0bfe917 	ldw	r2,-92(fp)
    28c4:	100490fa 	slli	r2,r2,3
    28c8:	e0fff117 	ldw	r3,-60(fp)
    28cc:	1885883a 	add	r2,r3,r2
    28d0:	10800017 	ldw	r2,0(r2)
    28d4:	10800044 	addi	r2,r2,1
    28d8:	e0fff643 	ldbu	r3,-39(fp)
    28dc:	10c00005 	stb	r3,0(r2)
		((textAry[i]).text)[2] = 0;
    28e0:	e0bfe917 	ldw	r2,-92(fp)
    28e4:	100490fa 	slli	r2,r2,3
    28e8:	e0fff117 	ldw	r3,-60(fp)
    28ec:	1885883a 	add	r2,r3,r2
    28f0:	10800017 	ldw	r2,0(r2)
    28f4:	10800084 	addi	r2,r2,2
    28f8:	10000005 	stb	zero,0(r2)
		(textAry[i]).textLen = 2;
    28fc:	e0bfe917 	ldw	r2,-92(fp)
    2900:	100490fa 	slli	r2,r2,3
    2904:	e0fff117 	ldw	r3,-60(fp)
    2908:	1885883a 	add	r2,r3,r2
    290c:	00c00084 	movi	r3,2
    2910:	10c0010d 	sth	r3,4(r2)
	numList.textNum = listElemNum;
	numList.textArray = (TextType*)malloc( sizeof(TextType) * listElemNum );
	TextType *textAry = numList.textArray;
	int i;
	char tempStr[10];
	for ( i = 0; i < listElemNum; i ++ )
    2914:	e0bfe917 	ldw	r2,-92(fp)
    2918:	10800044 	addi	r2,r2,1
    291c:	e0bfe915 	stw	r2,-92(fp)
    2920:	e0bff00f 	ldh	r2,-64(fp)
    2924:	e0ffe917 	ldw	r3,-92(fp)
    2928:	18bfcf16 	blt	r3,r2,2868 <__alt_data_end+0xf8002868>
		(textAry[i]).textLen = 2;
	}


	TextList catalogList;
	catalogList.textNum = listElemNum;
    292c:	e0bff00b 	ldhu	r2,-64(fp)
    2930:	e0bffa0d 	sth	r2,-24(fp)
	catalogList.textArray = (TextType*)malloc( sizeof(TextType) * listElemNum );
    2934:	e0bff00f 	ldh	r2,-64(fp)
    2938:	100490fa 	slli	r2,r2,3
    293c:	1009883a 	mov	r4,r2
    2940:	0008a580 	call	8a58 <malloc>
    2944:	e0bff915 	stw	r2,-28(fp)
	TextType *catalogAry = catalogList.textArray;
    2948:	e0bff917 	ldw	r2,-28(fp)
    294c:	e0bff215 	stw	r2,-56(fp)
	TxtFile *txtFileArray = txtFilesInfoPtr->txtFileList;
    2950:	e0bffe17 	ldw	r2,-8(fp)
    2954:	10800017 	ldw	r2,0(r2)
    2958:	e0bff315 	stw	r2,-52(fp)

	for ( i = 0; i < listElemNum; i ++ )
    295c:	e03fe915 	stw	zero,-92(fp)
    2960:	00000f06 	br	29a0 <screenMainHomeInit+0x294>
	{
		catalogAry[i] = (txtFileArray[i]).txtFileName;
    2964:	e0bfe917 	ldw	r2,-92(fp)
    2968:	100490fa 	slli	r2,r2,3
    296c:	e0fff217 	ldw	r3,-56(fp)
    2970:	1885883a 	add	r2,r3,r2
    2974:	e0ffe917 	ldw	r3,-92(fp)
    2978:	18c00724 	muli	r3,r3,28
    297c:	e13ff317 	ldw	r4,-52(fp)
    2980:	20c7883a 	add	r3,r4,r3
    2984:	19000017 	ldw	r4,0(r3)
    2988:	11000015 	stw	r4,0(r2)
    298c:	18c00117 	ldw	r3,4(r3)
    2990:	10c00115 	stw	r3,4(r2)
	catalogList.textNum = listElemNum;
	catalogList.textArray = (TextType*)malloc( sizeof(TextType) * listElemNum );
	TextType *catalogAry = catalogList.textArray;
	TxtFile *txtFileArray = txtFilesInfoPtr->txtFileList;

	for ( i = 0; i < listElemNum; i ++ )
    2994:	e0bfe917 	ldw	r2,-92(fp)
    2998:	10800044 	addi	r2,r2,1
    299c:	e0bfe915 	stw	r2,-92(fp)
    29a0:	e0bff00f 	ldh	r2,-64(fp)
    29a4:	e0ffe917 	ldw	r3,-92(fp)
    29a8:	18bfee16 	blt	r3,r2,2964 <__alt_data_end+0xf8002964>




	//数字编号列表
	status = status && setAreaRange( &(scrHomeInst->numBarArea), numListMarginXL+1, numListMarginXL+numListWidth,\
    29ac:	e0bfea03 	ldbu	r2,-88(fp)
    29b0:	10001e26 	beq	r2,zero,2a2c <screenMainHomeInit+0x320>
    29b4:	e0bffb17 	ldw	r2,-20(fp)
    29b8:	11000604 	addi	r4,r2,24
    29bc:	e0bfeb8b 	ldhu	r2,-82(fp)
    29c0:	10800044 	addi	r2,r2,1
    29c4:	117fffcc 	andi	r5,r2,65535
    29c8:	2960001c 	xori	r5,r5,32768
    29cc:	29600004 	addi	r5,r5,-32768
    29d0:	e0ffeb8b 	ldhu	r3,-82(fp)
    29d4:	e0bfec0b 	ldhu	r2,-80(fp)
    29d8:	1885883a 	add	r2,r3,r2
    29dc:	11bfffcc 	andi	r6,r2,65535
    29e0:	31a0001c 	xori	r6,r6,32768
    29e4:	31a00004 	addi	r6,r6,-32768
    29e8:	e0bfea8b 	ldhu	r2,-86(fp)
    29ec:	10800044 	addi	r2,r2,1
    29f0:	11ffffcc 	andi	r7,r2,65535
    29f4:	39e0001c 	xori	r7,r7,32768
    29f8:	39e00004 	addi	r7,r7,-32768
    29fc:	e0fffd0b 	ldhu	r3,-12(fp)
    2a00:	e0bfea8b 	ldhu	r2,-86(fp)
    2a04:	1885c83a 	sub	r2,r3,r2
    2a08:	10bfffcc 	andi	r2,r2,65535
    2a0c:	10a0001c 	xori	r2,r2,32768
    2a10:	10a00004 	addi	r2,r2,-32768
    2a14:	d8800015 	stw	r2,0(sp)
    2a18:	000044c0 	call	44c <setAreaRange>
    2a1c:	10803fcc 	andi	r2,r2,255
    2a20:	10000226 	beq	r2,zero,2a2c <screenMainHomeInit+0x320>
    2a24:	00800044 	movi	r2,1
    2a28:	00000106 	br	2a30 <screenMainHomeInit+0x324>
    2a2c:	0005883a 	mov	r2,zero
    2a30:	e0bfea05 	stb	r2,-88(fp)
    2a34:	e0bfea03 	ldbu	r2,-88(fp)
    2a38:	1080004c 	andi	r2,r2,1
    2a3c:	e0bfea05 	stb	r2,-88(fp)
							blockMarginY+1, height-blockMarginY );
	status = status && setDefaultTagList( &(scrHomeInst->numBar), numListWidth, listElemNum, &numList, true,\
    2a40:	e0bfea03 	ldbu	r2,-88(fp)
    2a44:	10000f26 	beq	r2,zero,2a84 <screenMainHomeInit+0x378>
    2a48:	e0bffb17 	ldw	r2,-20(fp)
    2a4c:	11000804 	addi	r4,r2,32
    2a50:	e17fec0f 	ldh	r5,-80(fp)
    2a54:	e1bff00f 	ldh	r6,-64(fp)
    2a58:	e0fff404 	addi	r3,fp,-48
    2a5c:	00800044 	movi	r2,1
    2a60:	d8800015 	stw	r2,0(sp)
    2a64:	d0a00404 	addi	r2,gp,-32752
    2a68:	d8800115 	stw	r2,4(sp)
    2a6c:	180f883a 	mov	r7,r3
    2a70:	0002d7c0 	call	2d7c <setDefaultTagList>
    2a74:	10803fcc 	andi	r2,r2,255
    2a78:	10000226 	beq	r2,zero,2a84 <screenMainHomeInit+0x378>
    2a7c:	00800044 	movi	r2,1
    2a80:	00000106 	br	2a88 <screenMainHomeInit+0x37c>
    2a84:	0005883a 	mov	r2,zero
    2a88:	e0bfea05 	stb	r2,-88(fp)
    2a8c:	e0bfea03 	ldbu	r2,-88(fp)
    2a90:	1080004c 	andi	r2,r2,1
    2a94:	e0bfea05 	stb	r2,-88(fp)
							&defaultColorInfo );
	//txt文件目录列表
	status = status && setAreaRange( &(scrHomeInst->txtCatalogArea), catalogListMarginXL+1, catalogListMarginXL+catalogListWidth,\
    2a98:	e0bfea03 	ldbu	r2,-88(fp)
    2a9c:	10001e26 	beq	r2,zero,2b18 <screenMainHomeInit+0x40c>
    2aa0:	e0bffb17 	ldw	r2,-20(fp)
    2aa4:	11001104 	addi	r4,r2,68
    2aa8:	e0bfef0b 	ldhu	r2,-68(fp)
    2aac:	10800044 	addi	r2,r2,1
    2ab0:	117fffcc 	andi	r5,r2,65535
    2ab4:	2960001c 	xori	r5,r5,32768
    2ab8:	29600004 	addi	r5,r5,-32768
    2abc:	e0ffef0b 	ldhu	r3,-68(fp)
    2ac0:	e0bfef8b 	ldhu	r2,-66(fp)
    2ac4:	1885883a 	add	r2,r3,r2
    2ac8:	11bfffcc 	andi	r6,r2,65535
    2acc:	31a0001c 	xori	r6,r6,32768
    2ad0:	31a00004 	addi	r6,r6,-32768
    2ad4:	e0bfea8b 	ldhu	r2,-86(fp)
    2ad8:	10800044 	addi	r2,r2,1
    2adc:	11ffffcc 	andi	r7,r2,65535
    2ae0:	39e0001c 	xori	r7,r7,32768
    2ae4:	39e00004 	addi	r7,r7,-32768
    2ae8:	e0fffd0b 	ldhu	r3,-12(fp)
    2aec:	e0bfea8b 	ldhu	r2,-86(fp)
    2af0:	1885c83a 	sub	r2,r3,r2
    2af4:	10bfffcc 	andi	r2,r2,65535
    2af8:	10a0001c 	xori	r2,r2,32768
    2afc:	10a00004 	addi	r2,r2,-32768
    2b00:	d8800015 	stw	r2,0(sp)
    2b04:	000044c0 	call	44c <setAreaRange>
    2b08:	10803fcc 	andi	r2,r2,255
    2b0c:	10000226 	beq	r2,zero,2b18 <screenMainHomeInit+0x40c>
    2b10:	00800044 	movi	r2,1
    2b14:	00000106 	br	2b1c <screenMainHomeInit+0x410>
    2b18:	0005883a 	mov	r2,zero
    2b1c:	e0bfea05 	stb	r2,-88(fp)
    2b20:	e0bfea03 	ldbu	r2,-88(fp)
    2b24:	1080004c 	andi	r2,r2,1
    2b28:	e0bfea05 	stb	r2,-88(fp)
							blockMarginY+1, height-blockMarginY );
	status = status && setDefaultTagList( &(scrHomeInst->txtCatalog), numListWidth, listElemNum, &catalogList, true,\
    2b2c:	e0bfea03 	ldbu	r2,-88(fp)
    2b30:	10000f26 	beq	r2,zero,2b70 <screenMainHomeInit+0x464>
    2b34:	e0bffb17 	ldw	r2,-20(fp)
    2b38:	11001304 	addi	r4,r2,76
    2b3c:	e17fec0f 	ldh	r5,-80(fp)
    2b40:	e1bff00f 	ldh	r6,-64(fp)
    2b44:	e0fff904 	addi	r3,fp,-28
    2b48:	00800044 	movi	r2,1
    2b4c:	d8800015 	stw	r2,0(sp)
    2b50:	d0a00404 	addi	r2,gp,-32752
    2b54:	d8800115 	stw	r2,4(sp)
    2b58:	180f883a 	mov	r7,r3
    2b5c:	0002d7c0 	call	2d7c <setDefaultTagList>
    2b60:	10803fcc 	andi	r2,r2,255
    2b64:	10000226 	beq	r2,zero,2b70 <screenMainHomeInit+0x464>
    2b68:	00800044 	movi	r2,1
    2b6c:	00000106 	br	2b74 <screenMainHomeInit+0x468>
    2b70:	0005883a 	mov	r2,zero
    2b74:	e0bfea05 	stb	r2,-88(fp)
    2b78:	e0bfea03 	ldbu	r2,-88(fp)
    2b7c:	1080004c 	andi	r2,r2,1
    2b80:	e0bfea05 	stb	r2,-88(fp)
							&defaultColorInfo );

	//释放使用完毕的numListPtr与catalogListPtr空间
	free(numList.textArray);
    2b84:	e0bff417 	ldw	r2,-48(fp)
    2b88:	1009883a 	mov	r4,r2
    2b8c:	0008a6c0 	call	8a6c <free>

	free(catalogList.textArray);
    2b90:	e0bff917 	ldw	r2,-28(fp)
    2b94:	1009883a 	mov	r4,r2
    2b98:	0008a6c0 	call	8a6c <free>


	//列表纵向移动显示设置
	scrHomeInst->listYOffset = 0;//列表显示时的纵向偏移量
    2b9c:	e0bffb17 	ldw	r2,-20(fp)
    2ba0:	1000020d 	sth	zero,8(r2)
	scrHomeInst->listShowHeight = blockHeight;//列表显示在屏幕上时的高度
    2ba4:	e0bffb17 	ldw	r2,-20(fp)
    2ba8:	e0ffeb0b 	ldhu	r3,-84(fp)
    2bac:	10c0040d 	sth	r3,16(r2)
	scrHomeInst->listYSize = listElemNum * listElemHeight;//列表纵向全长
    2bb0:	e0fff00b 	ldhu	r3,-64(fp)
    2bb4:	e0bff08b 	ldhu	r2,-62(fp)
    2bb8:	1885383a 	mul	r2,r3,r2
    2bbc:	1007883a 	mov	r3,r2
    2bc0:	e0bffb17 	ldw	r2,-20(fp)
    2bc4:	10c0030d 	sth	r3,12(r2)
	scrHomeInst->listShowYRatio = scrHomeInst->listShowHeight / scrHomeInst->listYSize;
    2bc8:	e0bffb17 	ldw	r2,-20(fp)
    2bcc:	1080040b 	ldhu	r2,16(r2)
    2bd0:	10ffffcc 	andi	r3,r2,65535
    2bd4:	18e0001c 	xori	r3,r3,32768
    2bd8:	18e00004 	addi	r3,r3,-32768
    2bdc:	e0bffb17 	ldw	r2,-20(fp)
    2be0:	1080030b 	ldhu	r2,12(r2)
    2be4:	10bfffcc 	andi	r2,r2,65535
    2be8:	10a0001c 	xori	r2,r2,32768
    2bec:	10a00004 	addi	r2,r2,-32768
    2bf0:	1809883a 	mov	r4,r3
    2bf4:	100b883a 	mov	r5,r2
    2bf8:	00083640 	call	8364 <__divsi3>
    2bfc:	1009883a 	mov	r4,r2
    2c00:	00088c00 	call	88c0 <__floatsisf>
    2c04:	1007883a 	mov	r3,r2
    2c08:	e0bffb17 	ldw	r2,-20(fp)
    2c0c:	10c00515 	stw	r3,20(r2)
	scrHomeInst->listYOffsetMax = scrHomeInst->listYSize - blockHeight;
    2c10:	e0bffb17 	ldw	r2,-20(fp)
    2c14:	1080030b 	ldhu	r2,12(r2)
    2c18:	1007883a 	mov	r3,r2
    2c1c:	e0bfeb0b 	ldhu	r2,-84(fp)
    2c20:	1885c83a 	sub	r2,r3,r2
    2c24:	1007883a 	mov	r3,r2
    2c28:	e0bffb17 	ldw	r2,-20(fp)
    2c2c:	10c0028d 	sth	r3,10(r2)
	scrHomeInst->listYStepSize = CATALOG_ROW_HEIGHT;
    2c30:	e0bffb17 	ldw	r2,-20(fp)
    2c34:	00c00484 	movi	r3,18
    2c38:	10c0038d 	sth	r3,14(r2)

	//滚动条
	status = status && setAreaRange( &(scrHomeInst->turnCatalogBarArea), scrollBarMarginXL + 1, scrollBarMarginXL + scrollBarWidth,\
    2c3c:	e0bfea03 	ldbu	r2,-88(fp)
    2c40:	10001e26 	beq	r2,zero,2cbc <screenMainHomeInit+0x5b0>
    2c44:	e0bffb17 	ldw	r2,-20(fp)
    2c48:	11001f04 	addi	r4,r2,124
    2c4c:	e0bfed8b 	ldhu	r2,-74(fp)
    2c50:	10800044 	addi	r2,r2,1
    2c54:	117fffcc 	andi	r5,r2,65535
    2c58:	2960001c 	xori	r5,r5,32768
    2c5c:	29600004 	addi	r5,r5,-32768
    2c60:	e0ffed8b 	ldhu	r3,-74(fp)
    2c64:	e0bfed0b 	ldhu	r2,-76(fp)
    2c68:	1885883a 	add	r2,r3,r2
    2c6c:	11bfffcc 	andi	r6,r2,65535
    2c70:	31a0001c 	xori	r6,r6,32768
    2c74:	31a00004 	addi	r6,r6,-32768
    2c78:	e0bfea8b 	ldhu	r2,-86(fp)
    2c7c:	10800044 	addi	r2,r2,1
    2c80:	11ffffcc 	andi	r7,r2,65535
    2c84:	39e0001c 	xori	r7,r7,32768
    2c88:	39e00004 	addi	r7,r7,-32768
    2c8c:	e0fffd0b 	ldhu	r3,-12(fp)
    2c90:	e0bfea8b 	ldhu	r2,-86(fp)
    2c94:	1885c83a 	sub	r2,r3,r2
    2c98:	10bfffcc 	andi	r2,r2,65535
    2c9c:	10a0001c 	xori	r2,r2,32768
    2ca0:	10a00004 	addi	r2,r2,-32768
    2ca4:	d8800015 	stw	r2,0(sp)
    2ca8:	000044c0 	call	44c <setAreaRange>
    2cac:	10803fcc 	andi	r2,r2,255
    2cb0:	10000226 	beq	r2,zero,2cbc <screenMainHomeInit+0x5b0>
    2cb4:	00800044 	movi	r2,1
    2cb8:	00000106 	br	2cc0 <screenMainHomeInit+0x5b4>
    2cbc:	0005883a 	mov	r2,zero
    2cc0:	e0bfea05 	stb	r2,-88(fp)
    2cc4:	e0bfea03 	ldbu	r2,-88(fp)
    2cc8:	1080004c 	andi	r2,r2,1
    2ccc:	e0bfea05 	stb	r2,-88(fp)
							blockMarginY+1, height-blockMarginY );
	status = status && setDefaultScrollBarY( &(scrHomeInst->turnCatalogBarY), scrollBarWidth, blockHeight, scrHomeInst->listShowYRatio );
    2cd0:	e0bfea03 	ldbu	r2,-88(fp)
    2cd4:	10000c26 	beq	r2,zero,2d08 <screenMainHomeInit+0x5fc>
    2cd8:	e0bffb17 	ldw	r2,-20(fp)
    2cdc:	11002104 	addi	r4,r2,132
    2ce0:	e17fed0f 	ldh	r5,-76(fp)
    2ce4:	e1bfeb0f 	ldh	r6,-84(fp)
    2ce8:	e0bffb17 	ldw	r2,-20(fp)
    2cec:	10c00517 	ldw	r3,20(r2)
    2cf0:	180f883a 	mov	r7,r3
    2cf4:	0000e240 	call	e24 <setDefaultScrollBarY>
    2cf8:	10803fcc 	andi	r2,r2,255
    2cfc:	10000226 	beq	r2,zero,2d08 <screenMainHomeInit+0x5fc>
    2d00:	00800044 	movi	r2,1
    2d04:	00000106 	br	2d0c <screenMainHomeInit+0x600>
    2d08:	0005883a 	mov	r2,zero
    2d0c:	e0bfea05 	stb	r2,-88(fp)
    2d10:	e0bfea03 	ldbu	r2,-88(fp)
    2d14:	1080004c 	andi	r2,r2,1
    2d18:	e0bfea05 	stb	r2,-88(fp)




	//某行目录文件名水平滚动设置
	scrHomeInst->txtScrollable = false;//允许滚动否
    2d1c:	e0bffb17 	ldw	r2,-20(fp)
    2d20:	10001c05 	stb	zero,112(r2)
	scrHomeInst->txtScrollrow = 0;//可滚动的某行行数（一次只有一行可以滚动）
    2d24:	e0bffb17 	ldw	r2,-20(fp)
    2d28:	10001c8d 	sth	zero,114(r2)
	scrHomeInst->txtScrollXOffset = 0;//当前水平滚动偏移量
    2d2c:	e0bffb17 	ldw	r2,-20(fp)
    2d30:	10001d0d 	sth	zero,116(r2)
	scrHomeInst->txtScrollXStepSize = 0;//水平滚动步长
    2d34:	e0bffb17 	ldw	r2,-20(fp)
    2d38:	10001d8d 	sth	zero,118(r2)
	scrHomeInst->txtScrollwidth = 0;//滚动文本的真实像素宽度（可以超出屏幕宽度）
    2d3c:	e0bffb17 	ldw	r2,-20(fp)
    2d40:	10001e0d 	sth	zero,120(r2)
	scrHomeInst->txtScrollSpacing = width / 2;//滚动文本循环时文本尾与新文本头的间隔
    2d44:	e0bffc0f 	ldh	r2,-16(fp)
    2d48:	1006d7fa 	srli	r3,r2,31
    2d4c:	1885883a 	add	r2,r3,r2
    2d50:	1005d07a 	srai	r2,r2,1
    2d54:	1007883a 	mov	r3,r2
    2d58:	e0bffb17 	ldw	r2,-20(fp)
    2d5c:	10c01e8d 	sth	r3,122(r2)


	return status;
    2d60:	e0bfea03 	ldbu	r2,-88(fp)
}
    2d64:	e6ffff04 	addi	sp,fp,-4
    2d68:	dfc00217 	ldw	ra,8(sp)
    2d6c:	df000117 	ldw	fp,4(sp)
    2d70:	dc000017 	ldw	r16,0(sp)
    2d74:	dec00304 	addi	sp,sp,12
    2d78:	f800283a 	ret

00002d7c <setDefaultTagList>:
//设置默认文本标签列表
bool setDefaultTagList( TagList *TagListInst, short elemWidth, short elemHeight, TextList *textListPtr, bool elemBorderVisible,\
		                 ColorInfo *colorInfoPtr )
{
    2d7c:	deffef04 	addi	sp,sp,-68
    2d80:	dfc01015 	stw	ra,64(sp)
    2d84:	df000f15 	stw	fp,60(sp)
    2d88:	df000f04 	addi	fp,sp,60
    2d8c:	e13ffb15 	stw	r4,-20(fp)
    2d90:	2809883a 	mov	r4,r5
    2d94:	3007883a 	mov	r3,r6
    2d98:	e1fffe15 	stw	r7,-8(fp)
    2d9c:	e0800217 	ldw	r2,8(fp)
    2da0:	e13ffc0d 	sth	r4,-16(fp)
    2da4:	e0fffd0d 	sth	r3,-12(fp)
    2da8:	e0bfff05 	stb	r2,-4(fp)
	//设置列表元素区域大小
	bool status = true;
    2dac:	00800044 	movi	r2,1
    2db0:	e0bff205 	stb	r2,-56(fp)
	status = status && setAreaRange( &(TagListInst->elemBaseArea), 1, elemWidth, 1, elemHeight );
    2db4:	e0bff203 	ldbu	r2,-56(fp)
    2db8:	10000c26 	beq	r2,zero,2dec <setDefaultTagList+0x70>
    2dbc:	e13ffb17 	ldw	r4,-20(fp)
    2dc0:	e0fffc0f 	ldh	r3,-16(fp)
    2dc4:	e0bffd0f 	ldh	r2,-12(fp)
    2dc8:	d8800015 	stw	r2,0(sp)
    2dcc:	01400044 	movi	r5,1
    2dd0:	180d883a 	mov	r6,r3
    2dd4:	01c00044 	movi	r7,1
    2dd8:	000044c0 	call	44c <setAreaRange>
    2ddc:	10803fcc 	andi	r2,r2,255
    2de0:	10000226 	beq	r2,zero,2dec <setDefaultTagList+0x70>
    2de4:	00800044 	movi	r2,1
    2de8:	00000106 	br	2df0 <setDefaultTagList+0x74>
    2dec:	0005883a 	mov	r2,zero
    2df0:	e0bff205 	stb	r2,-56(fp)
    2df4:	e0bff203 	ldbu	r2,-56(fp)
    2df8:	1080004c 	andi	r2,r2,1
    2dfc:	e0bff205 	stb	r2,-56(fp)
	//计算文本所在区域
	//计算文本宽度(使用中文尺寸来估计）
	short textWidth = ( BOOK_ROW_BYTES >> 1) * ( SRC_WORD_SIZE_X + DEFAULT_WORD_SPACING );
    2e00:	00804c84 	movi	r2,306
    2e04:	e0bff68d 	sth	r2,-38(fp)
	short marginXL = ( elemWidth - textWidth )>>1;
    2e08:	e0fffc0f 	ldh	r3,-16(fp)
    2e0c:	e0bff68f 	ldh	r2,-38(fp)
    2e10:	1885c83a 	sub	r2,r3,r2
    2e14:	1005d07a 	srai	r2,r2,1
    2e18:	e0bff28d 	sth	r2,-54(fp)
	short marginXR = elemWidth - marginXL - textWidth;
    2e1c:	e0fffc0b 	ldhu	r3,-16(fp)
    2e20:	e0bff28b 	ldhu	r2,-54(fp)
    2e24:	1885c83a 	sub	r2,r3,r2
    2e28:	1007883a 	mov	r3,r2
    2e2c:	e0bff68b 	ldhu	r2,-38(fp)
    2e30:	1885c83a 	sub	r2,r3,r2
    2e34:	e0bff30d 	sth	r2,-52(fp)
	short marginYU = ( elemHeight - SRC_WORD_SIZE_Y )>>1;
    2e38:	e0bffd0f 	ldh	r2,-12(fp)
    2e3c:	10bffc04 	addi	r2,r2,-16
    2e40:	1005d07a 	srai	r2,r2,1
    2e44:	e0bff38d 	sth	r2,-50(fp)
	short marginYD = elemHeight - marginYU - SRC_WORD_SIZE_Y;
    2e48:	e0fffd0b 	ldhu	r3,-12(fp)
    2e4c:	e0bff38b 	ldhu	r2,-50(fp)
    2e50:	1885c83a 	sub	r2,r3,r2
    2e54:	10bffc04 	addi	r2,r2,-16
    2e58:	e0bff40d 	sth	r2,-48(fp)

	if ( elemWidth < textWidth || elemHeight < SRC_WORD_SIZE_Y )
    2e5c:	e0fffc0f 	ldh	r3,-16(fp)
    2e60:	e0bff68f 	ldh	r2,-38(fp)
    2e64:	18800316 	blt	r3,r2,2e74 <setDefaultTagList+0xf8>
    2e68:	e0bffd0f 	ldh	r2,-12(fp)
    2e6c:	10800408 	cmpgei	r2,r2,16
    2e70:	1000051e 	bne	r2,zero,2e88 <setDefaultTagList+0x10c>
	{
		marginXL = 0;
    2e74:	e03ff28d 	sth	zero,-54(fp)
		marginXR = 0;
    2e78:	e03ff30d 	sth	zero,-52(fp)
		marginYU = 0;
    2e7c:	e03ff38d 	sth	zero,-50(fp)
		marginYD = 0;
    2e80:	e03ff40d 	sth	zero,-48(fp)
		status = false;
    2e84:	e03ff205 	stb	zero,-56(fp)
	}
	//设置元素文本区域位置
	status = status && setAreaRange( &(TagListInst->textArea), marginXL+1, elemWidth-marginXR, marginYU+1, elemHeight-marginYD );
    2e88:	e0bff203 	ldbu	r2,-56(fp)
    2e8c:	10001e26 	beq	r2,zero,2f08 <setDefaultTagList+0x18c>
    2e90:	e0bffb17 	ldw	r2,-20(fp)
    2e94:	11000204 	addi	r4,r2,8
    2e98:	e0bff28b 	ldhu	r2,-54(fp)
    2e9c:	10800044 	addi	r2,r2,1
    2ea0:	117fffcc 	andi	r5,r2,65535
    2ea4:	2960001c 	xori	r5,r5,32768
    2ea8:	29600004 	addi	r5,r5,-32768
    2eac:	e0fffc0b 	ldhu	r3,-16(fp)
    2eb0:	e0bff30b 	ldhu	r2,-52(fp)
    2eb4:	1885c83a 	sub	r2,r3,r2
    2eb8:	11bfffcc 	andi	r6,r2,65535
    2ebc:	31a0001c 	xori	r6,r6,32768
    2ec0:	31a00004 	addi	r6,r6,-32768
    2ec4:	e0bff38b 	ldhu	r2,-50(fp)
    2ec8:	10800044 	addi	r2,r2,1
    2ecc:	11ffffcc 	andi	r7,r2,65535
    2ed0:	39e0001c 	xori	r7,r7,32768
    2ed4:	39e00004 	addi	r7,r7,-32768
    2ed8:	e0fffd0b 	ldhu	r3,-12(fp)
    2edc:	e0bff40b 	ldhu	r2,-48(fp)
    2ee0:	1885c83a 	sub	r2,r3,r2
    2ee4:	10bfffcc 	andi	r2,r2,65535
    2ee8:	10a0001c 	xori	r2,r2,32768
    2eec:	10a00004 	addi	r2,r2,-32768
    2ef0:	d8800015 	stw	r2,0(sp)
    2ef4:	000044c0 	call	44c <setAreaRange>
    2ef8:	10803fcc 	andi	r2,r2,255
    2efc:	10000226 	beq	r2,zero,2f08 <setDefaultTagList+0x18c>
    2f00:	00800044 	movi	r2,1
    2f04:	00000106 	br	2f0c <setDefaultTagList+0x190>
    2f08:	0005883a 	mov	r2,zero
    2f0c:	e0bff205 	stb	r2,-56(fp)
    2f10:	e0bff203 	ldbu	r2,-56(fp)
    2f14:	1080004c 	andi	r2,r2,1
    2f18:	e0bff205 	stb	r2,-56(fp)

	short elemNum = textListPtr->textNum;
    2f1c:	e0bffe17 	ldw	r2,-8(fp)
    2f20:	1080010b 	ldhu	r2,4(r2)
    2f24:	e0bff70d 	sth	r2,-36(fp)

	TagListInst->wordSpacing = DEFAULT_WORD_SPACING;
    2f28:	e0bffb17 	ldw	r2,-20(fp)
    2f2c:	00c00084 	movi	r3,2
    2f30:	10c0040d 	sth	r3,16(r2)
	TagListInst->letterSpacing = DEFAULT_LETTER_SPACING;
    2f34:	e0bffb17 	ldw	r2,-20(fp)
    2f38:	00c00044 	movi	r3,1
    2f3c:	10c0048d 	sth	r3,18(r2)

	TagListInst->elemNum = elemNum;
    2f40:	e0bffb17 	ldw	r2,-20(fp)
    2f44:	e0fff70b 	ldhu	r3,-36(fp)
    2f48:	10c0070d 	sth	r3,28(r2)
	TagListInst->elemColorInfo = *colorInfoPtr;
    2f4c:	e0bffb17 	ldw	r2,-20(fp)
    2f50:	e0c00317 	ldw	r3,12(fp)
    2f54:	1900000b 	ldhu	r4,0(r3)
    2f58:	1100050d 	sth	r4,20(r2)
    2f5c:	1900008b 	ldhu	r4,2(r3)
    2f60:	1100058d 	sth	r4,22(r2)
    2f64:	1900010b 	ldhu	r4,4(r3)
    2f68:	1100060d 	sth	r4,24(r2)
    2f6c:	18c0018b 	ldhu	r3,6(r3)
    2f70:	10c0068d 	sth	r3,26(r2)

	int i;

//	AreaRange *elemAreaArray = (AreaRange*)malloc( sizeof( AreaRange ) * elemNum );
//	TagListInst->elemArea = elemAreaArray;
	TagBlock *tagBolckArray = (TagBlock*)malloc( sizeof( TagBlock ) * elemNum );
    2f74:	e0bff70f 	ldh	r2,-36(fp)
    2f78:	10800924 	muli	r2,r2,36
    2f7c:	1009883a 	mov	r4,r2
    2f80:	0008a580 	call	8a58 <malloc>
    2f84:	e0bff815 	stw	r2,-32(fp)
	TagListInst->elemBlock = tagBolckArray;
    2f88:	e0bffb17 	ldw	r2,-20(fp)
    2f8c:	e0fff817 	ldw	r3,-32(fp)
    2f90:	10c00815 	stw	r3,32(r2)

//	AreaRange *curElemAreaPtr;
	TagBlock *curTagPtr;
	TextType *textArray = textListPtr->textArray;
    2f94:	e0bffe17 	ldw	r2,-8(fp)
    2f98:	10800017 	ldw	r2,0(r2)
    2f9c:	e0bff915 	stw	r2,-28(fp)

	short elemYPos = 0;
    2fa0:	e03ff60d 	sth	zero,-40(fp)
	for ( i = 0; i < elemNum; i ++ )
    2fa4:	e03ff515 	stw	zero,-44(fp)
    2fa8:	00002906 	br	3050 <setDefaultTagList+0x2d4>
	{
		curTagPtr = &(tagBolckArray[i]);
    2fac:	e0bff517 	ldw	r2,-44(fp)
    2fb0:	10800924 	muli	r2,r2,36
    2fb4:	e0fff817 	ldw	r3,-32(fp)
    2fb8:	1885883a 	add	r2,r3,r2
    2fbc:	e0bffa15 	stw	r2,-24(fp)
//		curElemAreaPtr = &(elemAreaArray[i]);

		curTagPtr->tagColorInfo = TagListInst->elemColorInfo;
    2fc0:	e0bffa17 	ldw	r2,-24(fp)
    2fc4:	e0fffb17 	ldw	r3,-20(fp)
    2fc8:	19000517 	ldw	r4,20(r3)
    2fcc:	11000215 	stw	r4,8(r2)
    2fd0:	18c00617 	ldw	r3,24(r3)
    2fd4:	10c00315 	stw	r3,12(r2)
		curTagPtr->wordSpacing = TagListInst->wordSpacing;
    2fd8:	e0bffb17 	ldw	r2,-20(fp)
    2fdc:	10c0040b 	ldhu	r3,16(r2)
    2fe0:	e0bffa17 	ldw	r2,-24(fp)
    2fe4:	10c0040d 	sth	r3,16(r2)
		curTagPtr->letterSpacing = TagListInst->letterSpacing;
    2fe8:	e0bffb17 	ldw	r2,-20(fp)
    2fec:	10c0048b 	ldhu	r3,18(r2)
    2ff0:	e0bffa17 	ldw	r2,-24(fp)
    2ff4:	10c0048d 	sth	r3,18(r2)
		curTagPtr->tagText = textArray[i];
    2ff8:	e0bff517 	ldw	r2,-44(fp)
    2ffc:	100490fa 	slli	r2,r2,3
    3000:	e0fff917 	ldw	r3,-28(fp)
    3004:	1887883a 	add	r3,r3,r2
    3008:	e0bffa17 	ldw	r2,-24(fp)
    300c:	19000017 	ldw	r4,0(r3)
    3010:	11000715 	stw	r4,28(r2)
    3014:	18c00117 	ldw	r3,4(r3)
    3018:	10c00815 	stw	r3,32(r2)
		curTagPtr->textArea = TagListInst->textArea;
    301c:	e0bffa17 	ldw	r2,-24(fp)
    3020:	e0fffb17 	ldw	r3,-20(fp)
    3024:	19000217 	ldw	r4,8(r3)
    3028:	11000015 	stw	r4,0(r2)
    302c:	18c00317 	ldw	r3,12(r3)
    3030:	10c00115 	stw	r3,4(r2)
//		setAreaRange( curElemAreaPtr, 1, elemWidth, elemYPos + 1, elemYPos + elemHeight );
		elemYPos = elemYPos + elemHeight;
    3034:	e0fff60b 	ldhu	r3,-40(fp)
    3038:	e0bffd0b 	ldhu	r2,-12(fp)
    303c:	1885883a 	add	r2,r3,r2
    3040:	e0bff60d 	sth	r2,-40(fp)
//	AreaRange *curElemAreaPtr;
	TagBlock *curTagPtr;
	TextType *textArray = textListPtr->textArray;

	short elemYPos = 0;
	for ( i = 0; i < elemNum; i ++ )
    3044:	e0bff517 	ldw	r2,-44(fp)
    3048:	10800044 	addi	r2,r2,1
    304c:	e0bff515 	stw	r2,-44(fp)
    3050:	e0bff70f 	ldh	r2,-36(fp)
    3054:	e0fff517 	ldw	r3,-44(fp)
    3058:	18bfd416 	blt	r3,r2,2fac <__alt_data_end+0xf8002fac>
		curTagPtr->textArea = TagListInst->textArea;
//		setAreaRange( curElemAreaPtr, 1, elemWidth, elemYPos + 1, elemYPos + elemHeight );
		elemYPos = elemYPos + elemHeight;
	}

	return status;
    305c:	e0bff203 	ldbu	r2,-56(fp)

}
    3060:	e037883a 	mov	sp,fp
    3064:	dfc00117 	ldw	ra,4(sp)
    3068:	df000017 	ldw	fp,0(sp)
    306c:	dec00204 	addi	sp,sp,8
    3070:	f800283a 	ret

00003074 <screenMainBookInit>:

bool screenMainBookInit( ScreenBook *scrBookInst, short width, short height )
{
    3074:	deffc704 	addi	sp,sp,-228
    3078:	dfc03815 	stw	ra,224(sp)
    307c:	df003715 	stw	fp,220(sp)
    3080:	df003704 	addi	fp,sp,220
    3084:	e13ffd15 	stw	r4,-12(fp)
    3088:	2807883a 	mov	r3,r5
    308c:	3005883a 	mov	r2,r6
    3090:	e0fffe0d 	sth	r3,-8(fp)
    3094:	e0bfff0d 	sth	r2,-4(fp)
	bool status = true;
    3098:	00800044 	movi	r2,1
    309c:	e0bfcc05 	stb	r2,-208(fp)

	scrBookInst->bookColorInfo = defaultColorInfo;
    30a0:	e0bffd17 	ldw	r2,-12(fp)
    30a4:	d0e0040b 	ldhu	r3,-32752(gp)
    30a8:	10c0000d 	sth	r3,0(r2)
    30ac:	d0e00484 	addi	r3,gp,-32750
    30b0:	18c0000b 	ldhu	r3,0(r3)
    30b4:	10c0008d 	sth	r3,2(r2)
    30b8:	d0e00504 	addi	r3,gp,-32748
    30bc:	18c0000b 	ldhu	r3,0(r3)
    30c0:	10c0010d 	sth	r3,4(r2)
    30c4:	d0e00584 	addi	r3,gp,-32746
    30c8:	18c0000b 	ldhu	r3,0(r3)
    30cc:	10c0018d 	sth	r3,6(r2)


	//设置左中右点击区范围
	short leftAreaWidth = width/3;
    30d0:	e0bffe0f 	ldh	r2,-8(fp)
    30d4:	1009883a 	mov	r4,r2
    30d8:	014000c4 	movi	r5,3
    30dc:	00083640 	call	8364 <__divsi3>
    30e0:	e0bfcc8d 	sth	r2,-206(fp)
	short rightAreaWidth = width/3;
    30e4:	e0bffe0f 	ldh	r2,-8(fp)
    30e8:	1009883a 	mov	r4,r2
    30ec:	014000c4 	movi	r5,3
    30f0:	00083640 	call	8364 <__divsi3>
    30f4:	e0bfcd0d 	sth	r2,-204(fp)
	short middleAreaWidth = width - leftAreaWidth - rightAreaWidth;
    30f8:	e0fffe0b 	ldhu	r3,-8(fp)
    30fc:	e0bfcc8b 	ldhu	r2,-206(fp)
    3100:	1885c83a 	sub	r2,r3,r2
    3104:	1007883a 	mov	r3,r2
    3108:	e0bfcd0b 	ldhu	r2,-204(fp)
    310c:	1885c83a 	sub	r2,r3,r2
    3110:	e0bfcd8d 	sth	r2,-202(fp)
	status = status && setAreaRange( &(scrBookInst->turnBackPageAreaPos), 1, leftAreaWidth, 1, height );
    3114:	e0bfcc03 	ldbu	r2,-208(fp)
    3118:	10000d26 	beq	r2,zero,3150 <screenMainBookInit+0xdc>
    311c:	e0bffd17 	ldw	r2,-12(fp)
    3120:	11000f04 	addi	r4,r2,60
    3124:	e0ffcc8f 	ldh	r3,-206(fp)
    3128:	e0bfff0f 	ldh	r2,-4(fp)
    312c:	d8800015 	stw	r2,0(sp)
    3130:	01400044 	movi	r5,1
    3134:	180d883a 	mov	r6,r3
    3138:	01c00044 	movi	r7,1
    313c:	000044c0 	call	44c <setAreaRange>
    3140:	10803fcc 	andi	r2,r2,255
    3144:	10000226 	beq	r2,zero,3150 <screenMainBookInit+0xdc>
    3148:	00800044 	movi	r2,1
    314c:	00000106 	br	3154 <screenMainBookInit+0xe0>
    3150:	0005883a 	mov	r2,zero
    3154:	e0bfcc05 	stb	r2,-208(fp)
    3158:	e0bfcc03 	ldbu	r2,-208(fp)
    315c:	1080004c 	andi	r2,r2,1
    3160:	e0bfcc05 	stb	r2,-208(fp)
	status = status && setAreaRange( &(scrBookInst->openPageInfoAreaPos), leftAreaWidth+1, leftAreaWidth+middleAreaWidth, 1, height );
    3164:	e0bfcc03 	ldbu	r2,-208(fp)
    3168:	10001626 	beq	r2,zero,31c4 <screenMainBookInit+0x150>
    316c:	e0bffd17 	ldw	r2,-12(fp)
    3170:	11001304 	addi	r4,r2,76
    3174:	e0bfcc8b 	ldhu	r2,-206(fp)
    3178:	10800044 	addi	r2,r2,1
    317c:	117fffcc 	andi	r5,r2,65535
    3180:	2960001c 	xori	r5,r5,32768
    3184:	29600004 	addi	r5,r5,-32768
    3188:	e0ffcc8b 	ldhu	r3,-206(fp)
    318c:	e0bfcd8b 	ldhu	r2,-202(fp)
    3190:	1885883a 	add	r2,r3,r2
    3194:	10ffffcc 	andi	r3,r2,65535
    3198:	18e0001c 	xori	r3,r3,32768
    319c:	18e00004 	addi	r3,r3,-32768
    31a0:	e0bfff0f 	ldh	r2,-4(fp)
    31a4:	d8800015 	stw	r2,0(sp)
    31a8:	180d883a 	mov	r6,r3
    31ac:	01c00044 	movi	r7,1
    31b0:	000044c0 	call	44c <setAreaRange>
    31b4:	10803fcc 	andi	r2,r2,255
    31b8:	10000226 	beq	r2,zero,31c4 <screenMainBookInit+0x150>
    31bc:	00800044 	movi	r2,1
    31c0:	00000106 	br	31c8 <screenMainBookInit+0x154>
    31c4:	0005883a 	mov	r2,zero
    31c8:	e0bfcc05 	stb	r2,-208(fp)
    31cc:	e0bfcc03 	ldbu	r2,-208(fp)
    31d0:	1080004c 	andi	r2,r2,1
    31d4:	e0bfcc05 	stb	r2,-208(fp)
	status = status && setAreaRange( &(scrBookInst->turnBackPageAreaPos), width-rightAreaWidth+1, width, 1, height );
    31d8:	e0bfcc03 	ldbu	r2,-208(fp)
    31dc:	10001326 	beq	r2,zero,322c <screenMainBookInit+0x1b8>
    31e0:	e0bffd17 	ldw	r2,-12(fp)
    31e4:	11000f04 	addi	r4,r2,60
    31e8:	e0fffe0b 	ldhu	r3,-8(fp)
    31ec:	e0bfcd0b 	ldhu	r2,-204(fp)
    31f0:	1885c83a 	sub	r2,r3,r2
    31f4:	10800044 	addi	r2,r2,1
    31f8:	117fffcc 	andi	r5,r2,65535
    31fc:	2960001c 	xori	r5,r5,32768
    3200:	29600004 	addi	r5,r5,-32768
    3204:	e0fffe0f 	ldh	r3,-8(fp)
    3208:	e0bfff0f 	ldh	r2,-4(fp)
    320c:	d8800015 	stw	r2,0(sp)
    3210:	180d883a 	mov	r6,r3
    3214:	01c00044 	movi	r7,1
    3218:	000044c0 	call	44c <setAreaRange>
    321c:	10803fcc 	andi	r2,r2,255
    3220:	10000226 	beq	r2,zero,322c <screenMainBookInit+0x1b8>
    3224:	00800044 	movi	r2,1
    3228:	00000106 	br	3230 <screenMainBookInit+0x1bc>
    322c:	0005883a 	mov	r2,zero
    3230:	e0bfcc05 	stb	r2,-208(fp)
    3234:	e0bfcc03 	ldbu	r2,-208(fp)
    3238:	1080004c 	andi	r2,r2,1
    323c:	e0bfcc05 	stb	r2,-208(fp)

	//设置电子书范围（居中）
	short bookAreaHeight = BOOK_ROW_HEIGHT * BOOK_COL_NUM;
    3240:	00805e84 	movi	r2,378
    3244:	e0bfce0d 	sth	r2,-200(fp)
	short marginYU = ( height - bookAreaHeight )>>1;
    3248:	e0ffff0f 	ldh	r3,-4(fp)
    324c:	e0bfce0f 	ldh	r2,-200(fp)
    3250:	1885c83a 	sub	r2,r3,r2
    3254:	1005d07a 	srai	r2,r2,1
    3258:	e0bfce8d 	sth	r2,-198(fp)
	short marginYD = height - bookAreaHeight - marginYU;
    325c:	e0ffff0b 	ldhu	r3,-4(fp)
    3260:	e0bfce0b 	ldhu	r2,-200(fp)
    3264:	1885c83a 	sub	r2,r3,r2
    3268:	1007883a 	mov	r3,r2
    326c:	e0bfce8b 	ldhu	r2,-198(fp)
    3270:	1885c83a 	sub	r2,r3,r2
    3274:	e0bfcf0d 	sth	r2,-196(fp)
	status = status && setAreaRange( &(scrBookInst->txtBookArea), 1, width, marginYU+1, height-marginYD );
    3278:	e0bfcc03 	ldbu	r2,-208(fp)
    327c:	10001526 	beq	r2,zero,32d4 <screenMainBookInit+0x260>
    3280:	e0bffd17 	ldw	r2,-12(fp)
    3284:	11000204 	addi	r4,r2,8
    3288:	e1bffe0f 	ldh	r6,-8(fp)
    328c:	e0bfce8b 	ldhu	r2,-198(fp)
    3290:	10800044 	addi	r2,r2,1
    3294:	11ffffcc 	andi	r7,r2,65535
    3298:	39e0001c 	xori	r7,r7,32768
    329c:	39e00004 	addi	r7,r7,-32768
    32a0:	e0ffff0b 	ldhu	r3,-4(fp)
    32a4:	e0bfcf0b 	ldhu	r2,-196(fp)
    32a8:	1885c83a 	sub	r2,r3,r2
    32ac:	10bfffcc 	andi	r2,r2,65535
    32b0:	10a0001c 	xori	r2,r2,32768
    32b4:	10a00004 	addi	r2,r2,-32768
    32b8:	d8800015 	stw	r2,0(sp)
    32bc:	01400044 	movi	r5,1
    32c0:	000044c0 	call	44c <setAreaRange>
    32c4:	10803fcc 	andi	r2,r2,255
    32c8:	10000226 	beq	r2,zero,32d4 <screenMainBookInit+0x260>
    32cc:	00800044 	movi	r2,1
    32d0:	00000106 	br	32d8 <screenMainBookInit+0x264>
    32d4:	0005883a 	mov	r2,zero
    32d8:	e0bfcc05 	stb	r2,-208(fp)
    32dc:	e0bfcc03 	ldbu	r2,-208(fp)
    32e0:	1080004c 	andi	r2,r2,1
    32e4:	e0bfcc05 	stb	r2,-208(fp)

	//设置电子书阅读进度信息页面范围
	short pageInfoAreaHeight = height/4;
    32e8:	e0bfff0f 	ldh	r2,-4(fp)
    32ec:	1000010e 	bge	r2,zero,32f4 <screenMainBookInit+0x280>
    32f0:	108000c4 	addi	r2,r2,3
    32f4:	1005d0ba 	srai	r2,r2,2
    32f8:	e0bfcf8d 	sth	r2,-194(fp)
	status = status && setAreaRange( &(scrBookInst->pageInfoArea), 1, width, height-pageInfoAreaHeight, height-1 );
    32fc:	e0bfcc03 	ldbu	r2,-208(fp)
    3300:	10001626 	beq	r2,zero,335c <screenMainBookInit+0x2e8>
    3304:	e0bffd17 	ldw	r2,-12(fp)
    3308:	11001504 	addi	r4,r2,84
    330c:	e1bffe0f 	ldh	r6,-8(fp)
    3310:	e0ffff0b 	ldhu	r3,-4(fp)
    3314:	e0bfcf8b 	ldhu	r2,-194(fp)
    3318:	1885c83a 	sub	r2,r3,r2
    331c:	10ffffcc 	andi	r3,r2,65535
    3320:	18e0001c 	xori	r3,r3,32768
    3324:	18e00004 	addi	r3,r3,-32768
    3328:	e0bfff0b 	ldhu	r2,-4(fp)
    332c:	10bfffc4 	addi	r2,r2,-1
    3330:	10bfffcc 	andi	r2,r2,65535
    3334:	10a0001c 	xori	r2,r2,32768
    3338:	10a00004 	addi	r2,r2,-32768
    333c:	d8800015 	stw	r2,0(sp)
    3340:	01400044 	movi	r5,1
    3344:	180f883a 	mov	r7,r3
    3348:	000044c0 	call	44c <setAreaRange>
    334c:	10803fcc 	andi	r2,r2,255
    3350:	10000226 	beq	r2,zero,335c <screenMainBookInit+0x2e8>
    3354:	00800044 	movi	r2,1
    3358:	00000106 	br	3360 <screenMainBookInit+0x2ec>
    335c:	0005883a 	mov	r2,zero
    3360:	e0bfcc05 	stb	r2,-208(fp)
    3364:	e0bfcc03 	ldbu	r2,-208(fp)
    3368:	1080004c 	andi	r2,r2,1
    336c:	e0bfcc05 	stb	r2,-208(fp)

	//设置电子书窄区范围（当电子书阅读进度显示时，电子书范围变窄）
	status = status && setAreaRange( &(scrBookInst->txtBookNarrowArea), 1, width, marginYU+1, height-pageInfoAreaHeight-1 );
    3370:	e0bfcc03 	ldbu	r2,-208(fp)
    3374:	10001626 	beq	r2,zero,33d0 <screenMainBookInit+0x35c>
    3378:	e0bffd17 	ldw	r2,-12(fp)
    337c:	11000404 	addi	r4,r2,16
    3380:	e1bffe0f 	ldh	r6,-8(fp)
    3384:	e0bfce8b 	ldhu	r2,-198(fp)
    3388:	10800044 	addi	r2,r2,1
    338c:	11ffffcc 	andi	r7,r2,65535
    3390:	39e0001c 	xori	r7,r7,32768
    3394:	39e00004 	addi	r7,r7,-32768
    3398:	e0ffff0b 	ldhu	r3,-4(fp)
    339c:	e0bfcf8b 	ldhu	r2,-194(fp)
    33a0:	1885c83a 	sub	r2,r3,r2
    33a4:	10bfffc4 	addi	r2,r2,-1
    33a8:	10bfffcc 	andi	r2,r2,65535
    33ac:	10a0001c 	xori	r2,r2,32768
    33b0:	10a00004 	addi	r2,r2,-32768
    33b4:	d8800015 	stw	r2,0(sp)
    33b8:	01400044 	movi	r5,1
    33bc:	000044c0 	call	44c <setAreaRange>
    33c0:	10803fcc 	andi	r2,r2,255
    33c4:	10000226 	beq	r2,zero,33d0 <screenMainBookInit+0x35c>
    33c8:	00800044 	movi	r2,1
    33cc:	00000106 	br	33d4 <screenMainBookInit+0x360>
    33d0:	0005883a 	mov	r2,zero
    33d4:	e0bfcc05 	stb	r2,-208(fp)
    33d8:	e0bfcc03 	ldbu	r2,-208(fp)
    33dc:	1080004c 	andi	r2,r2,1
    33e0:	e0bfcc05 	stb	r2,-208(fp)

	//设置电子书阅读进度信息页面是否可见
	scrBookInst->pageInfoVisible = false;
    33e4:	e0bffd17 	ldw	r2,-12(fp)
    33e8:	10004905 	stb	zero,292(r2)

	TextType textArray[BOOK_COL_NUM];

	int i;
	for( i = 0; i < BOOK_COL_NUM; i ++ )
    33ec:	e03fcb15 	stw	zero,-212(fp)
    33f0:	00001506 	br	3448 <screenMainBookInit+0x3d4>
	{
		(textArray[i]).text = txtBookSpace[i];
    33f4:	e0bfcb17 	ldw	r2,-212(fp)
    33f8:	10c008e4 	muli	r3,r2,35
    33fc:	008004b4 	movhi	r2,18
    3400:	10bff504 	addi	r2,r2,-44
    3404:	1887883a 	add	r3,r3,r2
    3408:	e0bfcb17 	ldw	r2,-212(fp)
    340c:	100490fa 	slli	r2,r2,3
    3410:	e13fcb04 	addi	r4,fp,-212
    3414:	2085883a 	add	r2,r4,r2
    3418:	10800604 	addi	r2,r2,24
    341c:	10c00015 	stw	r3,0(r2)
		(textArray[i]).textLen = BOOK_ROW_BYTES;
    3420:	e0bfcb17 	ldw	r2,-212(fp)
    3424:	100490fa 	slli	r2,r2,3
    3428:	e0ffcb04 	addi	r3,fp,-212
    342c:	1885883a 	add	r2,r3,r2
    3430:	10800704 	addi	r2,r2,28
    3434:	00c00884 	movi	r3,34
    3438:	10c0000d 	sth	r3,0(r2)
	scrBookInst->pageInfoVisible = false;

	TextType textArray[BOOK_COL_NUM];

	int i;
	for( i = 0; i < BOOK_COL_NUM; i ++ )
    343c:	e0bfcb17 	ldw	r2,-212(fp)
    3440:	10800044 	addi	r2,r2,1
    3444:	e0bfcb15 	stw	r2,-212(fp)
    3448:	e0bfcb17 	ldw	r2,-212(fp)
    344c:	10800550 	cmplti	r2,r2,21
    3450:	103fe81e 	bne	r2,zero,33f4 <__alt_data_end+0xf80033f4>
	{
		(textArray[i]).text = txtBookSpace[i];
		(textArray[i]).textLen = BOOK_ROW_BYTES;
	}

	ColorInfo *colorSel = &(scrBookInst->bookColorInfo);
    3454:	e0bffd17 	ldw	r2,-12(fp)
    3458:	e0bfd015 	stw	r2,-192(fp)
	//设置电子书文本域（文本域为由TagBlock组成的TagList文本标签列表）
	TextList textList = { textArray, BOOK_COL_NUM };
    345c:	e0bfd104 	addi	r2,fp,-188
    3460:	e0bffb15 	stw	r2,-20(fp)
    3464:	00800544 	movi	r2,21
    3468:	e0bffc0d 	sth	r2,-16(fp)
	status = status && setDefaultTagList( &(scrBookInst->txtBook), width, BOOK_ROW_HEIGHT, &textList, false, colorSel );
    346c:	e0bfcc03 	ldbu	r2,-208(fp)
    3470:	10000e26 	beq	r2,zero,34ac <screenMainBookInit+0x438>
    3474:	e0bffd17 	ldw	r2,-12(fp)
    3478:	11000604 	addi	r4,r2,24
    347c:	e17ffe0f 	ldh	r5,-8(fp)
    3480:	e0fffb04 	addi	r3,fp,-20
    3484:	d8000015 	stw	zero,0(sp)
    3488:	e0bfd017 	ldw	r2,-192(fp)
    348c:	d8800115 	stw	r2,4(sp)
    3490:	01800484 	movi	r6,18
    3494:	180f883a 	mov	r7,r3
    3498:	0002d7c0 	call	2d7c <setDefaultTagList>
    349c:	10803fcc 	andi	r2,r2,255
    34a0:	10000226 	beq	r2,zero,34ac <screenMainBookInit+0x438>
    34a4:	00800044 	movi	r2,1
    34a8:	00000106 	br	34b0 <screenMainBookInit+0x43c>
    34ac:	0005883a 	mov	r2,zero
    34b0:	e0bfcc05 	stb	r2,-208(fp)
    34b4:	e0bfcc03 	ldbu	r2,-208(fp)
    34b8:	1080004c 	andi	r2,r2,1
    34bc:	e0bfcc05 	stb	r2,-208(fp)


	//设置电子书阅读进度信息页面
	status = status && ScreenMainPageInfoInit( &(scrBookInst->pageInfo), width, pageInfoAreaHeight );
    34c0:	e0bfcc03 	ldbu	r2,-208(fp)
    34c4:	10000b26 	beq	r2,zero,34f4 <screenMainBookInit+0x480>
    34c8:	e0bffd17 	ldw	r2,-12(fp)
    34cc:	11001704 	addi	r4,r2,92
    34d0:	e0fffe0f 	ldh	r3,-8(fp)
    34d4:	e0bfcf8f 	ldh	r2,-194(fp)
    34d8:	180b883a 	mov	r5,r3
    34dc:	100d883a 	mov	r6,r2
    34e0:	00035200 	call	3520 <ScreenMainPageInfoInit>
    34e4:	10803fcc 	andi	r2,r2,255
    34e8:	10000226 	beq	r2,zero,34f4 <screenMainBookInit+0x480>
    34ec:	00800044 	movi	r2,1
    34f0:	00000106 	br	34f8 <screenMainBookInit+0x484>
    34f4:	0005883a 	mov	r2,zero
    34f8:	e0bfcc05 	stb	r2,-208(fp)
    34fc:	e0bfcc03 	ldbu	r2,-208(fp)
    3500:	1080004c 	andi	r2,r2,1
    3504:	e0bfcc05 	stb	r2,-208(fp)

	return status;
    3508:	e0bfcc03 	ldbu	r2,-208(fp)
}
    350c:	e037883a 	mov	sp,fp
    3510:	dfc00117 	ldw	ra,4(sp)
    3514:	df000017 	ldw	fp,0(sp)
    3518:	dec00204 	addi	sp,sp,8
    351c:	f800283a 	ret

00003520 <ScreenMainPageInfoInit>:

bool ScreenMainPageInfoInit( ScreenPageInfo *scrPageInfoInst, short width, short height )
{
    3520:	defff504 	addi	sp,sp,-44
    3524:	dfc00a15 	stw	ra,40(sp)
    3528:	df000915 	stw	fp,36(sp)
    352c:	df000904 	addi	fp,sp,36
    3530:	e13ffd15 	stw	r4,-12(fp)
    3534:	2807883a 	mov	r3,r5
    3538:	3005883a 	mov	r2,r6
    353c:	e0fffe0d 	sth	r3,-8(fp)
    3540:	e0bfff0d 	sth	r2,-4(fp)
	//基本信息
	scrPageInfoInst->bkgBorderColor = defaultColorInfo;
    3544:	e0bffd17 	ldw	r2,-12(fp)
    3548:	d0e0040b 	ldhu	r3,-32752(gp)
    354c:	10c0000d 	sth	r3,0(r2)
    3550:	d0e00484 	addi	r3,gp,-32750
    3554:	18c0000b 	ldhu	r3,0(r3)
    3558:	10c0008d 	sth	r3,2(r2)
    355c:	d0e00504 	addi	r3,gp,-32748
    3560:	18c0000b 	ldhu	r3,0(r3)
    3564:	10c0010d 	sth	r3,4(r2)
    3568:	d0e00584 	addi	r3,gp,-32746
    356c:	18c0000b 	ldhu	r3,0(r3)
    3570:	10c0018d 	sth	r3,6(r2)
	scrPageInfoInst->curPageNum = 0;
    3574:	e0bffd17 	ldw	r2,-12(fp)
    3578:	10002f15 	stw	zero,188(r2)
	scrPageInfoInst->curPagePercent = 0;
    357c:	e0bffd17 	ldw	r2,-12(fp)
    3580:	10003115 	stw	zero,196(r2)
	scrPageInfoInst->totalPageNum = 0;
    3584:	e0bffd17 	ldw	r2,-12(fp)
    3588:	10003015 	stw	zero,192(r2)

	bool status = true;
    358c:	00800044 	movi	r2,1
    3590:	e0bff805 	stb	r2,-32(fp)

	//进度条
	short prgBarMarginYU = 4;
    3594:	00800104 	movi	r2,4
    3598:	e0bff88d 	sth	r2,-30(fp)
	short prgBarHeight = height/2;
    359c:	e0bfff0f 	ldh	r2,-4(fp)
    35a0:	1006d7fa 	srli	r3,r2,31
    35a4:	1885883a 	add	r2,r3,r2
    35a8:	1005d07a 	srai	r2,r2,1
    35ac:	e0bff90d 	sth	r2,-28(fp)
	short prgBarMarginX = 2;
    35b0:	00800084 	movi	r2,2
    35b4:	e0bff98d 	sth	r2,-26(fp)
	status = status && setAreaRange( &(scrPageInfoInst->prgBarArea), prgBarMarginX+1, width-prgBarMarginX, prgBarMarginYU+1,\
    35b8:	e0bff803 	ldbu	r2,-32(fp)
    35bc:	10001e26 	beq	r2,zero,3638 <ScreenMainPageInfoInit+0x118>
    35c0:	e0bffd17 	ldw	r2,-12(fp)
    35c4:	11000204 	addi	r4,r2,8
    35c8:	e0bff98b 	ldhu	r2,-26(fp)
    35cc:	10800044 	addi	r2,r2,1
    35d0:	117fffcc 	andi	r5,r2,65535
    35d4:	2960001c 	xori	r5,r5,32768
    35d8:	29600004 	addi	r5,r5,-32768
    35dc:	e0fffe0b 	ldhu	r3,-8(fp)
    35e0:	e0bff98b 	ldhu	r2,-26(fp)
    35e4:	1885c83a 	sub	r2,r3,r2
    35e8:	11bfffcc 	andi	r6,r2,65535
    35ec:	31a0001c 	xori	r6,r6,32768
    35f0:	31a00004 	addi	r6,r6,-32768
    35f4:	e0bff88b 	ldhu	r2,-30(fp)
    35f8:	10800044 	addi	r2,r2,1
    35fc:	11ffffcc 	andi	r7,r2,65535
    3600:	39e0001c 	xori	r7,r7,32768
    3604:	39e00004 	addi	r7,r7,-32768
    3608:	e0fff88b 	ldhu	r3,-30(fp)
    360c:	e0bff90b 	ldhu	r2,-28(fp)
    3610:	1885883a 	add	r2,r3,r2
    3614:	10bfffcc 	andi	r2,r2,65535
    3618:	10a0001c 	xori	r2,r2,32768
    361c:	10a00004 	addi	r2,r2,-32768
    3620:	d8800015 	stw	r2,0(sp)
    3624:	000044c0 	call	44c <setAreaRange>
    3628:	10803fcc 	andi	r2,r2,255
    362c:	10000226 	beq	r2,zero,3638 <ScreenMainPageInfoInit+0x118>
    3630:	00800044 	movi	r2,1
    3634:	00000106 	br	363c <ScreenMainPageInfoInit+0x11c>
    3638:	0005883a 	mov	r2,zero
    363c:	e0bff805 	stb	r2,-32(fp)
    3640:	e0bff803 	ldbu	r2,-32(fp)
    3644:	1080004c 	andi	r2,r2,1
    3648:	e0bff805 	stb	r2,-32(fp)
						prgBarMarginYU + prgBarHeight  );
	status = status && setDefaultProgressBarX( &(scrPageInfoInst->prgBarX), width - (prgBarMarginX<<1), prgBarHeight );
    364c:	e0bff803 	ldbu	r2,-32(fp)
    3650:	10001126 	beq	r2,zero,3698 <ScreenMainPageInfoInit+0x178>
    3654:	e0bffd17 	ldw	r2,-12(fp)
    3658:	11000404 	addi	r4,r2,16
    365c:	e0fffe0b 	ldhu	r3,-8(fp)
    3660:	e0bff98b 	ldhu	r2,-26(fp)
    3664:	1085883a 	add	r2,r2,r2
    3668:	1885c83a 	sub	r2,r3,r2
    366c:	10ffffcc 	andi	r3,r2,65535
    3670:	18e0001c 	xori	r3,r3,32768
    3674:	18e00004 	addi	r3,r3,-32768
    3678:	e0bff90f 	ldh	r2,-28(fp)
    367c:	180b883a 	mov	r5,r3
    3680:	100d883a 	mov	r6,r2
    3684:	0000ae00 	call	ae0 <setDefaultProgressBarX>
    3688:	10803fcc 	andi	r2,r2,255
    368c:	10000226 	beq	r2,zero,3698 <ScreenMainPageInfoInit+0x178>
    3690:	00800044 	movi	r2,1
    3694:	00000106 	br	369c <ScreenMainPageInfoInit+0x17c>
    3698:	0005883a 	mov	r2,zero
    369c:	e0bff805 	stb	r2,-32(fp)
    36a0:	e0bff803 	ldbu	r2,-32(fp)
    36a4:	1080004c 	andi	r2,r2,1
    36a8:	e0bff805 	stb	r2,-32(fp)

	//动态文本标签(高度设定)
	short tagHeight = ( height - prgBarMarginYU - prgBarHeight );
    36ac:	e0ffff0b 	ldhu	r3,-4(fp)
    36b0:	e0bff88b 	ldhu	r2,-30(fp)
    36b4:	1885c83a 	sub	r2,r3,r2
    36b8:	1007883a 	mov	r3,r2
    36bc:	e0bff90b 	ldhu	r2,-28(fp)
    36c0:	1885c83a 	sub	r2,r3,r2
    36c4:	e0bffa0d 	sth	r2,-24(fp)
	short tagMarginYD = 5;
    36c8:	00800144 	movi	r2,5
    36cc:	e0bffa8d 	sth	r2,-22(fp)

	//进度百分数标签(向左侧偏移)格式为"53.33%"
	short tagPercentMarginXL = 10;
    36d0:	00800284 	movi	r2,10
    36d4:	e0bffb0d 	sth	r2,-20(fp)
	short tagPercWidth = 6 * SRC_LETTER_SIZE_X + 5 * DEFAULT_LETTER_SPACING + 20;//20是横向边界裕量
    36d8:	00801244 	movi	r2,73
    36dc:	e0bffb8d 	sth	r2,-18(fp)
	status = status && setAreaRange( &(scrPageInfoInst->tagPagePercTageArea), tagPercentMarginXL+1, tagPercentMarginXL+tagPercWidth,\
    36e0:	e0bff803 	ldbu	r2,-32(fp)
    36e4:	10002326 	beq	r2,zero,3774 <ScreenMainPageInfoInit+0x254>
    36e8:	e0bffd17 	ldw	r2,-12(fp)
    36ec:	11001904 	addi	r4,r2,100
    36f0:	e0bffb0b 	ldhu	r2,-20(fp)
    36f4:	10800044 	addi	r2,r2,1
    36f8:	117fffcc 	andi	r5,r2,65535
    36fc:	2960001c 	xori	r5,r5,32768
    3700:	29600004 	addi	r5,r5,-32768
    3704:	e0fffb0b 	ldhu	r3,-20(fp)
    3708:	e0bffb8b 	ldhu	r2,-18(fp)
    370c:	1885883a 	add	r2,r3,r2
    3710:	11bfffcc 	andi	r6,r2,65535
    3714:	31a0001c 	xori	r6,r6,32768
    3718:	31a00004 	addi	r6,r6,-32768
    371c:	e0ffff0b 	ldhu	r3,-4(fp)
    3720:	e0bffa8b 	ldhu	r2,-22(fp)
    3724:	1885c83a 	sub	r2,r3,r2
    3728:	1007883a 	mov	r3,r2
    372c:	e0bffa0b 	ldhu	r2,-24(fp)
    3730:	1885c83a 	sub	r2,r3,r2
    3734:	10800044 	addi	r2,r2,1
    3738:	11ffffcc 	andi	r7,r2,65535
    373c:	39e0001c 	xori	r7,r7,32768
    3740:	39e00004 	addi	r7,r7,-32768
    3744:	e0ffff0b 	ldhu	r3,-4(fp)
    3748:	e0bffa8b 	ldhu	r2,-22(fp)
    374c:	1885c83a 	sub	r2,r3,r2
    3750:	10bfffcc 	andi	r2,r2,65535
    3754:	10a0001c 	xori	r2,r2,32768
    3758:	10a00004 	addi	r2,r2,-32768
    375c:	d8800015 	stw	r2,0(sp)
    3760:	000044c0 	call	44c <setAreaRange>
    3764:	10803fcc 	andi	r2,r2,255
    3768:	10000226 	beq	r2,zero,3774 <ScreenMainPageInfoInit+0x254>
    376c:	00800044 	movi	r2,1
    3770:	00000106 	br	3778 <ScreenMainPageInfoInit+0x258>
    3774:	0005883a 	mov	r2,zero
    3778:	e0bff805 	stb	r2,-32(fp)
    377c:	e0bff803 	ldbu	r2,-32(fp)
    3780:	1080004c 	andi	r2,r2,1
    3784:	e0bff805 	stb	r2,-32(fp)
						height - tagMarginYD - tagHeight + 1 , height - tagMarginYD );
	status = status && setDefaultTagBlock( &(scrPageInfoInst->tagPagePercTage), "33.33%", tagPercWidth, tagHeight );
    3788:	e0bff803 	ldbu	r2,-32(fp)
    378c:	10000d26 	beq	r2,zero,37c4 <ScreenMainPageInfoInit+0x2a4>
    3790:	e0bffd17 	ldw	r2,-12(fp)
    3794:	11001b04 	addi	r4,r2,108
    3798:	e0fffb8f 	ldh	r3,-18(fp)
    379c:	e0bffa0f 	ldh	r2,-24(fp)
    37a0:	01400374 	movhi	r5,13
    37a4:	29429504 	addi	r5,r5,2644
    37a8:	180d883a 	mov	r6,r3
    37ac:	100f883a 	mov	r7,r2
    37b0:	00009c40 	call	9c4 <setDefaultTagBlock>
    37b4:	10803fcc 	andi	r2,r2,255
    37b8:	10000226 	beq	r2,zero,37c4 <ScreenMainPageInfoInit+0x2a4>
    37bc:	00800044 	movi	r2,1
    37c0:	00000106 	br	37c8 <ScreenMainPageInfoInit+0x2a8>
    37c4:	0005883a 	mov	r2,zero
    37c8:	e0bff805 	stb	r2,-32(fp)
    37cc:	e0bff803 	ldbu	r2,-32(fp)
    37d0:	1080004c 	andi	r2,r2,1
    37d4:	e0bff805 	stb	r2,-32(fp)


	//进度页数标签(向右侧偏移)格式为：" 1234/99999"
	short tagPageNumMarginXR = 10;
    37d8:	00800284 	movi	r2,10
    37dc:	e0bffc0d 	sth	r2,-16(fp)
	short tagPsgeNumWidth = 11 * SRC_LETTER_SIZE_X + 10 * DEFAULT_LETTER_SPACING + 20;//20是横向边界裕量
    37e0:	00801d84 	movi	r2,118
    37e4:	e0bffc8d 	sth	r2,-14(fp)

	status = status && setAreaRange( &(scrPageInfoInst->tagPageNumArea), width-tagPageNumMarginXR-tagPsgeNumWidth+1, width-tagPageNumMarginXR,\
    37e8:	e0bff803 	ldbu	r2,-32(fp)
    37ec:	10002826 	beq	r2,zero,3890 <ScreenMainPageInfoInit+0x370>
    37f0:	e0bffd17 	ldw	r2,-12(fp)
    37f4:	11002404 	addi	r4,r2,144
    37f8:	e0fffe0b 	ldhu	r3,-8(fp)
    37fc:	e0bffc0b 	ldhu	r2,-16(fp)
    3800:	1885c83a 	sub	r2,r3,r2
    3804:	1007883a 	mov	r3,r2
    3808:	e0bffc8b 	ldhu	r2,-14(fp)
    380c:	1885c83a 	sub	r2,r3,r2
    3810:	10800044 	addi	r2,r2,1
    3814:	117fffcc 	andi	r5,r2,65535
    3818:	2960001c 	xori	r5,r5,32768
    381c:	29600004 	addi	r5,r5,-32768
    3820:	e0fffe0b 	ldhu	r3,-8(fp)
    3824:	e0bffc0b 	ldhu	r2,-16(fp)
    3828:	1885c83a 	sub	r2,r3,r2
    382c:	11bfffcc 	andi	r6,r2,65535
    3830:	31a0001c 	xori	r6,r6,32768
    3834:	31a00004 	addi	r6,r6,-32768
    3838:	e0ffff0b 	ldhu	r3,-4(fp)
    383c:	e0bffa8b 	ldhu	r2,-22(fp)
    3840:	1885c83a 	sub	r2,r3,r2
    3844:	1007883a 	mov	r3,r2
    3848:	e0bffa0b 	ldhu	r2,-24(fp)
    384c:	1885c83a 	sub	r2,r3,r2
    3850:	10800044 	addi	r2,r2,1
    3854:	11ffffcc 	andi	r7,r2,65535
    3858:	39e0001c 	xori	r7,r7,32768
    385c:	39e00004 	addi	r7,r7,-32768
    3860:	e0ffff0b 	ldhu	r3,-4(fp)
    3864:	e0bffa8b 	ldhu	r2,-22(fp)
    3868:	1885c83a 	sub	r2,r3,r2
    386c:	10bfffcc 	andi	r2,r2,65535
    3870:	10a0001c 	xori	r2,r2,32768
    3874:	10a00004 	addi	r2,r2,-32768
    3878:	d8800015 	stw	r2,0(sp)
    387c:	000044c0 	call	44c <setAreaRange>
    3880:	10803fcc 	andi	r2,r2,255
    3884:	10000226 	beq	r2,zero,3890 <ScreenMainPageInfoInit+0x370>
    3888:	00800044 	movi	r2,1
    388c:	00000106 	br	3894 <ScreenMainPageInfoInit+0x374>
    3890:	0005883a 	mov	r2,zero
    3894:	e0bff805 	stb	r2,-32(fp)
    3898:	e0bff803 	ldbu	r2,-32(fp)
    389c:	1080004c 	andi	r2,r2,1
    38a0:	e0bff805 	stb	r2,-32(fp)
						height - tagMarginYD - tagHeight + 1 , height - tagMarginYD );
	status = status && setDefaultTagBlock( &(scrPageInfoInst->tagPageNum), "33.33%", tagPsgeNumWidth, tagHeight );
    38a4:	e0bff803 	ldbu	r2,-32(fp)
    38a8:	10000d26 	beq	r2,zero,38e0 <ScreenMainPageInfoInit+0x3c0>
    38ac:	e0bffd17 	ldw	r2,-12(fp)
    38b0:	11002604 	addi	r4,r2,152
    38b4:	e0fffc8f 	ldh	r3,-14(fp)
    38b8:	e0bffa0f 	ldh	r2,-24(fp)
    38bc:	01400374 	movhi	r5,13
    38c0:	29429504 	addi	r5,r5,2644
    38c4:	180d883a 	mov	r6,r3
    38c8:	100f883a 	mov	r7,r2
    38cc:	00009c40 	call	9c4 <setDefaultTagBlock>
    38d0:	10803fcc 	andi	r2,r2,255
    38d4:	10000226 	beq	r2,zero,38e0 <ScreenMainPageInfoInit+0x3c0>
    38d8:	00800044 	movi	r2,1
    38dc:	00000106 	br	38e4 <ScreenMainPageInfoInit+0x3c4>
    38e0:	0005883a 	mov	r2,zero
    38e4:	e0bff805 	stb	r2,-32(fp)
    38e8:	e0bff803 	ldbu	r2,-32(fp)
    38ec:	1080004c 	andi	r2,r2,1
    38f0:	e0bff805 	stb	r2,-32(fp)

	return status;
    38f4:	e0bff803 	ldbu	r2,-32(fp)
}
    38f8:	e037883a 	mov	sp,fp
    38fc:	dfc00117 	ldw	ra,4(sp)
    3900:	df000017 	ldw	fp,0(sp)
    3904:	dec00204 	addi	sp,sp,8
    3908:	f800283a 	ret

0000390c <screenMainSettingInit>:

bool screenMainSettingInit( ScreenSetting *scrSettingInst, short width, short height )
{
    390c:	deffdf04 	addi	sp,sp,-132
    3910:	dfc02015 	stw	ra,128(sp)
    3914:	df001f15 	stw	fp,124(sp)
    3918:	df001f04 	addi	fp,sp,124
    391c:	e13ffd15 	stw	r4,-12(fp)
    3920:	2807883a 	mov	r3,r5
    3924:	3005883a 	mov	r2,r6
    3928:	e0fffe0d 	sth	r3,-8(fp)
    392c:	e0bfff0d 	sth	r2,-4(fp)
	bool status = true;
    3930:	00800044 	movi	r2,1
    3934:	e0bfe405 	stb	r2,-112(fp)

	scrSettingInst->bkgBorderColor = defaultColorInfo;
    3938:	e0bffd17 	ldw	r2,-12(fp)
    393c:	d0e0040b 	ldhu	r3,-32752(gp)
    3940:	10c0000d 	sth	r3,0(r2)
    3944:	d0e00484 	addi	r3,gp,-32750
    3948:	18c0000b 	ldhu	r3,0(r3)
    394c:	10c0008d 	sth	r3,2(r2)
    3950:	d0e00504 	addi	r3,gp,-32748
    3954:	18c0000b 	ldhu	r3,0(r3)
    3958:	10c0010d 	sth	r3,4(r2)
    395c:	d0e00584 	addi	r3,gp,-32746
    3960:	18c0000b 	ldhu	r3,0(r3)
    3964:	10c0018d 	sth	r3,6(r2)

	//颜色信息编辑存储区
	scrSettingInst->bkgColorIndex = 0;
    3968:	e0bffd17 	ldw	r2,-12(fp)
    396c:	1000ea45 	stb	zero,937(r2)
	scrSettingInst->txtColorIndex = 255;
    3970:	e0bffd17 	ldw	r2,-12(fp)
    3974:	00ffffc4 	movi	r3,-1
    3978:	10c0ea85 	stb	r3,938(r2)

	//设置左侧所有标签的位置
	short LeftTagMarginXL = 20;//左侧所有标签的左边距
    397c:	00800504 	movi	r2,20
    3980:	e0bfe48d 	sth	r2,-110(fp)
	short LeftTextMarginInTagX = 15;//在标签内部的文本与标签横向边界的距离
    3984:	008003c4 	movi	r2,15
    3988:	e0bfe50d 	sth	r2,-108(fp)
	short LeftTagGroupMarginXL = 10;//标签组的左边距
    398c:	00800284 	movi	r2,10
    3990:	e0bfe58d 	sth	r2,-106(fp)
	//高度设定
	short tag1CenterY = 60;
    3994:	00800f04 	movi	r2,60
    3998:	e0bfe60d 	sth	r2,-104(fp)
	short tag1HalfH = 25;
    399c:	00800644 	movi	r2,25
    39a0:	e0bfe68d 	sth	r2,-102(fp)
	short editBkgColorCenterY = tag1CenterY + 70;
    39a4:	e0bfe60b 	ldhu	r2,-104(fp)
    39a8:	10801184 	addi	r2,r2,70
    39ac:	e0bfe70d 	sth	r2,-100(fp)
	short editBkgColorHalfH = 25;
    39b0:	00800644 	movi	r2,25
    39b4:	e0bfe78d 	sth	r2,-98(fp)
	short editWordColorCenterY = editBkgColorCenterY + 60;
    39b8:	e0bfe70b 	ldhu	r2,-100(fp)
    39bc:	10800f04 	addi	r2,r2,60
    39c0:	e0bfe80d 	sth	r2,-96(fp)
	short editWordColorHalfH = 25;
    39c4:	00800644 	movi	r2,25
    39c8:	e0bfe88d 	sth	r2,-94(fp)
	short editTurnPageModCenterY = editWordColorCenterY + 60;
    39cc:	e0bfe80b 	ldhu	r2,-96(fp)
    39d0:	10800f04 	addi	r2,r2,60
    39d4:	e0bfe90d 	sth	r2,-92(fp)
	short editTurnPageModHalfH = 25;
    39d8:	00800644 	movi	r2,25
    39dc:	e0bfe98d 	sth	r2,-90(fp)
	short tag2CenterY = editTurnPageModCenterY + 70;
    39e0:	e0bfe90b 	ldhu	r2,-92(fp)
    39e4:	10801184 	addi	r2,r2,70
    39e8:	e0bfea0d 	sth	r2,-88(fp)
	short tag2HalfH = 25;
    39ec:	00800644 	movi	r2,25
    39f0:	e0bfea8d 	sth	r2,-86(fp)

	if ( tag2CenterY + tag2HalfH > height )
    39f4:	e0ffea0f 	ldh	r3,-88(fp)
    39f8:	e0bfea8f 	ldh	r2,-86(fp)
    39fc:	1885883a 	add	r2,r3,r2
    3a00:	e0ffff0f 	ldh	r3,-4(fp)
    3a04:	1880010e 	bge	r3,r2,3a0c <screenMainSettingInit+0x100>
	{
		status = false;
    3a08:	e03fe405 	stb	zero,-112(fp)
	}

	//设置静态标签：

	//"休息定时"
	short textWidth1 = getWidthOfText( "休息定时", 8 );//4字汉字文本的像素宽度
    3a0c:	01000374 	movhi	r4,13
    3a10:	21029704 	addi	r4,r4,2652
    3a14:	01400204 	movi	r5,8
    3a18:	00016140 	call	1614 <getWidthOfText>
    3a1c:	e0bfeb0d 	sth	r2,-84(fp)
	short staticTag1XLen = (LeftTextMarginInTagX<<1)+textWidth1;
    3a20:	e0bfe50b 	ldhu	r2,-108(fp)
    3a24:	1085883a 	add	r2,r2,r2
    3a28:	1007883a 	mov	r3,r2
    3a2c:	e0bfeb0b 	ldhu	r2,-84(fp)
    3a30:	1885883a 	add	r2,r3,r2
    3a34:	e0bfeb8d 	sth	r2,-82(fp)
	short staticTag1XMax = LeftTagMarginXL+staticTag1XLen;
    3a38:	e0ffe48b 	ldhu	r3,-110(fp)
    3a3c:	e0bfeb8b 	ldhu	r2,-82(fp)
    3a40:	1885883a 	add	r2,r3,r2
    3a44:	e0bfec0d 	sth	r2,-80(fp)

	status = status && setAreaRange( &(scrSettingInst->tag1Area), LeftTagMarginXL+1, staticTag1XMax, tag1CenterY-tag1HalfH+1, tag1CenterY+tag1HalfH );
    3a48:	e0bfe403 	ldbu	r2,-112(fp)
    3a4c:	10001b26 	beq	r2,zero,3abc <screenMainSettingInit+0x1b0>
    3a50:	e0bffd17 	ldw	r2,-12(fp)
    3a54:	11000204 	addi	r4,r2,8
    3a58:	e0bfe48b 	ldhu	r2,-110(fp)
    3a5c:	10800044 	addi	r2,r2,1
    3a60:	117fffcc 	andi	r5,r2,65535
    3a64:	2960001c 	xori	r5,r5,32768
    3a68:	29600004 	addi	r5,r5,-32768
    3a6c:	e1bfec0f 	ldh	r6,-80(fp)
    3a70:	e0ffe60b 	ldhu	r3,-104(fp)
    3a74:	e0bfe68b 	ldhu	r2,-102(fp)
    3a78:	1885c83a 	sub	r2,r3,r2
    3a7c:	10800044 	addi	r2,r2,1
    3a80:	11ffffcc 	andi	r7,r2,65535
    3a84:	39e0001c 	xori	r7,r7,32768
    3a88:	39e00004 	addi	r7,r7,-32768
    3a8c:	e0ffe60b 	ldhu	r3,-104(fp)
    3a90:	e0bfe68b 	ldhu	r2,-102(fp)
    3a94:	1885883a 	add	r2,r3,r2
    3a98:	10bfffcc 	andi	r2,r2,65535
    3a9c:	10a0001c 	xori	r2,r2,32768
    3aa0:	10a00004 	addi	r2,r2,-32768
    3aa4:	d8800015 	stw	r2,0(sp)
    3aa8:	000044c0 	call	44c <setAreaRange>
    3aac:	10803fcc 	andi	r2,r2,255
    3ab0:	10000226 	beq	r2,zero,3abc <screenMainSettingInit+0x1b0>
    3ab4:	00800044 	movi	r2,1
    3ab8:	00000106 	br	3ac0 <screenMainSettingInit+0x1b4>
    3abc:	0005883a 	mov	r2,zero
    3ac0:	e0bfe405 	stb	r2,-112(fp)
    3ac4:	e0bfe403 	ldbu	r2,-112(fp)
    3ac8:	1080004c 	andi	r2,r2,1
    3acc:	e0bfe405 	stb	r2,-112(fp)
	status = status && setDefaultTagBlock( &(scrSettingInst->tag1), "休息定时", staticTag1XLen, tag1HalfH<<1 );
    3ad0:	e0bfe403 	ldbu	r2,-112(fp)
    3ad4:	10001126 	beq	r2,zero,3b1c <screenMainSettingInit+0x210>
    3ad8:	e0bffd17 	ldw	r2,-12(fp)
    3adc:	11000404 	addi	r4,r2,16
    3ae0:	e0ffeb8f 	ldh	r3,-82(fp)
    3ae4:	e0bfe68f 	ldh	r2,-102(fp)
    3ae8:	1085883a 	add	r2,r2,r2
    3aec:	10bfffcc 	andi	r2,r2,65535
    3af0:	10a0001c 	xori	r2,r2,32768
    3af4:	10a00004 	addi	r2,r2,-32768
    3af8:	01400374 	movhi	r5,13
    3afc:	29429704 	addi	r5,r5,2652
    3b00:	180d883a 	mov	r6,r3
    3b04:	100f883a 	mov	r7,r2
    3b08:	00009c40 	call	9c4 <setDefaultTagBlock>
    3b0c:	10803fcc 	andi	r2,r2,255
    3b10:	10000226 	beq	r2,zero,3b1c <screenMainSettingInit+0x210>
    3b14:	00800044 	movi	r2,1
    3b18:	00000106 	br	3b20 <screenMainSettingInit+0x214>
    3b1c:	0005883a 	mov	r2,zero
    3b20:	e0bfe405 	stb	r2,-112(fp)
    3b24:	e0bfe403 	ldbu	r2,-112(fp)
    3b28:	1080004c 	andi	r2,r2,1
    3b2c:	e0bfe405 	stb	r2,-112(fp)


	//"自动翻页定时"
	short textWidth2 = getWidthOfText( "翻页定时", 8 );//4字汉字文本的像素宽度
    3b30:	01000374 	movhi	r4,13
    3b34:	21029a04 	addi	r4,r4,2664
    3b38:	01400204 	movi	r5,8
    3b3c:	00016140 	call	1614 <getWidthOfText>
    3b40:	e0bfec8d 	sth	r2,-78(fp)
	short staticTag2XLen = (LeftTextMarginInTagX<<1)+textWidth2;
    3b44:	e0bfe50b 	ldhu	r2,-108(fp)
    3b48:	1085883a 	add	r2,r2,r2
    3b4c:	1007883a 	mov	r3,r2
    3b50:	e0bfec8b 	ldhu	r2,-78(fp)
    3b54:	1885883a 	add	r2,r3,r2
    3b58:	e0bfed0d 	sth	r2,-76(fp)
	short staticTag2XMax = LeftTagMarginXL+staticTag2XLen;
    3b5c:	e0ffe48b 	ldhu	r3,-110(fp)
    3b60:	e0bfed0b 	ldhu	r2,-76(fp)
    3b64:	1885883a 	add	r2,r3,r2
    3b68:	e0bfed8d 	sth	r2,-74(fp)

	status = status && setAreaRange( &(scrSettingInst->tag1Area), LeftTagMarginXL+1, LeftTagMarginXL+staticTag2XLen, tag2CenterY-tag2HalfH+1, tag2CenterY+tag2HalfH );
    3b6c:	e0bfe403 	ldbu	r2,-112(fp)
    3b70:	10002026 	beq	r2,zero,3bf4 <screenMainSettingInit+0x2e8>
    3b74:	e0bffd17 	ldw	r2,-12(fp)
    3b78:	11000204 	addi	r4,r2,8
    3b7c:	e0bfe48b 	ldhu	r2,-110(fp)
    3b80:	10800044 	addi	r2,r2,1
    3b84:	117fffcc 	andi	r5,r2,65535
    3b88:	2960001c 	xori	r5,r5,32768
    3b8c:	29600004 	addi	r5,r5,-32768
    3b90:	e0ffe48b 	ldhu	r3,-110(fp)
    3b94:	e0bfed0b 	ldhu	r2,-76(fp)
    3b98:	1885883a 	add	r2,r3,r2
    3b9c:	11bfffcc 	andi	r6,r2,65535
    3ba0:	31a0001c 	xori	r6,r6,32768
    3ba4:	31a00004 	addi	r6,r6,-32768
    3ba8:	e0ffea0b 	ldhu	r3,-88(fp)
    3bac:	e0bfea8b 	ldhu	r2,-86(fp)
    3bb0:	1885c83a 	sub	r2,r3,r2
    3bb4:	10800044 	addi	r2,r2,1
    3bb8:	11ffffcc 	andi	r7,r2,65535
    3bbc:	39e0001c 	xori	r7,r7,32768
    3bc0:	39e00004 	addi	r7,r7,-32768
    3bc4:	e0ffea0b 	ldhu	r3,-88(fp)
    3bc8:	e0bfea8b 	ldhu	r2,-86(fp)
    3bcc:	1885883a 	add	r2,r3,r2
    3bd0:	10bfffcc 	andi	r2,r2,65535
    3bd4:	10a0001c 	xori	r2,r2,32768
    3bd8:	10a00004 	addi	r2,r2,-32768
    3bdc:	d8800015 	stw	r2,0(sp)
    3be0:	000044c0 	call	44c <setAreaRange>
    3be4:	10803fcc 	andi	r2,r2,255
    3be8:	10000226 	beq	r2,zero,3bf4 <screenMainSettingInit+0x2e8>
    3bec:	00800044 	movi	r2,1
    3bf0:	00000106 	br	3bf8 <screenMainSettingInit+0x2ec>
    3bf4:	0005883a 	mov	r2,zero
    3bf8:	e0bfe405 	stb	r2,-112(fp)
    3bfc:	e0bfe403 	ldbu	r2,-112(fp)
    3c00:	1080004c 	andi	r2,r2,1
    3c04:	e0bfe405 	stb	r2,-112(fp)
	status = status && setDefaultTagBlock( &(scrSettingInst->tag1), "翻页定时", (LeftTextMarginInTagX<<1)+textWidth2, tag2HalfH<<1 );
    3c08:	e0bfe403 	ldbu	r2,-112(fp)
    3c0c:	10001826 	beq	r2,zero,3c70 <screenMainSettingInit+0x364>
    3c10:	e0bffd17 	ldw	r2,-12(fp)
    3c14:	11000404 	addi	r4,r2,16
    3c18:	e0bfe50b 	ldhu	r2,-108(fp)
    3c1c:	1085883a 	add	r2,r2,r2
    3c20:	1007883a 	mov	r3,r2
    3c24:	e0bfec8b 	ldhu	r2,-78(fp)
    3c28:	1885883a 	add	r2,r3,r2
    3c2c:	10ffffcc 	andi	r3,r2,65535
    3c30:	18e0001c 	xori	r3,r3,32768
    3c34:	18e00004 	addi	r3,r3,-32768
    3c38:	e0bfea8f 	ldh	r2,-86(fp)
    3c3c:	1085883a 	add	r2,r2,r2
    3c40:	10bfffcc 	andi	r2,r2,65535
    3c44:	10a0001c 	xori	r2,r2,32768
    3c48:	10a00004 	addi	r2,r2,-32768
    3c4c:	01400374 	movhi	r5,13
    3c50:	29429a04 	addi	r5,r5,2664
    3c54:	180d883a 	mov	r6,r3
    3c58:	100f883a 	mov	r7,r2
    3c5c:	00009c40 	call	9c4 <setDefaultTagBlock>
    3c60:	10803fcc 	andi	r2,r2,255
    3c64:	10000226 	beq	r2,zero,3c70 <screenMainSettingInit+0x364>
    3c68:	00800044 	movi	r2,1
    3c6c:	00000106 	br	3c74 <screenMainSettingInit+0x368>
    3c70:	0005883a 	mov	r2,zero
    3c74:	e0bfe405 	stb	r2,-112(fp)
    3c78:	e0bfe403 	ldbu	r2,-112(fp)
    3c7c:	1080004c 	andi	r2,r2,1
    3c80:	e0bfe405 	stb	r2,-112(fp)
	AreaFmt tempAreaFmt2;

	//"背景颜色","字体颜色","自动翻页"
	//设置tagGroup位置(水平用边距，垂直用中心距)

	short tagGroupWidth = width*2/3;
    3c84:	e0bffe0f 	ldh	r2,-8(fp)
    3c88:	1085883a 	add	r2,r2,r2
    3c8c:	1009883a 	mov	r4,r2
    3c90:	014000c4 	movi	r5,3
    3c94:	00083640 	call	8364 <__divsi3>
    3c98:	e0bfee0d 	sth	r2,-72(fp)
	short tagGroupHalfH = editBkgColorHalfH + 5;
    3c9c:	e0bfe78b 	ldhu	r2,-98(fp)
    3ca0:	10800144 	addi	r2,r2,5
    3ca4:	e0bfee8d 	sth	r2,-70(fp)
	short tagGroupXSpacing = 50;//标签组中两个标签的水平间距
    3ca8:	00800c84 	movi	r2,50
    3cac:	e0bfef0d 	sth	r2,-68(fp)

	status = status && setAreaFmt( &tempAreaFmt1, AREA_FMT_MARGIN, AREA_FMT_CENTER, \
    3cb0:	e0bfe403 	ldbu	r2,-112(fp)
    3cb4:	10001826 	beq	r2,zero,3d18 <screenMainSettingInit+0x40c>
    3cb8:	e1ffe58f 	ldh	r7,-106(fp)
    3cbc:	e0fffe0b 	ldhu	r3,-8(fp)
    3cc0:	e0bfee0b 	ldhu	r2,-72(fp)
    3cc4:	1885c83a 	sub	r2,r3,r2
    3cc8:	1007883a 	mov	r3,r2
    3ccc:	e0bfe58b 	ldhu	r2,-106(fp)
    3cd0:	1885c83a 	sub	r2,r3,r2
    3cd4:	113fffcc 	andi	r4,r2,65535
    3cd8:	2120001c 	xori	r4,r4,32768
    3cdc:	21200004 	addi	r4,r4,-32768
    3ce0:	e0ffe70f 	ldh	r3,-100(fp)
    3ce4:	e0bfee8f 	ldh	r2,-70(fp)
    3ce8:	e17ff504 	addi	r5,fp,-44
    3cec:	d9000015 	stw	r4,0(sp)
    3cf0:	d8c00115 	stw	r3,4(sp)
    3cf4:	d8800215 	stw	r2,8(sp)
    3cf8:	2809883a 	mov	r4,r5
    3cfc:	01400044 	movi	r5,1
    3d00:	000d883a 	mov	r6,zero
    3d04:	00007340 	call	734 <setAreaFmt>
    3d08:	10803fcc 	andi	r2,r2,255
    3d0c:	10000226 	beq	r2,zero,3d18 <screenMainSettingInit+0x40c>
    3d10:	00800044 	movi	r2,1
    3d14:	00000106 	br	3d1c <screenMainSettingInit+0x410>
    3d18:	0005883a 	mov	r2,zero
    3d1c:	e0bfe405 	stb	r2,-112(fp)
    3d20:	e0bfe403 	ldbu	r2,-112(fp)
    3d24:	1080004c 	andi	r2,r2,1
    3d28:	e0bfe405 	stb	r2,-112(fp)
			    LeftTagGroupMarginXL, width - tagGroupWidth - LeftTagGroupMarginXL, editBkgColorCenterY, tagGroupHalfH );

	setAreaRangeByAreaFmt( &(scrSettingInst->editBkgColorArea), &tempAreaFmt1, width, height );
    3d2c:	e0bffd17 	ldw	r2,-12(fp)
    3d30:	11006504 	addi	r4,r2,404
    3d34:	e0fffe0f 	ldh	r3,-8(fp)
    3d38:	e0bfff0f 	ldh	r2,-4(fp)
    3d3c:	e17ff504 	addi	r5,fp,-44
    3d40:	180d883a 	mov	r6,r3
    3d44:	100f883a 	mov	r7,r2
    3d48:	00004dc0 	call	4dc <setAreaRangeByAreaFmt>
	tempAreaFmt1.fmtValY.fmtCenterVal.center = editWordColorCenterY;
    3d4c:	e0bfe80b 	ldhu	r2,-96(fp)
    3d50:	e0bff80d 	sth	r2,-32(fp)
	setAreaRangeByAreaFmt( &(scrSettingInst->editWordColorArea), &tempAreaFmt1, width, height );
    3d54:	e0bffd17 	ldw	r2,-12(fp)
    3d58:	11007f04 	addi	r4,r2,508
    3d5c:	e0fffe0f 	ldh	r3,-8(fp)
    3d60:	e0bfff0f 	ldh	r2,-4(fp)
    3d64:	e17ff504 	addi	r5,fp,-44
    3d68:	180d883a 	mov	r6,r3
    3d6c:	100f883a 	mov	r7,r2
    3d70:	00004dc0 	call	4dc <setAreaRangeByAreaFmt>
	tempAreaFmt1.fmtValY.fmtCenterVal.center = editTurnPageModCenterY;
    3d74:	e0bfe90b 	ldhu	r2,-92(fp)
    3d78:	e0bff80d 	sth	r2,-32(fp)
	setAreaRangeByAreaFmt( &(scrSettingInst->editTurnPageModArea), &tempAreaFmt1, width, height );
    3d7c:	e0bffd17 	ldw	r2,-12(fp)
    3d80:	11009904 	addi	r4,r2,612
    3d84:	e0fffe0f 	ldh	r3,-8(fp)
    3d88:	e0bfff0f 	ldh	r2,-4(fp)
    3d8c:	e17ff504 	addi	r5,fp,-44
    3d90:	180d883a 	mov	r6,r3
    3d94:	100f883a 	mov	r7,r2
    3d98:	00004dc0 	call	4dc <setAreaRangeByAreaFmt>

	//设置tagGroup内容
	//左边的静态标签范围
	short leftTagMarginInGroupXL = LeftTagMarginXL - LeftTagGroupMarginXL;
    3d9c:	e0ffe48b 	ldhu	r3,-110(fp)
    3da0:	e0bfe58b 	ldhu	r2,-106(fp)
    3da4:	1885c83a 	sub	r2,r3,r2
    3da8:	e0bfef8d 	sth	r2,-66(fp)
	status = status && setAreaFmt( &tempAreaFmt1, AREA_FMT_MARGIN, AREA_FMT_CENTER, \
    3dac:	e0bfe403 	ldbu	r2,-112(fp)
    3db0:	10001826 	beq	r2,zero,3e14 <screenMainSettingInit+0x508>
    3db4:	e1ffef8f 	ldh	r7,-66(fp)
    3db8:	e0ffee0b 	ldhu	r3,-72(fp)
    3dbc:	e0bfef8b 	ldhu	r2,-66(fp)
    3dc0:	1885c83a 	sub	r2,r3,r2
    3dc4:	1007883a 	mov	r3,r2
    3dc8:	e0bfeb8b 	ldhu	r2,-82(fp)
    3dcc:	1885c83a 	sub	r2,r3,r2
    3dd0:	113fffcc 	andi	r4,r2,65535
    3dd4:	2120001c 	xori	r4,r4,32768
    3dd8:	21200004 	addi	r4,r4,-32768
    3ddc:	e0ffe70f 	ldh	r3,-100(fp)
    3de0:	e0bfe78f 	ldh	r2,-98(fp)
    3de4:	e17ff504 	addi	r5,fp,-44
    3de8:	d9000015 	stw	r4,0(sp)
    3dec:	d8c00115 	stw	r3,4(sp)
    3df0:	d8800215 	stw	r2,8(sp)
    3df4:	2809883a 	mov	r4,r5
    3df8:	01400044 	movi	r5,1
    3dfc:	000d883a 	mov	r6,zero
    3e00:	00007340 	call	734 <setAreaFmt>
    3e04:	10803fcc 	andi	r2,r2,255
    3e08:	10000226 	beq	r2,zero,3e14 <screenMainSettingInit+0x508>
    3e0c:	00800044 	movi	r2,1
    3e10:	00000106 	br	3e18 <screenMainSettingInit+0x50c>
    3e14:	0005883a 	mov	r2,zero
    3e18:	e0bfe405 	stb	r2,-112(fp)
    3e1c:	e0bfe403 	ldbu	r2,-112(fp)
    3e20:	1080004c 	andi	r2,r2,1
    3e24:	e0bfe405 	stb	r2,-112(fp)
				leftTagMarginInGroupXL, tagGroupWidth - leftTagMarginInGroupXL - staticTag1XLen, editBkgColorCenterY, editBkgColorHalfH );
	//右边的动态标签范围
	short rightTagMarginInGroupXL = leftTagMarginInGroupXL + staticTag1XLen + tagGroupXSpacing;
    3e28:	e0ffef8b 	ldhu	r3,-66(fp)
    3e2c:	e0bfeb8b 	ldhu	r2,-82(fp)
    3e30:	1885883a 	add	r2,r3,r2
    3e34:	1007883a 	mov	r3,r2
    3e38:	e0bfef0b 	ldhu	r2,-68(fp)
    3e3c:	1885883a 	add	r2,r3,r2
    3e40:	e0bff00d 	sth	r2,-64(fp)
	short rightTagWidth = 50;//要保证取值大于文本"off"的宽度，即3*SRC_LETTER_SIZE_X+2*DEFAULT_LETTER_SPACING
    3e44:	00800c84 	movi	r2,50
    3e48:	e0bff08d 	sth	r2,-62(fp)
	status = status && setAreaFmt( &tempAreaFmt2, AREA_FMT_MARGIN, AREA_FMT_CENTER, \
    3e4c:	e0bfe403 	ldbu	r2,-112(fp)
    3e50:	10001826 	beq	r2,zero,3eb4 <screenMainSettingInit+0x5a8>
    3e54:	e1fff00f 	ldh	r7,-64(fp)
    3e58:	e0ffee0b 	ldhu	r3,-72(fp)
    3e5c:	e0bfef8b 	ldhu	r2,-66(fp)
    3e60:	1885c83a 	sub	r2,r3,r2
    3e64:	1007883a 	mov	r3,r2
    3e68:	e0bff08b 	ldhu	r2,-62(fp)
    3e6c:	1885c83a 	sub	r2,r3,r2
    3e70:	113fffcc 	andi	r4,r2,65535
    3e74:	2120001c 	xori	r4,r4,32768
    3e78:	21200004 	addi	r4,r4,-32768
    3e7c:	e0ffe70f 	ldh	r3,-100(fp)
    3e80:	e0bfe78f 	ldh	r2,-98(fp)
    3e84:	e17ff904 	addi	r5,fp,-28
    3e88:	d9000015 	stw	r4,0(sp)
    3e8c:	d8c00115 	stw	r3,4(sp)
    3e90:	d8800215 	stw	r2,8(sp)
    3e94:	2809883a 	mov	r4,r5
    3e98:	01400044 	movi	r5,1
    3e9c:	000d883a 	mov	r6,zero
    3ea0:	00007340 	call	734 <setAreaFmt>
    3ea4:	10803fcc 	andi	r2,r2,255
    3ea8:	10000226 	beq	r2,zero,3eb4 <screenMainSettingInit+0x5a8>
    3eac:	00800044 	movi	r2,1
    3eb0:	00000106 	br	3eb8 <screenMainSettingInit+0x5ac>
    3eb4:	0005883a 	mov	r2,zero
    3eb8:	e0bfe405 	stb	r2,-112(fp)
    3ebc:	e0bfe403 	ldbu	r2,-112(fp)
    3ec0:	1080004c 	andi	r2,r2,1
    3ec4:	e0bfe405 	stb	r2,-112(fp)
				rightTagMarginInGroupXL, tagGroupWidth - leftTagMarginInGroupXL - rightTagWidth, editBkgColorCenterY, editBkgColorHalfH );

	//设置标签组
	status = status && setDefaultTagGroup( &(scrSettingInst->editBkgColor), &tempAreaFmt1, &tempAreaFmt2, \
    3ec8:	e0bfe403 	ldbu	r2,-112(fp)
    3ecc:	10001526 	beq	r2,zero,3f24 <screenMainSettingInit+0x618>
    3ed0:	e0bffd17 	ldw	r2,-12(fp)
    3ed4:	11006704 	addi	r4,r2,412
    3ed8:	e0ffee0f 	ldh	r3,-72(fp)
				tagGroupWidth, tagGroupHalfH<<1,"背景颜色", (void*)0 );
    3edc:	e0bfee8f 	ldh	r2,-70(fp)
    3ee0:	1085883a 	add	r2,r2,r2
	short rightTagWidth = 50;//要保证取值大于文本"off"的宽度，即3*SRC_LETTER_SIZE_X+2*DEFAULT_LETTER_SPACING
	status = status && setAreaFmt( &tempAreaFmt2, AREA_FMT_MARGIN, AREA_FMT_CENTER, \
				rightTagMarginInGroupXL, tagGroupWidth - leftTagMarginInGroupXL - rightTagWidth, editBkgColorCenterY, editBkgColorHalfH );

	//设置标签组
	status = status && setDefaultTagGroup( &(scrSettingInst->editBkgColor), &tempAreaFmt1, &tempAreaFmt2, \
    3ee4:	10bfffcc 	andi	r2,r2,65535
    3ee8:	10a0001c 	xori	r2,r2,32768
    3eec:	10a00004 	addi	r2,r2,-32768
    3ef0:	e17ff504 	addi	r5,fp,-44
    3ef4:	e1bff904 	addi	r6,fp,-28
    3ef8:	d8800015 	stw	r2,0(sp)
    3efc:	00800374 	movhi	r2,13
    3f00:	10829d04 	addi	r2,r2,2676
    3f04:	d8800115 	stw	r2,4(sp)
    3f08:	d8000215 	stw	zero,8(sp)
    3f0c:	180f883a 	mov	r7,r3
    3f10:	00017a80 	call	17a8 <setDefaultTagGroup>
    3f14:	10803fcc 	andi	r2,r2,255
    3f18:	10000226 	beq	r2,zero,3f24 <screenMainSettingInit+0x618>
    3f1c:	00800044 	movi	r2,1
    3f20:	00000106 	br	3f28 <screenMainSettingInit+0x61c>
    3f24:	0005883a 	mov	r2,zero
    3f28:	e0bfe405 	stb	r2,-112(fp)
    3f2c:	e0bfe403 	ldbu	r2,-112(fp)
    3f30:	1080004c 	andi	r2,r2,1
    3f34:	e0bfe405 	stb	r2,-112(fp)
				tagGroupWidth, tagGroupHalfH<<1,"背景颜色", (void*)0 );

	tempAreaFmt1.fmtValY.fmtCenterVal.half = editWordColorHalfH;
    3f38:	e0bfe88b 	ldhu	r2,-94(fp)
    3f3c:	e0bff88d 	sth	r2,-30(fp)
	tempAreaFmt2.fmtValY.fmtCenterVal.half = editWordColorHalfH;
    3f40:	e0bfe88b 	ldhu	r2,-94(fp)
    3f44:	e0bffc8d 	sth	r2,-14(fp)
	status = status && setDefaultTagGroup( &(scrSettingInst->editWordColor), &tempAreaFmt1, &tempAreaFmt2, \
    3f48:	e0bfe403 	ldbu	r2,-112(fp)
    3f4c:	10001526 	beq	r2,zero,3fa4 <screenMainSettingInit+0x698>
    3f50:	e0bffd17 	ldw	r2,-12(fp)
    3f54:	11008104 	addi	r4,r2,516
    3f58:	e0ffee0f 	ldh	r3,-72(fp)
				tagGroupWidth, tagGroupHalfH<<1,"字体颜色", (void*)0 );
    3f5c:	e0bfee8f 	ldh	r2,-70(fp)
    3f60:	1085883a 	add	r2,r2,r2
	status = status && setDefaultTagGroup( &(scrSettingInst->editBkgColor), &tempAreaFmt1, &tempAreaFmt2, \
				tagGroupWidth, tagGroupHalfH<<1,"背景颜色", (void*)0 );

	tempAreaFmt1.fmtValY.fmtCenterVal.half = editWordColorHalfH;
	tempAreaFmt2.fmtValY.fmtCenterVal.half = editWordColorHalfH;
	status = status && setDefaultTagGroup( &(scrSettingInst->editWordColor), &tempAreaFmt1, &tempAreaFmt2, \
    3f64:	10bfffcc 	andi	r2,r2,65535
    3f68:	10a0001c 	xori	r2,r2,32768
    3f6c:	10a00004 	addi	r2,r2,-32768
    3f70:	e17ff504 	addi	r5,fp,-44
    3f74:	e1bff904 	addi	r6,fp,-28
    3f78:	d8800015 	stw	r2,0(sp)
    3f7c:	00800374 	movhi	r2,13
    3f80:	1082a004 	addi	r2,r2,2688
    3f84:	d8800115 	stw	r2,4(sp)
    3f88:	d8000215 	stw	zero,8(sp)
    3f8c:	180f883a 	mov	r7,r3
    3f90:	00017a80 	call	17a8 <setDefaultTagGroup>
    3f94:	10803fcc 	andi	r2,r2,255
    3f98:	10000226 	beq	r2,zero,3fa4 <screenMainSettingInit+0x698>
    3f9c:	00800044 	movi	r2,1
    3fa0:	00000106 	br	3fa8 <screenMainSettingInit+0x69c>
    3fa4:	0005883a 	mov	r2,zero
    3fa8:	e0bfe405 	stb	r2,-112(fp)
    3fac:	e0bfe403 	ldbu	r2,-112(fp)
    3fb0:	1080004c 	andi	r2,r2,1
    3fb4:	e0bfe405 	stb	r2,-112(fp)
				tagGroupWidth, tagGroupHalfH<<1,"字体颜色", (void*)0 );

	tempAreaFmt1.fmtValY.fmtCenterVal.half = editTurnPageModHalfH;
    3fb8:	e0bfe98b 	ldhu	r2,-90(fp)
    3fbc:	e0bff88d 	sth	r2,-30(fp)
	tempAreaFmt2.fmtValY.fmtCenterVal.half = editTurnPageModHalfH;
    3fc0:	e0bfe98b 	ldhu	r2,-90(fp)
    3fc4:	e0bffc8d 	sth	r2,-14(fp)
	status = status && setDefaultTagGroup( &(scrSettingInst->editTurnPageMod), &tempAreaFmt1, &tempAreaFmt2, \
    3fc8:	e0bfe403 	ldbu	r2,-112(fp)
    3fcc:	10001726 	beq	r2,zero,402c <screenMainSettingInit+0x720>
    3fd0:	e0bffd17 	ldw	r2,-12(fp)
    3fd4:	11009b04 	addi	r4,r2,620
    3fd8:	e0ffee0f 	ldh	r3,-72(fp)
				tagGroupWidth, tagGroupHalfH<<1,"自动翻页", "off" );
    3fdc:	e0bfee8f 	ldh	r2,-70(fp)
    3fe0:	1085883a 	add	r2,r2,r2
	status = status && setDefaultTagGroup( &(scrSettingInst->editWordColor), &tempAreaFmt1, &tempAreaFmt2, \
				tagGroupWidth, tagGroupHalfH<<1,"字体颜色", (void*)0 );

	tempAreaFmt1.fmtValY.fmtCenterVal.half = editTurnPageModHalfH;
	tempAreaFmt2.fmtValY.fmtCenterVal.half = editTurnPageModHalfH;
	status = status && setDefaultTagGroup( &(scrSettingInst->editTurnPageMod), &tempAreaFmt1, &tempAreaFmt2, \
    3fe4:	10bfffcc 	andi	r2,r2,65535
    3fe8:	10a0001c 	xori	r2,r2,32768
    3fec:	10a00004 	addi	r2,r2,-32768
    3ff0:	e17ff504 	addi	r5,fp,-44
    3ff4:	e1bff904 	addi	r6,fp,-28
    3ff8:	d8800015 	stw	r2,0(sp)
    3ffc:	00800374 	movhi	r2,13
    4000:	1082a304 	addi	r2,r2,2700
    4004:	d8800115 	stw	r2,4(sp)
    4008:	00800374 	movhi	r2,13
    400c:	1082a604 	addi	r2,r2,2712
    4010:	d8800215 	stw	r2,8(sp)
    4014:	180f883a 	mov	r7,r3
    4018:	00017a80 	call	17a8 <setDefaultTagGroup>
    401c:	10803fcc 	andi	r2,r2,255
    4020:	10000226 	beq	r2,zero,402c <screenMainSettingInit+0x720>
    4024:	00800044 	movi	r2,1
    4028:	00000106 	br	4030 <screenMainSettingInit+0x724>
    402c:	0005883a 	mov	r2,zero
    4030:	e0bfe405 	stb	r2,-112(fp)
    4034:	e0bfe403 	ldbu	r2,-112(fp)
    4038:	1080004c 	andi	r2,r2,1
    403c:	e0bfe405 	stb	r2,-112(fp)
				tagGroupWidth, tagGroupHalfH<<1,"自动翻页", "off" );


	//设置可编辑数字域
	short numEditGrpWidth = 100;
    4040:	00801904 	movi	r2,100
    4044:	e0bff10d 	sth	r2,-60(fp)
	short numEditGrpHeight = 110;
    4048:	00801b84 	movi	r2,110
    404c:	e0bff18d 	sth	r2,-58(fp)

	short tag1NumHourSpacingX = 20;
    4050:	00800504 	movi	r2,20
    4054:	e0bff20d 	sth	r2,-56(fp)
	short numHourNumMinuteSpacingX = 10;
    4058:	00800284 	movi	r2,10
    405c:	e0bff28d 	sth	r2,-54(fp)

	short tag2NumSecondSpacingX = 20;
    4060:	00800504 	movi	r2,20
    4064:	e0bff30d 	sth	r2,-52(fp)


	//闹钟的"时"(默认为1时)
	short alarmHourMarginXL = staticTag1XMax+tag1NumHourSpacingX;
    4068:	e0ffec0b 	ldhu	r3,-80(fp)
    406c:	e0bff20b 	ldhu	r2,-56(fp)
    4070:	1885883a 	add	r2,r3,r2
    4074:	e0bff38d 	sth	r2,-50(fp)
	status = status && setAreaRange( &(scrSettingInst->editAlarmHourArea), alarmHourMarginXL + 1, alarmHourMarginXL + numEditGrpWidth, \
    4078:	e0bfe403 	ldbu	r2,-112(fp)
    407c:	10002426 	beq	r2,zero,4110 <screenMainSettingInit+0x804>
    4080:	e0bffd17 	ldw	r2,-12(fp)
    4084:	11000d04 	addi	r4,r2,52
    4088:	e0bff38b 	ldhu	r2,-50(fp)
    408c:	10800044 	addi	r2,r2,1
    4090:	117fffcc 	andi	r5,r2,65535
    4094:	2960001c 	xori	r5,r5,32768
    4098:	29600004 	addi	r5,r5,-32768
    409c:	e0fff38b 	ldhu	r3,-50(fp)
    40a0:	e0bff10b 	ldhu	r2,-60(fp)
    40a4:	1885883a 	add	r2,r3,r2
    40a8:	11bfffcc 	andi	r6,r2,65535
    40ac:	31a0001c 	xori	r6,r6,32768
    40b0:	31a00004 	addi	r6,r6,-32768
    40b4:	e0bfe60b 	ldhu	r2,-104(fp)
    40b8:	e0fff18f 	ldh	r3,-58(fp)
    40bc:	1807d07a 	srai	r3,r3,1
    40c0:	10c5c83a 	sub	r2,r2,r3
    40c4:	10800044 	addi	r2,r2,1
    40c8:	10ffffcc 	andi	r3,r2,65535
    40cc:	18e0001c 	xori	r3,r3,32768
    40d0:	18e00004 	addi	r3,r3,-32768
    40d4:	e0bff18f 	ldh	r2,-58(fp)
    40d8:	1005d07a 	srai	r2,r2,1
    40dc:	100f883a 	mov	r7,r2
    40e0:	e0bfe60b 	ldhu	r2,-104(fp)
    40e4:	3885883a 	add	r2,r7,r2
    40e8:	10bfffcc 	andi	r2,r2,65535
    40ec:	10a0001c 	xori	r2,r2,32768
    40f0:	10a00004 	addi	r2,r2,-32768
    40f4:	d8800015 	stw	r2,0(sp)
    40f8:	180f883a 	mov	r7,r3
    40fc:	000044c0 	call	44c <setAreaRange>
    4100:	10803fcc 	andi	r2,r2,255
    4104:	10000226 	beq	r2,zero,4110 <screenMainSettingInit+0x804>
    4108:	00800044 	movi	r2,1
    410c:	00000106 	br	4114 <screenMainSettingInit+0x808>
    4110:	0005883a 	mov	r2,zero
    4114:	e0bfe405 	stb	r2,-112(fp)
    4118:	e0bfe403 	ldbu	r2,-112(fp)
    411c:	1080004c 	andi	r2,r2,1
    4120:	e0bfe405 	stb	r2,-112(fp)
				tag1CenterY - (numEditGrpHeight>>1)+1, tag1CenterY + (numEditGrpHeight>>1) );
	status = status && setDefaultNumEditGroup( &(scrSettingInst->editAlarmHour), numEditGrpWidth, numEditGrpHeight, 23, 0, 1, "时" );
    4124:	e0bfe403 	ldbu	r2,-112(fp)
    4128:	10001126 	beq	r2,zero,4170 <screenMainSettingInit+0x864>
    412c:	e0bffd17 	ldw	r2,-12(fp)
    4130:	11000f04 	addi	r4,r2,60
    4134:	e17ff10f 	ldh	r5,-60(fp)
    4138:	e0fff18f 	ldh	r3,-58(fp)
    413c:	d8000015 	stw	zero,0(sp)
    4140:	00800044 	movi	r2,1
    4144:	d8800115 	stw	r2,4(sp)
    4148:	00800374 	movhi	r2,13
    414c:	1082a704 	addi	r2,r2,2716
    4150:	d8800215 	stw	r2,8(sp)
    4154:	180d883a 	mov	r6,r3
    4158:	01c005c4 	movi	r7,23
    415c:	00019ac0 	call	19ac <setDefaultNumEditGroup>
    4160:	10803fcc 	andi	r2,r2,255
    4164:	10000226 	beq	r2,zero,4170 <screenMainSettingInit+0x864>
    4168:	00800044 	movi	r2,1
    416c:	00000106 	br	4174 <screenMainSettingInit+0x868>
    4170:	0005883a 	mov	r2,zero
    4174:	e0bfe405 	stb	r2,-112(fp)
    4178:	e0bfe403 	ldbu	r2,-112(fp)
    417c:	1080004c 	andi	r2,r2,1
    4180:	e0bfe405 	stb	r2,-112(fp)

	//闹钟的"分"(默认为0分)
	short alarmMinuteMarginXL = staticTag1XMax + tag1NumHourSpacingX + numEditGrpWidth + numHourNumMinuteSpacingX;
    4184:	e0ffec0b 	ldhu	r3,-80(fp)
    4188:	e0bff20b 	ldhu	r2,-56(fp)
    418c:	1885883a 	add	r2,r3,r2
    4190:	1007883a 	mov	r3,r2
    4194:	e0bff10b 	ldhu	r2,-60(fp)
    4198:	1885883a 	add	r2,r3,r2
    419c:	1007883a 	mov	r3,r2
    41a0:	e0bff28b 	ldhu	r2,-54(fp)
    41a4:	1885883a 	add	r2,r3,r2
    41a8:	e0bff40d 	sth	r2,-48(fp)
	status = status && setAreaRange( &(scrSettingInst->editAlarmMinuteArea), alarmMinuteMarginXL+1, alarmMinuteMarginXL+numEditGrpWidth, \
    41ac:	e0bfe403 	ldbu	r2,-112(fp)
    41b0:	10002426 	beq	r2,zero,4244 <screenMainSettingInit+0x938>
    41b4:	e0bffd17 	ldw	r2,-12(fp)
    41b8:	11003904 	addi	r4,r2,228
    41bc:	e0bff40b 	ldhu	r2,-48(fp)
    41c0:	10800044 	addi	r2,r2,1
    41c4:	117fffcc 	andi	r5,r2,65535
    41c8:	2960001c 	xori	r5,r5,32768
    41cc:	29600004 	addi	r5,r5,-32768
    41d0:	e0fff40b 	ldhu	r3,-48(fp)
    41d4:	e0bff10b 	ldhu	r2,-60(fp)
    41d8:	1885883a 	add	r2,r3,r2
    41dc:	11bfffcc 	andi	r6,r2,65535
    41e0:	31a0001c 	xori	r6,r6,32768
    41e4:	31a00004 	addi	r6,r6,-32768
    41e8:	e0bfe60b 	ldhu	r2,-104(fp)
    41ec:	e0fff18f 	ldh	r3,-58(fp)
    41f0:	1807d07a 	srai	r3,r3,1
    41f4:	10c5c83a 	sub	r2,r2,r3
    41f8:	10800044 	addi	r2,r2,1
    41fc:	10ffffcc 	andi	r3,r2,65535
    4200:	18e0001c 	xori	r3,r3,32768
    4204:	18e00004 	addi	r3,r3,-32768
    4208:	e0bff18f 	ldh	r2,-58(fp)
    420c:	1005d07a 	srai	r2,r2,1
    4210:	100f883a 	mov	r7,r2
    4214:	e0bfe60b 	ldhu	r2,-104(fp)
    4218:	3885883a 	add	r2,r7,r2
    421c:	10bfffcc 	andi	r2,r2,65535
    4220:	10a0001c 	xori	r2,r2,32768
    4224:	10a00004 	addi	r2,r2,-32768
    4228:	d8800015 	stw	r2,0(sp)
    422c:	180f883a 	mov	r7,r3
    4230:	000044c0 	call	44c <setAreaRange>
    4234:	10803fcc 	andi	r2,r2,255
    4238:	10000226 	beq	r2,zero,4244 <screenMainSettingInit+0x938>
    423c:	00800044 	movi	r2,1
    4240:	00000106 	br	4248 <screenMainSettingInit+0x93c>
    4244:	0005883a 	mov	r2,zero
    4248:	e0bfe405 	stb	r2,-112(fp)
    424c:	e0bfe403 	ldbu	r2,-112(fp)
    4250:	1080004c 	andi	r2,r2,1
    4254:	e0bfe405 	stb	r2,-112(fp)
				tag1CenterY - (numEditGrpHeight>>1)+1, tag1CenterY + (numEditGrpHeight>>1) );
	status = status && setDefaultNumEditGroup( &(scrSettingInst->editAlarmMinute), numEditGrpWidth, numEditGrpHeight, 59, 0, 0, "分" );
    4258:	e0bfe403 	ldbu	r2,-112(fp)
    425c:	10001026 	beq	r2,zero,42a0 <screenMainSettingInit+0x994>
    4260:	e0bffd17 	ldw	r2,-12(fp)
    4264:	11003b04 	addi	r4,r2,236
    4268:	e17ff10f 	ldh	r5,-60(fp)
    426c:	e0fff18f 	ldh	r3,-58(fp)
    4270:	d8000015 	stw	zero,0(sp)
    4274:	d8000115 	stw	zero,4(sp)
    4278:	00800374 	movhi	r2,13
    427c:	1082a804 	addi	r2,r2,2720
    4280:	d8800215 	stw	r2,8(sp)
    4284:	180d883a 	mov	r6,r3
    4288:	01c00ec4 	movi	r7,59
    428c:	00019ac0 	call	19ac <setDefaultNumEditGroup>
    4290:	10803fcc 	andi	r2,r2,255
    4294:	10000226 	beq	r2,zero,42a0 <screenMainSettingInit+0x994>
    4298:	00800044 	movi	r2,1
    429c:	00000106 	br	42a4 <screenMainSettingInit+0x998>
    42a0:	0005883a 	mov	r2,zero
    42a4:	e0bfe405 	stb	r2,-112(fp)
    42a8:	e0bfe403 	ldbu	r2,-112(fp)
    42ac:	1080004c 	andi	r2,r2,1
    42b0:	e0bfe405 	stb	r2,-112(fp)

	//自动翻页定时的"秒"(默认为8秒)
	short trunPageSecMarginXL = staticTag2XMax+tag2NumSecondSpacingX;
    42b4:	e0ffed8b 	ldhu	r3,-74(fp)
    42b8:	e0bff30b 	ldhu	r2,-52(fp)
    42bc:	1885883a 	add	r2,r3,r2
    42c0:	e0bff48d 	sth	r2,-46(fp)
	status = status && setAreaRange( &(scrSettingInst->editTurnPageSecArea), trunPageSecMarginXL+1, trunPageSecMarginXL+numEditGrpWidth, \
    42c4:	e0bfe403 	ldbu	r2,-112(fp)
    42c8:	10002426 	beq	r2,zero,435c <screenMainSettingInit+0xa50>
    42cc:	e0bffd17 	ldw	r2,-12(fp)
    42d0:	1100be04 	addi	r4,r2,760
    42d4:	e0bff48b 	ldhu	r2,-46(fp)
    42d8:	10800044 	addi	r2,r2,1
    42dc:	117fffcc 	andi	r5,r2,65535
    42e0:	2960001c 	xori	r5,r5,32768
    42e4:	29600004 	addi	r5,r5,-32768
    42e8:	e0fff48b 	ldhu	r3,-46(fp)
    42ec:	e0bff10b 	ldhu	r2,-60(fp)
    42f0:	1885883a 	add	r2,r3,r2
    42f4:	11bfffcc 	andi	r6,r2,65535
    42f8:	31a0001c 	xori	r6,r6,32768
    42fc:	31a00004 	addi	r6,r6,-32768
    4300:	e0bfea0b 	ldhu	r2,-88(fp)
    4304:	e0fff18f 	ldh	r3,-58(fp)
    4308:	1807d07a 	srai	r3,r3,1
    430c:	10c5c83a 	sub	r2,r2,r3
    4310:	10800044 	addi	r2,r2,1
    4314:	10ffffcc 	andi	r3,r2,65535
    4318:	18e0001c 	xori	r3,r3,32768
    431c:	18e00004 	addi	r3,r3,-32768
    4320:	e0bff18f 	ldh	r2,-58(fp)
    4324:	1005d07a 	srai	r2,r2,1
    4328:	100f883a 	mov	r7,r2
    432c:	e0bfea0b 	ldhu	r2,-88(fp)
    4330:	3885883a 	add	r2,r7,r2
    4334:	10bfffcc 	andi	r2,r2,65535
    4338:	10a0001c 	xori	r2,r2,32768
    433c:	10a00004 	addi	r2,r2,-32768
    4340:	d8800015 	stw	r2,0(sp)
    4344:	180f883a 	mov	r7,r3
    4348:	000044c0 	call	44c <setAreaRange>
    434c:	10803fcc 	andi	r2,r2,255
    4350:	10000226 	beq	r2,zero,435c <screenMainSettingInit+0xa50>
    4354:	00800044 	movi	r2,1
    4358:	00000106 	br	4360 <screenMainSettingInit+0xa54>
    435c:	0005883a 	mov	r2,zero
    4360:	e0bfe405 	stb	r2,-112(fp)
    4364:	e0bfe403 	ldbu	r2,-112(fp)
    4368:	1080004c 	andi	r2,r2,1
    436c:	e0bfe405 	stb	r2,-112(fp)
				tag2CenterY - (numEditGrpHeight>>1)+1, tag2CenterY + (numEditGrpHeight>>1) );
	status = status && setDefaultNumEditGroup( &(scrSettingInst->editTurnPageSec), numEditGrpWidth, numEditGrpHeight, 30, 0, 8, "秒" );
    4370:	e0bfe403 	ldbu	r2,-112(fp)
    4374:	10001126 	beq	r2,zero,43bc <screenMainSettingInit+0xab0>
    4378:	e0bffd17 	ldw	r2,-12(fp)
    437c:	1100c004 	addi	r4,r2,768
    4380:	e17ff10f 	ldh	r5,-60(fp)
    4384:	e0fff18f 	ldh	r3,-58(fp)
    4388:	d8000015 	stw	zero,0(sp)
    438c:	00800204 	movi	r2,8
    4390:	d8800115 	stw	r2,4(sp)
    4394:	00800374 	movhi	r2,13
    4398:	1082a904 	addi	r2,r2,2724
    439c:	d8800215 	stw	r2,8(sp)
    43a0:	180d883a 	mov	r6,r3
    43a4:	01c00784 	movi	r7,30
    43a8:	00019ac0 	call	19ac <setDefaultNumEditGroup>
    43ac:	10803fcc 	andi	r2,r2,255
    43b0:	10000226 	beq	r2,zero,43bc <screenMainSettingInit+0xab0>
    43b4:	00800044 	movi	r2,1
    43b8:	00000106 	br	43c0 <screenMainSettingInit+0xab4>
    43bc:	0005883a 	mov	r2,zero
    43c0:	e0bfe405 	stb	r2,-112(fp)
    43c4:	e0bfe403 	ldbu	r2,-112(fp)
    43c8:	1080004c 	andi	r2,r2,1
    43cc:	e0bfe405 	stb	r2,-112(fp)


	return status;
    43d0:	e0bfe403 	ldbu	r2,-112(fp)
}
    43d4:	e037883a 	mov	sp,fp
    43d8:	dfc00117 	ldw	ra,4(sp)
    43dc:	df000017 	ldw	fp,0(sp)
    43e0:	dec00204 	addi	sp,sp,8
    43e4:	f800283a 	ret

000043e8 <screenMainColorPickerInit>:
bool screenMainColorPickerInit( ScreenColorPicker *scrColorPickerInst, short width, short height )
{
    43e8:	defff904 	addi	sp,sp,-28
    43ec:	dfc00615 	stw	ra,24(sp)
    43f0:	df000515 	stw	fp,20(sp)
    43f4:	df000504 	addi	fp,sp,20
    43f8:	e13ffd15 	stw	r4,-12(fp)
    43fc:	2807883a 	mov	r3,r5
    4400:	3005883a 	mov	r2,r6
    4404:	e0fffe0d 	sth	r3,-8(fp)
    4408:	e0bfff0d 	sth	r2,-4(fp)
	scrColorPickerInst->bkgBorderColor = defaultColorInfo;
    440c:	e0bffd17 	ldw	r2,-12(fp)
    4410:	d0e0040b 	ldhu	r3,-32752(gp)
    4414:	10c0000d 	sth	r3,0(r2)
    4418:	d0e00484 	addi	r3,gp,-32750
    441c:	18c0000b 	ldhu	r3,0(r3)
    4420:	10c0008d 	sth	r3,2(r2)
    4424:	d0e00504 	addi	r3,gp,-32748
    4428:	18c0000b 	ldhu	r3,0(r3)
    442c:	10c0010d 	sth	r3,4(r2)
    4430:	d0e00584 	addi	r3,gp,-32746
    4434:	18c0000b 	ldhu	r3,0(r3)
    4438:	10c0018d 	sth	r3,6(r2)


	bool status = true;
    443c:	00800044 	movi	r2,1
    4440:	e0bffc05 	stb	r2,-16(fp)
	if ( height < width )
    4444:	e0ffff0f 	ldh	r3,-4(fp)
    4448:	e0bffe0f 	ldh	r2,-8(fp)
    444c:	1880010e 	bge	r3,r2,4454 <screenMainColorPickerInit+0x6c>
	{
		status = false;
    4450:	e03ffc05 	stb	zero,-16(fp)
	}
	short marginYU = (height-width) >> 1;//上边距
    4454:	e0ffff0f 	ldh	r3,-4(fp)
    4458:	e0bffe0f 	ldh	r2,-8(fp)
    445c:	1885c83a 	sub	r2,r3,r2
    4460:	1005d07a 	srai	r2,r2,1
    4464:	e0bffc8d 	sth	r2,-14(fp)

	status = status && setAreaRange( &(scrColorPickerInst->colorPickerArea), 1, width, marginYU + 1, height - marginYU );
    4468:	e0bffc03 	ldbu	r2,-16(fp)
    446c:	10001526 	beq	r2,zero,44c4 <screenMainColorPickerInit+0xdc>
    4470:	e0bffd17 	ldw	r2,-12(fp)
    4474:	11000204 	addi	r4,r2,8
    4478:	e1bffe0f 	ldh	r6,-8(fp)
    447c:	e0bffc8b 	ldhu	r2,-14(fp)
    4480:	10800044 	addi	r2,r2,1
    4484:	11ffffcc 	andi	r7,r2,65535
    4488:	39e0001c 	xori	r7,r7,32768
    448c:	39e00004 	addi	r7,r7,-32768
    4490:	e0ffff0b 	ldhu	r3,-4(fp)
    4494:	e0bffc8b 	ldhu	r2,-14(fp)
    4498:	1885c83a 	sub	r2,r3,r2
    449c:	10bfffcc 	andi	r2,r2,65535
    44a0:	10a0001c 	xori	r2,r2,32768
    44a4:	10a00004 	addi	r2,r2,-32768
    44a8:	d8800015 	stw	r2,0(sp)
    44ac:	01400044 	movi	r5,1
    44b0:	000044c0 	call	44c <setAreaRange>
    44b4:	10803fcc 	andi	r2,r2,255
    44b8:	10000226 	beq	r2,zero,44c4 <screenMainColorPickerInit+0xdc>
    44bc:	00800044 	movi	r2,1
    44c0:	00000106 	br	44c8 <screenMainColorPickerInit+0xe0>
    44c4:	0005883a 	mov	r2,zero
    44c8:	e0bffc05 	stb	r2,-16(fp)
    44cc:	e0bffc03 	ldbu	r2,-16(fp)
    44d0:	1080004c 	andi	r2,r2,1
    44d4:	e0bffc05 	stb	r2,-16(fp)

	setDefaultColorBoard( &(scrColorPickerInst->colorPicker), (void*)0, width, width );
    44d8:	e0bffd17 	ldw	r2,-12(fp)
    44dc:	11000404 	addi	r4,r2,16
    44e0:	e0fffe0f 	ldh	r3,-8(fp)
    44e4:	e0bffe0f 	ldh	r2,-8(fp)
    44e8:	000b883a 	mov	r5,zero
    44ec:	180d883a 	mov	r6,r3
    44f0:	100f883a 	mov	r7,r2
    44f4:	000144c0 	call	144c <setDefaultColorBoard>

	return status;
    44f8:	e0bffc03 	ldbu	r2,-16(fp)
}
    44fc:	e037883a 	mov	sp,fp
    4500:	dfc00117 	ldw	ra,4(sp)
    4504:	df000017 	ldw	fp,0(sp)
    4508:	dec00204 	addi	sp,sp,8
    450c:	f800283a 	ret

00004510 <screenMainAreaInfo>:

void screenMainAreaInfo( ScrMainAreaInfo *mainAreaInfoInst )
{
    4510:	defffd04 	addi	sp,sp,-12
    4514:	df000215 	stw	fp,8(sp)
    4518:	df000204 	addi	fp,sp,8
    451c:	e13fff15 	stw	r4,-4(fp)
	//设置当前页面为第一页
	mainAreaInfoInst->curScrIndex = 0;
    4520:	e0bfff17 	ldw	r2,-4(fp)
    4524:	1000040d 	sth	zero,16(r2)
	//设置第一页为主页
	(mainAreaInfoInst->scrIDStack)[0] = SCR_HOME;
    4528:	e0bfff17 	ldw	r2,-4(fp)
    452c:	00c00044 	movi	r3,1
    4530:	10c00015 	stw	r3,0(r2)
	//清空后面的栈页（即后面不存在栈页）
	int i;
	for ( i = 1; i < 4; i ++ )
    4534:	00800044 	movi	r2,1
    4538:	e0bffe15 	stw	r2,-8(fp)
    453c:	00000906 	br	4564 <screenMainAreaInfo+0x54>
	{
		(mainAreaInfoInst->scrIDStack)[i] = SCR_NONE;
    4540:	e0ffff17 	ldw	r3,-4(fp)
    4544:	e0bffe17 	ldw	r2,-8(fp)
    4548:	1085883a 	add	r2,r2,r2
    454c:	1085883a 	add	r2,r2,r2
    4550:	1885883a 	add	r2,r3,r2
    4554:	10000015 	stw	zero,0(r2)
	mainAreaInfoInst->curScrIndex = 0;
	//设置第一页为主页
	(mainAreaInfoInst->scrIDStack)[0] = SCR_HOME;
	//清空后面的栈页（即后面不存在栈页）
	int i;
	for ( i = 1; i < 4; i ++ )
    4558:	e0bffe17 	ldw	r2,-8(fp)
    455c:	10800044 	addi	r2,r2,1
    4560:	e0bffe15 	stw	r2,-8(fp)
    4564:	e0bffe17 	ldw	r2,-8(fp)
    4568:	10800110 	cmplti	r2,r2,4
    456c:	103ff41e 	bne	r2,zero,4540 <__alt_data_end+0xf8004540>
	{
		(mainAreaInfoInst->scrIDStack)[i] = SCR_NONE;
	}
}
    4570:	e037883a 	mov	sp,fp
    4574:	df000017 	ldw	fp,0(sp)
    4578:	dec00104 	addi	sp,sp,4
    457c:	f800283a 	ret

00004580 <getAbsPos>:
//该数组用于临时测试屏幕显示效果，最后的工程会删除该数组
color_u16 screenShowSpace[SCR_HEIGHT][SCR_WIDTH];

//获取新的绝对位置
void getAbsPos( const AreaRange *baseAbsPos, const AreaRange *relativePos, AreaRange *newAbsPos )
{
    4580:	defffc04 	addi	sp,sp,-16
    4584:	df000315 	stw	fp,12(sp)
    4588:	df000304 	addi	fp,sp,12
    458c:	e13ffd15 	stw	r4,-12(fp)
    4590:	e17ffe15 	stw	r5,-8(fp)
    4594:	e1bfff15 	stw	r6,-4(fp)
	newAbsPos->x_min = baseAbsPos->x_min + relativePos->x_min - 1;
    4598:	e0bffd17 	ldw	r2,-12(fp)
    459c:	1080000b 	ldhu	r2,0(r2)
    45a0:	1007883a 	mov	r3,r2
    45a4:	e0bffe17 	ldw	r2,-8(fp)
    45a8:	1080000b 	ldhu	r2,0(r2)
    45ac:	1885883a 	add	r2,r3,r2
    45b0:	10bfffc4 	addi	r2,r2,-1
    45b4:	1007883a 	mov	r3,r2
    45b8:	e0bfff17 	ldw	r2,-4(fp)
    45bc:	10c0000d 	sth	r3,0(r2)
	newAbsPos->x_max = baseAbsPos->x_min + relativePos->x_max - 1;
    45c0:	e0bffd17 	ldw	r2,-12(fp)
    45c4:	1080000b 	ldhu	r2,0(r2)
    45c8:	1007883a 	mov	r3,r2
    45cc:	e0bffe17 	ldw	r2,-8(fp)
    45d0:	1080008b 	ldhu	r2,2(r2)
    45d4:	1885883a 	add	r2,r3,r2
    45d8:	10bfffc4 	addi	r2,r2,-1
    45dc:	1007883a 	mov	r3,r2
    45e0:	e0bfff17 	ldw	r2,-4(fp)
    45e4:	10c0008d 	sth	r3,2(r2)
	newAbsPos->y_min = baseAbsPos->y_min + relativePos->y_min - 1;
    45e8:	e0bffd17 	ldw	r2,-12(fp)
    45ec:	1080010b 	ldhu	r2,4(r2)
    45f0:	1007883a 	mov	r3,r2
    45f4:	e0bffe17 	ldw	r2,-8(fp)
    45f8:	1080010b 	ldhu	r2,4(r2)
    45fc:	1885883a 	add	r2,r3,r2
    4600:	10bfffc4 	addi	r2,r2,-1
    4604:	1007883a 	mov	r3,r2
    4608:	e0bfff17 	ldw	r2,-4(fp)
    460c:	10c0010d 	sth	r3,4(r2)
	newAbsPos->y_max = baseAbsPos->y_min + relativePos->y_max - 1;
    4610:	e0bffd17 	ldw	r2,-12(fp)
    4614:	1080010b 	ldhu	r2,4(r2)
    4618:	1007883a 	mov	r3,r2
    461c:	e0bffe17 	ldw	r2,-8(fp)
    4620:	1080018b 	ldhu	r2,6(r2)
    4624:	1885883a 	add	r2,r3,r2
    4628:	10bfffc4 	addi	r2,r2,-1
    462c:	1007883a 	mov	r3,r2
    4630:	e0bfff17 	ldw	r2,-4(fp)
    4634:	10c0018d 	sth	r3,6(r2)
}
    4638:	e037883a 	mov	sp,fp
    463c:	df000017 	ldw	fp,0(sp)
    4640:	dec00104 	addi	sp,sp,4
    4644:	f800283a 	ret

00004648 <getXVaildRange>:

//获取x方向的区域定位数组(返回数组大小）
short getXVaildRange( const char areaOccurInfo[], const AreaRange exceptAreaArray[], const short exceptAreaNum, \
		short *xMinArray, short *xMaxArray, const short width )
{
    4648:	defff304 	addi	sp,sp,-52
    464c:	dfc00c15 	stw	ra,48(sp)
    4650:	df000b15 	stw	fp,44(sp)
    4654:	df000b04 	addi	fp,sp,44
    4658:	e13ffb15 	stw	r4,-20(fp)
    465c:	e17ffc15 	stw	r5,-16(fp)
    4660:	3007883a 	mov	r3,r6
    4664:	e1fffe15 	stw	r7,-8(fp)
    4668:	e0800317 	ldw	r2,12(fp)
    466c:	e0fffd0d 	sth	r3,-12(fp)
    4670:	e0bfff0d 	sth	r2,-4(fp)

	char *exceptXposInRow = (char*)malloc( sizeof(char) * (width+1) );
    4674:	e0bfff0f 	ldh	r2,-4(fp)
    4678:	10800044 	addi	r2,r2,1
    467c:	1009883a 	mov	r4,r2
    4680:	0008a580 	call	8a58 <malloc>
    4684:	e0bff815 	stw	r2,-32(fp)

	int i;
	for ( i = 0; i < width; i ++ )
    4688:	e03ff515 	stw	zero,-44(fp)
    468c:	00000806 	br	46b0 <getXVaildRange+0x68>
	{
		exceptXposInRow[i] = 'b';
    4690:	e0bff517 	ldw	r2,-44(fp)
    4694:	e0fff817 	ldw	r3,-32(fp)
    4698:	1885883a 	add	r2,r3,r2
    469c:	00c01884 	movi	r3,98
    46a0:	10c00005 	stb	r3,0(r2)
{

	char *exceptXposInRow = (char*)malloc( sizeof(char) * (width+1) );

	int i;
	for ( i = 0; i < width; i ++ )
    46a4:	e0bff517 	ldw	r2,-44(fp)
    46a8:	10800044 	addi	r2,r2,1
    46ac:	e0bff515 	stw	r2,-44(fp)
    46b0:	e0bfff0f 	ldh	r2,-4(fp)
    46b4:	e0fff517 	ldw	r3,-44(fp)
    46b8:	18bff516 	blt	r3,r2,4690 <__alt_data_end+0xf8004690>
	{
		exceptXposInRow[i] = 'b';
	}
	exceptXposInRow[width] = 'e';
    46bc:	e0bfff0f 	ldh	r2,-4(fp)
    46c0:	e0fff817 	ldw	r3,-32(fp)
    46c4:	1885883a 	add	r2,r3,r2
    46c8:	00c01944 	movi	r3,101
    46cc:	10c00005 	stb	r3,0(r2)
	short xPos;
	const AreaRange *curExceptArea;
	for ( i = 0; i < exceptAreaNum; i ++ )
    46d0:	e03ff515 	stw	zero,-44(fp)
    46d4:	00002806 	br	4778 <getXVaildRange+0x130>
	{
		if ( areaOccurInfo[i] == 'e' )
    46d8:	e0bff517 	ldw	r2,-44(fp)
    46dc:	e0fffb17 	ldw	r3,-20(fp)
    46e0:	1885883a 	add	r2,r3,r2
    46e4:	10800003 	ldbu	r2,0(r2)
    46e8:	10803fcc 	andi	r2,r2,255
    46ec:	1080201c 	xori	r2,r2,128
    46f0:	10bfe004 	addi	r2,r2,-128
    46f4:	10801958 	cmpnei	r2,r2,101
    46f8:	10001c1e 	bne	r2,zero,476c <getXVaildRange+0x124>
		{
			curExceptArea = &(exceptAreaArray[i]);
    46fc:	e0bff517 	ldw	r2,-44(fp)
    4700:	100490fa 	slli	r2,r2,3
    4704:	e0fffc17 	ldw	r3,-16(fp)
    4708:	1885883a 	add	r2,r3,r2
    470c:	e0bff915 	stw	r2,-28(fp)

			for ( xPos = curExceptArea->x_min; xPos <= curExceptArea->x_max && xPos <= width; xPos ++ )
    4710:	e0bff917 	ldw	r2,-28(fp)
    4714:	1080000b 	ldhu	r2,0(r2)
    4718:	e0bff60d 	sth	r2,-40(fp)
    471c:	00000906 	br	4744 <getXVaildRange+0xfc>
			{
				exceptXposInRow[xPos-1] = 'e';//对非背景像素做作标记
    4720:	e0bff60f 	ldh	r2,-40(fp)
    4724:	10bfffc4 	addi	r2,r2,-1
    4728:	e0fff817 	ldw	r3,-32(fp)
    472c:	1885883a 	add	r2,r3,r2
    4730:	00c01944 	movi	r3,101
    4734:	10c00005 	stb	r3,0(r2)
	{
		if ( areaOccurInfo[i] == 'e' )
		{
			curExceptArea = &(exceptAreaArray[i]);

			for ( xPos = curExceptArea->x_min; xPos <= curExceptArea->x_max && xPos <= width; xPos ++ )
    4738:	e0bff60b 	ldhu	r2,-40(fp)
    473c:	10800044 	addi	r2,r2,1
    4740:	e0bff60d 	sth	r2,-40(fp)
    4744:	e0bff917 	ldw	r2,-28(fp)
    4748:	1080008b 	ldhu	r2,2(r2)
    474c:	10ffffcc 	andi	r3,r2,65535
    4750:	18e0001c 	xori	r3,r3,32768
    4754:	18e00004 	addi	r3,r3,-32768
    4758:	e0bff60f 	ldh	r2,-40(fp)
    475c:	18800316 	blt	r3,r2,476c <getXVaildRange+0x124>
    4760:	e0bff60f 	ldh	r2,-40(fp)
    4764:	e0ffff0f 	ldh	r3,-4(fp)
    4768:	18bfed0e 	bge	r3,r2,4720 <__alt_data_end+0xf8004720>
		exceptXposInRow[i] = 'b';
	}
	exceptXposInRow[width] = 'e';
	short xPos;
	const AreaRange *curExceptArea;
	for ( i = 0; i < exceptAreaNum; i ++ )
    476c:	e0bff517 	ldw	r2,-44(fp)
    4770:	10800044 	addi	r2,r2,1
    4774:	e0bff515 	stw	r2,-44(fp)
    4778:	e0bffd0f 	ldh	r2,-12(fp)
    477c:	e0fff517 	ldw	r3,-44(fp)
    4780:	18bfd516 	blt	r3,r2,46d8 <__alt_data_end+0xf80046d8>
			{
				exceptXposInRow[xPos-1] = 'e';//对非背景像素做作标记
			}
		}
	}
	short rangeIndex = 0;
    4784:	e03ff68d 	sth	zero,-38(fp)

	char preRowXType = 'e';
    4788:	00801944 	movi	r2,101
    478c:	e0bff705 	stb	r2,-36(fp)
	char curRowXType;
	for ( xPos = 1; xPos <= width + 1; xPos ++ )
    4790:	00800044 	movi	r2,1
    4794:	e0bff60d 	sth	r2,-40(fp)
    4798:	00002706 	br	4838 <getXVaildRange+0x1f0>
	{
		curRowXType = exceptXposInRow[xPos-1];
    479c:	e0bff60f 	ldh	r2,-40(fp)
    47a0:	10bfffc4 	addi	r2,r2,-1
    47a4:	e0fff817 	ldw	r3,-32(fp)
    47a8:	1885883a 	add	r2,r3,r2
    47ac:	10800003 	ldbu	r2,0(r2)
    47b0:	e0bffa05 	stb	r2,-24(fp)
		if ( curRowXType == 'b' )//当前为背景区
    47b4:	e0bffa07 	ldb	r2,-24(fp)
    47b8:	10801898 	cmpnei	r2,r2,98
    47bc:	10000b1e 	bne	r2,zero,47ec <getXVaildRange+0x1a4>
		{
			if ( preRowXType == 'e' )//前面为非背景区
    47c0:	e0bff707 	ldb	r2,-36(fp)
    47c4:	10801958 	cmpnei	r2,r2,101
    47c8:	1000161e 	bne	r2,zero,4824 <getXVaildRange+0x1dc>
			{
				xMinArray[rangeIndex] = xPos;
    47cc:	e0bff68f 	ldh	r2,-38(fp)
    47d0:	1085883a 	add	r2,r2,r2
    47d4:	1007883a 	mov	r3,r2
    47d8:	e0bffe17 	ldw	r2,-8(fp)
    47dc:	10c5883a 	add	r2,r2,r3
    47e0:	e0fff60b 	ldhu	r3,-40(fp)
    47e4:	10c0000d 	sth	r3,0(r2)
    47e8:	00000e06 	br	4824 <getXVaildRange+0x1dc>
			}
		}
		else//当前为非背景区
		{
			if ( preRowXType == 'b' )//前面为背景区
    47ec:	e0bff707 	ldb	r2,-36(fp)
    47f0:	10801898 	cmpnei	r2,r2,98
    47f4:	10000b1e 	bne	r2,zero,4824 <getXVaildRange+0x1dc>
			{
				xMinArray[rangeIndex] = xPos - 1;
    47f8:	e0bff68f 	ldh	r2,-38(fp)
    47fc:	1085883a 	add	r2,r2,r2
    4800:	1007883a 	mov	r3,r2
    4804:	e0bffe17 	ldw	r2,-8(fp)
    4808:	10c5883a 	add	r2,r2,r3
    480c:	e0fff60b 	ldhu	r3,-40(fp)
    4810:	18ffffc4 	addi	r3,r3,-1
    4814:	10c0000d 	sth	r3,0(r2)
				rangeIndex ++;
    4818:	e0bff68b 	ldhu	r2,-38(fp)
    481c:	10800044 	addi	r2,r2,1
    4820:	e0bff68d 	sth	r2,-38(fp)
			}
		}

		preRowXType = curRowXType;
    4824:	e0bffa03 	ldbu	r2,-24(fp)
    4828:	e0bff705 	stb	r2,-36(fp)
	}
	short rangeIndex = 0;

	char preRowXType = 'e';
	char curRowXType;
	for ( xPos = 1; xPos <= width + 1; xPos ++ )
    482c:	e0bff60b 	ldhu	r2,-40(fp)
    4830:	10800044 	addi	r2,r2,1
    4834:	e0bff60d 	sth	r2,-40(fp)
    4838:	e0bff60f 	ldh	r2,-40(fp)
    483c:	e0ffff0f 	ldh	r3,-4(fp)
    4840:	18c00044 	addi	r3,r3,1
    4844:	18bfd50e 	bge	r3,r2,479c <__alt_data_end+0xf800479c>
		}

		preRowXType = curRowXType;
	}

	return rangeIndex;
    4848:	e0bff68b 	ldhu	r2,-38(fp)
}
    484c:	e037883a 	mov	sp,fp
    4850:	dfc00117 	ldw	ra,4(sp)
    4854:	df000017 	ldw	fp,0(sp)
    4858:	dec00204 	addi	sp,sp,8
    485c:	f800283a 	ret

00004860 <showBorder>:

//画边界(就是画个长方形的边)
bool showBorder( const AreaRange *borderAbsPos, color_u16 borderColor )
{
    4860:	defffb04 	addi	sp,sp,-20
    4864:	df000415 	stw	fp,16(sp)
    4868:	df000404 	addi	fp,sp,16
    486c:	e13ffe15 	stw	r4,-8(fp)
    4870:	2805883a 	mov	r2,r5
    4874:	e0bfff0d 	sth	r2,-4(fp)
	if ( borderAbsPos->x_min > borderAbsPos->x_max || borderAbsPos->y_min > borderAbsPos->y_max )
    4878:	e0bffe17 	ldw	r2,-8(fp)
    487c:	1100000b 	ldhu	r4,0(r2)
    4880:	e0bffe17 	ldw	r2,-8(fp)
    4884:	10c0008b 	ldhu	r3,2(r2)
    4888:	20bfffcc 	andi	r2,r4,65535
    488c:	10a0001c 	xori	r2,r2,32768
    4890:	10a00004 	addi	r2,r2,-32768
    4894:	18ffffcc 	andi	r3,r3,65535
    4898:	18e0001c 	xori	r3,r3,32768
    489c:	18e00004 	addi	r3,r3,-32768
    48a0:	18800b16 	blt	r3,r2,48d0 <showBorder+0x70>
    48a4:	e0bffe17 	ldw	r2,-8(fp)
    48a8:	1100010b 	ldhu	r4,4(r2)
    48ac:	e0bffe17 	ldw	r2,-8(fp)
    48b0:	10c0018b 	ldhu	r3,6(r2)
    48b4:	20bfffcc 	andi	r2,r4,65535
    48b8:	10a0001c 	xori	r2,r2,32768
    48bc:	10a00004 	addi	r2,r2,-32768
    48c0:	18ffffcc 	andi	r3,r3,65535
    48c4:	18e0001c 	xori	r3,r3,32768
    48c8:	18e00004 	addi	r3,r3,-32768
    48cc:	1880020e 	bge	r3,r2,48d8 <showBorder+0x78>
	{
		return false;
    48d0:	0005883a 	mov	r2,zero
    48d4:	00008f06 	br	4b14 <showBorder+0x2b4>
	}

	int xPos, yPos;
	//横向
	yPos = borderAbsPos->y_min;
    48d8:	e0bffe17 	ldw	r2,-8(fp)
    48dc:	1080010b 	ldhu	r2,4(r2)
    48e0:	10bfffcc 	andi	r2,r2,65535
    48e4:	10a0001c 	xori	r2,r2,32768
    48e8:	10a00004 	addi	r2,r2,-32768
    48ec:	e0bffd15 	stw	r2,-12(fp)
	//x方向的边界
	for ( xPos = borderAbsPos->x_min; xPos <= borderAbsPos->x_max; xPos ++ )
    48f0:	e0bffe17 	ldw	r2,-8(fp)
    48f4:	1080000b 	ldhu	r2,0(r2)
    48f8:	10bfffcc 	andi	r2,r2,65535
    48fc:	10a0001c 	xori	r2,r2,32768
    4900:	10a00004 	addi	r2,r2,-32768
    4904:	e0bffc15 	stw	r2,-16(fp)
    4908:	00000f06 	br	4948 <showBorder+0xe8>
	{
		screenShowSpace[yPos-1][xPos-1] = borderColor;
    490c:	e0bffd17 	ldw	r2,-12(fp)
    4910:	113fffc4 	addi	r4,r2,-1
    4914:	e0bffc17 	ldw	r2,-16(fp)
    4918:	10ffffc4 	addi	r3,r2,-1
    491c:	00800374 	movhi	r2,13
    4920:	1093f204 	addi	r2,r2,20424
    4924:	21005024 	muli	r4,r4,320
    4928:	20c7883a 	add	r3,r4,r3
    492c:	18c7883a 	add	r3,r3,r3
    4930:	10c5883a 	add	r2,r2,r3
    4934:	e0ffff0b 	ldhu	r3,-4(fp)
    4938:	10c0000d 	sth	r3,0(r2)

	int xPos, yPos;
	//横向
	yPos = borderAbsPos->y_min;
	//x方向的边界
	for ( xPos = borderAbsPos->x_min; xPos <= borderAbsPos->x_max; xPos ++ )
    493c:	e0bffc17 	ldw	r2,-16(fp)
    4940:	10800044 	addi	r2,r2,1
    4944:	e0bffc15 	stw	r2,-16(fp)
    4948:	e0bffe17 	ldw	r2,-8(fp)
    494c:	1080008b 	ldhu	r2,2(r2)
    4950:	10ffffcc 	andi	r3,r2,65535
    4954:	18e0001c 	xori	r3,r3,32768
    4958:	18e00004 	addi	r3,r3,-32768
    495c:	e0bffc17 	ldw	r2,-16(fp)
    4960:	18bfea0e 	bge	r3,r2,490c <__alt_data_end+0xf800490c>
	{
		screenShowSpace[yPos-1][xPos-1] = borderColor;
	}
	yPos = borderAbsPos->y_max;
    4964:	e0bffe17 	ldw	r2,-8(fp)
    4968:	1080018b 	ldhu	r2,6(r2)
    496c:	10bfffcc 	andi	r2,r2,65535
    4970:	10a0001c 	xori	r2,r2,32768
    4974:	10a00004 	addi	r2,r2,-32768
    4978:	e0bffd15 	stw	r2,-12(fp)
	for ( xPos = borderAbsPos->x_min; xPos <= borderAbsPos->x_max; xPos ++ )
    497c:	e0bffe17 	ldw	r2,-8(fp)
    4980:	1080000b 	ldhu	r2,0(r2)
    4984:	10bfffcc 	andi	r2,r2,65535
    4988:	10a0001c 	xori	r2,r2,32768
    498c:	10a00004 	addi	r2,r2,-32768
    4990:	e0bffc15 	stw	r2,-16(fp)
    4994:	00000f06 	br	49d4 <showBorder+0x174>
	{
		screenShowSpace[yPos-1][xPos-1] = borderColor;
    4998:	e0bffd17 	ldw	r2,-12(fp)
    499c:	113fffc4 	addi	r4,r2,-1
    49a0:	e0bffc17 	ldw	r2,-16(fp)
    49a4:	10ffffc4 	addi	r3,r2,-1
    49a8:	00800374 	movhi	r2,13
    49ac:	1093f204 	addi	r2,r2,20424
    49b0:	21005024 	muli	r4,r4,320
    49b4:	20c7883a 	add	r3,r4,r3
    49b8:	18c7883a 	add	r3,r3,r3
    49bc:	10c5883a 	add	r2,r2,r3
    49c0:	e0ffff0b 	ldhu	r3,-4(fp)
    49c4:	10c0000d 	sth	r3,0(r2)
	for ( xPos = borderAbsPos->x_min; xPos <= borderAbsPos->x_max; xPos ++ )
	{
		screenShowSpace[yPos-1][xPos-1] = borderColor;
	}
	yPos = borderAbsPos->y_max;
	for ( xPos = borderAbsPos->x_min; xPos <= borderAbsPos->x_max; xPos ++ )
    49c8:	e0bffc17 	ldw	r2,-16(fp)
    49cc:	10800044 	addi	r2,r2,1
    49d0:	e0bffc15 	stw	r2,-16(fp)
    49d4:	e0bffe17 	ldw	r2,-8(fp)
    49d8:	1080008b 	ldhu	r2,2(r2)
    49dc:	10ffffcc 	andi	r3,r2,65535
    49e0:	18e0001c 	xori	r3,r3,32768
    49e4:	18e00004 	addi	r3,r3,-32768
    49e8:	e0bffc17 	ldw	r2,-16(fp)
    49ec:	18bfea0e 	bge	r3,r2,4998 <__alt_data_end+0xf8004998>
	{
		screenShowSpace[yPos-1][xPos-1] = borderColor;
	}

	//y方向的边界
	xPos = borderAbsPos->x_min;
    49f0:	e0bffe17 	ldw	r2,-8(fp)
    49f4:	1080000b 	ldhu	r2,0(r2)
    49f8:	10bfffcc 	andi	r2,r2,65535
    49fc:	10a0001c 	xori	r2,r2,32768
    4a00:	10a00004 	addi	r2,r2,-32768
    4a04:	e0bffc15 	stw	r2,-16(fp)
	for ( yPos = borderAbsPos->y_min + 1; yPos < borderAbsPos->y_max; yPos ++ )
    4a08:	e0bffe17 	ldw	r2,-8(fp)
    4a0c:	1080010b 	ldhu	r2,4(r2)
    4a10:	10bfffcc 	andi	r2,r2,65535
    4a14:	10a0001c 	xori	r2,r2,32768
    4a18:	10a00004 	addi	r2,r2,-32768
    4a1c:	10800044 	addi	r2,r2,1
    4a20:	e0bffd15 	stw	r2,-12(fp)
    4a24:	00000f06 	br	4a64 <showBorder+0x204>
	{
		screenShowSpace[yPos-1][xPos-1] = borderColor;
    4a28:	e0bffd17 	ldw	r2,-12(fp)
    4a2c:	113fffc4 	addi	r4,r2,-1
    4a30:	e0bffc17 	ldw	r2,-16(fp)
    4a34:	10ffffc4 	addi	r3,r2,-1
    4a38:	00800374 	movhi	r2,13
    4a3c:	1093f204 	addi	r2,r2,20424
    4a40:	21005024 	muli	r4,r4,320
    4a44:	20c7883a 	add	r3,r4,r3
    4a48:	18c7883a 	add	r3,r3,r3
    4a4c:	10c5883a 	add	r2,r2,r3
    4a50:	e0ffff0b 	ldhu	r3,-4(fp)
    4a54:	10c0000d 	sth	r3,0(r2)
		screenShowSpace[yPos-1][xPos-1] = borderColor;
	}

	//y方向的边界
	xPos = borderAbsPos->x_min;
	for ( yPos = borderAbsPos->y_min + 1; yPos < borderAbsPos->y_max; yPos ++ )
    4a58:	e0bffd17 	ldw	r2,-12(fp)
    4a5c:	10800044 	addi	r2,r2,1
    4a60:	e0bffd15 	stw	r2,-12(fp)
    4a64:	e0bffe17 	ldw	r2,-8(fp)
    4a68:	1080018b 	ldhu	r2,6(r2)
    4a6c:	10bfffcc 	andi	r2,r2,65535
    4a70:	10a0001c 	xori	r2,r2,32768
    4a74:	10a00004 	addi	r2,r2,-32768
    4a78:	e0fffd17 	ldw	r3,-12(fp)
    4a7c:	18bfea16 	blt	r3,r2,4a28 <__alt_data_end+0xf8004a28>
	{
		screenShowSpace[yPos-1][xPos-1] = borderColor;
	}
	xPos = borderAbsPos->x_max;
    4a80:	e0bffe17 	ldw	r2,-8(fp)
    4a84:	1080008b 	ldhu	r2,2(r2)
    4a88:	10bfffcc 	andi	r2,r2,65535
    4a8c:	10a0001c 	xori	r2,r2,32768
    4a90:	10a00004 	addi	r2,r2,-32768
    4a94:	e0bffc15 	stw	r2,-16(fp)
	for ( yPos = borderAbsPos->y_min + 1; yPos < borderAbsPos->y_max; yPos ++ )
    4a98:	e0bffe17 	ldw	r2,-8(fp)
    4a9c:	1080010b 	ldhu	r2,4(r2)
    4aa0:	10bfffcc 	andi	r2,r2,65535
    4aa4:	10a0001c 	xori	r2,r2,32768
    4aa8:	10a00004 	addi	r2,r2,-32768
    4aac:	10800044 	addi	r2,r2,1
    4ab0:	e0bffd15 	stw	r2,-12(fp)
    4ab4:	00000f06 	br	4af4 <showBorder+0x294>
	{
		screenShowSpace[yPos-1][xPos-1] = borderColor;
    4ab8:	e0bffd17 	ldw	r2,-12(fp)
    4abc:	113fffc4 	addi	r4,r2,-1
    4ac0:	e0bffc17 	ldw	r2,-16(fp)
    4ac4:	10ffffc4 	addi	r3,r2,-1
    4ac8:	00800374 	movhi	r2,13
    4acc:	1093f204 	addi	r2,r2,20424
    4ad0:	21005024 	muli	r4,r4,320
    4ad4:	20c7883a 	add	r3,r4,r3
    4ad8:	18c7883a 	add	r3,r3,r3
    4adc:	10c5883a 	add	r2,r2,r3
    4ae0:	e0ffff0b 	ldhu	r3,-4(fp)
    4ae4:	10c0000d 	sth	r3,0(r2)
	for ( yPos = borderAbsPos->y_min + 1; yPos < borderAbsPos->y_max; yPos ++ )
	{
		screenShowSpace[yPos-1][xPos-1] = borderColor;
	}
	xPos = borderAbsPos->x_max;
	for ( yPos = borderAbsPos->y_min + 1; yPos < borderAbsPos->y_max; yPos ++ )
    4ae8:	e0bffd17 	ldw	r2,-12(fp)
    4aec:	10800044 	addi	r2,r2,1
    4af0:	e0bffd15 	stw	r2,-12(fp)
    4af4:	e0bffe17 	ldw	r2,-8(fp)
    4af8:	1080018b 	ldhu	r2,6(r2)
    4afc:	10bfffcc 	andi	r2,r2,65535
    4b00:	10a0001c 	xori	r2,r2,32768
    4b04:	10a00004 	addi	r2,r2,-32768
    4b08:	e0fffd17 	ldw	r3,-12(fp)
    4b0c:	18bfea16 	blt	r3,r2,4ab8 <__alt_data_end+0xf8004ab8>
	{
		screenShowSpace[yPos-1][xPos-1] = borderColor;
	}

	return true;
    4b10:	00800044 	movi	r2,1
}
    4b14:	e037883a 	mov	sp,fp
    4b18:	df000017 	ldw	fp,0(sp)
    4b1c:	dec00104 	addi	sp,sp,4
    4b20:	f800283a 	ret

00004b24 <showBkgAndBorder>:
//exceptAreaArray[]是非背景区域构成的数组， exceptAreaNum为数组元素个数
//exceptAreaArray[]格式为相对区域位置
//absPos为绝对位置

bool showBkgAndBorder( const ColorInfo *bkgBorderColor, const AreaRange *absPos, const AreaRange exceptAreaArray[], const short exceptAreaNum )
{
    4b24:	deffed04 	addi	sp,sp,-76
    4b28:	dfc01215 	stw	ra,72(sp)
    4b2c:	df001115 	stw	fp,68(sp)
    4b30:	df001104 	addi	fp,sp,68
    4b34:	e13ffc15 	stw	r4,-16(fp)
    4b38:	e17ffd15 	stw	r5,-12(fp)
    4b3c:	e1bffe15 	stw	r6,-8(fp)
    4b40:	3805883a 	mov	r2,r7
    4b44:	e0bfff0d 	sth	r2,-4(fp)
	bool status = true;
