
ebook_1.elf:     file format elf32-littlenios2
ebook_1.elf
architecture: nios2:r1, flags 0x00000112:
EXEC_P, HAS_SYMS, D_PAGED
start address 0x00000244

Program Header:
    LOAD off    0x00001000 vaddr 0x00000000 paddr 0x00000000 align 2**12
         filesz 0x00000020 memsz 0x00000020 flags r-x
    LOAD off    0x00001020 vaddr 0x00000020 paddr 0x00000020 align 2**12
         filesz 0x000cc108 memsz 0x000cc108 flags r-x
    LOAD off    0x000cd128 vaddr 0x000cc128 paddr 0x000cdd50 align 2**12
         filesz 0x00001c28 memsz 0x00001c28 flags rw-
    LOAD off    0x000cf978 vaddr 0x000cf978 paddr 0x000cf978 align 2**12
         filesz 0x00000000 memsz 0x00000db8 flags rw-

Sections:
Idx Name          Size      VMA       LMA       File off  Algn
  0 .entry        00000020  00000000  00000000  00001000  2**5
                  CONTENTS, ALLOC, LOAD, READONLY, CODE
  1 .exceptions   00000224  00000020  00000020  00001020  2**2
                  CONTENTS, ALLOC, LOAD, READONLY, CODE
  2 .text         00010270  00000244  00000244  00001244  2**2
                  CONTENTS, ALLOC, LOAD, READONLY, CODE
  3 .rodata       000bbc74  000104b4  000104b4  000114b4  2**2
                  CONTENTS, ALLOC, LOAD, READONLY, DATA
  4 .rwdata       00001c28  000cc128  000cdd50  000cd128  2**2
                  CONTENTS, ALLOC, LOAD, DATA, SMALL_DATA
  5 .bss          00000db8  000cf978  000cf978  000cf978  2**2
                  ALLOC, SMALL_DATA
  6 .sdram        00000000  000d0730  000d0730  000ced50  2**0
                  CONTENTS
  7 .sram         00000000  08000000  08000000  000ced50  2**0
                  CONTENTS
  8 .comment      00000023  00000000  00000000  000ced50  2**0
                  CONTENTS, READONLY
  9 .debug_aranges 00000a88  00000000  00000000  000ced78  2**3
                  CONTENTS, READONLY, DEBUGGING
 10 .debug_info   000180ce  00000000  00000000  000cf800  2**0
                  CONTENTS, READONLY, DEBUGGING
 11 .debug_abbrev 00006227  00000000  00000000  000e78ce  2**0
                  CONTENTS, READONLY, DEBUGGING
 12 .debug_line   00008aa2  00000000  00000000  000edaf5  2**0
                  CONTENTS, READONLY, DEBUGGING
 13 .debug_frame  000019a0  00000000  00000000  000f6598  2**2
                  CONTENTS, READONLY, DEBUGGING
 14 .debug_str    00004126  00000000  00000000  000f7f38  2**0
                  CONTENTS, READONLY, DEBUGGING
 15 .debug_loc    00014258  00000000  00000000  000fc05e  2**0
                  CONTENTS, READONLY, DEBUGGING
 16 .debug_alt_sim_info 00000030  00000000  00000000  001102b8  2**2
                  CONTENTS, READONLY, DEBUGGING
 17 .debug_ranges 000010e0  00000000  00000000  001102e8  2**3
                  CONTENTS, READONLY, DEBUGGING
 18 .thread_model 00000003  00000000  00000000  00114296  2**0
                  CONTENTS, READONLY
 19 .cpu          00000003  00000000  00000000  00114299  2**0
                  CONTENTS, READONLY
 20 .qsys         00000001  00000000  00000000  0011429c  2**0
                  CONTENTS, READONLY
 21 .simulation_enabled 00000001  00000000  00000000  0011429d  2**0
                  CONTENTS, READONLY
 22 .sysid_hash   00000004  00000000  00000000  0011429e  2**0
                  CONTENTS, READONLY
 23 .sysid_base   00000004  00000000  00000000  001142a2  2**0
                  CONTENTS, READONLY
 24 .sysid_time   00000004  00000000  00000000  001142a6  2**0
                  CONTENTS, READONLY
 25 .stderr_dev   00000009  00000000  00000000  001142aa  2**0
                  CONTENTS, READONLY
 26 .stdin_dev    00000009  00000000  00000000  001142b3  2**0
                  CONTENTS, READONLY
 27 .stdout_dev   00000009  00000000  00000000  001142bc  2**0
                  CONTENTS, READONLY
 28 .sopc_system_name 0000000b  00000000  00000000  001142c5  2**0
                  CONTENTS, READONLY
 29 .quartus_project_dir 0000002f  00000000  00000000  001142d0  2**0
                  CONTENTS, READONLY
 30 .sopcinfo     00087392  00000000  00000000  001142ff  2**0
                  CONTENTS, READONLY
SYMBOL TABLE:
00000000 l    d  .entry	00000000 .entry
00000020 l    d  .exceptions	00000000 .exceptions
00000244 l    d  .text	00000000 .text
000104b4 l    d  .rodata	00000000 .rodata
000cc128 l    d  .rwdata	00000000 .rwdata
000cf978 l    d  .bss	00000000 .bss
000d0730 l    d  .sdram	00000000 .sdram
08000000 l    d  .sram	00000000 .sram
00000000 l    d  .comment	00000000 .comment
00000000 l    d  .debug_aranges	00000000 .debug_aranges
00000000 l    d  .debug_info	00000000 .debug_info
00000000 l    d  .debug_abbrev	00000000 .debug_abbrev
00000000 l    d  .debug_line	00000000 .debug_line
00000000 l    d  .debug_frame	00000000 .debug_frame
00000000 l    d  .debug_str	00000000 .debug_str
00000000 l    d  .debug_loc	00000000 .debug_loc
00000000 l    d  .debug_alt_sim_info	00000000 .debug_alt_sim_info
00000000 l    d  .debug_ranges	00000000 .debug_ranges
00000000 l    df *ABS*	00000000 ../ebook_1_bsp//obj/HAL/src/crt0.o
0000028c l       .text	00000000 alt_after_alt_main
00000000 l    df *ABS*	00000000 alt_irq_handler.c
00000000 l    df *ABS*	00000000 alt_instruction_exception_entry.c
00000000 l    df *ABS*	00000000 ascii_font.c
00000000 l    df *ABS*	00000000 color.c
00000000 l    df *ABS*	00000000 font_manage.c
00000000 l    df *ABS*	00000000 gbk_font.c
00000000 l    df *ABS*	00000000 icon_pic.c
00000000 l    df *ABS*	00000000 main.c
00000000 l    df *ABS*	00000000 screen.c
00000000 l    df *ABS*	00000000 time_count.c
00000000 l    df *ABS*	00000000 touch_resp.c
00000000 l    df *ABS*	00000000 txt_read.c
00000000 l    df *ABS*	00000000 lib2-divmod.c
00003c54 l     F .text	0000006c udivmodsi4
00000000 l    df *ABS*	00000000 malloc.c
00000000 l    df *ABS*	00000000 mallocr.c
00000000 l    df *ABS*	00000000 sbrkr.c
00000000 l    df *ABS*	00000000 sprintf.c
00000000 l    df *ABS*	00000000 strlen.c
00000000 l    df *ABS*	00000000 vfprintf.c
000cbde2 l     O .rodata	00000010 zeroes.4166
000cbdf2 l     O .rodata	00000010 blanks.4165
00000000 l    df *ABS*	00000000 dtoa.c
00006690 l     F .text	00000200 quorem
00000000 l    df *ABS*	00000000 mallocr.c
00000000 l    df *ABS*	00000000 impure.c
000cc530 l     O .rwdata	00000424 impure_data
00000000 l    df *ABS*	00000000 int_errno.c
00000000 l    df *ABS*	00000000 locale.c
000cc974 l     O .rwdata	00000020 lc_ctype_charset
000cc954 l     O .rwdata	00000020 lc_message_charset
000cc994 l     O .rwdata	00000038 lconv
00000000 l    df *ABS*	00000000 memchr.c
00000000 l    df *ABS*	00000000 memcpy.c
00000000 l    df *ABS*	00000000 mprec.c
000cbe24 l     O .rodata	0000000c p05.2678
00000000 l    df *ABS*	00000000 s_fpclassify.c
00000000 l    df *ABS*	00000000 strcmp.c
00000000 l    df *ABS*	00000000 vfprintf.c
000cbf48 l     O .rodata	00000010 zeroes.4110
000cbf58 l     O .rodata	00000010 blanks.4109
00000000 l    df *ABS*	00000000 mallocr.c
00000000 l    df *ABS*	00000000 memmove.c
00000000 l    df *ABS*	00000000 memset.c
00000000 l    df *ABS*	00000000 mallocr.c
00000000 l    df *ABS*	00000000 libgcc2.c
00000000 l    df *ABS*	00000000 libgcc2.c
00000000 l    df *ABS*	00000000 adddf3.c
00000000 l    df *ABS*	00000000 divdf3.c
00000000 l    df *ABS*	00000000 eqdf2.c
00000000 l    df *ABS*	00000000 gedf2.c
00000000 l    df *ABS*	00000000 ledf2.c
00000000 l    df *ABS*	00000000 muldf3.c
00000000 l    df *ABS*	00000000 subdf3.c
00000000 l    df *ABS*	00000000 fixdfsi.c
00000000 l    df *ABS*	00000000 floatsidf.c
00000000 l    df *ABS*	00000000 floatunsidf.c
00000000 l    df *ABS*	00000000 libgcc2.c
00000000 l    df *ABS*	00000000 libgcc2.c
00000000 l    df *ABS*	00000000 alt_load.c
0000e3d4 l     F .text	00000064 alt_load_section
00000000 l    df *ABS*	00000000 alt_main.c
00000000 l    df *ABS*	00000000 alt_malloc_lock.c
00000000 l    df *ABS*	00000000 alt_sbrk.c
000cdd28 l     O .rwdata	00000004 heap_end
00000000 l    df *ABS*	00000000 alt_sys_init.c
0000e620 l     F .text	00000038 alt_dev_reg
000cc9cc l     O .rwdata	00001060 jtag_uart
000cda2c l     O .rwdata	0000002c led_green
000cda58 l     O .rwdata	0000002c led_red
000cda84 l     O .rwdata	0000002c push_buttons
000cdab0 l     O .rwdata	0000002c seg7_0to3
000cdadc l     O .rwdata	0000002c seg7_4to7
000cdb08 l     O .rwdata	0000002c slider_switch
000cdb34 l     O .rwdata	0000002c Altera_UP_SD_Card_Avalon_Interface_0
00000000 l    df *ABS*	00000000 altera_avalon_jtag_uart_fd.c
00000000 l    df *ABS*	00000000 altera_avalon_jtag_uart_init.c
0000e944 l     F .text	00000208 altera_avalon_jtag_uart_irq
0000eb4c l     F .text	000000a8 altera_avalon_jtag_uart_timeout
00000000 l    df *ABS*	00000000 altera_avalon_jtag_uart_ioctl.c
00000000 l    df *ABS*	00000000 altera_avalon_jtag_uart_read.c
00000000 l    df *ABS*	00000000 altera_avalon_jtag_uart_write.c
00000000 l    df *ABS*	00000000 alt_alarm_start.c
00000000 l    df *ABS*	00000000 alt_close.c
0000f2ac l     F .text	00000050 alt_get_errno
00000000 l    df *ABS*	00000000 alt_dcache_flush_all.c
00000000 l    df *ABS*	00000000 alt_dev.c
0000f410 l     F .text	0000002c alt_dev_null_write
00000000 l    df *ABS*	00000000 alt_dev_llist_insert.c
0000f43c l     F .text	00000050 alt_get_errno
00000000 l    df *ABS*	00000000 alt_do_ctors.c
00000000 l    df *ABS*	00000000 alt_do_dtors.c
00000000 l    df *ABS*	00000000 alt_errno.c
00000000 l    df *ABS*	00000000 alt_icache_flush_all.c
00000000 l    df *ABS*	00000000 alt_io_redirect.c
0000f618 l     F .text	000000c0 alt_open_fd
00000000 l    df *ABS*	00000000 alt_irq_register.c
00000000 l    df *ABS*	00000000 alt_irq_vars.c
00000000 l    df *ABS*	00000000 alt_open.c
0000f900 l     F .text	00000050 alt_get_errno
0000f950 l     F .text	000000cc alt_file_locked
00000000 l    df *ABS*	00000000 alt_release_fd.c
00000000 l    df *ABS*	00000000 alt_tick.c
00000000 l    df *ABS*	00000000 altera_nios2_gen2_irq.c
00000000 l    df *ABS*	00000000 alt_find_dev.c
00000000 l    df *ABS*	00000000 alt_find_file.c
00000000 l    df *ABS*	00000000 alt_get_fd.c
00000000 l    df *ABS*	00000000 alt_icache_flush.c
00000000 l    df *ABS*	00000000 atexit.c
00000000 l    df *ABS*	00000000 exit.c
00000000 l    df *ABS*	00000000 memcmp.c
00000000 l    df *ABS*	00000000 __atexit.c
00000000 l    df *ABS*	00000000 __call_atexit.c
00000000 l    df *ABS*	00000000 alt_exit.c
000cf9bc g     O .bss	00000004 alt_instruction_exception_handler
00003acc g     F .text	00000118 screenMainColorPickerInit
000094e0 g     F .text	00000074 _mprec_log10
000095cc g     F .text	0000008c __any_on
000cbe30 g     O .rodata	00000028 __mprec_tinytens
0000e4b8 g     F .text	00000078 alt_main
000d0630 g     O .bss	00000100 alt_irq
000cdd50 g       *ABS*	00000000 __flash_rwdata_start
0000cf3c g     F .text	00000084 .hidden __eqdf2
000d0730 g       *ABS*	00000000 __alt_heap_start
08000000 g       *ABS*	00000000 __alt_mem_sram
000083cc g     F .text	0000007c _setlocale_r
00002448 g     F .text	0000037c setDefaultTagList
0000e550 g     F .text	00000020 __malloc_unlock
0000aa64 g     F .text	0000015c memmove
000086cc g     F .text	000000a8 _Balloc
0000cfc0 g     F .text	000000e0 .hidden __gtdf2
0000fd70 g     F .text	00000020 altera_nios2_gen2_irq_init
00000000  w      *UND*	00000000 __errno
00000000 g     F .entry	0000001c __reset
00000020 g       *ABS*	00000000 __flash_exceptions_start
000cf994 g     O .bss	00000004 errno
00009938 g     F .text	00001068 ___svfiprintf_internal_r
000cf9a8 g     O .bss	00000004 alt_argv
000d5d08 g       *ABS*	00000000 _gp
000cdb88 g     O .rwdata	00000180 alt_fd_list
00002c38 g     F .text	000003dc ScreenMainPageInfoInit
0000fd90 g     F .text	00000090 alt_find_dev
00008594 g     F .text	00000138 memcpy
0000e1fc g     F .text	000000d0 .hidden __floatsidf
0000f6d8 g     F .text	00000078 alt_io_redirect
0000d0a0 g     F .text	000000e0 .hidden __ltdf2
000104b4 g       *ABS*	00000000 __DTOR_END__
00010074 g     F .text	0000009c alt_exception_cause_generated_bad_addr
00009658 g     F .text	00000074 __fpclassifyd
0000943c g     F .text	000000a4 __ratio
0000ed48 g     F .text	0000020c altera_avalon_jtag_uart_read
00003d80 g     F .text	00000014 malloc
00003d70 g     F .text	00000008 .hidden __udivsi3
000cbe80 g     O .rodata	000000c8 __mprec_tens
00008448 g     F .text	0000000c __locale_charset
0000ffe8 g     F .text	0000008c alt_icache_flush
000cf990 g     O .bss	00000004 __malloc_top_pad
000cdd24 g     O .rwdata	00000004 __mb_cur_max
00008478 g     F .text	0000000c _localeconv_r
000d0310 g     O .bss	0000000c txtFilesInfoSpace
000cfc68 g     O .bss	000006a8 tftlcdScreenInst
00008acc g     F .text	0000003c __i2b
00004550 g     F .text	00000054 _sbrk_r
000cdd3c g     O .rwdata	00000004 alt_max_fd
000cf98c g     O .bss	00000004 __malloc_max_sbrked_mem
0000f750 g     F .text	000001b0 alt_irq_register
0000bdd4 g     F .text	0000089c .hidden __adddf3
000091e4 g     F .text	0000011c __b2d
0000b844 g     F .text	00000590 .hidden __umoddi3
000cdd1c g     O .rwdata	00000004 _global_impure_ptr
0000ace4 g     F .text	000005a0 _realloc_r
000d0730 g       *ABS*	00000000 __bss_end
00000d58 g     F .text	00000100 setDefaultIconBlock
0000fc6c g     F .text	00000104 alt_tick
0000096c g     F .text	00000104 setDefaultTagBlock
0000b284 g     F .text	000005c0 .hidden __udivdi3
000003f4 g     F .text	00000090 setAreaRange
000cbe58 g     O .rodata	00000028 __mprec_bigtens
000088b0 g     F .text	00000104 __s2b
0000e2cc g     F .text	000000a4 .hidden __floatunsidf
00008f8c g     F .text	00000060 __mcmp
0000fbd4 g     F .text	00000098 alt_alarm_stop
000cf9b0 g     O .bss	00000004 alt_irq_active
000d031c g     O .bss	000002df txtBookSpace
000000fc g     F .exceptions	000000d4 alt_irq_handler
000cdb60 g     O .rwdata	00000028 alt_dev_null
000cf978 g     O .bss	00000008 icon_minus
00001ce8 g     F .text	0000033c screenFooterInit
0000f3cc g     F .text	00000044 alt_dcache_flush_all
000089b4 g     F .text	00000068 __hi0bits
0000e174 g     F .text	00000088 .hidden __fixdfsi
000cdd50 g       *ABS*	00000000 __ram_rwdata_end
000cdd34 g     O .rwdata	00000008 alt_dev_list
000cc128 g       *ABS*	00000000 __ram_rodata_end
0000d0a0 g     F .text	000000e0 .hidden __ledf2
00008d04 g     F .text	00000140 __pow5mult
000cf9a0 g     O .bss	00000004 __nlocale_changed
00003d78 g     F .text	00000008 .hidden __umodsi3
00000d1c g     F .text	0000003c setDefaultScrollBarY
000d0730 g       *ABS*	00000000 end
0000e88c g     F .text	000000b8 altera_avalon_jtag_uart_init
000001d0 g     F .exceptions	00000074 alt_instruction_exception_entry
000104b4 g       *ABS*	00000000 __CTOR_LIST__
08000000 g       *ABS*	00000000 __alt_stack_pointer
0000e370 g     F .text	00000064 .hidden __clzsi2
000012f4 g     F .text	00000510 setDefaultNumEditGroup
00003be4 g     F .text	00000070 screenMainAreaInfo
0000ef54 g     F .text	00000218 altera_avalon_jtag_uart_write
000084ac g     F .text	000000e8 memchr
000045a4 g     F .text	00000058 _sprintf_r
000080dc g     F .text	000002f0 _free_r
00008454 g     F .text	00000010 __locale_mb_cur_max
000102ec g     F .text	00000194 __call_exitprocs
000cf99c g     O .bss	00000004 __mlocale_changed
000cdd14 g     O .rwdata	00000004 __malloc_sbrk_base
00000244 g     F .text	0000004c _start
000cf9b4 g     O .bss	00000004 _alt_tick_rate
00008e44 g     F .text	00000148 __lshift
000cf9b8 g     O .bss	00000004 _alt_nticks
0000e68c g     F .text	0000009c alt_sys_init
00009770 g     F .text	000001c8 __ssprint_r
000101d8 g     F .text	00000114 __register_exitproc
00000484 g     F .text	00000258 setAreaRangeByAreaFmt
000cfbe8 g     O .bss	00000020 icon_home
00008b08 g     F .text	000001fc __multiply
0000ebf4 g     F .text	00000068 altera_avalon_jtag_uart_close
000cc128 g       *ABS*	00000000 __ram_rwdata_start
000104b4 g       *ABS*	00000000 __ram_rodata_start
000cf9c0 g     O .bss	00000028 __malloc_current_mallinfo
00009300 g     F .text	0000013c __d2b
0000e728 g     F .text	00000060 altera_avalon_jtag_uart_read_fd
0000ff34 g     F .text	000000b4 alt_get_fd
0001015c g     F .text	0000007c memcmp
0000e7e8 g     F .text	00000050 altera_avalon_jtag_uart_close_fd
000d0730 g       *ABS*	00000000 __alt_stack_base
0000e838 g     F .text	00000054 altera_avalon_jtag_uart_ioctl_fd
0000c670 g     F .text	000008cc .hidden __divdf3
00009554 g     F .text	00000078 __copybits
000cdd10 g     O .rwdata	00000004 str1
000cc128 g     O .rwdata	00000408 __malloc_av_
000006dc g     F .text	0000010c setAreaFmt
0000d180 g     F .text	00000724 .hidden __muldf3
0000fe20 g     F .text	00000114 alt_find_file
0000f48c g     F .text	000000a4 alt_dev_llist_insert
0000e530 g     F .text	00000020 __malloc_lock
0000e570 g     F .text	000000b0 sbrk
00004700 g     F .text	00001f90 ___svfprintf_internal_r
0000a9a0 g     F .text	000000c4 _calloc_r
000cf9e8 g     O .bss	00000200 color_form
000cf978 g       *ABS*	00000000 __bss_start
0000abc0 g     F .text	00000124 memset
000003bc g     F .text	00000038 main
000cf9ac g     O .bss	00000004 alt_envp
000cf988 g     O .bss	00000004 __malloc_max_total_mem
000cdd08 g     O .rwdata	00000006 defaultColorInfo
0000e788 g     F .text	00000060 altera_avalon_jtag_uart_write_fd
000cf980 g     O .bss	00000008 icon_dot
08000000 g       *ABS*	00000000 __alt_heap_limit
00006890 g     F .text	00001728 _dtoa_r
00003da8 g     F .text	000007a8 _malloc_r
000027c4 g     F .text	00000474 screenMainBookInit
000cdd40 g     O .rwdata	00000004 alt_errno
00003cc0 g     F .text	00000054 .hidden __divsi3
00007fb8 g     F .text	00000124 _malloc_trim_r
000104b4 g       *ABS*	00000000 __CTOR_END__
000096cc g     F .text	000000a4 strcmp
000104b4 g       *ABS*	00000000 __flash_rodata_start
000104b4 g       *ABS*	00000000 __DTOR_LIST__
0000cf3c g     F .text	00000084 .hidden __nedf2
0000e658 g     F .text	00000034 alt_irq_init
000104b4 g     O .rodata	00000800 ascii_font_x8y16
0000fb74 g     F .text	00000060 alt_release_fd
000045fc g     F .text	0000006c sprintf
000cbf68 g     O .rodata	00000100 .hidden __clz_tab
000cf998 g     O .bss	00000004 _PathLocale
00010110 g     F .text	00000014 atexit
00008484 g     F .text	0000001c setlocale
00010cb4 g     O .rodata	000bb080 gbk_font_x16y16
00000ef8 g     F .text	00000208 getWidthOfText
000cdd20 g     O .rwdata	00000004 _impure_ptr
000cf9a4 g     O .bss	00000004 alt_argc
0000f58c g     F .text	0000005c _do_dtors
00008470 g     F .text	00000008 __locale_cjk_lang
00002024 g     F .text	00000424 screenMainHomeInit
00003014 g     F .text	00000ab8 screenMainSettingInit
000002dc g     F .text	000000e0 getGbkFont
000007e8 g     F .text	00000184 setAreaRangeCentered
00000020 g       .exceptions	00000000 alt_irq_entry
00009184 g     F .text	00000060 __ulp
000cdd2c g     O .rwdata	00000008 alt_fs_list
00000290 g     F .text	0000004c getAsciiFont
000cfc08 g     O .bss	00000020 icon_back
00000020 g       *ABS*	00000000 __ram_exceptions_start
000084a0 g     F .text	0000000c localeconv
00000e58 g     F .text	000000a0 setDefaultColorTable
000cfc28 g     O .bss	00000020 icon_setting
000cdd50 g       *ABS*	00000000 _edata
000d0730 g       *ABS*	00000000 _end
00000244 g       *ABS*	00000000 __ram_exceptions_end
0000ec5c g     F .text	000000ec altera_avalon_jtag_uart_ioctl
000d05fb g     O .bss	00000033 sdCardFileName
000cdd18 g     O .rwdata	00000004 __malloc_trim_threshold
00008464 g     F .text	0000000c __locale_msgcharset
00010124 g     F .text	00000038 exit
00008fec g     F .text	00000198 __mdiff
00001b4c g     F .text	0000019c screenHeaderInit
00003d14 g     F .text	0000005c .hidden __modsi3
08000000 g       *ABS*	00000000 __alt_data_end
00000020 g     F .exceptions	00000000 alt_exception
00000000 g       *ABS*	00000000 __alt_mem_sdram
00001804 g     F .text	00000348 screenInit
00001100 g     F .text	000001f4 setDefaultTagBlockGroup
00010480 g     F .text	00000034 _exit
0000f16c g     F .text	00000140 alt_alarm_start
00004668 g     F .text	00000098 strlen
0000fa1c g     F .text	00000158 open
0000cfc0 g     F .text	000000e0 .hidden __gedf2
0000f5e8 g     F .text	00000030 alt_icache_flush_all
000cdd44 g     O .rwdata	00000004 alt_priority_mask
0000d8a4 g     F .text	000008d0 .hidden __subdf3
000cfc48 g     O .bss	00000020 icon_plus
00008a1c g     F .text	000000b0 __lo0bits
000cdd48 g     O .rwdata	00000008 alt_alarm_list
0000f530 g     F .text	0000005c _do_ctors
0000f2fc g     F .text	000000d0 close
00000a70 g     F .text	000002ac setDefaultProgressBar
0000e438 g     F .text	00000080 alt_load
00003d94 g     F .text	00000014 free
0000879c g     F .text	00000114 __multadd
00008774 g     F .text	00000028 _Bfree



Disassembly of section .entry:

00000000 <__reset>:
#if NIOS2_ICACHE_SIZE > 0 && defined(ALT_ALLOW_CODE_AT_RESET) && (!defined(ALT_SIM_OPTIMIZE) || defined(NIOS2_ECC_PRESENT))
    /* Assume the instruction cache size is always a power of two. */
#if NIOS2_ICACHE_SIZE > 0x8000
    movhi r2, %hi(NIOS2_ICACHE_SIZE)
#else
    movui r2, NIOS2_ICACHE_SIZE
   0:	00840014 	movui	r2,4096
#endif

0:
    initi r2
   4:	1001483a 	initi	r2
    addi r2, r2, -NIOS2_ICACHE_LINE_SIZE
   8:	10bff804 	addi	r2,r2,-32
    bgt r2, zero, 0b
   c:	00bffd16 	blt	zero,r2,4 <__alt_data_end+0xf8000004>
 * Jump to the _start entry point in the .text section if reset code
 * is allowed or if optimizing for RTL simulation.
 */
#if defined(ALT_ALLOW_CODE_AT_RESET) || defined(ALT_SIM_OPTIMIZE)
    /* Jump to the _start entry point in the .text section. */
    movhi r1, %hi(_start)
  10:	00400034 	movhi	at,0
    ori r1, r1, %lo(_start)
  14:	08409114 	ori	at,at,580
    jmp r1
  18:	0800683a 	jmp	at
  1c:	00000000 	call	0 <__reset>

Disassembly of section .exceptions:

00000020 <alt_exception>:

#else /* ALT_EXCEPTION_STACK disabled */
        /* 
         * Reserve space on normal stack for registers about to be pushed.
         */
        addi  sp, sp, -76
  20:	deffed04 	addi	sp,sp,-76
         * documentation for details).
         *
         * Leave a gap in the stack frame at 4(sp) for the muldiv handler to
         * store zero into.
         */
        stw   ra,  0(sp)
  24:	dfc00015 	stw	ra,0(sp)
        stw   r1,   8(sp)
  28:	d8400215 	stw	at,8(sp)
        stw   r2,  12(sp)
  2c:	d8800315 	stw	r2,12(sp)
        stw   r3,  16(sp)
  30:	d8c00415 	stw	r3,16(sp)
        stw   r4,  20(sp)
  34:	d9000515 	stw	r4,20(sp)
        stw   r5,  24(sp)
  38:	d9400615 	stw	r5,24(sp)
        stw   r6,  28(sp)
  3c:	d9800715 	stw	r6,28(sp)
        stw   r7,  32(sp)
  40:	d9c00815 	stw	r7,32(sp)
        rdctl r5, estatus   /* Read early to avoid usage stall */
  44:	000b307a 	rdctl	r5,estatus
        stw   r8,  36(sp)
  48:	da000915 	stw	r8,36(sp)
        stw   r9,  40(sp)
  4c:	da400a15 	stw	r9,40(sp)
        stw   r10, 44(sp)
  50:	da800b15 	stw	r10,44(sp)
        stw   r11, 48(sp)
  54:	dac00c15 	stw	r11,48(sp)
        stw   r12, 52(sp)
  58:	db000d15 	stw	r12,52(sp)
        stw   r13, 56(sp)
  5c:	db400e15 	stw	r13,56(sp)
        stw   r14, 60(sp)
  60:	db800f15 	stw	r14,60(sp)
        stw   r15, 64(sp)
  64:	dbc01015 	stw	r15,64(sp)
        /*
         * ea-4 contains the address of the instruction being executed
         * when the exception occured. For interrupt exceptions, we will
         * will be re-issue the isntruction. Store it in 72(sp)
         */
        stw   r5,  68(sp)  /* estatus */
  68:	d9401115 	stw	r5,68(sp)
        addi  r15, ea, -4  /* instruction that caused exception */
  6c:	ebffff04 	addi	r15,ea,-4
        stw   r15,  72(sp)
  70:	dbc01215 	stw	r15,72(sp)
#else
        /*
         * Test to see if the exception was a software exception or caused 
         * by an external interrupt, and vector accordingly.
         */
        rdctl r4, ipending
  74:	0009313a 	rdctl	r4,ipending
        andi  r2, r5, 1
  78:	2880004c 	andi	r2,r5,1
        beq   r2, zero, .Lnot_irq
  7c:	10000326 	beq	r2,zero,8c <alt_exception+0x6c>
        beq   r4, zero, .Lnot_irq
  80:	20000226 	beq	r4,zero,8c <alt_exception+0x6c>
        /*
         * Now that all necessary registers have been preserved, call 
         * alt_irq_handler() to process the interrupts.
         */

        call alt_irq_handler
  84:	00000fc0 	call	fc <alt_irq_handler>

        .section .exceptions.irqreturn, "xa"

        br    .Lexception_exit
  88:	00000706 	br	a8 <alt_exception+0x88>
         * upon completion, so we write ea (address of instruction *after*
         * the one where the exception occured) into 72(sp). The actual
         * instruction that caused the exception is written in r2, which these
         * handlers will utilize.
         */
        stw   ea,  72(sp)  /* Don't re-issue */
  8c:	df401215 	stw	ea,72(sp)
        ldhu.n  r2, 0(r4)
        ldhu.n  r3, 2(r4)
        slli.n  r3, r3, 16
        or.n    r2, r2, r3 /* Instruction that caused exception */
#else
        ldw   r2, -4(ea)   /* Instruction that caused exception */
  90:	e8bfff17 	ldw	r2,-4(ea)
         * debugger is present) or go into an infinite loop since the
         * handling behavior is undefined; in that case we will not return here.
         */

        /* Load exception-causing address as first argument (r4) */
        addi   r4, ea, -4
  94:	e93fff04 	addi	r4,ea,-4

        /* Call the instruction-exception entry */
        call   alt_instruction_exception_entry
  98:	00001d00 	call	1d0 <alt_instruction_exception_entry>
         * instruction
         *
         * Return code was 0: Skip. The instruction after the exception is
         * already stored in 72(sp).
         */
        bne   r2, r0, .Lexception_exit
  9c:	1000021e 	bne	r2,zero,a8 <alt_exception+0x88>

        /*
         * Otherwise, modify 72(sp) to re-issue the instruction that caused the
         * exception.
         */
        addi  r15, ea, -4  /* instruction that caused exception */
  a0:	ebffff04 	addi	r15,ea,-4
        stw   r15,  72(sp)
  a4:	dbc01215 	stw	r15,72(sp)
        /* 
         * Restore the saved registers, so that all general purpose registers 
         * have been restored to their state at the time the interrupt occured.
         */

        ldw   r5,  68(sp)
  a8:	d9401117 	ldw	r5,68(sp)
        ldw   ea,  72(sp)  /* This becomes the PC once eret is executed */
  ac:	df401217 	ldw	ea,72(sp)
        ldw   ra,   0(sp)
  b0:	dfc00017 	ldw	ra,0(sp)

        wrctl estatus, r5
  b4:	2801707a 	wrctl	estatus,r5

        ldw   r1,   8(sp)
  b8:	d8400217 	ldw	at,8(sp)
        ldw   r2,  12(sp)
  bc:	d8800317 	ldw	r2,12(sp)
        ldw   r3,  16(sp)
  c0:	d8c00417 	ldw	r3,16(sp)
        ldw   r4,  20(sp)
  c4:	d9000517 	ldw	r4,20(sp)
        ldw   r5,  24(sp)
  c8:	d9400617 	ldw	r5,24(sp)
        ldw   r6,  28(sp)
  cc:	d9800717 	ldw	r6,28(sp)
        ldw   r7,  32(sp)
  d0:	d9c00817 	ldw	r7,32(sp)

#if defined(ALT_EXCEPTION_STACK) && defined(ALT_STACK_CHECK)
        ldw   et, %gprel(alt_exception_old_stack_limit)(gp)
#endif

        ldw   r8,  36(sp)
  d4:	da000917 	ldw	r8,36(sp)
        ldw   r9,  40(sp)
  d8:	da400a17 	ldw	r9,40(sp)
        ldw   r10, 44(sp)
  dc:	da800b17 	ldw	r10,44(sp)
        ldw   r11, 48(sp)
  e0:	dac00c17 	ldw	r11,48(sp)
        ldw   r12, 52(sp)
  e4:	db000d17 	ldw	r12,52(sp)
        ldw   r13, 56(sp)
  e8:	db400e17 	ldw	r13,56(sp)
        ldw   r14, 60(sp)
  ec:	db800f17 	ldw	r14,60(sp)
        ldw   r15, 64(sp)
  f0:	dbc01017 	ldw	r15,64(sp)
        stw   et, %gprel(alt_stack_limit_value)(gp)
        stw   zero, %gprel(alt_exception_old_stack_limit)(gp)
#endif /* ALT_STACK_CHECK */
        ldw   sp,  76(sp)
#else /* ALT_EXCEPTION_STACK disabled */
        addi  sp, sp, 76
  f4:	dec01304 	addi	sp,sp,76

        /*
         * Return to the interrupted instruction.
         */

        eret
  f8:	ef80083a 	eret

000000fc <alt_irq_handler>:
 * instruction is present if the macro ALT_CI_INTERRUPT_VECTOR defined.
 */

void alt_irq_handler (void) __attribute__ ((section (".exceptions")));
void alt_irq_handler (void)
{
  fc:	defff904 	addi	sp,sp,-28
 100:	dfc00615 	stw	ra,24(sp)
 104:	df000515 	stw	fp,20(sp)
 108:	df000504 	addi	fp,sp,20
  
  /*
   * Notify the operating system that we are at interrupt level.
   */ 
  
  ALT_OS_INT_ENTER();
 10c:	0001883a 	nop
#ifndef NIOS2_EIC_PRESENT
static ALT_INLINE alt_u32 ALT_ALWAYS_INLINE alt_irq_pending (void)
{
  alt_u32 active;

  NIOS2_READ_IPENDING (active);
 110:	0005313a 	rdctl	r2,ipending
 114:	e0bffe15 	stw	r2,-8(fp)

  return active;
 118:	e0bffe17 	ldw	r2,-8(fp)
   * Consider the case where the high priority interupt is asserted during
   * the interrupt entry sequence for a lower priority interrupt to see why
   * this is the case.
   */

  active = alt_irq_pending ();
 11c:	e0bffb15 	stw	r2,-20(fp)

  do
  {
    i = 0;
 120:	e03ffd15 	stw	zero,-12(fp)
    mask = 1;
 124:	00800044 	movi	r2,1
 128:	e0bffc15 	stw	r2,-16(fp)
     * called to clear the interrupt condition.
     */

    do
    {
      if (active & mask)
 12c:	e0fffb17 	ldw	r3,-20(fp)
 130:	e0bffc17 	ldw	r2,-16(fp)
 134:	1884703a 	and	r2,r3,r2
 138:	10001526 	beq	r2,zero,190 <alt_irq_handler+0x94>
      { 
#ifdef ALT_ENHANCED_INTERRUPT_API_PRESENT
        alt_irq[i].handler(alt_irq[i].context); 
#else
        alt_irq[i].handler(alt_irq[i].context, i); 
 13c:	00800374 	movhi	r2,13
 140:	10818c04 	addi	r2,r2,1584
 144:	e0fffd17 	ldw	r3,-12(fp)
 148:	180690fa 	slli	r3,r3,3
 14c:	10c5883a 	add	r2,r2,r3
 150:	10c00017 	ldw	r3,0(r2)
 154:	00800374 	movhi	r2,13
 158:	10818c04 	addi	r2,r2,1584
 15c:	e13ffd17 	ldw	r4,-12(fp)
 160:	200890fa 	slli	r4,r4,3
 164:	1105883a 	add	r2,r2,r4
 168:	10800104 	addi	r2,r2,4
 16c:	10800017 	ldw	r2,0(r2)
 170:	1009883a 	mov	r4,r2
 174:	e17ffd17 	ldw	r5,-12(fp)
 178:	183ee83a 	callr	r3
#endif
        break;
 17c:	0001883a 	nop
#ifndef NIOS2_EIC_PRESENT
static ALT_INLINE alt_u32 ALT_ALWAYS_INLINE alt_irq_pending (void)
{
  alt_u32 active;

  NIOS2_READ_IPENDING (active);
 180:	0005313a 	rdctl	r2,ipending
 184:	e0bfff15 	stw	r2,-4(fp)

  return active;
 188:	e0bfff17 	ldw	r2,-4(fp)
 18c:	00000706 	br	1ac <alt_irq_handler+0xb0>
      }
      mask <<= 1;
 190:	e0bffc17 	ldw	r2,-16(fp)
 194:	1085883a 	add	r2,r2,r2
 198:	e0bffc15 	stw	r2,-16(fp)
      i++;
 19c:	e0bffd17 	ldw	r2,-12(fp)
 1a0:	10800044 	addi	r2,r2,1
 1a4:	e0bffd15 	stw	r2,-12(fp)

    } while (1);
 1a8:	003fe006 	br	12c <__alt_data_end+0xf800012c>

    active = alt_irq_pending ();
 1ac:	e0bffb15 	stw	r2,-20(fp)
    
  } while (active);
 1b0:	e0bffb17 	ldw	r2,-20(fp)
 1b4:	103fda1e 	bne	r2,zero,120 <__alt_data_end+0xf8000120>

  /*
   * Notify the operating system that interrupt processing is complete.
   */ 

  ALT_OS_INT_EXIT();
 1b8:	0001883a 	nop
}
 1bc:	e037883a 	mov	sp,fp
 1c0:	dfc00117 	ldw	ra,4(sp)
 1c4:	df000017 	ldw	fp,0(sp)
 1c8:	dec00204 	addi	sp,sp,8
 1cc:	f800283a 	ret

000001d0 <alt_instruction_exception_entry>:
 * that handler if it has been registered. Absent a handler, it will
 * break break or hang as discussed below.
 */
int 
alt_instruction_exception_entry (alt_u32 exception_pc)
{
 1d0:	defffb04 	addi	sp,sp,-20
 1d4:	dfc00415 	stw	ra,16(sp)
 1d8:	df000315 	stw	fp,12(sp)
 1dc:	df000304 	addi	fp,sp,12
 1e0:	e13fff15 	stw	r4,-4(fp)
 * NIOS2_EXCEPTION_CAUSE_NOT_PRESENT. Your handling routine should
 * check the validity of the cause argument before proceeding.
 */
#ifdef NIOS2_HAS_EXTRA_EXCEPTION_INFO
  /* Get exception cause & "badaddr" */
  NIOS2_READ_EXCEPTION(cause);
 1e4:	000531fa 	rdctl	r2,exception
 1e8:	e0bffd15 	stw	r2,-12(fp)
  cause = ( (cause & NIOS2_EXCEPTION_REG_CAUSE_MASK) >>
 1ec:	e0bffd17 	ldw	r2,-12(fp)
 1f0:	10801f0c 	andi	r2,r2,124
 1f4:	1004d0ba 	srli	r2,r2,2
 1f8:	e0bffd15 	stw	r2,-12(fp)
              NIOS2_EXCEPTION_REG_CAUSE_OFST );

  NIOS2_READ_BADADDR(badaddr);
 1fc:	0005333a 	rdctl	r2,badaddr
 200:	e0bffe15 	stw	r2,-8(fp)
#else
  cause = NIOS2_EXCEPTION_CAUSE_NOT_PRESENT;
  badaddr = 0;
#endif /* NIOS2_HAS_EXTRA_EXCEPTION_INFO */

  if(alt_instruction_exception_handler) {
 204:	d0a72d17 	ldw	r2,-25420(gp)
 208:	10000726 	beq	r2,zero,228 <alt_instruction_exception_entry+0x58>
     * Call handler. Its return value indicates whether the exception-causing
     * instruction should be re-issued. The code that called us,
     * alt_eceptions_entry.S, will look at this value and adjust the ea
     * register as necessary
     */
    return alt_instruction_exception_handler(cause, exception_pc, badaddr);
 20c:	d0a72d17 	ldw	r2,-25420(gp)
 210:	e0fffd17 	ldw	r3,-12(fp)
 214:	1809883a 	mov	r4,r3
 218:	e17fff17 	ldw	r5,-4(fp)
 21c:	e1bffe17 	ldw	r6,-8(fp)
 220:	103ee83a 	callr	r2
 224:	00000206 	br	230 <alt_instruction_exception_entry+0x60>
   *    (a peripheral which negates its interrupt output before its
   *    interrupt handler has been executed will cause spurious interrupts)
   */
  else {
#ifdef NIOS2_HAS_DEBUG_STUB
    NIOS2_BREAK();
 228:	003da03a 	break	0
      ;
#endif /* NIOS2_HAS_DEBUG_STUB */
  }

  /* We should not get here. Remove compiler warning. */
  return NIOS2_EXCEPTION_RETURN_REISSUE_INST;
 22c:	0005883a 	mov	r2,zero
}
 230:	e037883a 	mov	sp,fp
 234:	dfc00117 	ldw	ra,4(sp)
 238:	df000017 	ldw	fp,0(sp)
 23c:	dec00204 	addi	sp,sp,8
 240:	f800283a 	ret

Disassembly of section .text:

00000244 <_start>:

    /* Assume the data cache size is always a power of two. */
#if NIOS2_DCACHE_SIZE > 0x8000
    movhi r2, %hi(NIOS2_DCACHE_SIZE)
#else
    movui r2, NIOS2_DCACHE_SIZE
     244:	00820014 	movui	r2,2048
#endif

0:
    initd 0(r2)
     248:	10000033 	initd	0(r2)
#ifdef NIOS2_ECC_PRESENT
    addi r2, r2, -4
#else
    addi r2, r2, -NIOS2_DCACHE_LINE_SIZE
     24c:	10bff804 	addi	r2,r2,-32
#endif
    bgt r2, zero, 0b
     250:	00bffd16 	blt	zero,r2,248 <__alt_data_end+0xf8000248>

    /*
     * Now that the caches are initialized, set up the stack pointer and global pointer.
     * The values provided by the linker are assumed to be correctly aligned.
     */
    movhi sp, %hi(__alt_stack_pointer)
     254:	06c20034 	movhi	sp,2048
    ori sp, sp, %lo(__alt_stack_pointer)
     258:	dec00014 	ori	sp,sp,0
    movhi gp, %hi(_gp)
     25c:	06800374 	movhi	gp,13
    ori gp, gp, %lo(_gp)
     260:	d6974214 	ori	gp,gp,23816
 */
#ifndef ALT_SIM_OPTIMIZE
    /* Log that the BSS is about to be cleared. */
    ALT_LOG_PUTS(alt_log_msg_bss)

    movhi r2, %hi(__bss_start)
     264:	00800334 	movhi	r2,12
    ori r2, r2, %lo(__bss_start)
     268:	10be5e14 	ori	r2,r2,63864

    movhi r3, %hi(__bss_end)
     26c:	00c00374 	movhi	r3,13
    ori r3, r3, %lo(__bss_end)
     270:	18c1cc14 	ori	r3,r3,1840

    beq r2, r3, 1f
     274:	10c00326 	beq	r2,r3,284 <_start+0x40>

0:
    stw zero, (r2)
     278:	10000015 	stw	zero,0(r2)
    addi r2, r2, 4
     27c:	10800104 	addi	r2,r2,4
    bltu r2, r3, 0b
     280:	10fffd36 	bltu	r2,r3,278 <__alt_data_end+0xf8000278>
     * section aren't defined until alt_load() has been called).
     */
    mov   et, zero
#endif

    call alt_load
     284:	000e4380 	call	e438 <alt_load>

    /* Log that alt_main is about to be called. */
    ALT_LOG_PUTS(alt_log_msg_alt_main)

    /* Call the C entry point. It should never return. */
    call alt_main
     288:	000e4b80 	call	e4b8 <alt_main>

0000028c <alt_after_alt_main>:

    /* Wait in infinite loop in case alt_main does return. */
alt_after_alt_main:
    br alt_after_alt_main
     28c:	003fff06 	br	28c <__alt_data_end+0xf800028c>

00000290 <getAsciiFont>:
#include "font_manage.h"

extern const alt_u8 ascii_font_x8y16[];

alt_u8 *getAsciiFont( char asciiVal )
{
     290:	defffe04 	addi	sp,sp,-8
     294:	df000115 	stw	fp,4(sp)
     298:	df000104 	addi	fp,sp,4
     29c:	2005883a 	mov	r2,r4
     2a0:	e0bfff05 	stb	r2,-4(fp)
	if ( asciiVal < 0 )
     2a4:	e0bfff07 	ldb	r2,-4(fp)
     2a8:	1000020e 	bge	r2,zero,2b4 <getAsciiFont+0x24>
	{
		return (void*)0;
     2ac:	0005883a 	mov	r2,zero
     2b0:	00000606 	br	2cc <getAsciiFont+0x3c>
	}
	//ASCII码范围是0~127
	return ascii_font_x8y16 + (((int)asciiVal)*ASCII_LETTER_BYTES);
     2b4:	e0bfff07 	ldb	r2,-4(fp)
     2b8:	1004913a 	slli	r2,r2,4
     2bc:	1007883a 	mov	r3,r2
     2c0:	00800074 	movhi	r2,1
     2c4:	10812d04 	addi	r2,r2,1204
     2c8:	1885883a 	add	r2,r3,r2
}
     2cc:	e037883a 	mov	sp,fp
     2d0:	df000017 	ldw	fp,0(sp)
     2d4:	dec00104 	addi	sp,sp,4
     2d8:	f800283a 	ret

000002dc <getGbkFont>:

extern const alt_u8 gbk_font_x16y16[];

alt_u8 *getGbkFont( alt_u8 gbkHighByte, alt_u8 gbkLowByte )
{
     2dc:	defffc04 	addi	sp,sp,-16
     2e0:	df000315 	stw	fp,12(sp)
     2e4:	df000304 	addi	fp,sp,12
     2e8:	2007883a 	mov	r3,r4
     2ec:	2805883a 	mov	r2,r5
     2f0:	e0fffe05 	stb	r3,-8(fp)
     2f4:	e0bfff05 	stb	r2,-4(fp)

	if ( gbkLowByte < 0x40 )//非GBK编码
     2f8:	e0bfff03 	ldbu	r2,-4(fp)
     2fc:	10801028 	cmpgeui	r2,r2,64
     300:	1000021e 	bne	r2,zero,30c <getGbkFont+0x30>
	{
		return (void*)0;
     304:	0005883a 	mov	r2,zero
     308:	00002806 	br	3ac <getGbkFont+0xd0>
	}
	else
	{
		int wordPos = ( gbkHighByte - 0x81 ) * 190L;
     30c:	e0bffe03 	ldbu	r2,-8(fp)
     310:	10bfdfc4 	addi	r2,r2,-129
     314:	10802fa4 	muli	r2,r2,190
     318:	e0bffd15 	stw	r2,-12(fp)
		if ( gbkLowByte < 0x7F )
     31c:	e0bfff03 	ldbu	r2,-4(fp)
     320:	10801fe8 	cmpgeui	r2,r2,127
     324:	10000c1e 	bne	r2,zero,358 <getGbkFont+0x7c>
		{
			wordPos = wordPos + gbkLowByte - 0x40;
     328:	e0ffff03 	ldbu	r3,-4(fp)
     32c:	e0bffd17 	ldw	r2,-12(fp)
     330:	1885883a 	add	r2,r3,r2
     334:	10bff004 	addi	r2,r2,-64
     338:	e0bffd15 	stw	r2,-12(fp)
			return gbk_font_x16y16 + (wordPos*GBK_WORD_BYTES);
     33c:	e0bffd17 	ldw	r2,-12(fp)
     340:	1004917a 	slli	r2,r2,5
     344:	1007883a 	mov	r3,r2
     348:	00800074 	movhi	r2,1
     34c:	10832d04 	addi	r2,r2,3252
     350:	1885883a 	add	r2,r3,r2
     354:	00001506 	br	3ac <getGbkFont+0xd0>
		}
		else if ( gbkLowByte > 0x7F && gbkLowByte < 0xFF )
     358:	e0bfff03 	ldbu	r2,-4(fp)
     35c:	10803fcc 	andi	r2,r2,255
     360:	1080201c 	xori	r2,r2,128
     364:	10bfe004 	addi	r2,r2,-128
     368:	10000f0e 	bge	r2,zero,3a8 <getGbkFont+0xcc>
     36c:	e0bfff03 	ldbu	r2,-4(fp)
     370:	10803fe0 	cmpeqi	r2,r2,255
     374:	10000c1e 	bne	r2,zero,3a8 <getGbkFont+0xcc>
		{
			wordPos = wordPos + gbkLowByte - 0x41;
     378:	e0ffff03 	ldbu	r3,-4(fp)
     37c:	e0bffd17 	ldw	r2,-12(fp)
     380:	1885883a 	add	r2,r3,r2
     384:	10bfefc4 	addi	r2,r2,-65
     388:	e0bffd15 	stw	r2,-12(fp)
			return gbk_font_x16y16 + (wordPos*GBK_WORD_BYTES);
     38c:	e0bffd17 	ldw	r2,-12(fp)
     390:	1004917a 	slli	r2,r2,5
     394:	1007883a 	mov	r3,r2
     398:	00800074 	movhi	r2,1
     39c:	10832d04 	addi	r2,r2,3252
     3a0:	1885883a 	add	r2,r3,r2
     3a4:	00000106 	br	3ac <getGbkFont+0xd0>
		}
		else
		{
			return (void*)0;
     3a8:	0005883a 	mov	r2,zero
		}
	}
}
     3ac:	e037883a 	mov	sp,fp
     3b0:	df000017 	ldw	fp,0(sp)
     3b4:	dec00104 	addi	sp,sp,4
     3b8:	f800283a 	ret

000003bc <main>:
#include "sys/alt_irq.h"
#include "altera_up_avalon_parallel_port_regs.h"
#include "stdbool.h"

int main( void )
{
     3bc:	defffe04 	addi	sp,sp,-8
     3c0:	df000115 	stw	fp,4(sp)
     3c4:	df000104 	addi	fp,sp,4

	bool x = true;
     3c8:	00800044 	movi	r2,1
     3cc:	e0bfff05 	stb	r2,-4(fp)
	x = x+1;
     3d0:	e0bfff03 	ldbu	r2,-4(fp)
     3d4:	10800044 	addi	r2,r2,1
     3d8:	1004c03a 	cmpne	r2,r2,zero
     3dc:	e0bfff05 	stb	r2,-4(fp)
	return 0;
     3e0:	0005883a 	mov	r2,zero
}
     3e4:	e037883a 	mov	sp,fp
     3e8:	df000017 	ldw	fp,0(sp)
     3ec:	dec00104 	addi	sp,sp,4
     3f0:	f800283a 	ret

000003f4 <setAreaRange>:

char *str1 = "Happy";

//设置区域范围
bool setAreaRange( AreaRange *areaPtr, short x_min, short x_max, short y_min, short y_max )
{
     3f4:	defffa04 	addi	sp,sp,-24
     3f8:	df000515 	stw	fp,20(sp)
     3fc:	df000504 	addi	fp,sp,20
     400:	e13ffb15 	stw	r4,-20(fp)
     404:	3009883a 	mov	r4,r6
     408:	3807883a 	mov	r3,r7
     40c:	e0800117 	ldw	r2,4(fp)
     410:	e17ffc0d 	sth	r5,-16(fp)
     414:	e13ffd0d 	sth	r4,-12(fp)
     418:	e0fffe0d 	sth	r3,-8(fp)
     41c:	e0bfff0d 	sth	r2,-4(fp)
	areaPtr->x_min = x_min;
     420:	e0bffb17 	ldw	r2,-20(fp)
     424:	e0fffc0b 	ldhu	r3,-16(fp)
     428:	10c0000d 	sth	r3,0(r2)
	areaPtr->x_max = x_max;
     42c:	e0bffb17 	ldw	r2,-20(fp)
     430:	e0fffd0b 	ldhu	r3,-12(fp)
     434:	10c0008d 	sth	r3,2(r2)
	areaPtr->y_min = y_min;
     438:	e0bffb17 	ldw	r2,-20(fp)
     43c:	e0fffe0b 	ldhu	r3,-8(fp)
     440:	10c0010d 	sth	r3,4(r2)
	areaPtr->y_max = y_max;
     444:	e0bffb17 	ldw	r2,-20(fp)
     448:	e0ffff0b 	ldhu	r3,-4(fp)
     44c:	10c0018d 	sth	r3,6(r2)
	if ( x_min > x_max || y_min > y_max )
     450:	e0bffc0f 	ldh	r2,-16(fp)
     454:	e0fffd0f 	ldh	r3,-12(fp)
     458:	18800316 	blt	r3,r2,468 <setAreaRange+0x74>
     45c:	e0bffe0f 	ldh	r2,-8(fp)
     460:	e0ffff0f 	ldh	r3,-4(fp)
     464:	1880020e 	bge	r3,r2,470 <setAreaRange+0x7c>
	{
		return false;
     468:	0005883a 	mov	r2,zero
     46c:	00000106 	br	474 <setAreaRange+0x80>
	}
	return true;
     470:	00800044 	movi	r2,1
}
     474:	e037883a 	mov	sp,fp
     478:	df000017 	ldw	fp,0(sp)
     47c:	dec00104 	addi	sp,sp,4
     480:	f800283a 	ret

00000484 <setAreaRangeByAreaFmt>:
//区域范围自动转换
bool setAreaRangeByAreaFmt( AreaRange *areaPtr, AreaFmt *areaFmtPos, short width, short height )
{
     484:	defff804 	addi	sp,sp,-32
     488:	df000715 	stw	fp,28(sp)
     48c:	df000704 	addi	fp,sp,28
     490:	e13ffc15 	stw	r4,-16(fp)
     494:	e17ffd15 	stw	r5,-12(fp)
     498:	3007883a 	mov	r3,r6
     49c:	3805883a 	mov	r2,r7
     4a0:	e0fffe0d 	sth	r3,-8(fp)
     4a4:	e0bfff0d 	sth	r2,-4(fp)

	AreaFmtCenter *tempFmtCenterPos;
	AreaFmtMargin *tempFmtMarginPos;

	bool status = true;
     4a8:	00800044 	movi	r2,1
     4ac:	e0bff905 	stb	r2,-28(fp)

	//处理x方向
	switch( areaFmtPos->fmtTypeX )
     4b0:	e0bffd17 	ldw	r2,-12(fp)
     4b4:	10800017 	ldw	r2,0(r2)
     4b8:	10000326 	beq	r2,zero,4c8 <setAreaRangeByAreaFmt+0x44>
     4bc:	10800060 	cmpeqi	r2,r2,1
     4c0:	1000181e 	bne	r2,zero,524 <setAreaRangeByAreaFmt+0xa0>
     4c4:	00002806 	br	568 <setAreaRangeByAreaFmt+0xe4>
	{
		case AREA_FMT_CENTER:
			tempFmtCenterPos = &((areaFmtPos->fmtValX).fmtCenterVal);
     4c8:	e0bffd17 	ldw	r2,-12(fp)
     4cc:	10800204 	addi	r2,r2,8
     4d0:	e0bffa15 	stw	r2,-24(fp)

			areaPtr->x_min = tempFmtCenterPos->center - tempFmtCenterPos->half + 1;
     4d4:	e0bffa17 	ldw	r2,-24(fp)
     4d8:	1080000b 	ldhu	r2,0(r2)
     4dc:	1007883a 	mov	r3,r2
     4e0:	e0bffa17 	ldw	r2,-24(fp)
     4e4:	1080008b 	ldhu	r2,2(r2)
     4e8:	1885c83a 	sub	r2,r3,r2
     4ec:	10800044 	addi	r2,r2,1
     4f0:	1007883a 	mov	r3,r2
     4f4:	e0bffc17 	ldw	r2,-16(fp)
     4f8:	10c0000d 	sth	r3,0(r2)
			areaPtr->x_max = tempFmtCenterPos->center + tempFmtCenterPos->half;
     4fc:	e0bffa17 	ldw	r2,-24(fp)
     500:	1080000b 	ldhu	r2,0(r2)
     504:	1007883a 	mov	r3,r2
     508:	e0bffa17 	ldw	r2,-24(fp)
     50c:	1080008b 	ldhu	r2,2(r2)
     510:	1885883a 	add	r2,r3,r2
     514:	1007883a 	mov	r3,r2
     518:	e0bffc17 	ldw	r2,-16(fp)
     51c:	10c0008d 	sth	r3,2(r2)

			break;
     520:	00001206 	br	56c <setAreaRangeByAreaFmt+0xe8>

		case AREA_FMT_MARGIN:
			tempFmtMarginPos = &((areaFmtPos->fmtValX).fmtMarginVal);
     524:	e0bffd17 	ldw	r2,-12(fp)
     528:	10800204 	addi	r2,r2,8
     52c:	e0bffb15 	stw	r2,-20(fp)

			areaPtr->x_min = tempFmtMarginPos->margin_LU + 1;
     530:	e0bffb17 	ldw	r2,-20(fp)
     534:	1080000b 	ldhu	r2,0(r2)
     538:	10800044 	addi	r2,r2,1
     53c:	1007883a 	mov	r3,r2
     540:	e0bffc17 	ldw	r2,-16(fp)
     544:	10c0000d 	sth	r3,0(r2)
			areaPtr->x_max = width - tempFmtMarginPos->margin_RD;
     548:	e0bffe0b 	ldhu	r2,-8(fp)
     54c:	e0fffb17 	ldw	r3,-20(fp)
     550:	18c0008b 	ldhu	r3,2(r3)
     554:	10c5c83a 	sub	r2,r2,r3
     558:	1007883a 	mov	r3,r2
     55c:	e0bffc17 	ldw	r2,-16(fp)
     560:	10c0008d 	sth	r3,2(r2)

			break;
     564:	00000106 	br	56c <setAreaRangeByAreaFmt+0xe8>
		default:
			status = false;
     568:	e03ff905 	stb	zero,-28(fp)
	}
	//处理y方向
	switch( areaFmtPos->fmtTypeY )
     56c:	e0bffd17 	ldw	r2,-12(fp)
     570:	10800117 	ldw	r2,4(r2)
     574:	10000326 	beq	r2,zero,584 <setAreaRangeByAreaFmt+0x100>
     578:	10800060 	cmpeqi	r2,r2,1
     57c:	1000181e 	bne	r2,zero,5e0 <setAreaRangeByAreaFmt+0x15c>
     580:	00002806 	br	624 <setAreaRangeByAreaFmt+0x1a0>
	{
		case AREA_FMT_CENTER:
			tempFmtCenterPos = &((areaFmtPos->fmtValY).fmtCenterVal);
     584:	e0bffd17 	ldw	r2,-12(fp)
     588:	10800304 	addi	r2,r2,12
     58c:	e0bffa15 	stw	r2,-24(fp)

			areaPtr->y_min = tempFmtCenterPos->center - tempFmtCenterPos->half + 1;
     590:	e0bffa17 	ldw	r2,-24(fp)
     594:	1080000b 	ldhu	r2,0(r2)
     598:	1007883a 	mov	r3,r2
     59c:	e0bffa17 	ldw	r2,-24(fp)
     5a0:	1080008b 	ldhu	r2,2(r2)
     5a4:	1885c83a 	sub	r2,r3,r2
     5a8:	10800044 	addi	r2,r2,1
     5ac:	1007883a 	mov	r3,r2
     5b0:	e0bffc17 	ldw	r2,-16(fp)
     5b4:	10c0010d 	sth	r3,4(r2)
			areaPtr->y_max = tempFmtCenterPos->center + tempFmtCenterPos->half;
     5b8:	e0bffa17 	ldw	r2,-24(fp)
     5bc:	1080000b 	ldhu	r2,0(r2)
     5c0:	1007883a 	mov	r3,r2
     5c4:	e0bffa17 	ldw	r2,-24(fp)
     5c8:	1080008b 	ldhu	r2,2(r2)
     5cc:	1885883a 	add	r2,r3,r2
     5d0:	1007883a 	mov	r3,r2
     5d4:	e0bffc17 	ldw	r2,-16(fp)
     5d8:	10c0018d 	sth	r3,6(r2)

			break;
     5dc:	00001206 	br	628 <setAreaRangeByAreaFmt+0x1a4>

		case AREA_FMT_MARGIN:
			tempFmtMarginPos = &((areaFmtPos->fmtValY).fmtMarginVal);
     5e0:	e0bffd17 	ldw	r2,-12(fp)
     5e4:	10800304 	addi	r2,r2,12
     5e8:	e0bffb15 	stw	r2,-20(fp)

			areaPtr->y_min = tempFmtMarginPos->margin_LU + 1;
     5ec:	e0bffb17 	ldw	r2,-20(fp)
     5f0:	1080000b 	ldhu	r2,0(r2)
     5f4:	10800044 	addi	r2,r2,1
     5f8:	1007883a 	mov	r3,r2
     5fc:	e0bffc17 	ldw	r2,-16(fp)
     600:	10c0010d 	sth	r3,4(r2)
			areaPtr->y_max = width - tempFmtMarginPos->margin_RD;
     604:	e0bffe0b 	ldhu	r2,-8(fp)
     608:	e0fffb17 	ldw	r3,-20(fp)
     60c:	18c0008b 	ldhu	r3,2(r3)
     610:	10c5c83a 	sub	r2,r2,r3
     614:	1007883a 	mov	r3,r2
     618:	e0bffc17 	ldw	r2,-16(fp)
     61c:	10c0018d 	sth	r3,6(r2)

			break;
     620:	00000106 	br	628 <setAreaRangeByAreaFmt+0x1a4>
		default:
			status = false;
     624:	e03ff905 	stb	zero,-28(fp)
	}

	if ( areaPtr->x_min > areaPtr->x_max || areaPtr->y_min > areaPtr->y_max )
     628:	e0bffc17 	ldw	r2,-16(fp)
     62c:	1100000b 	ldhu	r4,0(r2)
     630:	e0bffc17 	ldw	r2,-16(fp)
     634:	10c0008b 	ldhu	r3,2(r2)
     638:	20bfffcc 	andi	r2,r4,65535
     63c:	10a0001c 	xori	r2,r2,32768
     640:	10a00004 	addi	r2,r2,-32768
     644:	18ffffcc 	andi	r3,r3,65535
     648:	18e0001c 	xori	r3,r3,32768
     64c:	18e00004 	addi	r3,r3,-32768
     650:	18800b16 	blt	r3,r2,680 <setAreaRangeByAreaFmt+0x1fc>
     654:	e0bffc17 	ldw	r2,-16(fp)
     658:	1100010b 	ldhu	r4,4(r2)
     65c:	e0bffc17 	ldw	r2,-16(fp)
     660:	10c0018b 	ldhu	r3,6(r2)
     664:	20bfffcc 	andi	r2,r4,65535
     668:	10a0001c 	xori	r2,r2,32768
     66c:	10a00004 	addi	r2,r2,-32768
     670:	18ffffcc 	andi	r3,r3,65535
     674:	18e0001c 	xori	r3,r3,32768
     678:	18e00004 	addi	r3,r3,-32768
     67c:	1880020e 	bge	r3,r2,688 <setAreaRangeByAreaFmt+0x204>
	{
		return false;
     680:	0005883a 	mov	r2,zero
     684:	00001106 	br	6cc <setAreaRangeByAreaFmt+0x248>
	}
	if ( areaPtr->x_max > width || areaPtr->y_max > height )
     688:	e0bffc17 	ldw	r2,-16(fp)
     68c:	1080008b 	ldhu	r2,2(r2)
     690:	10bfffcc 	andi	r2,r2,65535
     694:	10a0001c 	xori	r2,r2,32768
     698:	10a00004 	addi	r2,r2,-32768
     69c:	e0fffe0f 	ldh	r3,-8(fp)
     6a0:	18800716 	blt	r3,r2,6c0 <setAreaRangeByAreaFmt+0x23c>
     6a4:	e0bffc17 	ldw	r2,-16(fp)
     6a8:	1080018b 	ldhu	r2,6(r2)
     6ac:	10bfffcc 	andi	r2,r2,65535
     6b0:	10a0001c 	xori	r2,r2,32768
     6b4:	10a00004 	addi	r2,r2,-32768
     6b8:	e0ffff0f 	ldh	r3,-4(fp)
     6bc:	1880020e 	bge	r3,r2,6c8 <setAreaRangeByAreaFmt+0x244>
	{
		return false;
     6c0:	0005883a 	mov	r2,zero
     6c4:	00000106 	br	6cc <setAreaRangeByAreaFmt+0x248>
	}

	return status;
     6c8:	e0bff903 	ldbu	r2,-28(fp)

}
     6cc:	e037883a 	mov	sp,fp
     6d0:	df000017 	ldw	fp,0(sp)
     6d4:	dec00104 	addi	sp,sp,4
     6d8:	f800283a 	ret

000006dc <setAreaFmt>:

//设置区域格式
bool setAreaFmt( AreaFmt *areaFmtPos, enum areaFmtID fmtXID, enum areaFmtID fmtYID, short xC_xML, short xHf_xMR, short yC_yMU, short yHf_yMD )
{
     6dc:	defff704 	addi	sp,sp,-36
     6e0:	df000815 	stw	fp,32(sp)
     6e4:	df000804 	addi	fp,sp,32
     6e8:	e13ff915 	stw	r4,-28(fp)
     6ec:	e17ffa15 	stw	r5,-24(fp)
     6f0:	e1bffb15 	stw	r6,-20(fp)
     6f4:	380b883a 	mov	r5,r7
     6f8:	e1000117 	ldw	r4,4(fp)
     6fc:	e0c00217 	ldw	r3,8(fp)
     700:	e0800317 	ldw	r2,12(fp)
     704:	e17ffc0d 	sth	r5,-16(fp)
     708:	e13ffd0d 	sth	r4,-12(fp)
     70c:	e0fffe0d 	sth	r3,-8(fp)
     710:	e0bfff0d 	sth	r2,-4(fp)
	bool status = true;
     714:	00800044 	movi	r2,1
     718:	e0bff805 	stb	r2,-32(fp)
	areaFmtPos->fmtTypeX = fmtXID;
     71c:	e0bff917 	ldw	r2,-28(fp)
     720:	e0fffa17 	ldw	r3,-24(fp)
     724:	10c00015 	stw	r3,0(r2)
	areaFmtPos->fmtTypeY = fmtYID;
     728:	e0bff917 	ldw	r2,-28(fp)
     72c:	e0fffb17 	ldw	r3,-20(fp)
     730:	10c00115 	stw	r3,4(r2)

	switch( fmtXID )
     734:	e0bffa17 	ldw	r2,-24(fp)
     738:	10000326 	beq	r2,zero,748 <setAreaFmt+0x6c>
     73c:	10800060 	cmpeqi	r2,r2,1
     740:	1000081e 	bne	r2,zero,764 <setAreaFmt+0x88>
     744:	00000e06 	br	780 <setAreaFmt+0xa4>
	{
		case AREA_FMT_CENTER:
			(areaFmtPos->fmtValX).fmtCenterVal.center = xC_xML;
     748:	e0bff917 	ldw	r2,-28(fp)
     74c:	e0fffc0b 	ldhu	r3,-16(fp)
     750:	10c0020d 	sth	r3,8(r2)
			(areaFmtPos->fmtValX).fmtCenterVal.half = xHf_xMR;
     754:	e0bff917 	ldw	r2,-28(fp)
     758:	e0fffd0b 	ldhu	r3,-12(fp)
     75c:	10c0028d 	sth	r3,10(r2)
			break;
     760:	00000806 	br	784 <setAreaFmt+0xa8>

		case AREA_FMT_MARGIN:
			(areaFmtPos->fmtValX).fmtMarginVal.margin_LU = xC_xML;
     764:	e0bff917 	ldw	r2,-28(fp)
     768:	e0fffc0b 	ldhu	r3,-16(fp)
     76c:	10c0020d 	sth	r3,8(r2)
			(areaFmtPos->fmtValX).fmtMarginVal.margin_RD = xHf_xMR;
     770:	e0bff917 	ldw	r2,-28(fp)
     774:	e0fffd0b 	ldhu	r3,-12(fp)
     778:	10c0028d 	sth	r3,10(r2)
			break;
     77c:	00000106 	br	784 <setAreaFmt+0xa8>
		default:
			status = false;
     780:	e03ff805 	stb	zero,-32(fp)
	}
	switch( fmtYID )
     784:	e0bffb17 	ldw	r2,-20(fp)
     788:	10000326 	beq	r2,zero,798 <setAreaFmt+0xbc>
     78c:	10800060 	cmpeqi	r2,r2,1
     790:	1000081e 	bne	r2,zero,7b4 <setAreaFmt+0xd8>
     794:	00000e06 	br	7d0 <setAreaFmt+0xf4>
	{
		case AREA_FMT_CENTER:
			(areaFmtPos->fmtValY).fmtCenterVal.center = yC_yMU;
     798:	e0bff917 	ldw	r2,-28(fp)
     79c:	e0fffe0b 	ldhu	r3,-8(fp)
     7a0:	10c0030d 	sth	r3,12(r2)
			(areaFmtPos->fmtValY).fmtCenterVal.half = yHf_yMD;
     7a4:	e0bff917 	ldw	r2,-28(fp)
     7a8:	e0ffff0b 	ldhu	r3,-4(fp)
     7ac:	10c0038d 	sth	r3,14(r2)
			break;
     7b0:	00000806 	br	7d4 <setAreaFmt+0xf8>

		case AREA_FMT_MARGIN:
			(areaFmtPos->fmtValY).fmtMarginVal.margin_LU = yC_yMU;
     7b4:	e0bff917 	ldw	r2,-28(fp)
     7b8:	e0fffe0b 	ldhu	r3,-8(fp)
     7bc:	10c0030d 	sth	r3,12(r2)
			(areaFmtPos->fmtValY).fmtMarginVal.margin_RD = yHf_yMD;
     7c0:	e0bff917 	ldw	r2,-28(fp)
     7c4:	e0ffff0b 	ldhu	r3,-4(fp)
     7c8:	10c0038d 	sth	r3,14(r2)
			break;
     7cc:	00000106 	br	7d4 <setAreaFmt+0xf8>
		default:
			status = false;
     7d0:	e03ff805 	stb	zero,-32(fp)
	}
	return status;
     7d4:	e0bff803 	ldbu	r2,-32(fp)
}
     7d8:	e037883a 	mov	sp,fp
     7dc:	df000017 	ldw	fp,0(sp)
     7e0:	dec00104 	addi	sp,sp,4
     7e4:	f800283a 	ret

000007e8 <setAreaRangeCentered>:

//居中设置区域范围(如果不是偶数，就稍微偏左上角)
bool setAreaRangeCentered( AreaRange *areaPtr, short width, short height, short objXSize, short objYSize )
{
     7e8:	defff504 	addi	sp,sp,-44
     7ec:	dfc00a15 	stw	ra,40(sp)
     7f0:	df000915 	stw	fp,36(sp)
     7f4:	df000904 	addi	fp,sp,36
     7f8:	e13ffb15 	stw	r4,-20(fp)
     7fc:	3009883a 	mov	r4,r6
     800:	3807883a 	mov	r3,r7
     804:	e0800217 	ldw	r2,8(fp)
     808:	e17ffc0d 	sth	r5,-16(fp)
     80c:	e13ffd0d 	sth	r4,-12(fp)
     810:	e0fffe0d 	sth	r3,-8(fp)
     814:	e0bfff0d 	sth	r2,-4(fp)
	bool status = true;
     818:	00800044 	movi	r2,1
     81c:	e0bff805 	stb	r2,-32(fp)

	if ( width < objXSize || height < objYSize )//obj尺寸超出模块范围，不考虑对象obj的需求尺寸，obj直接使用模块尺寸
     820:	e0fffc0f 	ldh	r3,-16(fp)
     824:	e0bffe0f 	ldh	r2,-8(fp)
     828:	18800316 	blt	r3,r2,838 <setAreaRangeCentered+0x50>
     82c:	e0fffd0f 	ldh	r3,-12(fp)
     830:	e0bfff0f 	ldh	r2,-4(fp)
     834:	18800b0e 	bge	r3,r2,864 <setAreaRangeCentered+0x7c>
	{
		setAreaRange( areaPtr, 1, width, 1, height );
     838:	e0fffc0f 	ldh	r3,-16(fp)
     83c:	e0bffd0f 	ldh	r2,-12(fp)
     840:	d8800015 	stw	r2,0(sp)
     844:	e13ffb17 	ldw	r4,-20(fp)
     848:	01400044 	movi	r5,1
     84c:	180d883a 	mov	r6,r3
     850:	01c00044 	movi	r7,1
     854:	00003f40 	call	3f4 <setAreaRange>
		status = false;//参数设置有误（有模块的对象尺寸超出边界）
     858:	e03ff805 	stb	zero,-32(fp)
		return status;
     85c:	e0bff803 	ldbu	r2,-32(fp)
     860:	00003d06 	br	958 <setAreaRangeCentered+0x170>
	}

	//区域范围正常
	short marginXL = ( width - objXSize ) >> 1;//左边距
     864:	e0fffc0f 	ldh	r3,-16(fp)
     868:	e0bffe0f 	ldh	r2,-8(fp)
     86c:	1885c83a 	sub	r2,r3,r2
     870:	1005d07a 	srai	r2,r2,1
     874:	e0bff88d 	sth	r2,-30(fp)
	short marginXR = ( width - objXSize ) - marginXL;//右边距
     878:	e0fffc0b 	ldhu	r3,-16(fp)
     87c:	e0bffe0b 	ldhu	r2,-8(fp)
     880:	1885c83a 	sub	r2,r3,r2
     884:	1007883a 	mov	r3,r2
     888:	e0bff88b 	ldhu	r2,-30(fp)
     88c:	1885c83a 	sub	r2,r3,r2
     890:	e0bff90d 	sth	r2,-28(fp)
	short marginYU = ( height - objYSize )>> 1;//上边距
     894:	e0fffd0f 	ldh	r3,-12(fp)
     898:	e0bfff0f 	ldh	r2,-4(fp)
     89c:	1885c83a 	sub	r2,r3,r2
     8a0:	1005d07a 	srai	r2,r2,1
     8a4:	e0bff98d 	sth	r2,-26(fp)
	short marginYD = ( height - objYSize ) - marginYU;//下边距
     8a8:	e0fffd0b 	ldhu	r3,-12(fp)
     8ac:	e0bfff0b 	ldhu	r2,-4(fp)
     8b0:	1885c83a 	sub	r2,r3,r2
     8b4:	1007883a 	mov	r3,r2
     8b8:	e0bff98b 	ldhu	r2,-26(fp)
     8bc:	1885c83a 	sub	r2,r3,r2
     8c0:	e0bffa0d 	sth	r2,-24(fp)

	status = status && setAreaRange( areaPtr, marginXL+1, width-marginXR, marginYU+1, height-marginYD );
     8c4:	e0bff803 	ldbu	r2,-32(fp)
     8c8:	10001d26 	beq	r2,zero,940 <setAreaRangeCentered+0x158>
     8cc:	e0bff88b 	ldhu	r2,-30(fp)
     8d0:	10800044 	addi	r2,r2,1
     8d4:	117fffcc 	andi	r5,r2,65535
     8d8:	2960001c 	xori	r5,r5,32768
     8dc:	29600004 	addi	r5,r5,-32768
     8e0:	e0fffc0b 	ldhu	r3,-16(fp)
     8e4:	e0bff90b 	ldhu	r2,-28(fp)
     8e8:	1885c83a 	sub	r2,r3,r2
     8ec:	11bfffcc 	andi	r6,r2,65535
     8f0:	31a0001c 	xori	r6,r6,32768
     8f4:	31a00004 	addi	r6,r6,-32768
     8f8:	e0bff98b 	ldhu	r2,-26(fp)
     8fc:	10800044 	addi	r2,r2,1
     900:	11ffffcc 	andi	r7,r2,65535
     904:	39e0001c 	xori	r7,r7,32768
     908:	39e00004 	addi	r7,r7,-32768
     90c:	e0fffd0b 	ldhu	r3,-12(fp)
     910:	e0bffa0b 	ldhu	r2,-24(fp)
     914:	1885c83a 	sub	r2,r3,r2
     918:	10bfffcc 	andi	r2,r2,65535
     91c:	10a0001c 	xori	r2,r2,32768
     920:	10a00004 	addi	r2,r2,-32768
     924:	d8800015 	stw	r2,0(sp)
     928:	e13ffb17 	ldw	r4,-20(fp)
     92c:	00003f40 	call	3f4 <setAreaRange>
     930:	10803fcc 	andi	r2,r2,255
     934:	10000226 	beq	r2,zero,940 <setAreaRangeCentered+0x158>
     938:	00800044 	movi	r2,1
     93c:	00000106 	br	944 <setAreaRangeCentered+0x15c>
     940:	0005883a 	mov	r2,zero
     944:	e0bff805 	stb	r2,-32(fp)
     948:	e0bff803 	ldbu	r2,-32(fp)
     94c:	1080004c 	andi	r2,r2,1
     950:	e0bff805 	stb	r2,-32(fp)

	return status;
     954:	e0bff803 	ldbu	r2,-32(fp)
}
     958:	e037883a 	mov	sp,fp
     95c:	dfc00117 	ldw	ra,4(sp)
     960:	df000017 	ldw	fp,0(sp)
     964:	dec00204 	addi	sp,sp,8
     968:	f800283a 	ret

0000096c <setDefaultTagBlock>:
//设置默认居中标签
bool setDefaultTagBlock( TagBlock *tagPtr, char *text, short width, short height )
{
     96c:	defff704 	addi	sp,sp,-36
     970:	dfc00815 	stw	ra,32(sp)
     974:	df000715 	stw	fp,28(sp)
     978:	df000704 	addi	fp,sp,28
     97c:	e13ffc15 	stw	r4,-16(fp)
     980:	e17ffd15 	stw	r5,-12(fp)
     984:	3007883a 	mov	r3,r6
     988:	3805883a 	mov	r2,r7
     98c:	e0fffe0d 	sth	r3,-8(fp)
     990:	e0bfff0d 	sth	r2,-4(fp)
	tagPtr->borderVisible = true;
     994:	e0bffc17 	ldw	r2,-16(fp)
     998:	00c00044 	movi	r3,1
     99c:	10c00205 	stb	r3,8(r2)
	tagPtr->tagColorInfo = defaultColorInfo;
     9a0:	e0bffc17 	ldw	r2,-16(fp)
     9a4:	d0e0000b 	ldhu	r3,-32768(gp)
     9a8:	10c0028d 	sth	r3,10(r2)
     9ac:	d0e00084 	addi	r3,gp,-32766
     9b0:	18c0000b 	ldhu	r3,0(r3)
     9b4:	10c0030d 	sth	r3,12(r2)
     9b8:	d0e00104 	addi	r3,gp,-32764
     9bc:	18c0000b 	ldhu	r3,0(r3)
     9c0:	10c0038d 	sth	r3,14(r2)
	tagPtr->wordSpacing = DEFAULT_WORD_SPACING;
     9c4:	e0bffc17 	ldw	r2,-16(fp)
     9c8:	00c00084 	movi	r3,2
     9cc:	10c0040d 	sth	r3,16(r2)
	tagPtr->letterSpacing = DEFAULT_LETTER_SPACING;
     9d0:	e0bffc17 	ldw	r2,-16(fp)
     9d4:	00c00044 	movi	r3,1
     9d8:	10c0048d 	sth	r3,18(r2)
	(tagPtr->tagText).text = text;
     9dc:	e0bffc17 	ldw	r2,-16(fp)
     9e0:	e0fffd17 	ldw	r3,-12(fp)
     9e4:	10c00615 	stw	r3,24(r2)

	short textLen = strlen(text);
     9e8:	e13ffd17 	ldw	r4,-12(fp)
     9ec:	00046680 	call	4668 <strlen>
     9f0:	e0bffa0d 	sth	r2,-24(fp)
	(tagPtr->tagText).textLen = textLen;
     9f4:	e0bffc17 	ldw	r2,-16(fp)
     9f8:	e0fffa0b 	ldhu	r3,-24(fp)
     9fc:	10c0070d 	sth	r3,28(r2)

	if ( text == NULL )
     a00:	e0bffd17 	ldw	r2,-12(fp)
     a04:	1000031e 	bne	r2,zero,a14 <setDefaultTagBlock+0xa8>
	{
		tagPtr->textVisible = false;
     a08:	e0bffc17 	ldw	r2,-16(fp)
     a0c:	10000245 	stb	zero,9(r2)
     a10:	00000306 	br	a20 <setDefaultTagBlock+0xb4>
	}
	else
	{
		tagPtr->textVisible = true;
     a14:	e0bffc17 	ldw	r2,-16(fp)
     a18:	00c00044 	movi	r3,1
     a1c:	10c00245 	stb	r3,9(r2)
	}
	short textWidthSum = getWidthOfText( text, textLen );
     a20:	e0bffa0f 	ldh	r2,-24(fp)
     a24:	e13ffd17 	ldw	r4,-12(fp)
     a28:	100b883a 	mov	r5,r2
     a2c:	0000ef80 	call	ef8 <getWidthOfText>
     a30:	e0bffa8d 	sth	r2,-22(fp)

	bool status = setAreaRangeCentered( &(tagPtr->textArea ), width, height, textWidthSum, SRC_WORD_SIZE_Y );
     a34:	e13ffc17 	ldw	r4,-16(fp)
     a38:	e17ffe0f 	ldh	r5,-8(fp)
     a3c:	e1bfff0f 	ldh	r6,-4(fp)
     a40:	e0fffa8f 	ldh	r3,-22(fp)
     a44:	00800404 	movi	r2,16
     a48:	d8800015 	stw	r2,0(sp)
     a4c:	180f883a 	mov	r7,r3
     a50:	00007e80 	call	7e8 <setAreaRangeCentered>
     a54:	e0bffb05 	stb	r2,-20(fp)

	return status;
     a58:	e0bffb03 	ldbu	r2,-20(fp)
}
     a5c:	e037883a 	mov	sp,fp
     a60:	dfc00117 	ldw	ra,4(sp)
     a64:	df000017 	ldw	fp,0(sp)
     a68:	dec00204 	addi	sp,sp,8
     a6c:	f800283a 	ret

00000a70 <setDefaultProgressBar>:
//设置默认进度条
bool setDefaultProgressBar( ProgressBar *prgBarInst, short width, short height )
{
     a70:	defff504 	addi	sp,sp,-44
     a74:	dfc00a15 	stw	ra,40(sp)
     a78:	df000915 	stw	fp,36(sp)
     a7c:	df000904 	addi	fp,sp,36
     a80:	e13ffd15 	stw	r4,-12(fp)
     a84:	2807883a 	mov	r3,r5
     a88:	3005883a 	mov	r2,r6
     a8c:	e0fffe0d 	sth	r3,-8(fp)
     a90:	e0bfff0d 	sth	r2,-4(fp)
	bool status = true;
     a94:	00800044 	movi	r2,1
     a98:	e0bff905 	stb	r2,-28(fp)
	//基本信息
	prgBarInst->bkgColor = DEFAULT_BKG_COLOR;
     a9c:	e0bffd17 	ldw	r2,-12(fp)
     aa0:	00c48d04 	movi	r3,4660
     aa4:	10c0010d 	sth	r3,4(r2)
	prgBarInst->borderColor = DEFAULT_BORDER_COLOR;
     aa8:	e0bffd17 	ldw	r2,-12(fp)
     aac:	1000008d 	sth	zero,2(r2)
	prgBarInst->borderVisible = true;
     ab0:	e0bffd17 	ldw	r2,-12(fp)
     ab4:	00c00044 	movi	r3,1
     ab8:	10c00005 	stb	r3,0(r2)

	prgBarInst->xOffset = 0;
     abc:	e0bffd17 	ldw	r2,-12(fp)
     ac0:	1000140d 	sth	zero,80(r2)
	prgBarInst->xOffsetMax = 280;
     ac4:	e0bffd17 	ldw	r2,-12(fp)
     ac8:	00c04604 	movi	r3,280
     acc:	10c0148d 	sth	r3,82(r2)

	//运动轴
	short dotHeight = ICON_DOT_Y_SIZE;
     ad0:	00800204 	movi	r2,8
     ad4:	e0bff98d 	sth	r2,-26(fp)
	short axisHeight = dotHeight / 2;
     ad8:	e0bff98f 	ldh	r2,-26(fp)
     adc:	1006d7fa 	srli	r3,r2,31
     ae0:	1885883a 	add	r2,r3,r2
     ae4:	1005d07a 	srai	r2,r2,1
     ae8:	e0bffa0d 	sth	r2,-24(fp)
	short axisWidth = prgBarInst->xOffsetMax + 1;
     aec:	e0bffd17 	ldw	r2,-12(fp)
     af0:	1080148b 	ldhu	r2,82(r2)
     af4:	10800044 	addi	r2,r2,1
     af8:	e0bffa8d 	sth	r2,-22(fp)
	status = status && setAreaRangeCentered( &(prgBarInst->axisArea), width, height, axisWidth, axisHeight );
     afc:	e0bff903 	ldbu	r2,-28(fp)
     b00:	10000d26 	beq	r2,zero,b38 <setDefaultProgressBar+0xc8>
     b04:	e0bffd17 	ldw	r2,-12(fp)
     b08:	11000184 	addi	r4,r2,6
     b0c:	e17ffe0f 	ldh	r5,-8(fp)
     b10:	e1bfff0f 	ldh	r6,-4(fp)
     b14:	e0fffa8f 	ldh	r3,-22(fp)
     b18:	e0bffa0f 	ldh	r2,-24(fp)
     b1c:	d8800015 	stw	r2,0(sp)
     b20:	180f883a 	mov	r7,r3
     b24:	00007e80 	call	7e8 <setAreaRangeCentered>
     b28:	10803fcc 	andi	r2,r2,255
     b2c:	10000226 	beq	r2,zero,b38 <setDefaultProgressBar+0xc8>
     b30:	00800044 	movi	r2,1
     b34:	00000106 	br	b3c <setDefaultProgressBar+0xcc>
     b38:	0005883a 	mov	r2,zero
     b3c:	e0bff905 	stb	r2,-28(fp)
     b40:	e0bff903 	ldbu	r2,-28(fp)
     b44:	1080004c 	andi	r2,r2,1
     b48:	e0bff905 	stb	r2,-28(fp)
	//轴采用长方形区域的边界和填充的颜色体现
	status = status && setDefaultIconBlock( &(prgBarInst->axis), (void*)0, axisWidth, axisHeight, 0, 0 );
     b4c:	e0bff903 	ldbu	r2,-28(fp)
     b50:	10000e26 	beq	r2,zero,b8c <setDefaultProgressBar+0x11c>
     b54:	e0bffd17 	ldw	r2,-12(fp)
     b58:	11000404 	addi	r4,r2,16
     b5c:	e0fffa8f 	ldh	r3,-22(fp)
     b60:	e0bffa0f 	ldh	r2,-24(fp)
     b64:	d8000015 	stw	zero,0(sp)
     b68:	d8000115 	stw	zero,4(sp)
     b6c:	000b883a 	mov	r5,zero
     b70:	180d883a 	mov	r6,r3
     b74:	100f883a 	mov	r7,r2
     b78:	0000d580 	call	d58 <setDefaultIconBlock>
     b7c:	10803fcc 	andi	r2,r2,255
     b80:	10000226 	beq	r2,zero,b8c <setDefaultProgressBar+0x11c>
     b84:	00800044 	movi	r2,1
     b88:	00000106 	br	b90 <setDefaultProgressBar+0x120>
     b8c:	0005883a 	mov	r2,zero
     b90:	e0bff905 	stb	r2,-28(fp)
     b94:	e0bff903 	ldbu	r2,-28(fp)
     b98:	1080004c 	andi	r2,r2,1
     b9c:	e0bff905 	stb	r2,-28(fp)

	//进度点基本区域（无偏移量时）
	short dotWidth = ICON_DOT_X_SIZE;
     ba0:	00800204 	movi	r2,8
     ba4:	e0bffb0d 	sth	r2,-20(fp)
	short dotMarginXL = (prgBarInst->axisArea).x_min - dotWidth/2 - 1;
     ba8:	e0bffd17 	ldw	r2,-12(fp)
     bac:	1080018b 	ldhu	r2,6(r2)
     bb0:	1009883a 	mov	r4,r2
     bb4:	e0bffb0f 	ldh	r2,-20(fp)
     bb8:	1006d7fa 	srli	r3,r2,31
     bbc:	1885883a 	add	r2,r3,r2
     bc0:	1005d07a 	srai	r2,r2,1
     bc4:	2085c83a 	sub	r2,r4,r2
     bc8:	10bfffc4 	addi	r2,r2,-1
     bcc:	e0bffb8d 	sth	r2,-18(fp)
	short dotMarginYU = ( (prgBarInst->axisArea).y_min - 1 + (prgBarInst->axisArea).y_max - dotHeight ) / 2;
     bd0:	e0bffd17 	ldw	r2,-12(fp)
     bd4:	1080028b 	ldhu	r2,10(r2)
     bd8:	10bfffcc 	andi	r2,r2,65535
     bdc:	10a0001c 	xori	r2,r2,32768
     be0:	10a00004 	addi	r2,r2,-32768
     be4:	10ffffc4 	addi	r3,r2,-1
     be8:	e0bffd17 	ldw	r2,-12(fp)
     bec:	1080030b 	ldhu	r2,12(r2)
     bf0:	10bfffcc 	andi	r2,r2,65535
     bf4:	10a0001c 	xori	r2,r2,32768
     bf8:	10a00004 	addi	r2,r2,-32768
     bfc:	1887883a 	add	r3,r3,r2
     c00:	e0bff98f 	ldh	r2,-26(fp)
     c04:	1885c83a 	sub	r2,r3,r2
     c08:	1006d7fa 	srli	r3,r2,31
     c0c:	1885883a 	add	r2,r3,r2
     c10:	1005d07a 	srai	r2,r2,1
     c14:	e0bffc0d 	sth	r2,-16(fp)
	status = status && setAreaRange( &(prgBarInst->dotBaseArea), dotMarginXL + 1, dotMarginXL + dotWidth,\
     c18:	e0bff903 	ldbu	r2,-28(fp)
     c1c:	10001e26 	beq	r2,zero,c98 <setDefaultProgressBar+0x228>
     c20:	e0bffd17 	ldw	r2,-12(fp)
     c24:	11000b04 	addi	r4,r2,44
     c28:	e0bffb8b 	ldhu	r2,-18(fp)
     c2c:	10800044 	addi	r2,r2,1
     c30:	117fffcc 	andi	r5,r2,65535
     c34:	2960001c 	xori	r5,r5,32768
     c38:	29600004 	addi	r5,r5,-32768
     c3c:	e0fffb8b 	ldhu	r3,-18(fp)
     c40:	e0bffb0b 	ldhu	r2,-20(fp)
     c44:	1885883a 	add	r2,r3,r2
     c48:	11bfffcc 	andi	r6,r2,65535
     c4c:	31a0001c 	xori	r6,r6,32768
     c50:	31a00004 	addi	r6,r6,-32768
     c54:	e0bffc0b 	ldhu	r2,-16(fp)
     c58:	10800044 	addi	r2,r2,1
     c5c:	11ffffcc 	andi	r7,r2,65535
     c60:	39e0001c 	xori	r7,r7,32768
     c64:	39e00004 	addi	r7,r7,-32768
     c68:	e0fffc0b 	ldhu	r3,-16(fp)
     c6c:	e0bff98b 	ldhu	r2,-26(fp)
     c70:	1885883a 	add	r2,r3,r2
     c74:	10bfffcc 	andi	r2,r2,65535
     c78:	10a0001c 	xori	r2,r2,32768
     c7c:	10a00004 	addi	r2,r2,-32768
     c80:	d8800015 	stw	r2,0(sp)
     c84:	00003f40 	call	3f4 <setAreaRange>
     c88:	10803fcc 	andi	r2,r2,255
     c8c:	10000226 	beq	r2,zero,c98 <setDefaultProgressBar+0x228>
     c90:	00800044 	movi	r2,1
     c94:	00000106 	br	c9c <setDefaultProgressBar+0x22c>
     c98:	0005883a 	mov	r2,zero
     c9c:	e0bff905 	stb	r2,-28(fp)
     ca0:	e0bff903 	ldbu	r2,-28(fp)
     ca4:	1080004c 	andi	r2,r2,1
     ca8:	e0bff905 	stb	r2,-28(fp)
					dotMarginYU + 1, dotMarginYU + dotHeight);
	status = status && setDefaultIconBlock( &(prgBarInst->dot), icon_dot, axisWidth, axisHeight, dotWidth, dotHeight );
     cac:	e0bff903 	ldbu	r2,-28(fp)
     cb0:	10000f26 	beq	r2,zero,cf0 <setDefaultProgressBar+0x280>
     cb4:	e0bffd17 	ldw	r2,-12(fp)
     cb8:	11000d04 	addi	r4,r2,52
     cbc:	e1bffa8f 	ldh	r6,-22(fp)
     cc0:	e1fffa0f 	ldh	r7,-24(fp)
     cc4:	e0fffb0f 	ldh	r3,-20(fp)
     cc8:	e0bff98f 	ldh	r2,-26(fp)
     ccc:	d8c00015 	stw	r3,0(sp)
     cd0:	d8800115 	stw	r2,4(sp)
     cd4:	01400374 	movhi	r5,13
     cd8:	297e6004 	addi	r5,r5,-1664
     cdc:	0000d580 	call	d58 <setDefaultIconBlock>
     ce0:	10803fcc 	andi	r2,r2,255
     ce4:	10000226 	beq	r2,zero,cf0 <setDefaultProgressBar+0x280>
     ce8:	00800044 	movi	r2,1
     cec:	00000106 	br	cf4 <setDefaultProgressBar+0x284>
     cf0:	0005883a 	mov	r2,zero
     cf4:	e0bff905 	stb	r2,-28(fp)
     cf8:	e0bff903 	ldbu	r2,-28(fp)
     cfc:	1080004c 	andi	r2,r2,1
     d00:	e0bff905 	stb	r2,-28(fp)


	return status;
     d04:	e0bff903 	ldbu	r2,-28(fp)

}
     d08:	e037883a 	mov	sp,fp
     d0c:	dfc00117 	ldw	ra,4(sp)
     d10:	df000017 	ldw	fp,0(sp)
     d14:	dec00204 	addi	sp,sp,8
     d18:	f800283a 	ret

00000d1c <setDefaultScrollBarY>:
//设置默认垂直滚动条
bool setDefaultScrollBarY( ScrollBarY *scrollBarYInst, short width, short height )
{
     d1c:	defffb04 	addi	sp,sp,-20
     d20:	df000415 	stw	fp,16(sp)
     d24:	df000404 	addi	fp,sp,16
     d28:	e13ffd15 	stw	r4,-12(fp)
     d2c:	2807883a 	mov	r3,r5
     d30:	3005883a 	mov	r2,r6
     d34:	e0fffe0d 	sth	r3,-8(fp)
     d38:	e0bfff0d 	sth	r2,-4(fp)
	bool status = true;
     d3c:	00800044 	movi	r2,1
     d40:	e0bffc05 	stb	r2,-16(fp)



	return status;
     d44:	e0bffc03 	ldbu	r2,-16(fp)
}
     d48:	e037883a 	mov	sp,fp
     d4c:	df000017 	ldw	fp,0(sp)
     d50:	dec00104 	addi	sp,sp,4
     d54:	f800283a 	ret

00000d58 <setDefaultIconBlock>:
//设置默认居中图标
bool setDefaultIconBlock( IconBlock *iconPtr, const alt_u8 *iconModel, short width, short height, short iconXSize, short iconYSize )
{
     d58:	defff604 	addi	sp,sp,-40
     d5c:	dfc00915 	stw	ra,36(sp)
     d60:	df000815 	stw	fp,32(sp)
     d64:	df000804 	addi	fp,sp,32
     d68:	e13ffa15 	stw	r4,-24(fp)
     d6c:	e17ffb15 	stw	r5,-20(fp)
     d70:	300b883a 	mov	r5,r6
     d74:	3809883a 	mov	r4,r7
     d78:	e0c00217 	ldw	r3,8(fp)
     d7c:	e0800317 	ldw	r2,12(fp)
     d80:	e17ffc0d 	sth	r5,-16(fp)
     d84:	e13ffd0d 	sth	r4,-12(fp)
     d88:	e0fffe0d 	sth	r3,-8(fp)
     d8c:	e0bfff0d 	sth	r2,-4(fp)
	iconPtr->borderVisible = true;
     d90:	e0bffa17 	ldw	r2,-24(fp)
     d94:	00c00044 	movi	r3,1
     d98:	10c00205 	stb	r3,8(r2)
	iconPtr->iconPic = iconModel;
     d9c:	e0bffa17 	ldw	r2,-24(fp)
     da0:	e0fffb17 	ldw	r3,-20(fp)
     da4:	10c00415 	stw	r3,16(r2)
	iconPtr->iconWidth = iconXSize;
     da8:	e0bffa17 	ldw	r2,-24(fp)
     dac:	e0fffe0b 	ldhu	r3,-8(fp)
     db0:	10c0050d 	sth	r3,20(r2)
	iconPtr->iconXSizeInByte = (iconXSize+7)>>3;//除8，向上取整
     db4:	e0bffe0f 	ldh	r2,-8(fp)
     db8:	108001c4 	addi	r2,r2,7
     dbc:	1005d0fa 	srai	r2,r2,3
     dc0:	1007883a 	mov	r3,r2
     dc4:	e0bffa17 	ldw	r2,-24(fp)
     dc8:	10c0058d 	sth	r3,22(r2)
	iconPtr->iconYSizeInByte = iconYSize;
     dcc:	e0bffa17 	ldw	r2,-24(fp)
     dd0:	e0ffff0b 	ldhu	r3,-4(fp)
     dd4:	10c0060d 	sth	r3,24(r2)

	if ( iconModel == (void*)0 )
     dd8:	e0bffb17 	ldw	r2,-20(fp)
     ddc:	1000031e 	bne	r2,zero,dec <setDefaultIconBlock+0x94>
	{
		iconPtr->picVisible = false;
     de0:	e0bffa17 	ldw	r2,-24(fp)
     de4:	10000245 	stb	zero,9(r2)
     de8:	00000306 	br	df8 <setDefaultIconBlock+0xa0>
	}
	else
	{
		iconPtr->picVisible = true;
     dec:	e0bffa17 	ldw	r2,-24(fp)
     df0:	00c00044 	movi	r3,1
     df4:	10c00245 	stb	r3,9(r2)
	}
	iconPtr->iconColorInfo = defaultColorInfo;
     df8:	e0bffa17 	ldw	r2,-24(fp)
     dfc:	d0e0000b 	ldhu	r3,-32768(gp)
     e00:	10c0028d 	sth	r3,10(r2)
     e04:	d0e00084 	addi	r3,gp,-32766
     e08:	18c0000b 	ldhu	r3,0(r3)
     e0c:	10c0030d 	sth	r3,12(r2)
     e10:	d0e00104 	addi	r3,gp,-32764
     e14:	18c0000b 	ldhu	r3,0(r3)
     e18:	10c0038d 	sth	r3,14(r2)

	bool status = setAreaRangeCentered( &(iconPtr->picArea ), width, height, iconXSize, iconYSize );
     e1c:	e13ffa17 	ldw	r4,-24(fp)
     e20:	e17ffc0f 	ldh	r5,-16(fp)
     e24:	e1bffd0f 	ldh	r6,-12(fp)
     e28:	e0fffe0f 	ldh	r3,-8(fp)
     e2c:	e0bfff0f 	ldh	r2,-4(fp)
     e30:	d8800015 	stw	r2,0(sp)
     e34:	180f883a 	mov	r7,r3
     e38:	00007e80 	call	7e8 <setAreaRangeCentered>
     e3c:	e0bff905 	stb	r2,-28(fp)

	return status;
     e40:	e0bff903 	ldbu	r2,-28(fp)
}
     e44:	e037883a 	mov	sp,fp
     e48:	dfc00117 	ldw	ra,4(sp)
     e4c:	df000017 	ldw	fp,0(sp)
     e50:	dec00204 	addi	sp,sp,8
     e54:	f800283a 	ret

00000e58 <setDefaultColorTable>:

//设置取色板信息(颜色的位置colorPos表示屏幕中选中的位置，根据该位置，显示器会突出该块颜色的边界)
void setDefaultColorTable( ColorTable *colorPickerInst, color_u8 *colorSel, short width, short height )
{
     e58:	defffb04 	addi	sp,sp,-20
     e5c:	df000415 	stw	fp,16(sp)
     e60:	df000404 	addi	fp,sp,16
     e64:	e13ffc15 	stw	r4,-16(fp)
     e68:	e17ffd15 	stw	r5,-12(fp)
     e6c:	3007883a 	mov	r3,r6
     e70:	3805883a 	mov	r2,r7
     e74:	e0fffe0d 	sth	r3,-8(fp)
     e78:	e0bfff0d 	sth	r2,-4(fp)
	colorPickerInst->colorIndex = colorSel;
     e7c:	e0bffc17 	ldw	r2,-16(fp)
     e80:	e0fffd17 	ldw	r3,-12(fp)
     e84:	10c00315 	stw	r3,12(r2)
	colorPickerInst->colorXNum = 16;//颜色有16行
     e88:	e0bffc17 	ldw	r2,-16(fp)
     e8c:	00c00404 	movi	r3,16
     e90:	10c0010d 	sth	r3,4(r2)
	colorPickerInst->colorYNum = 16;//颜色有16列
     e94:	e0bffc17 	ldw	r2,-16(fp)
     e98:	00c00404 	movi	r3,16
     e9c:	10c0018d 	sth	r3,6(r2)
	colorPickerInst->colorXSize = width / 16;
     ea0:	e0bffe0f 	ldh	r2,-8(fp)
     ea4:	1000010e 	bge	r2,zero,eac <setDefaultColorTable+0x54>
     ea8:	108003c4 	addi	r2,r2,15
     eac:	1005d13a 	srai	r2,r2,4
     eb0:	1007883a 	mov	r3,r2
     eb4:	e0bffc17 	ldw	r2,-16(fp)
     eb8:	10c0000d 	sth	r3,0(r2)
	colorPickerInst->colorYSize = height / 16;
     ebc:	e0bfff0f 	ldh	r2,-4(fp)
     ec0:	1000010e 	bge	r2,zero,ec8 <setDefaultColorTable+0x70>
     ec4:	108003c4 	addi	r2,r2,15
     ec8:	1005d13a 	srai	r2,r2,4
     ecc:	1007883a 	mov	r3,r2
     ed0:	e0bffc17 	ldw	r2,-16(fp)
     ed4:	10c0008d 	sth	r3,2(r2)
	colorPickerInst->colorSpace = color_form;
     ed8:	e0fffc17 	ldw	r3,-16(fp)
     edc:	00800374 	movhi	r2,13
     ee0:	10be7a04 	addi	r2,r2,-1560
     ee4:	18800215 	stw	r2,8(r3)
}
     ee8:	e037883a 	mov	sp,fp
     eec:	df000017 	ldw	fp,0(sp)
     ef0:	dec00104 	addi	sp,sp,4
     ef4:	f800283a 	ret

00000ef8 <getWidthOfText>:

//计算有效文本全部显示时的像素宽度
short getWidthOfText( char *str, short len )
{
     ef8:	defff704 	addi	sp,sp,-36
     efc:	dfc00815 	stw	ra,32(sp)
     f00:	df000715 	stw	fp,28(sp)
     f04:	df000704 	addi	fp,sp,28
     f08:	e13ffe15 	stw	r4,-8(fp)
     f0c:	2805883a 	mov	r2,r5
     f10:	e0bfff0d 	sth	r2,-4(fp)
	char *strType = (char*)malloc( sizeof( char ) );
     f14:	01000044 	movi	r4,1
     f18:	0003d800 	call	3d80 <malloc>
     f1c:	e0bffc15 	stw	r2,-16(fp)
	short strTypeVaildNum = 0;
     f20:	e03ff90d 	sth	zero,-28(fp)

	int i;
	for ( i = 0; i < len; i ++ )
     f24:	e03ffa15 	stw	zero,-24(fp)
     f28:	00002c06 	br	fdc <getWidthOfText+0xe4>
	{
		char curChar = str[i];
     f2c:	e0bffa17 	ldw	r2,-24(fp)
     f30:	e0fffe17 	ldw	r3,-8(fp)
     f34:	1885883a 	add	r2,r3,r2
     f38:	10800003 	ldbu	r2,0(r2)
     f3c:	e0bffd05 	stb	r2,-12(fp)
		if ( curChar == 0 )//结束标志
     f40:	e0bffd07 	ldb	r2,-12(fp)
     f44:	1000011e 	bne	r2,zero,f4c <getWidthOfText+0x54>
		{
			break;
     f48:	00002706 	br	fe8 <getWidthOfText+0xf0>
		}
		if ( curChar < 0 )//当前字节为汉字高字节
     f4c:	e0bffd07 	ldb	r2,-12(fp)
     f50:	1000170e 	bge	r2,zero,fb0 <getWidthOfText+0xb8>
		{
			strType[strTypeVaildNum] = 'c';//中文CHINESE
     f54:	e0bff90f 	ldh	r2,-28(fp)
     f58:	e0fffc17 	ldw	r3,-16(fp)
     f5c:	1885883a 	add	r2,r3,r2
     f60:	00c018c4 	movi	r3,99
     f64:	10c00005 	stb	r3,0(r2)
			i = i + 1;
     f68:	e0bffa17 	ldw	r2,-24(fp)
     f6c:	10800044 	addi	r2,r2,1
     f70:	e0bffa15 	stw	r2,-24(fp)
			if ( i == len || str[i] == 0 )//低字节不存在，有问题，返回文本长度为0，表示文本*str有误
     f74:	e0ffff0f 	ldh	r3,-4(fp)
     f78:	e0bffa17 	ldw	r2,-24(fp)
     f7c:	18800826 	beq	r3,r2,fa0 <getWidthOfText+0xa8>
     f80:	e0bffa17 	ldw	r2,-24(fp)
     f84:	e0fffe17 	ldw	r3,-8(fp)
     f88:	1885883a 	add	r2,r3,r2
     f8c:	10800003 	ldbu	r2,0(r2)
     f90:	10803fcc 	andi	r2,r2,255
     f94:	1080201c 	xori	r2,r2,128
     f98:	10bfe004 	addi	r2,r2,-128
     f9c:	1000091e 	bne	r2,zero,fc4 <getWidthOfText+0xcc>
			{
				free(strType);
     fa0:	e13ffc17 	ldw	r4,-16(fp)
     fa4:	0003d940 	call	3d94 <free>
				return 0;
     fa8:	0005883a 	mov	r2,zero
     fac:	00004f06 	br	10ec <getWidthOfText+0x1f4>
			}
		}
		else
		{
			strType[strTypeVaildNum] = 'e';//英文ENGLISH
     fb0:	e0bff90f 	ldh	r2,-28(fp)
     fb4:	e0fffc17 	ldw	r3,-16(fp)
     fb8:	1885883a 	add	r2,r3,r2
     fbc:	00c01944 	movi	r3,101
     fc0:	10c00005 	stb	r3,0(r2)
		}
		strTypeVaildNum += 1;
     fc4:	e0bff90b 	ldhu	r2,-28(fp)
     fc8:	10800044 	addi	r2,r2,1
     fcc:	e0bff90d 	sth	r2,-28(fp)
{
	char *strType = (char*)malloc( sizeof( char ) );
	short strTypeVaildNum = 0;

	int i;
	for ( i = 0; i < len; i ++ )
     fd0:	e0bffa17 	ldw	r2,-24(fp)
     fd4:	10800044 	addi	r2,r2,1
     fd8:	e0bffa15 	stw	r2,-24(fp)
     fdc:	e0bfff0f 	ldh	r2,-4(fp)
     fe0:	e0fffa17 	ldw	r3,-24(fp)
     fe4:	18bfd116 	blt	r3,r2,f2c <__alt_data_end+0xf8000f2c>
		{
			strType[strTypeVaildNum] = 'e';//英文ENGLISH
		}
		strTypeVaildNum += 1;
	}
	short textWidth = ( strType[0] == 'e' ) ? SRC_LETTER_SIZE_X : SRC_WORD_SIZE_X;
     fe8:	e0bffc17 	ldw	r2,-16(fp)
     fec:	10800003 	ldbu	r2,0(r2)
     ff0:	10803fcc 	andi	r2,r2,255
     ff4:	1080201c 	xori	r2,r2,128
     ff8:	10bfe004 	addi	r2,r2,-128
     ffc:	10801958 	cmpnei	r2,r2,101
    1000:	1000021e 	bne	r2,zero,100c <getWidthOfText+0x114>
    1004:	00800204 	movi	r2,8
    1008:	00000106 	br	1010 <getWidthOfText+0x118>
    100c:	00800404 	movi	r2,16
    1010:	e0bffb0d 	sth	r2,-20(fp)
	for ( i = 1; i < strTypeVaildNum; i ++ )
    1014:	00800044 	movi	r2,1
    1018:	e0bffa15 	stw	r2,-24(fp)
    101c:	00002d06 	br	10d4 <getWidthOfText+0x1dc>
	{
		if( strType[i-1] == 'e' && strType[i] == 'e' )
    1020:	e0bffa17 	ldw	r2,-24(fp)
    1024:	10bfffc4 	addi	r2,r2,-1
    1028:	e0fffc17 	ldw	r3,-16(fp)
    102c:	1885883a 	add	r2,r3,r2
    1030:	10800003 	ldbu	r2,0(r2)
    1034:	10803fcc 	andi	r2,r2,255
    1038:	1080201c 	xori	r2,r2,128
    103c:	10bfe004 	addi	r2,r2,-128
    1040:	10801958 	cmpnei	r2,r2,101
    1044:	10000d1e 	bne	r2,zero,107c <getWidthOfText+0x184>
    1048:	e0bffa17 	ldw	r2,-24(fp)
    104c:	e0fffc17 	ldw	r3,-16(fp)
    1050:	1885883a 	add	r2,r3,r2
    1054:	10800003 	ldbu	r2,0(r2)
    1058:	10803fcc 	andi	r2,r2,255
    105c:	1080201c 	xori	r2,r2,128
    1060:	10bfe004 	addi	r2,r2,-128
    1064:	10801958 	cmpnei	r2,r2,101
    1068:	1000041e 	bne	r2,zero,107c <getWidthOfText+0x184>
		{
			textWidth = textWidth + DEFAULT_LETTER_SPACING;
    106c:	e0bffb0b 	ldhu	r2,-20(fp)
    1070:	10800044 	addi	r2,r2,1
    1074:	e0bffb0d 	sth	r2,-20(fp)
    1078:	00000306 	br	1088 <getWidthOfText+0x190>
		}
		else
		{
			textWidth = textWidth + DEFAULT_WORD_SPACING;
    107c:	e0bffb0b 	ldhu	r2,-20(fp)
    1080:	10800084 	addi	r2,r2,2
    1084:	e0bffb0d 	sth	r2,-20(fp)
		}
		if ( strType[i] == 'e' )
    1088:	e0bffa17 	ldw	r2,-24(fp)
    108c:	e0fffc17 	ldw	r3,-16(fp)
    1090:	1885883a 	add	r2,r3,r2
    1094:	10800003 	ldbu	r2,0(r2)
    1098:	10803fcc 	andi	r2,r2,255
    109c:	1080201c 	xori	r2,r2,128
    10a0:	10bfe004 	addi	r2,r2,-128
    10a4:	10801958 	cmpnei	r2,r2,101
    10a8:	1000041e 	bne	r2,zero,10bc <getWidthOfText+0x1c4>
		{
			textWidth = textWidth + SRC_LETTER_SIZE_X;
    10ac:	e0bffb0b 	ldhu	r2,-20(fp)
    10b0:	10800204 	addi	r2,r2,8
    10b4:	e0bffb0d 	sth	r2,-20(fp)
    10b8:	00000306 	br	10c8 <getWidthOfText+0x1d0>
		}
		else
		{
			textWidth = textWidth + SRC_WORD_SIZE_X;
    10bc:	e0bffb0b 	ldhu	r2,-20(fp)
    10c0:	10800404 	addi	r2,r2,16
    10c4:	e0bffb0d 	sth	r2,-20(fp)
			strType[strTypeVaildNum] = 'e';//英文ENGLISH
		}
		strTypeVaildNum += 1;
	}
	short textWidth = ( strType[0] == 'e' ) ? SRC_LETTER_SIZE_X : SRC_WORD_SIZE_X;
	for ( i = 1; i < strTypeVaildNum; i ++ )
    10c8:	e0bffa17 	ldw	r2,-24(fp)
    10cc:	10800044 	addi	r2,r2,1
    10d0:	e0bffa15 	stw	r2,-24(fp)
    10d4:	e0bff90f 	ldh	r2,-28(fp)
    10d8:	e0fffa17 	ldw	r3,-24(fp)
    10dc:	18bfd016 	blt	r3,r2,1020 <__alt_data_end+0xf8001020>
		else
		{
			textWidth = textWidth + SRC_WORD_SIZE_X;
		}
	}
	free(strType);
    10e0:	e13ffc17 	ldw	r4,-16(fp)
    10e4:	0003d940 	call	3d94 <free>
	return textWidth;
    10e8:	e0bffb0b 	ldhu	r2,-20(fp)
}
    10ec:	e037883a 	mov	sp,fp
    10f0:	dfc00117 	ldw	ra,4(sp)
    10f4:	df000017 	ldw	fp,0(sp)
    10f8:	dec00204 	addi	sp,sp,8
    10fc:	f800283a 	ret

00001100 <setDefaultTagBlockGroup>:


//设置默认标签组
bool setDefaultTagBlockGroup( TagBlockGroup *tagGroupInst, AreaFmt *tagStaticPos, AreaFmt *tagVarPos, short width, short height,\
			char *tagStaText, char *tagVarText )
{
    1100:	defff704 	addi	sp,sp,-36
    1104:	dfc00815 	stw	ra,32(sp)
    1108:	df000715 	stw	fp,28(sp)
    110c:	df000704 	addi	fp,sp,28
    1110:	e13ffb15 	stw	r4,-20(fp)
    1114:	e17ffc15 	stw	r5,-16(fp)
    1118:	e1bffd15 	stw	r6,-12(fp)
    111c:	3807883a 	mov	r3,r7
    1120:	e0800217 	ldw	r2,8(fp)
    1124:	e0fffe0d 	sth	r3,-8(fp)
    1128:	e0bfff0d 	sth	r2,-4(fp)
	bool status = true;
    112c:	00800044 	movi	r2,1
    1130:	e0bff905 	stb	r2,-28(fp)

	tagGroupInst->bkgColor = DEFAULT_BKG_COLOR;
    1134:	e0bffb17 	ldw	r2,-20(fp)
    1138:	00c48d04 	movi	r3,4660
    113c:	10c0010d 	sth	r3,4(r2)
	tagGroupInst->borderColor = DEFAULT_BORDER_COLOR;
    1140:	e0bffb17 	ldw	r2,-20(fp)
    1144:	1000008d 	sth	zero,2(r2)
	tagGroupInst->borderVisible = true;
    1148:	e0bffb17 	ldw	r2,-20(fp)
    114c:	00c00044 	movi	r3,1
    1150:	10c00005 	stb	r3,0(r2)

	//设置静态标签的位置
	AreaRange *tempArea = &(tagGroupInst->staticTagArea);
    1154:	e0bffb17 	ldw	r2,-20(fp)
    1158:	10800184 	addi	r2,r2,6
    115c:	e0bffa15 	stw	r2,-24(fp)
	status = status && setAreaRangeByAreaFmt( tempArea, tagStaticPos, width, height );
    1160:	e0bff903 	ldbu	r2,-28(fp)
    1164:	10000b26 	beq	r2,zero,1194 <setDefaultTagBlockGroup+0x94>
    1168:	e0fffe0f 	ldh	r3,-8(fp)
    116c:	e0bfff0f 	ldh	r2,-4(fp)
    1170:	e13ffa17 	ldw	r4,-24(fp)
    1174:	e17ffc17 	ldw	r5,-16(fp)
    1178:	180d883a 	mov	r6,r3
    117c:	100f883a 	mov	r7,r2
    1180:	00004840 	call	484 <setAreaRangeByAreaFmt>
    1184:	10803fcc 	andi	r2,r2,255
    1188:	10000226 	beq	r2,zero,1194 <setDefaultTagBlockGroup+0x94>
    118c:	00800044 	movi	r2,1
    1190:	00000106 	br	1198 <setDefaultTagBlockGroup+0x98>
    1194:	0005883a 	mov	r2,zero
    1198:	e0bff905 	stb	r2,-28(fp)
    119c:	e0bff903 	ldbu	r2,-28(fp)
    11a0:	1080004c 	andi	r2,r2,1
    11a4:	e0bff905 	stb	r2,-28(fp)
	//设置静态标签内容
	status = status && setDefaultTagBlock( &(tagGroupInst->staticTag), tagStaText, \
    11a8:	e0bff903 	ldbu	r2,-28(fp)
    11ac:	10001526 	beq	r2,zero,1204 <setDefaultTagBlockGroup+0x104>
    11b0:	e0bffb17 	ldw	r2,-20(fp)
    11b4:	10c00404 	addi	r3,r2,16
			tempArea->x_max - tempArea->x_min + 1, tempArea->y_max - tempArea->y_max + 1);
    11b8:	e0bffa17 	ldw	r2,-24(fp)
    11bc:	1080008b 	ldhu	r2,2(r2)

	//设置静态标签的位置
	AreaRange *tempArea = &(tagGroupInst->staticTagArea);
	status = status && setAreaRangeByAreaFmt( tempArea, tagStaticPos, width, height );
	//设置静态标签内容
	status = status && setDefaultTagBlock( &(tagGroupInst->staticTag), tagStaText, \
    11c0:	1009883a 	mov	r4,r2
			tempArea->x_max - tempArea->x_min + 1, tempArea->y_max - tempArea->y_max + 1);
    11c4:	e0bffa17 	ldw	r2,-24(fp)
    11c8:	1080000b 	ldhu	r2,0(r2)

	//设置静态标签的位置
	AreaRange *tempArea = &(tagGroupInst->staticTagArea);
	status = status && setAreaRangeByAreaFmt( tempArea, tagStaticPos, width, height );
	//设置静态标签内容
	status = status && setDefaultTagBlock( &(tagGroupInst->staticTag), tagStaText, \
    11cc:	2085c83a 	sub	r2,r4,r2
    11d0:	10800044 	addi	r2,r2,1
    11d4:	10bfffcc 	andi	r2,r2,65535
    11d8:	10a0001c 	xori	r2,r2,32768
    11dc:	10a00004 	addi	r2,r2,-32768
    11e0:	1809883a 	mov	r4,r3
    11e4:	e1400317 	ldw	r5,12(fp)
    11e8:	100d883a 	mov	r6,r2
    11ec:	01c00044 	movi	r7,1
    11f0:	000096c0 	call	96c <setDefaultTagBlock>
    11f4:	10803fcc 	andi	r2,r2,255
    11f8:	10000226 	beq	r2,zero,1204 <setDefaultTagBlockGroup+0x104>
    11fc:	00800044 	movi	r2,1
    1200:	00000106 	br	1208 <setDefaultTagBlockGroup+0x108>
    1204:	0005883a 	mov	r2,zero
    1208:	e0bff905 	stb	r2,-28(fp)
    120c:	e0bff903 	ldbu	r2,-28(fp)
    1210:	1080004c 	andi	r2,r2,1
    1214:	e0bff905 	stb	r2,-28(fp)
			tempArea->x_max - tempArea->x_min + 1, tempArea->y_max - tempArea->y_max + 1);


	//设置动态标签的位置
	tempArea = &(tagGroupInst->varTagArea);
    1218:	e0bffb17 	ldw	r2,-20(fp)
    121c:	10800c04 	addi	r2,r2,48
    1220:	e0bffa15 	stw	r2,-24(fp)
	status = status && setAreaRangeByAreaFmt( tempArea, tagVarPos, width, height );
    1224:	e0bff903 	ldbu	r2,-28(fp)
    1228:	10000b26 	beq	r2,zero,1258 <setDefaultTagBlockGroup+0x158>
    122c:	e0fffe0f 	ldh	r3,-8(fp)
    1230:	e0bfff0f 	ldh	r2,-4(fp)
    1234:	e13ffa17 	ldw	r4,-24(fp)
    1238:	e17ffd17 	ldw	r5,-12(fp)
    123c:	180d883a 	mov	r6,r3
    1240:	100f883a 	mov	r7,r2
    1244:	00004840 	call	484 <setAreaRangeByAreaFmt>
    1248:	10803fcc 	andi	r2,r2,255
    124c:	10000226 	beq	r2,zero,1258 <setDefaultTagBlockGroup+0x158>
    1250:	00800044 	movi	r2,1
    1254:	00000106 	br	125c <setDefaultTagBlockGroup+0x15c>
    1258:	0005883a 	mov	r2,zero
    125c:	e0bff905 	stb	r2,-28(fp)
    1260:	e0bff903 	ldbu	r2,-28(fp)
    1264:	1080004c 	andi	r2,r2,1
    1268:	e0bff905 	stb	r2,-28(fp)
	//设置动态标签内容
	status = status && setDefaultTagBlock( &(tagGroupInst->varTag), tagVarText, \
    126c:	e0bff903 	ldbu	r2,-28(fp)
    1270:	10001526 	beq	r2,zero,12c8 <setDefaultTagBlockGroup+0x1c8>
    1274:	e0bffb17 	ldw	r2,-20(fp)
    1278:	10c00e04 	addi	r3,r2,56
			tempArea->x_max - tempArea->x_min + 1, tempArea->y_max - tempArea->y_max + 1);
    127c:	e0bffa17 	ldw	r2,-24(fp)
    1280:	1080008b 	ldhu	r2,2(r2)

	//设置动态标签的位置
	tempArea = &(tagGroupInst->varTagArea);
	status = status && setAreaRangeByAreaFmt( tempArea, tagVarPos, width, height );
	//设置动态标签内容
	status = status && setDefaultTagBlock( &(tagGroupInst->varTag), tagVarText, \
    1284:	1009883a 	mov	r4,r2
			tempArea->x_max - tempArea->x_min + 1, tempArea->y_max - tempArea->y_max + 1);
    1288:	e0bffa17 	ldw	r2,-24(fp)
    128c:	1080000b 	ldhu	r2,0(r2)

	//设置动态标签的位置
	tempArea = &(tagGroupInst->varTagArea);
	status = status && setAreaRangeByAreaFmt( tempArea, tagVarPos, width, height );
	//设置动态标签内容
	status = status && setDefaultTagBlock( &(tagGroupInst->varTag), tagVarText, \
    1290:	2085c83a 	sub	r2,r4,r2
    1294:	10800044 	addi	r2,r2,1
    1298:	10bfffcc 	andi	r2,r2,65535
    129c:	10a0001c 	xori	r2,r2,32768
    12a0:	10a00004 	addi	r2,r2,-32768
    12a4:	1809883a 	mov	r4,r3
    12a8:	e1400417 	ldw	r5,16(fp)
    12ac:	100d883a 	mov	r6,r2
    12b0:	01c00044 	movi	r7,1
    12b4:	000096c0 	call	96c <setDefaultTagBlock>
    12b8:	10803fcc 	andi	r2,r2,255
    12bc:	10000226 	beq	r2,zero,12c8 <setDefaultTagBlockGroup+0x1c8>
    12c0:	00800044 	movi	r2,1
    12c4:	00000106 	br	12cc <setDefaultTagBlockGroup+0x1cc>
    12c8:	0005883a 	mov	r2,zero
    12cc:	e0bff905 	stb	r2,-28(fp)
    12d0:	e0bff903 	ldbu	r2,-28(fp)
    12d4:	1080004c 	andi	r2,r2,1
    12d8:	e0bff905 	stb	r2,-28(fp)
			tempArea->x_max - tempArea->x_min + 1, tempArea->y_max - tempArea->y_max + 1);

	return status;
    12dc:	e0bff903 	ldbu	r2,-28(fp)
}
    12e0:	e037883a 	mov	sp,fp
    12e4:	dfc00117 	ldw	ra,4(sp)
    12e8:	df000017 	ldw	fp,0(sp)
    12ec:	dec00204 	addi	sp,sp,8
    12f0:	f800283a 	ret

000012f4 <setDefaultNumEditGroup>:

//设置默认可编辑数字(动态标签+静态图标)
bool setDefaultNumEditGroup( TagIconGroup *numEditGrpInst, short width, short height, short numMax, short numMin, short num, char *unitName )
{
    12f4:	defff004 	addi	sp,sp,-64
    12f8:	dfc00f15 	stw	ra,60(sp)
    12fc:	df000e15 	stw	fp,56(sp)
    1300:	df000e04 	addi	fp,sp,56
    1304:	e13ffa15 	stw	r4,-24(fp)
    1308:	2811883a 	mov	r8,r5
    130c:	300b883a 	mov	r5,r6
    1310:	3809883a 	mov	r4,r7
    1314:	e0c00217 	ldw	r3,8(fp)
    1318:	e0800317 	ldw	r2,12(fp)
    131c:	e23ffb0d 	sth	r8,-20(fp)
    1320:	e17ffc0d 	sth	r5,-16(fp)
    1324:	e13ffd0d 	sth	r4,-12(fp)
    1328:	e0fffe0d 	sth	r3,-8(fp)
    132c:	e0bfff0d 	sth	r2,-4(fp)
	bool status = true;
    1330:	00800044 	movi	r2,1
    1334:	e0bff405 	stb	r2,-48(fp)

	//设置基本信息
	numEditGrpInst->bkgColor = DEFAULT_BKG_COLOR;
    1338:	e0bffa17 	ldw	r2,-24(fp)
    133c:	00c48d04 	movi	r3,4660
    1340:	10c0010d 	sth	r3,4(r2)
	numEditGrpInst->borderColor=  DEFAULT_BORDER_COLOR;
    1344:	e0bffa17 	ldw	r2,-24(fp)
    1348:	1000008d 	sth	zero,2(r2)
	numEditGrpInst->borderVisible = true;
    134c:	e0bffa17 	ldw	r2,-24(fp)
    1350:	00c00044 	movi	r3,1
    1354:	10c00005 	stb	r3,0(r2)

	//设置数字变化范围
	numEditGrpInst->value = num;
    1358:	e0bffa17 	ldw	r2,-24(fp)
    135c:	e0ffff0b 	ldhu	r3,-4(fp)
    1360:	10c0280d 	sth	r3,160(r2)
	numEditGrpInst->valueMax = numMax;
    1364:	e0bffa17 	ldw	r2,-24(fp)
    1368:	e0fffd0b 	ldhu	r3,-12(fp)
    136c:	10c0288d 	sth	r3,162(r2)
	numEditGrpInst->valueMin = numMin;
    1370:	e0bffa17 	ldw	r2,-24(fp)
    1374:	e0fffe0b 	ldhu	r3,-8(fp)
    1378:	10c0290d 	sth	r3,164(r2)
	 * |                      |
	 * |  minusIcon           |
	 * |______________________|
	 */

	short tagHeight = 30;
    137c:	00800784 	movi	r2,30
    1380:	e0bff48d 	sth	r2,-46(fp)
	short tagWidth = 30;
    1384:	00800784 	movi	r2,30
    1388:	e0bff50d 	sth	r2,-44(fp)
	short iconBlockWidth = 30;
    138c:	00800784 	movi	r2,30
    1390:	e0bff58d 	sth	r2,-42(fp)
	short iconBlockHeight = 20;
    1394:	00800504 	movi	r2,20
    1398:	e0bff60d 	sth	r2,-40(fp)
	short numTagMarginXL = 10;
    139c:	00800284 	movi	r2,10
    13a0:	e0bff68d 	sth	r2,-38(fp)
	short plusIconMarginYU = 10;
    13a4:	00800284 	movi	r2,10
    13a8:	e0bff70d 	sth	r2,-36(fp)
	short minusIconMarginYD = 10;
    13ac:	00800284 	movi	r2,10
    13b0:	e0bff78d 	sth	r2,-34(fp)
	short twoTagSpacingX = 20;
    13b4:	00800504 	movi	r2,20
    13b8:	e0bff80d 	sth	r2,-32(fp)

	//设置plusIcon
	status = status && setAreaRange( &(numEditGrpInst->plusIconArea), numTagMarginXL+1, numTagMarginXL+iconBlockWidth,\
    13bc:	e0bff403 	ldbu	r2,-48(fp)
    13c0:	10001e26 	beq	r2,zero,143c <setDefaultNumEditGroup+0x148>
    13c4:	e0bffa17 	ldw	r2,-24(fp)
    13c8:	11000184 	addi	r4,r2,6
    13cc:	e0bff68b 	ldhu	r2,-38(fp)
    13d0:	10800044 	addi	r2,r2,1
    13d4:	117fffcc 	andi	r5,r2,65535
    13d8:	2960001c 	xori	r5,r5,32768
    13dc:	29600004 	addi	r5,r5,-32768
    13e0:	e0fff68b 	ldhu	r3,-38(fp)
    13e4:	e0bff58b 	ldhu	r2,-42(fp)
    13e8:	1885883a 	add	r2,r3,r2
    13ec:	11bfffcc 	andi	r6,r2,65535
    13f0:	31a0001c 	xori	r6,r6,32768
    13f4:	31a00004 	addi	r6,r6,-32768
    13f8:	e0bff70b 	ldhu	r2,-36(fp)
    13fc:	10800044 	addi	r2,r2,1
    1400:	11ffffcc 	andi	r7,r2,65535
    1404:	39e0001c 	xori	r7,r7,32768
    1408:	39e00004 	addi	r7,r7,-32768
    140c:	e0fff70b 	ldhu	r3,-36(fp)
    1410:	e0bff60b 	ldhu	r2,-40(fp)
    1414:	1885883a 	add	r2,r3,r2
    1418:	10bfffcc 	andi	r2,r2,65535
    141c:	10a0001c 	xori	r2,r2,32768
    1420:	10a00004 	addi	r2,r2,-32768
    1424:	d8800015 	stw	r2,0(sp)
    1428:	00003f40 	call	3f4 <setAreaRange>
    142c:	10803fcc 	andi	r2,r2,255
    1430:	10000226 	beq	r2,zero,143c <setDefaultNumEditGroup+0x148>
    1434:	00800044 	movi	r2,1
    1438:	00000106 	br	1440 <setDefaultNumEditGroup+0x14c>
    143c:	0005883a 	mov	r2,zero
    1440:	e0bff405 	stb	r2,-48(fp)
    1444:	e0bff403 	ldbu	r2,-48(fp)
    1448:	1080004c 	andi	r2,r2,1
    144c:	e0bff405 	stb	r2,-48(fp)
				plusIconMarginYU + 1, plusIconMarginYU + iconBlockHeight );
	status = status && setDefaultIconBlock( &(numEditGrpInst->plusIcon), icon_plus, \
    1450:	e0bff403 	ldbu	r2,-48(fp)
    1454:	10001026 	beq	r2,zero,1498 <setDefaultNumEditGroup+0x1a4>
    1458:	e0bffa17 	ldw	r2,-24(fp)
    145c:	11000404 	addi	r4,r2,16
    1460:	e1bff58f 	ldh	r6,-42(fp)
    1464:	e0fff60f 	ldh	r3,-40(fp)
    1468:	00800404 	movi	r2,16
    146c:	d8800015 	stw	r2,0(sp)
    1470:	00800404 	movi	r2,16
    1474:	d8800115 	stw	r2,4(sp)
    1478:	01400374 	movhi	r5,13
    147c:	297f1204 	addi	r5,r5,-952
    1480:	180f883a 	mov	r7,r3
    1484:	0000d580 	call	d58 <setDefaultIconBlock>
    1488:	10803fcc 	andi	r2,r2,255
    148c:	10000226 	beq	r2,zero,1498 <setDefaultNumEditGroup+0x1a4>
    1490:	00800044 	movi	r2,1
    1494:	00000106 	br	149c <setDefaultNumEditGroup+0x1a8>
    1498:	0005883a 	mov	r2,zero
    149c:	e0bff405 	stb	r2,-48(fp)
    14a0:	e0bff403 	ldbu	r2,-48(fp)
    14a4:	1080004c 	andi	r2,r2,1
    14a8:	e0bff405 	stb	r2,-48(fp)
				iconBlockWidth, iconBlockHeight, ICON_PLUS_X_SIZE, ICON_PLUS_Y_SIZE );

	//设置numberTag
	char numStr[3];
	sprintf(numStr, "%2d", num);
    14ac:	e0bfff0f 	ldh	r2,-4(fp)
    14b0:	e0fff904 	addi	r3,fp,-28
    14b4:	1809883a 	mov	r4,r3
    14b8:	01400374 	movhi	r5,13
    14bc:	296f4f04 	addi	r5,r5,-17092
    14c0:	100d883a 	mov	r6,r2
    14c4:	00045fc0 	call	45fc <sprintf>
	status = status && setAreaRange( &(numEditGrpInst->valueTagArea), numTagMarginXL+1, numTagMarginXL+tagWidth,\
    14c8:	e0bff403 	ldbu	r2,-48(fp)
    14cc:	10002726 	beq	r2,zero,156c <setDefaultNumEditGroup+0x278>
    14d0:	e0bffa17 	ldw	r2,-24(fp)
    14d4:	11001404 	addi	r4,r2,80
    14d8:	e0bff68b 	ldhu	r2,-38(fp)
    14dc:	10800044 	addi	r2,r2,1
    14e0:	117fffcc 	andi	r5,r2,65535
    14e4:	2960001c 	xori	r5,r5,32768
    14e8:	29600004 	addi	r5,r5,-32768
    14ec:	e0fff68b 	ldhu	r3,-38(fp)
    14f0:	e0bff50b 	ldhu	r2,-44(fp)
    14f4:	1885883a 	add	r2,r3,r2
    14f8:	11bfffcc 	andi	r6,r2,65535
    14fc:	31a0001c 	xori	r6,r6,32768
    1500:	31a00004 	addi	r6,r6,-32768
    1504:	e0bffc0f 	ldh	r2,-16(fp)
    1508:	1005d07a 	srai	r2,r2,1
    150c:	1007883a 	mov	r3,r2
    1510:	e0bff48f 	ldh	r2,-46(fp)
    1514:	1005d07a 	srai	r2,r2,1
    1518:	1885c83a 	sub	r2,r3,r2
    151c:	10800044 	addi	r2,r2,1
    1520:	10ffffcc 	andi	r3,r2,65535
    1524:	18e0001c 	xori	r3,r3,32768
    1528:	18e00004 	addi	r3,r3,-32768
    152c:	e0bffc0f 	ldh	r2,-16(fp)
    1530:	1005d07a 	srai	r2,r2,1
    1534:	100f883a 	mov	r7,r2
    1538:	e0bff48f 	ldh	r2,-46(fp)
    153c:	1005d07a 	srai	r2,r2,1
    1540:	3885883a 	add	r2,r7,r2
    1544:	10bfffcc 	andi	r2,r2,65535
    1548:	10a0001c 	xori	r2,r2,32768
    154c:	10a00004 	addi	r2,r2,-32768
    1550:	d8800015 	stw	r2,0(sp)
    1554:	180f883a 	mov	r7,r3
    1558:	00003f40 	call	3f4 <setAreaRange>
    155c:	10803fcc 	andi	r2,r2,255
    1560:	10000226 	beq	r2,zero,156c <setDefaultNumEditGroup+0x278>
    1564:	00800044 	movi	r2,1
    1568:	00000106 	br	1570 <setDefaultNumEditGroup+0x27c>
    156c:	0005883a 	mov	r2,zero
    1570:	e0bff405 	stb	r2,-48(fp)
    1574:	e0bff403 	ldbu	r2,-48(fp)
    1578:	1080004c 	andi	r2,r2,1
    157c:	e0bff405 	stb	r2,-48(fp)
				(height>>1)-(tagHeight>>1)+1, (height>>1)+(tagHeight>>1) );
	status = status && setDefaultTagBlock( &(numEditGrpInst->valueTag), numStr, tagWidth, tagHeight );
    1580:	e0bff403 	ldbu	r2,-48(fp)
    1584:	10000c26 	beq	r2,zero,15b8 <setDefaultNumEditGroup+0x2c4>
    1588:	e0bffa17 	ldw	r2,-24(fp)
    158c:	11001604 	addi	r4,r2,88
    1590:	e0fff50f 	ldh	r3,-44(fp)
    1594:	e0bff48f 	ldh	r2,-46(fp)
    1598:	e17ff904 	addi	r5,fp,-28
    159c:	180d883a 	mov	r6,r3
    15a0:	100f883a 	mov	r7,r2
    15a4:	000096c0 	call	96c <setDefaultTagBlock>
    15a8:	10803fcc 	andi	r2,r2,255
    15ac:	10000226 	beq	r2,zero,15b8 <setDefaultNumEditGroup+0x2c4>
    15b0:	00800044 	movi	r2,1
    15b4:	00000106 	br	15bc <setDefaultNumEditGroup+0x2c8>
    15b8:	0005883a 	mov	r2,zero
    15bc:	e0bff405 	stb	r2,-48(fp)
    15c0:	e0bff403 	ldbu	r2,-48(fp)
    15c4:	1080004c 	andi	r2,r2,1
    15c8:	e0bff405 	stb	r2,-48(fp)


	//设置minusIcon
	status = status && setAreaRange( &(numEditGrpInst->valueTagArea), numTagMarginXL+1, numTagMarginXL+tagWidth,\
    15cc:	e0bff403 	ldbu	r2,-48(fp)
    15d0:	10002226 	beq	r2,zero,165c <setDefaultNumEditGroup+0x368>
    15d4:	e0bffa17 	ldw	r2,-24(fp)
    15d8:	11001404 	addi	r4,r2,80
    15dc:	e0bff68b 	ldhu	r2,-38(fp)
    15e0:	10800044 	addi	r2,r2,1
    15e4:	117fffcc 	andi	r5,r2,65535
    15e8:	2960001c 	xori	r5,r5,32768
    15ec:	29600004 	addi	r5,r5,-32768
    15f0:	e0fff68b 	ldhu	r3,-38(fp)
    15f4:	e0bff50b 	ldhu	r2,-44(fp)
    15f8:	1885883a 	add	r2,r3,r2
    15fc:	11bfffcc 	andi	r6,r2,65535
    1600:	31a0001c 	xori	r6,r6,32768
    1604:	31a00004 	addi	r6,r6,-32768
    1608:	e0fffc0b 	ldhu	r3,-16(fp)
    160c:	e0bff78b 	ldhu	r2,-34(fp)
    1610:	1885c83a 	sub	r2,r3,r2
    1614:	1007883a 	mov	r3,r2
    1618:	e0bff60b 	ldhu	r2,-40(fp)
    161c:	1885c83a 	sub	r2,r3,r2
    1620:	11ffffcc 	andi	r7,r2,65535
    1624:	39e0001c 	xori	r7,r7,32768
    1628:	39e00004 	addi	r7,r7,-32768
    162c:	e0fffc0b 	ldhu	r3,-16(fp)
    1630:	e0bff78b 	ldhu	r2,-34(fp)
    1634:	1885c83a 	sub	r2,r3,r2
    1638:	10bfffcc 	andi	r2,r2,65535
    163c:	10a0001c 	xori	r2,r2,32768
    1640:	10a00004 	addi	r2,r2,-32768
    1644:	d8800015 	stw	r2,0(sp)
    1648:	00003f40 	call	3f4 <setAreaRange>
    164c:	10803fcc 	andi	r2,r2,255
    1650:	10000226 	beq	r2,zero,165c <setDefaultNumEditGroup+0x368>
    1654:	00800044 	movi	r2,1
    1658:	00000106 	br	1660 <setDefaultNumEditGroup+0x36c>
    165c:	0005883a 	mov	r2,zero
    1660:	e0bff405 	stb	r2,-48(fp)
    1664:	e0bff403 	ldbu	r2,-48(fp)
    1668:	1080004c 	andi	r2,r2,1
    166c:	e0bff405 	stb	r2,-48(fp)
				height - minusIconMarginYD - iconBlockHeight, height - minusIconMarginYD );
	status = status && setDefaultIconBlock( &(numEditGrpInst->minusIcon), icon_minus, \
    1670:	e0bff403 	ldbu	r2,-48(fp)
    1674:	10001026 	beq	r2,zero,16b8 <setDefaultNumEditGroup+0x3c4>
    1678:	e0bffa17 	ldw	r2,-24(fp)
    167c:	11000d04 	addi	r4,r2,52
    1680:	e1bff58f 	ldh	r6,-42(fp)
    1684:	e0fff60f 	ldh	r3,-40(fp)
    1688:	00800204 	movi	r2,8
    168c:	d8800015 	stw	r2,0(sp)
    1690:	00800204 	movi	r2,8
    1694:	d8800115 	stw	r2,4(sp)
    1698:	01400374 	movhi	r5,13
    169c:	297e5e04 	addi	r5,r5,-1672
    16a0:	180f883a 	mov	r7,r3
    16a4:	0000d580 	call	d58 <setDefaultIconBlock>
    16a8:	10803fcc 	andi	r2,r2,255
    16ac:	10000226 	beq	r2,zero,16b8 <setDefaultNumEditGroup+0x3c4>
    16b0:	00800044 	movi	r2,1
    16b4:	00000106 	br	16bc <setDefaultNumEditGroup+0x3c8>
    16b8:	0005883a 	mov	r2,zero
    16bc:	e0bff405 	stb	r2,-48(fp)
    16c0:	e0bff403 	ldbu	r2,-48(fp)
    16c4:	1080004c 	andi	r2,r2,1
    16c8:	e0bff405 	stb	r2,-48(fp)
				iconBlockWidth, iconBlockHeight, ICON_MINUS_X_SIZE, ICON_MINUS_Y_SIZE );


	//设置unitTag
	short unitTagMarginXL = numTagMarginXL+tagWidth + twoTagSpacingX;
    16cc:	e0fff68b 	ldhu	r3,-38(fp)
    16d0:	e0bff50b 	ldhu	r2,-44(fp)
    16d4:	1885883a 	add	r2,r3,r2
    16d8:	1007883a 	mov	r3,r2
    16dc:	e0bff80b 	ldhu	r2,-32(fp)
    16e0:	1885883a 	add	r2,r3,r2
    16e4:	e0bff88d 	sth	r2,-30(fp)
	status = status && setAreaRange( &(numEditGrpInst->valueTagArea), unitTagMarginXL+1, unitTagMarginXL+tagWidth,\
    16e8:	e0bff403 	ldbu	r2,-48(fp)
    16ec:	10002726 	beq	r2,zero,178c <setDefaultNumEditGroup+0x498>
    16f0:	e0bffa17 	ldw	r2,-24(fp)
    16f4:	11001404 	addi	r4,r2,80
    16f8:	e0bff88b 	ldhu	r2,-30(fp)
    16fc:	10800044 	addi	r2,r2,1
    1700:	117fffcc 	andi	r5,r2,65535
    1704:	2960001c 	xori	r5,r5,32768
    1708:	29600004 	addi	r5,r5,-32768
    170c:	e0fff88b 	ldhu	r3,-30(fp)
    1710:	e0bff50b 	ldhu	r2,-44(fp)
    1714:	1885883a 	add	r2,r3,r2
    1718:	11bfffcc 	andi	r6,r2,65535
    171c:	31a0001c 	xori	r6,r6,32768
    1720:	31a00004 	addi	r6,r6,-32768
    1724:	e0bffc0f 	ldh	r2,-16(fp)
    1728:	1005d07a 	srai	r2,r2,1
    172c:	1007883a 	mov	r3,r2
    1730:	e0bff48f 	ldh	r2,-46(fp)
    1734:	1005d07a 	srai	r2,r2,1
    1738:	1885c83a 	sub	r2,r3,r2
    173c:	10800044 	addi	r2,r2,1
    1740:	10ffffcc 	andi	r3,r2,65535
    1744:	18e0001c 	xori	r3,r3,32768
    1748:	18e00004 	addi	r3,r3,-32768
    174c:	e0bffc0f 	ldh	r2,-16(fp)
    1750:	1005d07a 	srai	r2,r2,1
    1754:	100f883a 	mov	r7,r2
    1758:	e0bff48f 	ldh	r2,-46(fp)
    175c:	1005d07a 	srai	r2,r2,1
    1760:	3885883a 	add	r2,r7,r2
    1764:	10bfffcc 	andi	r2,r2,65535
    1768:	10a0001c 	xori	r2,r2,32768
    176c:	10a00004 	addi	r2,r2,-32768
    1770:	d8800015 	stw	r2,0(sp)
    1774:	180f883a 	mov	r7,r3
    1778:	00003f40 	call	3f4 <setAreaRange>
    177c:	10803fcc 	andi	r2,r2,255
    1780:	10000226 	beq	r2,zero,178c <setDefaultNumEditGroup+0x498>
    1784:	00800044 	movi	r2,1
    1788:	00000106 	br	1790 <setDefaultNumEditGroup+0x49c>
    178c:	0005883a 	mov	r2,zero
    1790:	e0bff405 	stb	r2,-48(fp)
    1794:	e0bff403 	ldbu	r2,-48(fp)
    1798:	1080004c 	andi	r2,r2,1
    179c:	e0bff405 	stb	r2,-48(fp)
					(height>>1)-(tagHeight>>1)+1, (height>>1)+(tagHeight>>1) );
	status = status && setDefaultTagBlock( &(numEditGrpInst->valueTag), unitName, tagWidth, tagHeight );
    17a0:	e0bff403 	ldbu	r2,-48(fp)
    17a4:	10000c26 	beq	r2,zero,17d8 <setDefaultNumEditGroup+0x4e4>
    17a8:	e0bffa17 	ldw	r2,-24(fp)
    17ac:	11001604 	addi	r4,r2,88
    17b0:	e0fff50f 	ldh	r3,-44(fp)
    17b4:	e0bff48f 	ldh	r2,-46(fp)
    17b8:	e1400417 	ldw	r5,16(fp)
    17bc:	180d883a 	mov	r6,r3
    17c0:	100f883a 	mov	r7,r2
    17c4:	000096c0 	call	96c <setDefaultTagBlock>
    17c8:	10803fcc 	andi	r2,r2,255
    17cc:	10000226 	beq	r2,zero,17d8 <setDefaultNumEditGroup+0x4e4>
    17d0:	00800044 	movi	r2,1
    17d4:	00000106 	br	17dc <setDefaultNumEditGroup+0x4e8>
    17d8:	0005883a 	mov	r2,zero
    17dc:	e0bff405 	stb	r2,-48(fp)
    17e0:	e0bff403 	ldbu	r2,-48(fp)
    17e4:	1080004c 	andi	r2,r2,1
    17e8:	e0bff405 	stb	r2,-48(fp)


	return status;
    17ec:	e0bff403 	ldbu	r2,-48(fp)
}
    17f0:	e037883a 	mov	sp,fp
    17f4:	dfc00117 	ldw	ra,4(sp)
    17f8:	df000017 	ldw	fp,0(sp)
    17fc:	dec00204 	addi	sp,sp,8
    1800:	f800283a 	ret

00001804 <screenInit>:


//初始化
bool screenInit()
{
    1804:	defffb04 	addi	sp,sp,-20
    1808:	dfc00415 	stw	ra,16(sp)
    180c:	df000315 	stw	fp,12(sp)
    1810:	df000304 	addi	fp,sp,12
	//以下子模块宽度都相同 ( 1 ≤ x ≤ SCR_WIDE )

	bool status = true;
    1814:	00800044 	movi	r2,1
    1818:	e0bffe05 	stb	r2,-8(fp)
	//初始化屏幕总体尺寸 ( 1 ≤ y ≤ SCR_HEIGHT )
	status = status && setAreaRange( &(tftlcdScreenInst.screenArea), 1, SCR_WIDTH, 1, SCR_HEIGHT );
    181c:	e0bffe03 	ldbu	r2,-8(fp)
    1820:	10000c26 	beq	r2,zero,1854 <screenInit+0x50>
    1824:	00807804 	movi	r2,480
    1828:	d8800015 	stw	r2,0(sp)
    182c:	01000374 	movhi	r4,13
    1830:	213f1a04 	addi	r4,r4,-920
    1834:	01400044 	movi	r5,1
    1838:	01805004 	movi	r6,320
    183c:	01c00044 	movi	r7,1
    1840:	00003f40 	call	3f4 <setAreaRange>
    1844:	10803fcc 	andi	r2,r2,255
    1848:	10000226 	beq	r2,zero,1854 <screenInit+0x50>
    184c:	00800044 	movi	r2,1
    1850:	00000106 	br	1858 <screenInit+0x54>
    1854:	0005883a 	mov	r2,zero
    1858:	e0bffe05 	stb	r2,-8(fp)
    185c:	e0bffe03 	ldbu	r2,-8(fp)
    1860:	1080004c 	andi	r2,r2,1
    1864:	e0bffe05 	stb	r2,-8(fp)

	//1.初始化顶栏 ( 1 ≤ y ≤ headerHeight )
	short headerHeight = SCR_HEADER_HEIGHT;//顶栏高度 (
    1868:	00800a04 	movi	r2,40
    186c:	e0bffe8d 	sth	r2,-6(fp)
	status = status && setAreaRange( &(tftlcdScreenInst.headerArea), 1, SCR_WIDTH, 1, headerHeight );
    1870:	e0bffe03 	ldbu	r2,-8(fp)
    1874:	10000c26 	beq	r2,zero,18a8 <screenInit+0xa4>
    1878:	e0bffe8f 	ldh	r2,-6(fp)
    187c:	d8800015 	stw	r2,0(sp)
    1880:	01000374 	movhi	r4,13
    1884:	213f1c04 	addi	r4,r4,-912
    1888:	01400044 	movi	r5,1
    188c:	01805004 	movi	r6,320
    1890:	01c00044 	movi	r7,1
    1894:	00003f40 	call	3f4 <setAreaRange>
    1898:	10803fcc 	andi	r2,r2,255
    189c:	10000226 	beq	r2,zero,18a8 <screenInit+0xa4>
    18a0:	00800044 	movi	r2,1
    18a4:	00000106 	br	18ac <screenInit+0xa8>
    18a8:	0005883a 	mov	r2,zero
    18ac:	e0bffe05 	stb	r2,-8(fp)
    18b0:	e0bffe03 	ldbu	r2,-8(fp)
    18b4:	1080004c 	andi	r2,r2,1
    18b8:	e0bffe05 	stb	r2,-8(fp)

	status = status && screenHeaderInit( &(tftlcdScreenInst.scrHeader), SCR_WIDTH, headerHeight );
    18bc:	e0bffe03 	ldbu	r2,-8(fp)
    18c0:	10000a26 	beq	r2,zero,18ec <screenInit+0xe8>
    18c4:	e0bffe8f 	ldh	r2,-6(fp)
    18c8:	01000374 	movhi	r4,13
    18cc:	213f1e04 	addi	r4,r4,-904
    18d0:	01405004 	movi	r5,320
    18d4:	100d883a 	mov	r6,r2
    18d8:	0001b4c0 	call	1b4c <screenHeaderInit>
    18dc:	10803fcc 	andi	r2,r2,255
    18e0:	10000226 	beq	r2,zero,18ec <screenInit+0xe8>
    18e4:	00800044 	movi	r2,1
    18e8:	00000106 	br	18f0 <screenInit+0xec>
    18ec:	0005883a 	mov	r2,zero
    18f0:	e0bffe05 	stb	r2,-8(fp)
    18f4:	e0bffe03 	ldbu	r2,-8(fp)
    18f8:	1080004c 	andi	r2,r2,1
    18fc:	e0bffe05 	stb	r2,-8(fp)

	//2.初始化底栏 ( SCR_HEIGHT - footerHeight + 1 ≤ y ≤ SCR_HEIGHT )
	short footerHeight = SCR_FOTTER_HEIGHT;//底栏高度
    1900:	00800f04 	movi	r2,60
    1904:	e0bfff0d 	sth	r2,-4(fp)
	status = status && setAreaRange( &(tftlcdScreenInst.headerArea), 1, SCR_WIDTH, SCR_HEIGHT - footerHeight + 1, SCR_HEIGHT );
    1908:	e0bffe03 	ldbu	r2,-8(fp)
    190c:	10001226 	beq	r2,zero,1958 <screenInit+0x154>
    1910:	e0bfff0b 	ldhu	r2,-4(fp)
    1914:	00c07844 	movi	r3,481
    1918:	1885c83a 	sub	r2,r3,r2
    191c:	10ffffcc 	andi	r3,r2,65535
    1920:	18e0001c 	xori	r3,r3,32768
    1924:	18e00004 	addi	r3,r3,-32768
    1928:	00807804 	movi	r2,480
    192c:	d8800015 	stw	r2,0(sp)
    1930:	01000374 	movhi	r4,13
    1934:	213f1c04 	addi	r4,r4,-912
    1938:	01400044 	movi	r5,1
    193c:	01805004 	movi	r6,320
    1940:	180f883a 	mov	r7,r3
    1944:	00003f40 	call	3f4 <setAreaRange>
    1948:	10803fcc 	andi	r2,r2,255
    194c:	10000226 	beq	r2,zero,1958 <screenInit+0x154>
    1950:	00800044 	movi	r2,1
    1954:	00000106 	br	195c <screenInit+0x158>
    1958:	0005883a 	mov	r2,zero
    195c:	e0bffe05 	stb	r2,-8(fp)
    1960:	e0bffe03 	ldbu	r2,-8(fp)
    1964:	1080004c 	andi	r2,r2,1
    1968:	e0bffe05 	stb	r2,-8(fp)

	status = status && screenFooterInit( &(tftlcdScreenInst.scrFooter), SCR_WIDTH, footerHeight );
    196c:	e0bffe03 	ldbu	r2,-8(fp)
    1970:	10000a26 	beq	r2,zero,199c <screenInit+0x198>
    1974:	e0bfff0f 	ldh	r2,-4(fp)
    1978:	01000374 	movhi	r4,13
    197c:	213f2e04 	addi	r4,r4,-840
    1980:	01405004 	movi	r5,320
    1984:	100d883a 	mov	r6,r2
    1988:	0001ce80 	call	1ce8 <screenFooterInit>
    198c:	10803fcc 	andi	r2,r2,255
    1990:	10000226 	beq	r2,zero,199c <screenInit+0x198>
    1994:	00800044 	movi	r2,1
    1998:	00000106 	br	19a0 <screenInit+0x19c>
    199c:	0005883a 	mov	r2,zero
    19a0:	e0bffe05 	stb	r2,-8(fp)
    19a4:	e0bffe03 	ldbu	r2,-8(fp)
    19a8:	1080004c 	andi	r2,r2,1
    19ac:	e0bffe05 	stb	r2,-8(fp)

	//3.初始化主栏  ( headerHeight + 1 ≤ y ≤ SCR_HEIGHT - footerHeight )
	short mainAreaHeight = SCR_HEIGHT - headerHeight - footerHeight;
    19b0:	e0bffe8b 	ldhu	r2,-6(fp)
    19b4:	0085c83a 	sub	r2,zero,r2
    19b8:	1007883a 	mov	r3,r2
    19bc:	e0bfff0b 	ldhu	r2,-4(fp)
    19c0:	1885c83a 	sub	r2,r3,r2
    19c4:	10807804 	addi	r2,r2,480
    19c8:	e0bfff8d 	sth	r2,-2(fp)
	setAreaRange( &(tftlcdScreenInst.mainArea), 1, SCR_WIDTH, headerHeight + 1, SCR_HEIGHT - footerHeight );
    19cc:	e0bffe8b 	ldhu	r2,-6(fp)
    19d0:	10800044 	addi	r2,r2,1
    19d4:	11ffffcc 	andi	r7,r2,65535
    19d8:	39e0001c 	xori	r7,r7,32768
    19dc:	39e00004 	addi	r7,r7,-32768
    19e0:	e0bfff0b 	ldhu	r2,-4(fp)
    19e4:	00c07804 	movi	r3,480
    19e8:	1885c83a 	sub	r2,r3,r2
    19ec:	10bfffcc 	andi	r2,r2,65535
    19f0:	10a0001c 	xori	r2,r2,32768
    19f4:	10a00004 	addi	r2,r2,-32768
    19f8:	d8800015 	stw	r2,0(sp)
    19fc:	01000374 	movhi	r4,13
    1a00:	213f4b04 	addi	r4,r4,-724
    1a04:	01400044 	movi	r5,1
    1a08:	01805004 	movi	r6,320
    1a0c:	00003f40 	call	3f4 <setAreaRange>

	status = status && screenMainHomeInit( &(tftlcdScreenInst.scrHome), SCR_WIDTH, mainAreaHeight, &txtFilesInfoSpace );
    1a10:	e0bffe03 	ldbu	r2,-8(fp)
    1a14:	10000c26 	beq	r2,zero,1a48 <screenInit+0x244>
    1a18:	e0bfff8f 	ldh	r2,-2(fp)
    1a1c:	01000374 	movhi	r4,13
    1a20:	213f4d04 	addi	r4,r4,-716
    1a24:	01405004 	movi	r5,320
    1a28:	100d883a 	mov	r6,r2
    1a2c:	01c00374 	movhi	r7,13
    1a30:	39c0c404 	addi	r7,r7,784
    1a34:	00020240 	call	2024 <screenMainHomeInit>
    1a38:	10803fcc 	andi	r2,r2,255
    1a3c:	10000226 	beq	r2,zero,1a48 <screenInit+0x244>
    1a40:	00800044 	movi	r2,1
    1a44:	00000106 	br	1a4c <screenInit+0x248>
    1a48:	0005883a 	mov	r2,zero
    1a4c:	e0bffe05 	stb	r2,-8(fp)
    1a50:	e0bffe03 	ldbu	r2,-8(fp)
    1a54:	1080004c 	andi	r2,r2,1
    1a58:	e0bffe05 	stb	r2,-8(fp)
	status = status && screenMainBookInit( &(tftlcdScreenInst.scrBook), SCR_WIDTH, mainAreaHeight );
    1a5c:	e0bffe03 	ldbu	r2,-8(fp)
    1a60:	10000a26 	beq	r2,zero,1a8c <screenInit+0x288>
    1a64:	e0bfff8f 	ldh	r2,-2(fp)
    1a68:	01000374 	movhi	r4,13
    1a6c:	213f8d04 	addi	r4,r4,-460
    1a70:	01405004 	movi	r5,320
    1a74:	100d883a 	mov	r6,r2
    1a78:	00027c40 	call	27c4 <screenMainBookInit>
    1a7c:	10803fcc 	andi	r2,r2,255
    1a80:	10000226 	beq	r2,zero,1a8c <screenInit+0x288>
    1a84:	00800044 	movi	r2,1
    1a88:	00000106 	br	1a90 <screenInit+0x28c>
    1a8c:	0005883a 	mov	r2,zero
    1a90:	e0bffe05 	stb	r2,-8(fp)
    1a94:	e0bffe03 	ldbu	r2,-8(fp)
    1a98:	1080004c 	andi	r2,r2,1
    1a9c:	e0bffe05 	stb	r2,-8(fp)
	status = status && screenMainSettingInit( &(tftlcdScreenInst.scrSetting), SCR_WIDTH, mainAreaHeight );
    1aa0:	e0bffe03 	ldbu	r2,-8(fp)
    1aa4:	10000a26 	beq	r2,zero,1ad0 <screenInit+0x2cc>
    1aa8:	e0bfff8f 	ldh	r2,-2(fp)
    1aac:	01000374 	movhi	r4,13
    1ab0:	213fd404 	addi	r4,r4,-176
    1ab4:	01405004 	movi	r5,320
    1ab8:	100d883a 	mov	r6,r2
    1abc:	00030140 	call	3014 <screenMainSettingInit>
    1ac0:	10803fcc 	andi	r2,r2,255
    1ac4:	10000226 	beq	r2,zero,1ad0 <screenInit+0x2cc>
    1ac8:	00800044 	movi	r2,1
    1acc:	00000106 	br	1ad4 <screenInit+0x2d0>
    1ad0:	0005883a 	mov	r2,zero
    1ad4:	e0bffe05 	stb	r2,-8(fp)
    1ad8:	e0bffe03 	ldbu	r2,-8(fp)
    1adc:	1080004c 	andi	r2,r2,1
    1ae0:	e0bffe05 	stb	r2,-8(fp)
	status = status && screenMainColorPickerInit( &(tftlcdScreenInst.scrColorPicker), SCR_WIDTH, mainAreaHeight );
    1ae4:	e0bffe03 	ldbu	r2,-8(fp)
    1ae8:	10000a26 	beq	r2,zero,1b14 <screenInit+0x310>
    1aec:	e0bfff8f 	ldh	r2,-2(fp)
    1af0:	01000374 	movhi	r4,13
    1af4:	2100b704 	addi	r4,r4,732
    1af8:	01405004 	movi	r5,320
    1afc:	100d883a 	mov	r6,r2
    1b00:	0003acc0 	call	3acc <screenMainColorPickerInit>
    1b04:	10803fcc 	andi	r2,r2,255
    1b08:	10000226 	beq	r2,zero,1b14 <screenInit+0x310>
    1b0c:	00800044 	movi	r2,1
    1b10:	00000106 	br	1b18 <screenInit+0x314>
    1b14:	0005883a 	mov	r2,zero
    1b18:	e0bffe05 	stb	r2,-8(fp)
    1b1c:	e0bffe03 	ldbu	r2,-8(fp)
    1b20:	1080004c 	andi	r2,r2,1
    1b24:	e0bffe05 	stb	r2,-8(fp)

	//4.初始化主栏页面信息
	screenMainAreaInfo( &(tftlcdScreenInst.mainAreaInfo) );
    1b28:	01000374 	movhi	r4,13
    1b2c:	2100bf04 	addi	r4,r4,764
    1b30:	0003be40 	call	3be4 <screenMainAreaInfo>

	return status;
    1b34:	e0bffe03 	ldbu	r2,-8(fp)
}
    1b38:	e037883a 	mov	sp,fp
    1b3c:	dfc00117 	ldw	ra,4(sp)
    1b40:	df000017 	ldw	fp,0(sp)
    1b44:	dec00204 	addi	sp,sp,8
    1b48:	f800283a 	ret

00001b4c <screenHeaderInit>:

bool screenHeaderInit( ScreenHeaderTime *scrHeaderInst, short width, short height )
{
    1b4c:	defff804 	addi	sp,sp,-32
    1b50:	dfc00715 	stw	ra,28(sp)
    1b54:	df000615 	stw	fp,24(sp)
    1b58:	df000604 	addi	fp,sp,24
    1b5c:	e13ffd15 	stw	r4,-12(fp)
    1b60:	2807883a 	mov	r3,r5
    1b64:	3005883a 	mov	r2,r6
    1b68:	e0fffe0d 	sth	r3,-8(fp)
    1b6c:	e0bfff0d 	sth	r2,-4(fp)

	scrHeaderInst->borderVisible = true;
    1b70:	e0bffd17 	ldw	r2,-12(fp)
    1b74:	00c00044 	movi	r3,1
    1b78:	10c00005 	stb	r3,0(r2)
	scrHeaderInst->bkgColor = DEFAULT_BKG_COLOR;
    1b7c:	e0bffd17 	ldw	r2,-12(fp)
    1b80:	00c48d04 	movi	r3,4660
    1b84:	10c0010d 	sth	r3,4(r2)
	scrHeaderInst->borderColor = DEFAULT_BORDER_COLOR;
    1b88:	e0bffd17 	ldw	r2,-12(fp)
    1b8c:	1000008d 	sth	zero,2(r2)

	short marginX = 100;//横向边距
    1b90:	00801904 	movi	r2,100
    1b94:	e0bffb0d 	sth	r2,-20(fp)
	short marginY = 5;//纵向边距
    1b98:	00800144 	movi	r2,5
    1b9c:	e0bffb8d 	sth	r2,-18(fp)

	bool status = true;
    1ba0:	00800044 	movi	r2,1
    1ba4:	e0bffc05 	stb	r2,-16(fp)

	status = status && setAreaRange( &(scrHeaderInst->tagTimeArea), marginX+1, width-marginX, marginY+1, height-marginY );
    1ba8:	e0bffc03 	ldbu	r2,-16(fp)
    1bac:	10001e26 	beq	r2,zero,1c28 <screenHeaderInit+0xdc>
    1bb0:	e0bffd17 	ldw	r2,-12(fp)
    1bb4:	11000184 	addi	r4,r2,6
    1bb8:	e0bffb0b 	ldhu	r2,-20(fp)
    1bbc:	10800044 	addi	r2,r2,1
    1bc0:	117fffcc 	andi	r5,r2,65535
    1bc4:	2960001c 	xori	r5,r5,32768
    1bc8:	29600004 	addi	r5,r5,-32768
    1bcc:	e0fffe0b 	ldhu	r3,-8(fp)
    1bd0:	e0bffb0b 	ldhu	r2,-20(fp)
    1bd4:	1885c83a 	sub	r2,r3,r2
    1bd8:	11bfffcc 	andi	r6,r2,65535
    1bdc:	31a0001c 	xori	r6,r6,32768
    1be0:	31a00004 	addi	r6,r6,-32768
    1be4:	e0bffb8b 	ldhu	r2,-18(fp)
    1be8:	10800044 	addi	r2,r2,1
    1bec:	11ffffcc 	andi	r7,r2,65535
    1bf0:	39e0001c 	xori	r7,r7,32768
    1bf4:	39e00004 	addi	r7,r7,-32768
    1bf8:	e0ffff0b 	ldhu	r3,-4(fp)
    1bfc:	e0bffb8b 	ldhu	r2,-18(fp)
    1c00:	1885c83a 	sub	r2,r3,r2
    1c04:	10bfffcc 	andi	r2,r2,65535
    1c08:	10a0001c 	xori	r2,r2,32768
    1c0c:	10a00004 	addi	r2,r2,-32768
    1c10:	d8800015 	stw	r2,0(sp)
    1c14:	00003f40 	call	3f4 <setAreaRange>
    1c18:	10803fcc 	andi	r2,r2,255
    1c1c:	10000226 	beq	r2,zero,1c28 <screenHeaderInit+0xdc>
    1c20:	00800044 	movi	r2,1
    1c24:	00000106 	br	1c2c <screenHeaderInit+0xe0>
    1c28:	0005883a 	mov	r2,zero
    1c2c:	e0bffc05 	stb	r2,-16(fp)
    1c30:	e0bffc03 	ldbu	r2,-16(fp)
    1c34:	1080004c 	andi	r2,r2,1
    1c38:	e0bffc05 	stb	r2,-16(fp)

	scrHeaderInst->timeHour = 0;
    1c3c:	e0bffd17 	ldw	r2,-12(fp)
    1c40:	10000c0d 	sth	zero,48(r2)
	scrHeaderInst->timeMinute = 0;
    1c44:	e0bffd17 	ldw	r2,-12(fp)
    1c48:	10000c8d 	sth	zero,50(r2)
	scrHeaderInst->timeSecond = 0;
    1c4c:	e0bffd17 	ldw	r2,-12(fp)
    1c50:	10000d0d 	sth	zero,52(r2)

	//时间文本为"00:00"(0时0分)
	status = status && setDefaultTagBlock( &(scrHeaderInst->tagTime), "00:00", width - (marginX<<1), height - (marginY<<1) );
    1c54:	e0bffc03 	ldbu	r2,-16(fp)
    1c58:	10001826 	beq	r2,zero,1cbc <screenHeaderInit+0x170>
    1c5c:	e0bffd17 	ldw	r2,-12(fp)
    1c60:	11000404 	addi	r4,r2,16
    1c64:	e0fffe0b 	ldhu	r3,-8(fp)
    1c68:	e0bffb0b 	ldhu	r2,-20(fp)
    1c6c:	1085883a 	add	r2,r2,r2
    1c70:	1885c83a 	sub	r2,r3,r2
    1c74:	11bfffcc 	andi	r6,r2,65535
    1c78:	31a0001c 	xori	r6,r6,32768
    1c7c:	31a00004 	addi	r6,r6,-32768
    1c80:	e0ffff0b 	ldhu	r3,-4(fp)
    1c84:	e0bffb8b 	ldhu	r2,-18(fp)
    1c88:	1085883a 	add	r2,r2,r2
    1c8c:	1885c83a 	sub	r2,r3,r2
    1c90:	10bfffcc 	andi	r2,r2,65535
    1c94:	10a0001c 	xori	r2,r2,32768
    1c98:	10a00004 	addi	r2,r2,-32768
    1c9c:	01400374 	movhi	r5,13
    1ca0:	296f5004 	addi	r5,r5,-17088
    1ca4:	100f883a 	mov	r7,r2
    1ca8:	000096c0 	call	96c <setDefaultTagBlock>
    1cac:	10803fcc 	andi	r2,r2,255
    1cb0:	10000226 	beq	r2,zero,1cbc <screenHeaderInit+0x170>
    1cb4:	00800044 	movi	r2,1
    1cb8:	00000106 	br	1cc0 <screenHeaderInit+0x174>
    1cbc:	0005883a 	mov	r2,zero
    1cc0:	e0bffc05 	stb	r2,-16(fp)
    1cc4:	e0bffc03 	ldbu	r2,-16(fp)
    1cc8:	1080004c 	andi	r2,r2,1
    1ccc:	e0bffc05 	stb	r2,-16(fp)
//	(scrHeaderInst->tagTime).borderVisible = false;

	return status;
    1cd0:	e0bffc03 	ldbu	r2,-16(fp)
}
    1cd4:	e037883a 	mov	sp,fp
    1cd8:	dfc00117 	ldw	ra,4(sp)
    1cdc:	df000017 	ldw	fp,0(sp)
    1ce0:	dec00204 	addi	sp,sp,8
    1ce4:	f800283a 	ret

00001ce8 <screenFooterInit>:
bool screenFooterInit( ScreenFooterBtn *scrFooterInst, short width, short height )
{
    1ce8:	defff604 	addi	sp,sp,-40
    1cec:	dfc00915 	stw	ra,36(sp)
    1cf0:	df000815 	stw	fp,32(sp)
    1cf4:	df000804 	addi	fp,sp,32
    1cf8:	e13ffd15 	stw	r4,-12(fp)
    1cfc:	2807883a 	mov	r3,r5
    1d00:	3005883a 	mov	r2,r6
    1d04:	e0fffe0d 	sth	r3,-8(fp)
    1d08:	e0bfff0d 	sth	r2,-4(fp)
	scrFooterInst->borderVisible = true;
    1d0c:	e0bffd17 	ldw	r2,-12(fp)
    1d10:	00c00044 	movi	r3,1
    1d14:	10c00005 	stb	r3,0(r2)
	scrFooterInst->borderColor = DEFAULT_BORDER_COLOR;
    1d18:	e0bffd17 	ldw	r2,-12(fp)
    1d1c:	1000008d 	sth	zero,2(r2)
	scrFooterInst->bkgColor = DEFAULT_BKG_COLOR;
    1d20:	e0bffd17 	ldw	r2,-12(fp)
    1d24:	00c48d04 	movi	r3,4660
    1d28:	10c0010d 	sth	r3,4(r2)

	//SETTING键,HOME键,BACK键分别处于下边栏的左、中、右位置
	short marginX = 20;
    1d2c:	00800504 	movi	r2,20
    1d30:	e0bffa0d 	sth	r2,-24(fp)
	short marginY = 10;
    1d34:	00800284 	movi	r2,10
    1d38:	e0bffa8d 	sth	r2,-22(fp)
	short iconBlockHeight = height - (marginY<<1);
    1d3c:	e0ffff0b 	ldhu	r3,-4(fp)
    1d40:	e0bffa8b 	ldhu	r2,-22(fp)
    1d44:	1085883a 	add	r2,r2,r2
    1d48:	1885c83a 	sub	r2,r3,r2
    1d4c:	e0bffb0d 	sth	r2,-20(fp)
	short iconBlockWidth = width / 5;
    1d50:	e0bffe0f 	ldh	r2,-8(fp)
    1d54:	1009883a 	mov	r4,r2
    1d58:	01400144 	movi	r5,5
    1d5c:	0003cc00 	call	3cc0 <__divsi3>
    1d60:	e0bffb8d 	sth	r2,-18(fp)

	bool status = true;
    1d64:	00800044 	movi	r2,1
    1d68:	e0bffc05 	stb	r2,-16(fp)

	status = status && setAreaRange( &(scrFooterInst->iconSettingArea), marginX+1, marginX+iconBlockWidth, marginY+1, height - marginY );
    1d6c:	e0bffc03 	ldbu	r2,-16(fp)
    1d70:	10001e26 	beq	r2,zero,1dec <screenFooterInit+0x104>
    1d74:	e0bffd17 	ldw	r2,-12(fp)
    1d78:	11000184 	addi	r4,r2,6
    1d7c:	e0bffa0b 	ldhu	r2,-24(fp)
    1d80:	10800044 	addi	r2,r2,1
    1d84:	117fffcc 	andi	r5,r2,65535
    1d88:	2960001c 	xori	r5,r5,32768
    1d8c:	29600004 	addi	r5,r5,-32768
    1d90:	e0fffa0b 	ldhu	r3,-24(fp)
    1d94:	e0bffb8b 	ldhu	r2,-18(fp)
    1d98:	1885883a 	add	r2,r3,r2
    1d9c:	11bfffcc 	andi	r6,r2,65535
    1da0:	31a0001c 	xori	r6,r6,32768
    1da4:	31a00004 	addi	r6,r6,-32768
    1da8:	e0bffa8b 	ldhu	r2,-22(fp)
    1dac:	10800044 	addi	r2,r2,1
    1db0:	11ffffcc 	andi	r7,r2,65535
    1db4:	39e0001c 	xori	r7,r7,32768
    1db8:	39e00004 	addi	r7,r7,-32768
    1dbc:	e0ffff0b 	ldhu	r3,-4(fp)
    1dc0:	e0bffa8b 	ldhu	r2,-22(fp)
    1dc4:	1885c83a 	sub	r2,r3,r2
    1dc8:	10bfffcc 	andi	r2,r2,65535
    1dcc:	10a0001c 	xori	r2,r2,32768
    1dd0:	10a00004 	addi	r2,r2,-32768
    1dd4:	d8800015 	stw	r2,0(sp)
    1dd8:	00003f40 	call	3f4 <setAreaRange>
    1ddc:	10803fcc 	andi	r2,r2,255
    1de0:	10000226 	beq	r2,zero,1dec <screenFooterInit+0x104>
    1de4:	00800044 	movi	r2,1
    1de8:	00000106 	br	1df0 <screenFooterInit+0x108>
    1dec:	0005883a 	mov	r2,zero
    1df0:	e0bffc05 	stb	r2,-16(fp)
    1df4:	e0bffc03 	ldbu	r2,-16(fp)
    1df8:	1080004c 	andi	r2,r2,1
    1dfc:	e0bffc05 	stb	r2,-16(fp)
	status = status && setAreaRangeCentered( &(scrFooterInst->iconHomeArea), width, height, iconBlockWidth, iconBlockHeight );
    1e00:	e0bffc03 	ldbu	r2,-16(fp)
    1e04:	10000d26 	beq	r2,zero,1e3c <screenFooterInit+0x154>
    1e08:	e0bffd17 	ldw	r2,-12(fp)
    1e0c:	11000b04 	addi	r4,r2,44
    1e10:	e17ffe0f 	ldh	r5,-8(fp)
    1e14:	e1bfff0f 	ldh	r6,-4(fp)
    1e18:	e0fffb8f 	ldh	r3,-18(fp)
    1e1c:	e0bffb0f 	ldh	r2,-20(fp)
    1e20:	d8800015 	stw	r2,0(sp)
    1e24:	180f883a 	mov	r7,r3
    1e28:	00007e80 	call	7e8 <setAreaRangeCentered>
    1e2c:	10803fcc 	andi	r2,r2,255
    1e30:	10000226 	beq	r2,zero,1e3c <screenFooterInit+0x154>
    1e34:	00800044 	movi	r2,1
    1e38:	00000106 	br	1e40 <screenFooterInit+0x158>
    1e3c:	0005883a 	mov	r2,zero
    1e40:	e0bffc05 	stb	r2,-16(fp)
    1e44:	e0bffc03 	ldbu	r2,-16(fp)
    1e48:	1080004c 	andi	r2,r2,1
    1e4c:	e0bffc05 	stb	r2,-16(fp)
	status = status && setAreaRange( &(scrFooterInst->iconSettingArea), width-marginX-iconBlockWidth+1, width-marginX, marginY+1, height - marginY );
    1e50:	e0bffc03 	ldbu	r2,-16(fp)
    1e54:	10002326 	beq	r2,zero,1ee4 <screenFooterInit+0x1fc>
    1e58:	e0bffd17 	ldw	r2,-12(fp)
    1e5c:	11000184 	addi	r4,r2,6
    1e60:	e0fffe0b 	ldhu	r3,-8(fp)
    1e64:	e0bffa0b 	ldhu	r2,-24(fp)
    1e68:	1885c83a 	sub	r2,r3,r2
    1e6c:	1007883a 	mov	r3,r2
    1e70:	e0bffb8b 	ldhu	r2,-18(fp)
    1e74:	1885c83a 	sub	r2,r3,r2
    1e78:	10800044 	addi	r2,r2,1
    1e7c:	117fffcc 	andi	r5,r2,65535
    1e80:	2960001c 	xori	r5,r5,32768
    1e84:	29600004 	addi	r5,r5,-32768
    1e88:	e0fffe0b 	ldhu	r3,-8(fp)
    1e8c:	e0bffa0b 	ldhu	r2,-24(fp)
    1e90:	1885c83a 	sub	r2,r3,r2
    1e94:	11bfffcc 	andi	r6,r2,65535
    1e98:	31a0001c 	xori	r6,r6,32768
    1e9c:	31a00004 	addi	r6,r6,-32768
    1ea0:	e0bffa8b 	ldhu	r2,-22(fp)
    1ea4:	10800044 	addi	r2,r2,1
    1ea8:	11ffffcc 	andi	r7,r2,65535
    1eac:	39e0001c 	xori	r7,r7,32768
    1eb0:	39e00004 	addi	r7,r7,-32768
    1eb4:	e0ffff0b 	ldhu	r3,-4(fp)
    1eb8:	e0bffa8b 	ldhu	r2,-22(fp)
    1ebc:	1885c83a 	sub	r2,r3,r2
    1ec0:	10bfffcc 	andi	r2,r2,65535
    1ec4:	10a0001c 	xori	r2,r2,32768
    1ec8:	10a00004 	addi	r2,r2,-32768
    1ecc:	d8800015 	stw	r2,0(sp)
    1ed0:	00003f40 	call	3f4 <setAreaRange>
    1ed4:	10803fcc 	andi	r2,r2,255
    1ed8:	10000226 	beq	r2,zero,1ee4 <screenFooterInit+0x1fc>
    1edc:	00800044 	movi	r2,1
    1ee0:	00000106 	br	1ee8 <screenFooterInit+0x200>
    1ee4:	0005883a 	mov	r2,zero
    1ee8:	e0bffc05 	stb	r2,-16(fp)
    1eec:	e0bffc03 	ldbu	r2,-16(fp)
    1ef0:	1080004c 	andi	r2,r2,1
    1ef4:	e0bffc05 	stb	r2,-16(fp)


	status = status && setDefaultIconBlock( &(scrFooterInst->iconSetting), icon_setting, iconBlockWidth, iconBlockHeight, ICON_SETTING_X_SIZE, ICON_SETTING_Y_SIZE );
    1ef8:	e0bffc03 	ldbu	r2,-16(fp)
    1efc:	10001026 	beq	r2,zero,1f40 <screenFooterInit+0x258>
    1f00:	e0bffd17 	ldw	r2,-12(fp)
    1f04:	11000404 	addi	r4,r2,16
    1f08:	e1bffb8f 	ldh	r6,-18(fp)
    1f0c:	e0fffb0f 	ldh	r3,-20(fp)
    1f10:	00800404 	movi	r2,16
    1f14:	d8800015 	stw	r2,0(sp)
    1f18:	00800404 	movi	r2,16
    1f1c:	d8800115 	stw	r2,4(sp)
    1f20:	01400374 	movhi	r5,13
    1f24:	297f0a04 	addi	r5,r5,-984
    1f28:	180f883a 	mov	r7,r3
    1f2c:	0000d580 	call	d58 <setDefaultIconBlock>
    1f30:	10803fcc 	andi	r2,r2,255
    1f34:	10000226 	beq	r2,zero,1f40 <screenFooterInit+0x258>
    1f38:	00800044 	movi	r2,1
    1f3c:	00000106 	br	1f44 <screenFooterInit+0x25c>
    1f40:	0005883a 	mov	r2,zero
    1f44:	e0bffc05 	stb	r2,-16(fp)
    1f48:	e0bffc03 	ldbu	r2,-16(fp)
    1f4c:	1080004c 	andi	r2,r2,1
    1f50:	e0bffc05 	stb	r2,-16(fp)
	status = status && setDefaultIconBlock( &(scrFooterInst->iconHome), icon_setting, iconBlockWidth, iconBlockHeight, ICON_HOME_X_SIZE, ICON_HOME_Y_SIZE );
    1f54:	e0bffc03 	ldbu	r2,-16(fp)
    1f58:	10001026 	beq	r2,zero,1f9c <screenFooterInit+0x2b4>
    1f5c:	e0bffd17 	ldw	r2,-12(fp)
    1f60:	11000d04 	addi	r4,r2,52
    1f64:	e1bffb8f 	ldh	r6,-18(fp)
    1f68:	e0fffb0f 	ldh	r3,-20(fp)
    1f6c:	00800404 	movi	r2,16
    1f70:	d8800015 	stw	r2,0(sp)
    1f74:	00800404 	movi	r2,16
    1f78:	d8800115 	stw	r2,4(sp)
    1f7c:	01400374 	movhi	r5,13
    1f80:	297f0a04 	addi	r5,r5,-984
    1f84:	180f883a 	mov	r7,r3
    1f88:	0000d580 	call	d58 <setDefaultIconBlock>
    1f8c:	10803fcc 	andi	r2,r2,255
    1f90:	10000226 	beq	r2,zero,1f9c <screenFooterInit+0x2b4>
    1f94:	00800044 	movi	r2,1
    1f98:	00000106 	br	1fa0 <screenFooterInit+0x2b8>
    1f9c:	0005883a 	mov	r2,zero
    1fa0:	e0bffc05 	stb	r2,-16(fp)
    1fa4:	e0bffc03 	ldbu	r2,-16(fp)
    1fa8:	1080004c 	andi	r2,r2,1
    1fac:	e0bffc05 	stb	r2,-16(fp)
	status = status && setDefaultIconBlock( &(scrFooterInst->iconBack), icon_setting, iconBlockWidth, iconBlockHeight, ICON_BACK_X_SIZE, ICON_BACK_Y_SIZE );
    1fb0:	e0bffc03 	ldbu	r2,-16(fp)
    1fb4:	10001026 	beq	r2,zero,1ff8 <screenFooterInit+0x310>
    1fb8:	e0bffd17 	ldw	r2,-12(fp)
    1fbc:	11001604 	addi	r4,r2,88
    1fc0:	e1bffb8f 	ldh	r6,-18(fp)
    1fc4:	e0fffb0f 	ldh	r3,-20(fp)
    1fc8:	00800404 	movi	r2,16
    1fcc:	d8800015 	stw	r2,0(sp)
    1fd0:	00800404 	movi	r2,16
    1fd4:	d8800115 	stw	r2,4(sp)
    1fd8:	01400374 	movhi	r5,13
    1fdc:	297f0a04 	addi	r5,r5,-984
    1fe0:	180f883a 	mov	r7,r3
    1fe4:	0000d580 	call	d58 <setDefaultIconBlock>
    1fe8:	10803fcc 	andi	r2,r2,255
    1fec:	10000226 	beq	r2,zero,1ff8 <screenFooterInit+0x310>
    1ff0:	00800044 	movi	r2,1
    1ff4:	00000106 	br	1ffc <screenFooterInit+0x314>
    1ff8:	0005883a 	mov	r2,zero
    1ffc:	e0bffc05 	stb	r2,-16(fp)
    2000:	e0bffc03 	ldbu	r2,-16(fp)
    2004:	1080004c 	andi	r2,r2,1
    2008:	e0bffc05 	stb	r2,-16(fp)

	return status;
    200c:	e0bffc03 	ldbu	r2,-16(fp)
}
    2010:	e037883a 	mov	sp,fp
    2014:	dfc00117 	ldw	ra,4(sp)
    2018:	df000017 	ldw	fp,0(sp)
    201c:	dec00204 	addi	sp,sp,8
    2020:	f800283a 	ret

00002024 <screenMainHomeInit>:

bool screenMainHomeInit( ScreenHome *scrHomeInst, short width, short height, TxtFilesInfo *txtFilesInfoPtr )
{
    2024:	deffef04 	addi	sp,sp,-68
    2028:	dfc01015 	stw	ra,64(sp)
    202c:	df000f15 	stw	fp,60(sp)
    2030:	df000f04 	addi	fp,sp,60
    2034:	e13ffc15 	stw	r4,-16(fp)
    2038:	2807883a 	mov	r3,r5
    203c:	3005883a 	mov	r2,r6
    2040:	e1ffff15 	stw	r7,-4(fp)
    2044:	e0fffd0d 	sth	r3,-12(fp)
    2048:	e0bffe0d 	sth	r2,-8(fp)
	scrHomeInst->borderVisible = true;
    204c:	e0bffc17 	ldw	r2,-16(fp)
    2050:	00c00044 	movi	r3,1
    2054:	10c00005 	stb	r3,0(r2)
	scrHomeInst->borderColor = DEFAULT_BORDER_COLOR;
    2058:	e0bffc17 	ldw	r2,-16(fp)
    205c:	1000008d 	sth	zero,2(r2)
	scrHomeInst->bkgColor = DEFAULT_BKG_COLOR;
    2060:	e0bffc17 	ldw	r2,-16(fp)
    2064:	00c48d04 	movi	r3,4660
    2068:	10c0010d 	sth	r3,4(r2)

	bool status = true;
    206c:	00800044 	movi	r2,1
    2070:	e0bff305 	stb	r2,-52(fp)

	//列表
	short blockMarginY = 1;
    2074:	00800044 	movi	r2,1
    2078:	e0bff38d 	sth	r2,-50(fp)
	short blockHeight = height - (blockMarginY<<1);
    207c:	e0fffe0b 	ldhu	r3,-8(fp)
    2080:	e0bff38b 	ldhu	r2,-50(fp)
    2084:	1085883a 	add	r2,r2,r2
    2088:	1885c83a 	sub	r2,r3,r2
    208c:	e0bff40d 	sth	r2,-48(fp)

	short numListMarginXL = 1;
    2090:	00800044 	movi	r2,1
    2094:	e0bff48d 	sth	r2,-46(fp)
	short numListWidth = 50;//数字编号列表元素宽度
    2098:	00800c84 	movi	r2,50
    209c:	e0bff50d 	sth	r2,-44(fp)

	short scrollBarMarginXR = 1;
    20a0:	00800044 	movi	r2,1
    20a4:	e0bff58d 	sth	r2,-42(fp)
	short scrollBarWidth = 50;//滚动条宽度
    20a8:	00800c84 	movi	r2,50
    20ac:	e0bff60d 	sth	r2,-40(fp)
	short scrollBarMarginXL = width - scrollBarMarginXR - scrollBarWidth;
    20b0:	e0fffd0b 	ldhu	r3,-12(fp)
    20b4:	e0bff58b 	ldhu	r2,-42(fp)
    20b8:	1885c83a 	sub	r2,r3,r2
    20bc:	1007883a 	mov	r3,r2
    20c0:	e0bff60b 	ldhu	r2,-40(fp)
    20c4:	1885c83a 	sub	r2,r3,r2
    20c8:	e0bff68d 	sth	r2,-38(fp)

	short catalogListSpacingL = 2;//txt文件目录与左侧数字编号列表的间隔
    20cc:	00800084 	movi	r2,2
    20d0:	e0bff70d 	sth	r2,-36(fp)
	short catalogListSpacingR = 2;//txt文件目录与右侧滚动条的间隔
    20d4:	00800084 	movi	r2,2
    20d8:	e0bff78d 	sth	r2,-34(fp)
	short catalogListMarginXL = numListMarginXL + numListWidth + catalogListSpacingL;
    20dc:	e0fff48b 	ldhu	r3,-46(fp)
    20e0:	e0bff50b 	ldhu	r2,-44(fp)
    20e4:	1885883a 	add	r2,r3,r2
    20e8:	1007883a 	mov	r3,r2
    20ec:	e0bff70b 	ldhu	r2,-36(fp)
    20f0:	1885883a 	add	r2,r3,r2
    20f4:	e0bff80d 	sth	r2,-32(fp)
	short catalogListWidth = width - scrollBarMarginXR - scrollBarWidth - catalogListSpacingR - catalogListMarginXL;
    20f8:	e0fffd0b 	ldhu	r3,-12(fp)
    20fc:	e0bff58b 	ldhu	r2,-42(fp)
    2100:	1885c83a 	sub	r2,r3,r2
    2104:	1007883a 	mov	r3,r2
    2108:	e0bff60b 	ldhu	r2,-40(fp)
    210c:	1885c83a 	sub	r2,r3,r2
    2110:	1007883a 	mov	r3,r2
    2114:	e0bff78b 	ldhu	r2,-34(fp)
    2118:	1885c83a 	sub	r2,r3,r2
    211c:	1007883a 	mov	r3,r2
    2120:	e0bff80b 	ldhu	r2,-32(fp)
    2124:	1885c83a 	sub	r2,r3,r2
    2128:	e0bff88d 	sth	r2,-30(fp)

	//列表元素个数
	short listElemNum = txtFilesInfoPtr->txtFilesNum;//列表元素个数
    212c:	e0bfff17 	ldw	r2,-4(fp)
    2130:	10800117 	ldw	r2,4(r2)
    2134:	e0bff90d 	sth	r2,-28(fp)
	short listElemHeight = CATALOG_ROW_HEIGHT;//列表元素高度
    2138:	00800484 	movi	r2,18
    213c:	e0bff98d 	sth	r2,-26(fp)
	 *
	 */


	//数字编号列表
	status = status && setAreaRange( &(scrHomeInst->numBarArea), numListMarginXL+1, numListMarginXL+numListWidth,\
    2140:	e0bff303 	ldbu	r2,-52(fp)
    2144:	10001e26 	beq	r2,zero,21c0 <screenMainHomeInit+0x19c>
    2148:	e0bffc17 	ldw	r2,-16(fp)
    214c:	11000384 	addi	r4,r2,14
    2150:	e0bff48b 	ldhu	r2,-46(fp)
    2154:	10800044 	addi	r2,r2,1
    2158:	117fffcc 	andi	r5,r2,65535
    215c:	2960001c 	xori	r5,r5,32768
    2160:	29600004 	addi	r5,r5,-32768
    2164:	e0fff48b 	ldhu	r3,-46(fp)
    2168:	e0bff50b 	ldhu	r2,-44(fp)
    216c:	1885883a 	add	r2,r3,r2
    2170:	11bfffcc 	andi	r6,r2,65535
    2174:	31a0001c 	xori	r6,r6,32768
    2178:	31a00004 	addi	r6,r6,-32768
    217c:	e0bff38b 	ldhu	r2,-50(fp)
    2180:	10800044 	addi	r2,r2,1
    2184:	11ffffcc 	andi	r7,r2,65535
    2188:	39e0001c 	xori	r7,r7,32768
    218c:	39e00004 	addi	r7,r7,-32768
    2190:	e0fffe0b 	ldhu	r3,-8(fp)
    2194:	e0bff38b 	ldhu	r2,-50(fp)
    2198:	1885c83a 	sub	r2,r3,r2
    219c:	10bfffcc 	andi	r2,r2,65535
    21a0:	10a0001c 	xori	r2,r2,32768
    21a4:	10a00004 	addi	r2,r2,-32768
    21a8:	d8800015 	stw	r2,0(sp)
    21ac:	00003f40 	call	3f4 <setAreaRange>
    21b0:	10803fcc 	andi	r2,r2,255
    21b4:	10000226 	beq	r2,zero,21c0 <screenMainHomeInit+0x19c>
    21b8:	00800044 	movi	r2,1
    21bc:	00000106 	br	21c4 <screenMainHomeInit+0x1a0>
    21c0:	0005883a 	mov	r2,zero
    21c4:	e0bff305 	stb	r2,-52(fp)
    21c8:	e0bff303 	ldbu	r2,-52(fp)
    21cc:	1080004c 	andi	r2,r2,1
    21d0:	e0bff305 	stb	r2,-52(fp)
							blockMarginY+1, height-blockMarginY );
	status = status && setDefaultTagList( &(scrHomeInst->numBar), numListWidth, listElemNum, numListPtr, true,\
    21d4:	e0bff303 	ldbu	r2,-52(fp)
    21d8:	10000f26 	beq	r2,zero,2218 <screenMainHomeInit+0x1f4>
    21dc:	e0bffc17 	ldw	r2,-16(fp)
    21e0:	11000604 	addi	r4,r2,24
    21e4:	e17ff50f 	ldh	r5,-44(fp)
    21e8:	e0fff90f 	ldh	r3,-28(fp)
    21ec:	00800044 	movi	r2,1
    21f0:	d8800015 	stw	r2,0(sp)
    21f4:	d0a00004 	addi	r2,gp,-32768
    21f8:	d8800115 	stw	r2,4(sp)
    21fc:	180d883a 	mov	r6,r3
    2200:	e1fffa17 	ldw	r7,-24(fp)
    2204:	00024480 	call	2448 <setDefaultTagList>
    2208:	10803fcc 	andi	r2,r2,255
    220c:	10000226 	beq	r2,zero,2218 <screenMainHomeInit+0x1f4>
    2210:	00800044 	movi	r2,1
    2214:	00000106 	br	221c <screenMainHomeInit+0x1f8>
    2218:	0005883a 	mov	r2,zero
    221c:	e0bff305 	stb	r2,-52(fp)
    2220:	e0bff303 	ldbu	r2,-52(fp)
    2224:	1080004c 	andi	r2,r2,1
    2228:	e0bff305 	stb	r2,-52(fp)
							&defaultColorInfo );
	//txt文件目录列表
	status = status && setAreaRange( &(scrHomeInst->txtCatalogArea), catalogListMarginXL+1, catalogListMarginXL+catalogListWidth,\
    222c:	e0bff303 	ldbu	r2,-52(fp)
    2230:	10001e26 	beq	r2,zero,22ac <screenMainHomeInit+0x288>
    2234:	e0bffc17 	ldw	r2,-16(fp)
    2238:	11001004 	addi	r4,r2,64
    223c:	e0bff80b 	ldhu	r2,-32(fp)
    2240:	10800044 	addi	r2,r2,1
    2244:	117fffcc 	andi	r5,r2,65535
    2248:	2960001c 	xori	r5,r5,32768
    224c:	29600004 	addi	r5,r5,-32768
    2250:	e0fff80b 	ldhu	r3,-32(fp)
    2254:	e0bff88b 	ldhu	r2,-30(fp)
    2258:	1885883a 	add	r2,r3,r2
    225c:	11bfffcc 	andi	r6,r2,65535
    2260:	31a0001c 	xori	r6,r6,32768
    2264:	31a00004 	addi	r6,r6,-32768
    2268:	e0bff38b 	ldhu	r2,-50(fp)
    226c:	10800044 	addi	r2,r2,1
    2270:	11ffffcc 	andi	r7,r2,65535
    2274:	39e0001c 	xori	r7,r7,32768
    2278:	39e00004 	addi	r7,r7,-32768
    227c:	e0fffe0b 	ldhu	r3,-8(fp)
    2280:	e0bff38b 	ldhu	r2,-50(fp)
    2284:	1885c83a 	sub	r2,r3,r2
    2288:	10bfffcc 	andi	r2,r2,65535
    228c:	10a0001c 	xori	r2,r2,32768
    2290:	10a00004 	addi	r2,r2,-32768
    2294:	d8800015 	stw	r2,0(sp)
    2298:	00003f40 	call	3f4 <setAreaRange>
    229c:	10803fcc 	andi	r2,r2,255
    22a0:	10000226 	beq	r2,zero,22ac <screenMainHomeInit+0x288>
    22a4:	00800044 	movi	r2,1
    22a8:	00000106 	br	22b0 <screenMainHomeInit+0x28c>
    22ac:	0005883a 	mov	r2,zero
    22b0:	e0bff305 	stb	r2,-52(fp)
    22b4:	e0bff303 	ldbu	r2,-52(fp)
    22b8:	1080004c 	andi	r2,r2,1
    22bc:	e0bff305 	stb	r2,-52(fp)
							blockMarginY+1, height-blockMarginY );
	status = status && setDefaultTagList( &(scrHomeInst->txtCatalog), numListWidth, listElemNum, catalogListPtr, true,\
    22c0:	e0bff303 	ldbu	r2,-52(fp)
    22c4:	10000f26 	beq	r2,zero,2304 <screenMainHomeInit+0x2e0>
    22c8:	e0bffc17 	ldw	r2,-16(fp)
    22cc:	11001204 	addi	r4,r2,72
    22d0:	e17ff50f 	ldh	r5,-44(fp)
    22d4:	e0fff90f 	ldh	r3,-28(fp)
    22d8:	00800044 	movi	r2,1
    22dc:	d8800015 	stw	r2,0(sp)
    22e0:	d0a00004 	addi	r2,gp,-32768
    22e4:	d8800115 	stw	r2,4(sp)
    22e8:	180d883a 	mov	r6,r3
    22ec:	e1fffb17 	ldw	r7,-20(fp)
    22f0:	00024480 	call	2448 <setDefaultTagList>
    22f4:	10803fcc 	andi	r2,r2,255
    22f8:	10000226 	beq	r2,zero,2304 <screenMainHomeInit+0x2e0>
    22fc:	00800044 	movi	r2,1
    2300:	00000106 	br	2308 <screenMainHomeInit+0x2e4>
    2304:	0005883a 	mov	r2,zero
    2308:	e0bff305 	stb	r2,-52(fp)
    230c:	e0bff303 	ldbu	r2,-52(fp)
    2310:	1080004c 	andi	r2,r2,1
    2314:	e0bff305 	stb	r2,-52(fp)
							&defaultColorInfo );


	//滚动条
	status = status && setAreaRange( &(scrHomeInst->turnCatalogBarArea), scrollBarMarginXL + 1, scrollBarMarginXL + scrollBarWidth,\
    2318:	e0bff303 	ldbu	r2,-52(fp)
    231c:	10001e26 	beq	r2,zero,2398 <screenMainHomeInit+0x374>
    2320:	e0bffc17 	ldw	r2,-16(fp)
    2324:	11001e84 	addi	r4,r2,122
    2328:	e0bff68b 	ldhu	r2,-38(fp)
    232c:	10800044 	addi	r2,r2,1
    2330:	117fffcc 	andi	r5,r2,65535
    2334:	2960001c 	xori	r5,r5,32768
    2338:	29600004 	addi	r5,r5,-32768
    233c:	e0fff68b 	ldhu	r3,-38(fp)
    2340:	e0bff60b 	ldhu	r2,-40(fp)
    2344:	1885883a 	add	r2,r3,r2
    2348:	11bfffcc 	andi	r6,r2,65535
    234c:	31a0001c 	xori	r6,r6,32768
    2350:	31a00004 	addi	r6,r6,-32768
    2354:	e0bff38b 	ldhu	r2,-50(fp)
    2358:	10800044 	addi	r2,r2,1
    235c:	11ffffcc 	andi	r7,r2,65535
    2360:	39e0001c 	xori	r7,r7,32768
    2364:	39e00004 	addi	r7,r7,-32768
    2368:	e0fffe0b 	ldhu	r3,-8(fp)
    236c:	e0bff38b 	ldhu	r2,-50(fp)
    2370:	1885c83a 	sub	r2,r3,r2
    2374:	10bfffcc 	andi	r2,r2,65535
    2378:	10a0001c 	xori	r2,r2,32768
    237c:	10a00004 	addi	r2,r2,-32768
    2380:	d8800015 	stw	r2,0(sp)
    2384:	00003f40 	call	3f4 <setAreaRange>
    2388:	10803fcc 	andi	r2,r2,255
    238c:	10000226 	beq	r2,zero,2398 <screenMainHomeInit+0x374>
    2390:	00800044 	movi	r2,1
    2394:	00000106 	br	239c <screenMainHomeInit+0x378>
    2398:	0005883a 	mov	r2,zero
    239c:	e0bff305 	stb	r2,-52(fp)
    23a0:	e0bff303 	ldbu	r2,-52(fp)
    23a4:	1080004c 	andi	r2,r2,1
    23a8:	e0bff305 	stb	r2,-52(fp)
							blockMarginY+1, height-blockMarginY );
	status = status && setDefaultScrollBarY( &(scrHomeInst->turnCatalogBarY), scrollBarWidth, blockHeight );
    23ac:	e0bff303 	ldbu	r2,-52(fp)
    23b0:	10000b26 	beq	r2,zero,23e0 <screenMainHomeInit+0x3bc>
    23b4:	e0bffc17 	ldw	r2,-16(fp)
    23b8:	11002104 	addi	r4,r2,132
    23bc:	e0fff60f 	ldh	r3,-40(fp)
    23c0:	e0bff40f 	ldh	r2,-48(fp)
    23c4:	180b883a 	mov	r5,r3
    23c8:	100d883a 	mov	r6,r2
    23cc:	0000d1c0 	call	d1c <setDefaultScrollBarY>
    23d0:	10803fcc 	andi	r2,r2,255
    23d4:	10000226 	beq	r2,zero,23e0 <screenMainHomeInit+0x3bc>
    23d8:	00800044 	movi	r2,1
    23dc:	00000106 	br	23e4 <screenMainHomeInit+0x3c0>
    23e0:	0005883a 	mov	r2,zero
    23e4:	e0bff305 	stb	r2,-52(fp)
    23e8:	e0bff303 	ldbu	r2,-52(fp)
    23ec:	1080004c 	andi	r2,r2,1
    23f0:	e0bff305 	stb	r2,-52(fp)
//	scrHomeInst
//	short listYOffset;//列表显示时的纵向偏移量
//	short listYOffsetMax;//列表显示时的纵向偏移量


	scrHomeInst->txtScrollable = false;//允许滚动否
    23f4:	e0bffc17 	ldw	r2,-16(fp)
    23f8:	10001c05 	stb	zero,112(r2)
	scrHomeInst->txtScrollrow = 0;//可滚动的某行行数（一次只有一行可以滚动）
    23fc:	e0bffc17 	ldw	r2,-16(fp)
    2400:	10001c8d 	sth	zero,114(r2)
	scrHomeInst->txtScrollxOffset = 0;//当前滚动偏移量
    2404:	e0bffc17 	ldw	r2,-16(fp)
    2408:	10001d0d 	sth	zero,116(r2)
	scrHomeInst->txtScrollwidth = 0;//滚动文本的真实像素宽度（可以超出屏幕宽度）
    240c:	e0bffc17 	ldw	r2,-16(fp)
    2410:	10001d8d 	sth	zero,118(r2)
	scrHomeInst->txtScrollSpacing = width / 2;//滚动文本循环时文本尾与新文本头的间隔
    2414:	e0bffd0f 	ldh	r2,-12(fp)
    2418:	1006d7fa 	srli	r3,r2,31
    241c:	1885883a 	add	r2,r3,r2
    2420:	1005d07a 	srai	r2,r2,1
    2424:	1007883a 	mov	r3,r2
    2428:	e0bffc17 	ldw	r2,-16(fp)
    242c:	10c01e0d 	sth	r3,120(r2)


	return status;
    2430:	e0bff303 	ldbu	r2,-52(fp)
}
    2434:	e037883a 	mov	sp,fp
    2438:	dfc00117 	ldw	ra,4(sp)
    243c:	df000017 	ldw	fp,0(sp)
    2440:	dec00204 	addi	sp,sp,8
    2444:	f800283a 	ret

00002448 <setDefaultTagList>:
//设置默认文本列表
bool setDefaultTagList( TagList *TagListInst, short elemWidth, short elemHeight, TextList *textListPtr, bool elemBorderVisible,\
		                 ColorInfo *colorInfoPtr )
{
    2448:	deffed04 	addi	sp,sp,-76
    244c:	dfc01215 	stw	ra,72(sp)
    2450:	df001115 	stw	fp,68(sp)
    2454:	df001104 	addi	fp,sp,68
    2458:	e13ffb15 	stw	r4,-20(fp)
    245c:	2809883a 	mov	r4,r5
    2460:	3007883a 	mov	r3,r6
    2464:	e1fffe15 	stw	r7,-8(fp)
    2468:	e0800217 	ldw	r2,8(fp)
    246c:	e13ffc0d 	sth	r4,-16(fp)
    2470:	e0fffd0d 	sth	r3,-12(fp)
    2474:	e0bfff05 	stb	r2,-4(fp)
	//设置列表元素区域大小
	bool status = true;
    2478:	00800044 	movi	r2,1
    247c:	e0bff005 	stb	r2,-64(fp)
	status = status && setAreaRange( &(TagListInst->elemBaseArea), 1, elemWidth, 1, elemHeight );
    2480:	e0bff003 	ldbu	r2,-64(fp)
    2484:	10000c26 	beq	r2,zero,24b8 <setDefaultTagList+0x70>
    2488:	e13ffb17 	ldw	r4,-20(fp)
    248c:	e0fffc0f 	ldh	r3,-16(fp)
    2490:	e0bffd0f 	ldh	r2,-12(fp)
    2494:	d8800015 	stw	r2,0(sp)
    2498:	01400044 	movi	r5,1
    249c:	180d883a 	mov	r6,r3
    24a0:	01c00044 	movi	r7,1
    24a4:	00003f40 	call	3f4 <setAreaRange>
    24a8:	10803fcc 	andi	r2,r2,255
    24ac:	10000226 	beq	r2,zero,24b8 <setDefaultTagList+0x70>
    24b0:	00800044 	movi	r2,1
    24b4:	00000106 	br	24bc <setDefaultTagList+0x74>
    24b8:	0005883a 	mov	r2,zero
    24bc:	e0bff005 	stb	r2,-64(fp)
    24c0:	e0bff003 	ldbu	r2,-64(fp)
    24c4:	1080004c 	andi	r2,r2,1
    24c8:	e0bff005 	stb	r2,-64(fp)
	//计算文本所在区域
	//计算文本宽度(使用中文尺寸来估计）
	short textWidth = ( BOOK_ROW_BYTES >> 1) * ( SRC_WORD_SIZE_X + DEFAULT_WORD_SPACING );
    24cc:	00804c84 	movi	r2,306
    24d0:	e0bff48d 	sth	r2,-46(fp)
	short marginXL = ( elemWidth - textWidth )>>1;
    24d4:	e0fffc0f 	ldh	r3,-16(fp)
    24d8:	e0bff48f 	ldh	r2,-46(fp)
    24dc:	1885c83a 	sub	r2,r3,r2
    24e0:	1005d07a 	srai	r2,r2,1
    24e4:	e0bff08d 	sth	r2,-62(fp)
	short marginXR = elemWidth - marginXL - textWidth;
    24e8:	e0fffc0b 	ldhu	r3,-16(fp)
    24ec:	e0bff08b 	ldhu	r2,-62(fp)
    24f0:	1885c83a 	sub	r2,r3,r2
    24f4:	1007883a 	mov	r3,r2
    24f8:	e0bff48b 	ldhu	r2,-46(fp)
    24fc:	1885c83a 	sub	r2,r3,r2
    2500:	e0bff10d 	sth	r2,-60(fp)
	short marginYU = ( elemHeight - SRC_WORD_SIZE_Y )>>1;
    2504:	e0bffd0f 	ldh	r2,-12(fp)
    2508:	10bffc04 	addi	r2,r2,-16
    250c:	1005d07a 	srai	r2,r2,1
    2510:	e0bff18d 	sth	r2,-58(fp)
	short marginYD = elemHeight - marginYU - SRC_WORD_SIZE_Y;
    2514:	e0fffd0b 	ldhu	r3,-12(fp)
    2518:	e0bff18b 	ldhu	r2,-58(fp)
    251c:	1885c83a 	sub	r2,r3,r2
    2520:	10bffc04 	addi	r2,r2,-16
    2524:	e0bff20d 	sth	r2,-56(fp)

	if ( elemWidth < textWidth || elemHeight < SRC_WORD_SIZE_Y )
    2528:	e0fffc0f 	ldh	r3,-16(fp)
    252c:	e0bff48f 	ldh	r2,-46(fp)
    2530:	18800316 	blt	r3,r2,2540 <setDefaultTagList+0xf8>
    2534:	e0bffd0f 	ldh	r2,-12(fp)
    2538:	10800408 	cmpgei	r2,r2,16
    253c:	1000051e 	bne	r2,zero,2554 <setDefaultTagList+0x10c>
	{
		marginXL = 0;
    2540:	e03ff08d 	sth	zero,-62(fp)
		marginXR = 0;
    2544:	e03ff10d 	sth	zero,-60(fp)
		marginYU = 0;
    2548:	e03ff18d 	sth	zero,-58(fp)
		marginYD = 0;
    254c:	e03ff20d 	sth	zero,-56(fp)
		status = false;
    2550:	e03ff005 	stb	zero,-64(fp)
	}
	//设置元素文本区域位置
	status = status && setAreaRange( &(TagListInst->textArea), marginXL+1, elemWidth-marginXR, marginYU+1, elemHeight-marginYD );
    2554:	e0bff003 	ldbu	r2,-64(fp)
    2558:	10001e26 	beq	r2,zero,25d4 <setDefaultTagList+0x18c>
    255c:	e0bffb17 	ldw	r2,-20(fp)
    2560:	11000204 	addi	r4,r2,8
    2564:	e0bff08b 	ldhu	r2,-62(fp)
    2568:	10800044 	addi	r2,r2,1
    256c:	117fffcc 	andi	r5,r2,65535
    2570:	2960001c 	xori	r5,r5,32768
    2574:	29600004 	addi	r5,r5,-32768
    2578:	e0fffc0b 	ldhu	r3,-16(fp)
    257c:	e0bff10b 	ldhu	r2,-60(fp)
    2580:	1885c83a 	sub	r2,r3,r2
    2584:	11bfffcc 	andi	r6,r2,65535
    2588:	31a0001c 	xori	r6,r6,32768
    258c:	31a00004 	addi	r6,r6,-32768
    2590:	e0bff18b 	ldhu	r2,-58(fp)
    2594:	10800044 	addi	r2,r2,1
    2598:	11ffffcc 	andi	r7,r2,65535
    259c:	39e0001c 	xori	r7,r7,32768
    25a0:	39e00004 	addi	r7,r7,-32768
    25a4:	e0fffd0b 	ldhu	r3,-12(fp)
    25a8:	e0bff20b 	ldhu	r2,-56(fp)
    25ac:	1885c83a 	sub	r2,r3,r2
    25b0:	10bfffcc 	andi	r2,r2,65535
    25b4:	10a0001c 	xori	r2,r2,32768
    25b8:	10a00004 	addi	r2,r2,-32768
    25bc:	d8800015 	stw	r2,0(sp)
    25c0:	00003f40 	call	3f4 <setAreaRange>
    25c4:	10803fcc 	andi	r2,r2,255
    25c8:	10000226 	beq	r2,zero,25d4 <setDefaultTagList+0x18c>
    25cc:	00800044 	movi	r2,1
    25d0:	00000106 	br	25d8 <setDefaultTagList+0x190>
    25d4:	0005883a 	mov	r2,zero
    25d8:	e0bff005 	stb	r2,-64(fp)
    25dc:	e0bff003 	ldbu	r2,-64(fp)
    25e0:	1080004c 	andi	r2,r2,1
    25e4:	e0bff005 	stb	r2,-64(fp)

	short elemNum = textListPtr->textNum;
    25e8:	e0bffe17 	ldw	r2,-8(fp)
    25ec:	1080010b 	ldhu	r2,4(r2)
    25f0:	e0bff50d 	sth	r2,-44(fp)

	TagListInst->wordSpacing = DEFAULT_WORD_SPACING;
    25f4:	e0bffb17 	ldw	r2,-20(fp)
    25f8:	00c00084 	movi	r3,2
    25fc:	10c0040d 	sth	r3,16(r2)
	TagListInst->letterSpacing = DEFAULT_LETTER_SPACING;
    2600:	e0bffb17 	ldw	r2,-20(fp)
    2604:	00c00044 	movi	r3,1
    2608:	10c0048d 	sth	r3,18(r2)

	TagListInst->elemNum = elemNum;
    260c:	e0bffb17 	ldw	r2,-20(fp)
    2610:	e0fff50b 	ldhu	r3,-44(fp)
    2614:	10c0070d 	sth	r3,28(r2)
	TagListInst->elemBorderVisible = elemBorderVisible;
    2618:	e0bffb17 	ldw	r2,-20(fp)
    261c:	e0ffff03 	ldbu	r3,-4(fp)
    2620:	10c00505 	stb	r3,20(r2)
	TagListInst->elemColorInfo = *colorInfoPtr;
    2624:	e0bffb17 	ldw	r2,-20(fp)
    2628:	e0c00317 	ldw	r3,12(fp)
    262c:	1900000b 	ldhu	r4,0(r3)
    2630:	1100058d 	sth	r4,22(r2)
    2634:	1900008b 	ldhu	r4,2(r3)
    2638:	1100060d 	sth	r4,24(r2)
    263c:	18c0010b 	ldhu	r3,4(r3)
    2640:	10c0068d 	sth	r3,26(r2)

	int i;

	AreaRange *elemAreaArray = (AreaRange*)malloc( sizeof( AreaRange ) * elemNum );
    2644:	e0bff50f 	ldh	r2,-44(fp)
    2648:	100490fa 	slli	r2,r2,3
    264c:	1009883a 	mov	r4,r2
    2650:	0003d800 	call	3d80 <malloc>
    2654:	e0bff615 	stw	r2,-40(fp)
	TagBlock *tagBolckArray = (TagBlock*)malloc( sizeof( TagBlock ) * elemNum );
    2658:	e0bff50f 	ldh	r2,-44(fp)
    265c:	1004917a 	slli	r2,r2,5
    2660:	1009883a 	mov	r4,r2
    2664:	0003d800 	call	3d80 <malloc>
    2668:	e0bff715 	stw	r2,-36(fp)

	AreaRange *curElemAreaPtr;
	TagBlock *curTagPtr;
	TextType *textArray = textListPtr->textArray;
    266c:	e0bffe17 	ldw	r2,-8(fp)
    2670:	10800017 	ldw	r2,0(r2)
    2674:	e0bff815 	stw	r2,-32(fp)

	short elemYPos = 0;
    2678:	e03ff40d 	sth	zero,-48(fp)
	for ( i = 0; i < elemNum; i ++ )
    267c:	e03ff315 	stw	zero,-52(fp)
    2680:	00004706 	br	27a0 <setDefaultTagList+0x358>
	{
		curTagPtr = &(tagBolckArray[i]);
    2684:	e0bff317 	ldw	r2,-52(fp)
    2688:	1004917a 	slli	r2,r2,5
    268c:	e0fff717 	ldw	r3,-36(fp)
    2690:	1885883a 	add	r2,r3,r2
    2694:	e0bff915 	stw	r2,-28(fp)
		curElemAreaPtr = &(elemAreaArray[i]);
    2698:	e0bff317 	ldw	r2,-52(fp)
    269c:	100490fa 	slli	r2,r2,3
    26a0:	e0fff617 	ldw	r3,-40(fp)
    26a4:	1885883a 	add	r2,r3,r2
    26a8:	e0bffa15 	stw	r2,-24(fp)

		curTagPtr->borderVisible = TagListInst->elemBorderVisible;
    26ac:	e0bffb17 	ldw	r2,-20(fp)
    26b0:	10c00503 	ldbu	r3,20(r2)
    26b4:	e0bff917 	ldw	r2,-28(fp)
    26b8:	10c00205 	stb	r3,8(r2)
		curTagPtr->tagColorInfo = TagListInst->elemColorInfo;
    26bc:	e0bff917 	ldw	r2,-28(fp)
    26c0:	e0fffb17 	ldw	r3,-20(fp)
    26c4:	1900058b 	ldhu	r4,22(r3)
    26c8:	1100028d 	sth	r4,10(r2)
    26cc:	1900060b 	ldhu	r4,24(r3)
    26d0:	1100030d 	sth	r4,12(r2)
    26d4:	18c0068b 	ldhu	r3,26(r3)
    26d8:	10c0038d 	sth	r3,14(r2)
		curTagPtr->wordSpacing = TagListInst->wordSpacing;
    26dc:	e0bffb17 	ldw	r2,-20(fp)
    26e0:	10c0040b 	ldhu	r3,16(r2)
    26e4:	e0bff917 	ldw	r2,-28(fp)
    26e8:	10c0040d 	sth	r3,16(r2)
		curTagPtr->letterSpacing = TagListInst->letterSpacing;
    26ec:	e0bffb17 	ldw	r2,-20(fp)
    26f0:	10c0048b 	ldhu	r3,18(r2)
    26f4:	e0bff917 	ldw	r2,-28(fp)
    26f8:	10c0048d 	sth	r3,18(r2)
		curTagPtr->tagText = textArray[i];
    26fc:	e0bff317 	ldw	r2,-52(fp)
    2700:	100490fa 	slli	r2,r2,3
    2704:	e0fff817 	ldw	r3,-32(fp)
    2708:	1887883a 	add	r3,r3,r2
    270c:	e0bff917 	ldw	r2,-28(fp)
    2710:	19000017 	ldw	r4,0(r3)
    2714:	11000615 	stw	r4,24(r2)
    2718:	18c00117 	ldw	r3,4(r3)
    271c:	10c00715 	stw	r3,28(r2)
		curTagPtr->textVisible = true;
    2720:	e0bff917 	ldw	r2,-28(fp)
    2724:	00c00044 	movi	r3,1
    2728:	10c00245 	stb	r3,9(r2)
		curTagPtr->textArea = TagListInst->textArea;
    272c:	e0bff917 	ldw	r2,-28(fp)
    2730:	e0fffb17 	ldw	r3,-20(fp)
    2734:	19000217 	ldw	r4,8(r3)
    2738:	11000015 	stw	r4,0(r2)
    273c:	18c00317 	ldw	r3,12(r3)
    2740:	10c00115 	stw	r3,4(r2)
		setAreaRange( curElemAreaPtr, 1, elemWidth, elemYPos + 1, elemYPos + elemHeight );
    2744:	e1bffc0f 	ldh	r6,-16(fp)
    2748:	e0bff40b 	ldhu	r2,-48(fp)
    274c:	10800044 	addi	r2,r2,1
    2750:	11ffffcc 	andi	r7,r2,65535
    2754:	39e0001c 	xori	r7,r7,32768
    2758:	39e00004 	addi	r7,r7,-32768
    275c:	e0fff40b 	ldhu	r3,-48(fp)
    2760:	e0bffd0b 	ldhu	r2,-12(fp)
    2764:	1885883a 	add	r2,r3,r2
    2768:	10bfffcc 	andi	r2,r2,65535
    276c:	10a0001c 	xori	r2,r2,32768
    2770:	10a00004 	addi	r2,r2,-32768
    2774:	d8800015 	stw	r2,0(sp)
    2778:	e13ffa17 	ldw	r4,-24(fp)
    277c:	01400044 	movi	r5,1
    2780:	00003f40 	call	3f4 <setAreaRange>
		elemYPos = elemYPos + elemHeight;
    2784:	e0fff40b 	ldhu	r3,-48(fp)
    2788:	e0bffd0b 	ldhu	r2,-12(fp)
    278c:	1885883a 	add	r2,r3,r2
    2790:	e0bff40d 	sth	r2,-48(fp)
	AreaRange *curElemAreaPtr;
	TagBlock *curTagPtr;
	TextType *textArray = textListPtr->textArray;

	short elemYPos = 0;
	for ( i = 0; i < elemNum; i ++ )
    2794:	e0bff317 	ldw	r2,-52(fp)
    2798:	10800044 	addi	r2,r2,1
    279c:	e0bff315 	stw	r2,-52(fp)
    27a0:	e0bff50f 	ldh	r2,-44(fp)
    27a4:	e0fff317 	ldw	r3,-52(fp)
    27a8:	18bfb616 	blt	r3,r2,2684 <__alt_data_end+0xf8002684>
		curTagPtr->textArea = TagListInst->textArea;
		setAreaRange( curElemAreaPtr, 1, elemWidth, elemYPos + 1, elemYPos + elemHeight );
		elemYPos = elemYPos + elemHeight;
	}

	return status;
    27ac:	e0bff003 	ldbu	r2,-64(fp)

}
    27b0:	e037883a 	mov	sp,fp
    27b4:	dfc00117 	ldw	ra,4(sp)
    27b8:	df000017 	ldw	fp,0(sp)
    27bc:	dec00204 	addi	sp,sp,8
    27c0:	f800283a 	ret

000027c4 <screenMainBookInit>:

bool screenMainBookInit( ScreenBook *scrBookInst, short width, short height )
{
    27c4:	deffc604 	addi	sp,sp,-232
    27c8:	dfc03915 	stw	ra,228(sp)
    27cc:	df003815 	stw	fp,224(sp)
    27d0:	df003804 	addi	fp,sp,224
    27d4:	e13ffd15 	stw	r4,-12(fp)
    27d8:	2807883a 	mov	r3,r5
    27dc:	3005883a 	mov	r2,r6
    27e0:	e0fffe0d 	sth	r3,-8(fp)
    27e4:	e0bfff0d 	sth	r2,-4(fp)
	bool status = true;
    27e8:	00800044 	movi	r2,1
    27ec:	e0bfcb05 	stb	r2,-212(fp)

	scrBookInst->borderVisible = true;
    27f0:	e0bffd17 	ldw	r2,-12(fp)
    27f4:	00c00044 	movi	r3,1
    27f8:	10c00005 	stb	r3,0(r2)
	scrBookInst->borderColor = DEFAULT_BORDER_COLOR;
    27fc:	e0bffd17 	ldw	r2,-12(fp)
    2800:	1000008d 	sth	zero,2(r2)
	//可编辑的颜色（电子书背景颜色与字体颜色）
	scrBookInst->bkgColorIndex = 0;
    2804:	e0bffd17 	ldw	r2,-12(fp)
    2808:	10000105 	stb	zero,4(r2)
	scrBookInst->txtColorIndex = 255;
    280c:	e0bffd17 	ldw	r2,-12(fp)
    2810:	00ffffc4 	movi	r3,-1
    2814:	10c00145 	stb	r3,5(r2)

	//设置左中右点击区范围
	short leftAreaWidth = width/3;
    2818:	e0bffe0f 	ldh	r2,-8(fp)
    281c:	1009883a 	mov	r4,r2
    2820:	014000c4 	movi	r5,3
    2824:	0003cc00 	call	3cc0 <__divsi3>
    2828:	e0bfcb8d 	sth	r2,-210(fp)
	short rightAreaWidth = width/3;
    282c:	e0bffe0f 	ldh	r2,-8(fp)
    2830:	1009883a 	mov	r4,r2
    2834:	014000c4 	movi	r5,3
    2838:	0003cc00 	call	3cc0 <__divsi3>
    283c:	e0bfcc0d 	sth	r2,-208(fp)
	short middleAreaWidth = width - leftAreaWidth - rightAreaWidth;
    2840:	e0fffe0b 	ldhu	r3,-8(fp)
    2844:	e0bfcb8b 	ldhu	r2,-210(fp)
    2848:	1885c83a 	sub	r2,r3,r2
    284c:	1007883a 	mov	r3,r2
    2850:	e0bfcc0b 	ldhu	r2,-208(fp)
    2854:	1885c83a 	sub	r2,r3,r2
    2858:	e0bfcc8d 	sth	r2,-206(fp)
	status = status && setAreaRange( &(scrBookInst->turnBackPageAreaPos), 1, leftAreaWidth, 1, height );
    285c:	e0bfcb03 	ldbu	r2,-212(fp)
    2860:	10000d26 	beq	r2,zero,2898 <screenMainBookInit+0xd4>
    2864:	e0bffd17 	ldw	r2,-12(fp)
    2868:	11000e04 	addi	r4,r2,56
    286c:	e0ffcb8f 	ldh	r3,-210(fp)
    2870:	e0bfff0f 	ldh	r2,-4(fp)
    2874:	d8800015 	stw	r2,0(sp)
    2878:	01400044 	movi	r5,1
    287c:	180d883a 	mov	r6,r3
    2880:	01c00044 	movi	r7,1
    2884:	00003f40 	call	3f4 <setAreaRange>
    2888:	10803fcc 	andi	r2,r2,255
    288c:	10000226 	beq	r2,zero,2898 <screenMainBookInit+0xd4>
    2890:	00800044 	movi	r2,1
    2894:	00000106 	br	289c <screenMainBookInit+0xd8>
    2898:	0005883a 	mov	r2,zero
    289c:	e0bfcb05 	stb	r2,-212(fp)
    28a0:	e0bfcb03 	ldbu	r2,-212(fp)
    28a4:	1080004c 	andi	r2,r2,1
    28a8:	e0bfcb05 	stb	r2,-212(fp)
	status = status && setAreaRange( &(scrBookInst->openPageInfoAreaPos), leftAreaWidth+1, leftAreaWidth+middleAreaWidth, 1, height );
    28ac:	e0bfcb03 	ldbu	r2,-212(fp)
    28b0:	10001626 	beq	r2,zero,290c <screenMainBookInit+0x148>
    28b4:	e0bffd17 	ldw	r2,-12(fp)
    28b8:	11001204 	addi	r4,r2,72
    28bc:	e0bfcb8b 	ldhu	r2,-210(fp)
    28c0:	10800044 	addi	r2,r2,1
    28c4:	117fffcc 	andi	r5,r2,65535
    28c8:	2960001c 	xori	r5,r5,32768
    28cc:	29600004 	addi	r5,r5,-32768
    28d0:	e0ffcb8b 	ldhu	r3,-210(fp)
    28d4:	e0bfcc8b 	ldhu	r2,-206(fp)
    28d8:	1885883a 	add	r2,r3,r2
    28dc:	10ffffcc 	andi	r3,r2,65535
    28e0:	18e0001c 	xori	r3,r3,32768
    28e4:	18e00004 	addi	r3,r3,-32768
    28e8:	e0bfff0f 	ldh	r2,-4(fp)
    28ec:	d8800015 	stw	r2,0(sp)
    28f0:	180d883a 	mov	r6,r3
    28f4:	01c00044 	movi	r7,1
    28f8:	00003f40 	call	3f4 <setAreaRange>
    28fc:	10803fcc 	andi	r2,r2,255
    2900:	10000226 	beq	r2,zero,290c <screenMainBookInit+0x148>
    2904:	00800044 	movi	r2,1
    2908:	00000106 	br	2910 <screenMainBookInit+0x14c>
    290c:	0005883a 	mov	r2,zero
    2910:	e0bfcb05 	stb	r2,-212(fp)
    2914:	e0bfcb03 	ldbu	r2,-212(fp)
    2918:	1080004c 	andi	r2,r2,1
    291c:	e0bfcb05 	stb	r2,-212(fp)
	status = status && setAreaRange( &(scrBookInst->turnBackPageAreaPos), width-rightAreaWidth+1, width, 1, height );
    2920:	e0bfcb03 	ldbu	r2,-212(fp)
    2924:	10001326 	beq	r2,zero,2974 <screenMainBookInit+0x1b0>
    2928:	e0bffd17 	ldw	r2,-12(fp)
    292c:	11000e04 	addi	r4,r2,56
    2930:	e0fffe0b 	ldhu	r3,-8(fp)
    2934:	e0bfcc0b 	ldhu	r2,-208(fp)
    2938:	1885c83a 	sub	r2,r3,r2
    293c:	10800044 	addi	r2,r2,1
    2940:	117fffcc 	andi	r5,r2,65535
    2944:	2960001c 	xori	r5,r5,32768
    2948:	29600004 	addi	r5,r5,-32768
    294c:	e0fffe0f 	ldh	r3,-8(fp)
    2950:	e0bfff0f 	ldh	r2,-4(fp)
    2954:	d8800015 	stw	r2,0(sp)
    2958:	180d883a 	mov	r6,r3
    295c:	01c00044 	movi	r7,1
    2960:	00003f40 	call	3f4 <setAreaRange>
    2964:	10803fcc 	andi	r2,r2,255
    2968:	10000226 	beq	r2,zero,2974 <screenMainBookInit+0x1b0>
    296c:	00800044 	movi	r2,1
    2970:	00000106 	br	2978 <screenMainBookInit+0x1b4>
    2974:	0005883a 	mov	r2,zero
    2978:	e0bfcb05 	stb	r2,-212(fp)
    297c:	e0bfcb03 	ldbu	r2,-212(fp)
    2980:	1080004c 	andi	r2,r2,1
    2984:	e0bfcb05 	stb	r2,-212(fp)

	//设置电子书范围（居中）
	short bookAreaHeight = BOOK_ROW_HEIGHT * BOOK_COL_NUM;
    2988:	00805e84 	movi	r2,378
    298c:	e0bfcd0d 	sth	r2,-204(fp)
	short marginYU = ( height - bookAreaHeight )>>1;
    2990:	e0ffff0f 	ldh	r3,-4(fp)
    2994:	e0bfcd0f 	ldh	r2,-204(fp)
    2998:	1885c83a 	sub	r2,r3,r2
    299c:	1005d07a 	srai	r2,r2,1
    29a0:	e0bfcd8d 	sth	r2,-202(fp)
	short marginYD = height - bookAreaHeight - marginYU;
    29a4:	e0ffff0b 	ldhu	r3,-4(fp)
    29a8:	e0bfcd0b 	ldhu	r2,-204(fp)
    29ac:	1885c83a 	sub	r2,r3,r2
    29b0:	1007883a 	mov	r3,r2
    29b4:	e0bfcd8b 	ldhu	r2,-202(fp)
    29b8:	1885c83a 	sub	r2,r3,r2
    29bc:	e0bfce0d 	sth	r2,-200(fp)
	status = status && setAreaRange( &(scrBookInst->txtBookArea), 1, width, marginYU+1, height-marginYD );
    29c0:	e0bfcb03 	ldbu	r2,-212(fp)
    29c4:	10001526 	beq	r2,zero,2a1c <screenMainBookInit+0x258>
    29c8:	e0bffd17 	ldw	r2,-12(fp)
    29cc:	11000184 	addi	r4,r2,6
    29d0:	e1bffe0f 	ldh	r6,-8(fp)
    29d4:	e0bfcd8b 	ldhu	r2,-202(fp)
    29d8:	10800044 	addi	r2,r2,1
    29dc:	11ffffcc 	andi	r7,r2,65535
    29e0:	39e0001c 	xori	r7,r7,32768
    29e4:	39e00004 	addi	r7,r7,-32768
    29e8:	e0ffff0b 	ldhu	r3,-4(fp)
    29ec:	e0bfce0b 	ldhu	r2,-200(fp)
    29f0:	1885c83a 	sub	r2,r3,r2
    29f4:	10bfffcc 	andi	r2,r2,65535
    29f8:	10a0001c 	xori	r2,r2,32768
    29fc:	10a00004 	addi	r2,r2,-32768
    2a00:	d8800015 	stw	r2,0(sp)
    2a04:	01400044 	movi	r5,1
    2a08:	00003f40 	call	3f4 <setAreaRange>
    2a0c:	10803fcc 	andi	r2,r2,255
    2a10:	10000226 	beq	r2,zero,2a1c <screenMainBookInit+0x258>
    2a14:	00800044 	movi	r2,1
    2a18:	00000106 	br	2a20 <screenMainBookInit+0x25c>
    2a1c:	0005883a 	mov	r2,zero
    2a20:	e0bfcb05 	stb	r2,-212(fp)
    2a24:	e0bfcb03 	ldbu	r2,-212(fp)
    2a28:	1080004c 	andi	r2,r2,1
    2a2c:	e0bfcb05 	stb	r2,-212(fp)

	//设置电子书阅读进度信息页面范围
	short pageInfoAreaHeight = height/4;
    2a30:	e0bfff0f 	ldh	r2,-4(fp)
    2a34:	1000010e 	bge	r2,zero,2a3c <screenMainBookInit+0x278>
    2a38:	108000c4 	addi	r2,r2,3
    2a3c:	1005d0ba 	srai	r2,r2,2
    2a40:	e0bfce8d 	sth	r2,-198(fp)
	status = status && setAreaRange( &(scrBookInst->pageInfoArea), 1, width, height-pageInfoAreaHeight, height-1 );
    2a44:	e0bfcb03 	ldbu	r2,-212(fp)
    2a48:	10001626 	beq	r2,zero,2aa4 <screenMainBookInit+0x2e0>
    2a4c:	e0bffd17 	ldw	r2,-12(fp)
    2a50:	11001404 	addi	r4,r2,80
    2a54:	e1bffe0f 	ldh	r6,-8(fp)
    2a58:	e0ffff0b 	ldhu	r3,-4(fp)
    2a5c:	e0bfce8b 	ldhu	r2,-198(fp)
    2a60:	1885c83a 	sub	r2,r3,r2
    2a64:	10ffffcc 	andi	r3,r2,65535
    2a68:	18e0001c 	xori	r3,r3,32768
    2a6c:	18e00004 	addi	r3,r3,-32768
    2a70:	e0bfff0b 	ldhu	r2,-4(fp)
    2a74:	10bfffc4 	addi	r2,r2,-1
    2a78:	10bfffcc 	andi	r2,r2,65535
    2a7c:	10a0001c 	xori	r2,r2,32768
    2a80:	10a00004 	addi	r2,r2,-32768
    2a84:	d8800015 	stw	r2,0(sp)
    2a88:	01400044 	movi	r5,1
    2a8c:	180f883a 	mov	r7,r3
    2a90:	00003f40 	call	3f4 <setAreaRange>
    2a94:	10803fcc 	andi	r2,r2,255
    2a98:	10000226 	beq	r2,zero,2aa4 <screenMainBookInit+0x2e0>
    2a9c:	00800044 	movi	r2,1
    2aa0:	00000106 	br	2aa8 <screenMainBookInit+0x2e4>
    2aa4:	0005883a 	mov	r2,zero
    2aa8:	e0bfcb05 	stb	r2,-212(fp)
    2aac:	e0bfcb03 	ldbu	r2,-212(fp)
    2ab0:	1080004c 	andi	r2,r2,1
    2ab4:	e0bfcb05 	stb	r2,-212(fp)

	//设置电子书阅读进度信息页面是否可见
	scrBookInst->pageInfoVisable = false;
    2ab8:	e0bffd17 	ldw	r2,-12(fp)
    2abc:	10004605 	stb	zero,280(r2)

	TextType textArray[BOOK_COL_NUM];

	int i;
	for( i = 0; i < BOOK_COL_NUM; i ++ )
    2ac0:	e03fca15 	stw	zero,-216(fp)
    2ac4:	00001506 	br	2b1c <screenMainBookInit+0x358>
	{
		(textArray[i]).text = txtBookSpace[i];
    2ac8:	e0bfca17 	ldw	r2,-216(fp)
    2acc:	10c008e4 	muli	r3,r2,35
    2ad0:	00800374 	movhi	r2,13
    2ad4:	1080c704 	addi	r2,r2,796
    2ad8:	1887883a 	add	r3,r3,r2
    2adc:	e0bfca17 	ldw	r2,-216(fp)
    2ae0:	100490fa 	slli	r2,r2,3
    2ae4:	e13fca04 	addi	r4,fp,-216
    2ae8:	2085883a 	add	r2,r4,r2
    2aec:	10800504 	addi	r2,r2,20
    2af0:	10c00015 	stw	r3,0(r2)
		(textArray[i]).textLen = BOOK_ROW_BYTES;
    2af4:	e0bfca17 	ldw	r2,-216(fp)
    2af8:	100490fa 	slli	r2,r2,3
    2afc:	e0ffca04 	addi	r3,fp,-216
    2b00:	1885883a 	add	r2,r3,r2
    2b04:	10800604 	addi	r2,r2,24
    2b08:	00c00884 	movi	r3,34
    2b0c:	10c0000d 	sth	r3,0(r2)
	scrBookInst->pageInfoVisable = false;

	TextType textArray[BOOK_COL_NUM];

	int i;
	for( i = 0; i < BOOK_COL_NUM; i ++ )
    2b10:	e0bfca17 	ldw	r2,-216(fp)
    2b14:	10800044 	addi	r2,r2,1
    2b18:	e0bfca15 	stw	r2,-216(fp)
    2b1c:	e0bfca17 	ldw	r2,-216(fp)
    2b20:	10800550 	cmplti	r2,r2,21
    2b24:	103fe81e 	bne	r2,zero,2ac8 <__alt_data_end+0xf8002ac8>
	{
		(textArray[i]).text = txtBookSpace[i];
		(textArray[i]).textLen = BOOK_ROW_BYTES;
	}

	ColorInfo colorSel = { DEFAULT_BORDER_COLOR, color_form[scrBookInst->bkgColorIndex], color_form[scrBookInst->txtColorIndex] };
    2b28:	e03ff90d 	sth	zero,-28(fp)
    2b2c:	e0bffd17 	ldw	r2,-12(fp)
    2b30:	10800103 	ldbu	r2,4(r2)
    2b34:	10c03fcc 	andi	r3,r2,255
    2b38:	00800374 	movhi	r2,13
    2b3c:	10be7a04 	addi	r2,r2,-1560
    2b40:	18c7883a 	add	r3,r3,r3
    2b44:	10c5883a 	add	r2,r2,r3
    2b48:	1080000b 	ldhu	r2,0(r2)
    2b4c:	e0bff98d 	sth	r2,-26(fp)
    2b50:	e0bffd17 	ldw	r2,-12(fp)
    2b54:	10800143 	ldbu	r2,5(r2)
    2b58:	10c03fcc 	andi	r3,r2,255
    2b5c:	00800374 	movhi	r2,13
    2b60:	10be7a04 	addi	r2,r2,-1560
    2b64:	18c7883a 	add	r3,r3,r3
    2b68:	10c5883a 	add	r2,r2,r3
    2b6c:	1080000b 	ldhu	r2,0(r2)
    2b70:	e0bffa0d 	sth	r2,-24(fp)
	//设置电子书文本域（文本域为由TagBlock组成的TagList文本列表）
	TextList textList = { textArray, BOOK_COL_NUM };
    2b74:	e0bfcf04 	addi	r2,fp,-196
    2b78:	e0bffb15 	stw	r2,-20(fp)
    2b7c:	00800544 	movi	r2,21
    2b80:	e0bffc0d 	sth	r2,-16(fp)
	status = status && setDefaultTagList( &(scrBookInst->txtBook), width, BOOK_ROW_HEIGHT, &textList, false, &colorSel );
    2b84:	e0bfcb03 	ldbu	r2,-212(fp)
    2b88:	10000e26 	beq	r2,zero,2bc4 <screenMainBookInit+0x400>
    2b8c:	e0bffd17 	ldw	r2,-12(fp)
    2b90:	11000404 	addi	r4,r2,16
    2b94:	e17ffe0f 	ldh	r5,-8(fp)
    2b98:	e0fffb04 	addi	r3,fp,-20
    2b9c:	d8000015 	stw	zero,0(sp)
    2ba0:	e0bff904 	addi	r2,fp,-28
    2ba4:	d8800115 	stw	r2,4(sp)
    2ba8:	01800484 	movi	r6,18
    2bac:	180f883a 	mov	r7,r3
    2bb0:	00024480 	call	2448 <setDefaultTagList>
    2bb4:	10803fcc 	andi	r2,r2,255
    2bb8:	10000226 	beq	r2,zero,2bc4 <screenMainBookInit+0x400>
    2bbc:	00800044 	movi	r2,1
    2bc0:	00000106 	br	2bc8 <screenMainBookInit+0x404>
    2bc4:	0005883a 	mov	r2,zero
    2bc8:	e0bfcb05 	stb	r2,-212(fp)
    2bcc:	e0bfcb03 	ldbu	r2,-212(fp)
    2bd0:	1080004c 	andi	r2,r2,1
    2bd4:	e0bfcb05 	stb	r2,-212(fp)


	//设置电子书阅读进度信息页面
	status = status && ScreenMainPageInfoInit( &(scrBookInst->pageInfo), width, pageInfoAreaHeight );
    2bd8:	e0bfcb03 	ldbu	r2,-212(fp)
    2bdc:	10000b26 	beq	r2,zero,2c0c <screenMainBookInit+0x448>
    2be0:	e0bffd17 	ldw	r2,-12(fp)
    2be4:	11001604 	addi	r4,r2,88
    2be8:	e0fffe0f 	ldh	r3,-8(fp)
    2bec:	e0bfce8f 	ldh	r2,-198(fp)
    2bf0:	180b883a 	mov	r5,r3
    2bf4:	100d883a 	mov	r6,r2
    2bf8:	0002c380 	call	2c38 <ScreenMainPageInfoInit>
    2bfc:	10803fcc 	andi	r2,r2,255
    2c00:	10000226 	beq	r2,zero,2c0c <screenMainBookInit+0x448>
    2c04:	00800044 	movi	r2,1
    2c08:	00000106 	br	2c10 <screenMainBookInit+0x44c>
    2c0c:	0005883a 	mov	r2,zero
    2c10:	e0bfcb05 	stb	r2,-212(fp)
    2c14:	e0bfcb03 	ldbu	r2,-212(fp)
    2c18:	1080004c 	andi	r2,r2,1
    2c1c:	e0bfcb05 	stb	r2,-212(fp)

	return status;
    2c20:	e0bfcb03 	ldbu	r2,-212(fp)
}
    2c24:	e037883a 	mov	sp,fp
    2c28:	dfc00117 	ldw	ra,4(sp)
    2c2c:	df000017 	ldw	fp,0(sp)
    2c30:	dec00204 	addi	sp,sp,8
    2c34:	f800283a 	ret

00002c38 <ScreenMainPageInfoInit>:

bool ScreenMainPageInfoInit( ScreenPageInfo *scrPageInfoInst, short width, short height )
{
    2c38:	defff504 	addi	sp,sp,-44
    2c3c:	dfc00a15 	stw	ra,40(sp)
    2c40:	df000915 	stw	fp,36(sp)
    2c44:	df000904 	addi	fp,sp,36
    2c48:	e13ffd15 	stw	r4,-12(fp)
    2c4c:	2807883a 	mov	r3,r5
    2c50:	3005883a 	mov	r2,r6
    2c54:	e0fffe0d 	sth	r3,-8(fp)
    2c58:	e0bfff0d 	sth	r2,-4(fp)
	//基本信息
	scrPageInfoInst->bkgColor = DEFAULT_BKG_COLOR;
    2c5c:	e0bffd17 	ldw	r2,-12(fp)
    2c60:	00c48d04 	movi	r3,4660
    2c64:	10c0010d 	sth	r3,4(r2)
	scrPageInfoInst->borderColor = DEFAULT_BORDER_COLOR;
    2c68:	e0bffd17 	ldw	r2,-12(fp)
    2c6c:	1000008d 	sth	zero,2(r2)
	scrPageInfoInst->borderVisible = true;
    2c70:	e0bffd17 	ldw	r2,-12(fp)
    2c74:	00c00044 	movi	r3,1
    2c78:	10c00005 	stb	r3,0(r2)
	scrPageInfoInst->curPageNum = 0;
    2c7c:	e0bffd17 	ldw	r2,-12(fp)
    2c80:	10002d15 	stw	zero,180(r2)
	scrPageInfoInst->curPagePercent = 0;
    2c84:	e0bffd17 	ldw	r2,-12(fp)
    2c88:	10002f15 	stw	zero,188(r2)
	scrPageInfoInst->totalPageNum = 0;
    2c8c:	e0bffd17 	ldw	r2,-12(fp)
    2c90:	10002e15 	stw	zero,184(r2)

	bool status = true;
    2c94:	00800044 	movi	r2,1
    2c98:	e0bff805 	stb	r2,-32(fp)

	//进度条
	short prgBarMarginYU = 4;
    2c9c:	00800104 	movi	r2,4
    2ca0:	e0bff88d 	sth	r2,-30(fp)
	short prgBarHeight = height/2;
    2ca4:	e0bfff0f 	ldh	r2,-4(fp)
    2ca8:	1006d7fa 	srli	r3,r2,31
    2cac:	1885883a 	add	r2,r3,r2
    2cb0:	1005d07a 	srai	r2,r2,1
    2cb4:	e0bff90d 	sth	r2,-28(fp)
	short prgBarMarginX = 2;
    2cb8:	00800084 	movi	r2,2
    2cbc:	e0bff98d 	sth	r2,-26(fp)
	status = status && setAreaRange( &(scrPageInfoInst->prgBarArea), prgBarMarginX+1, width-prgBarMarginX, prgBarMarginYU+1,\
    2cc0:	e0bff803 	ldbu	r2,-32(fp)
    2cc4:	10001e26 	beq	r2,zero,2d40 <ScreenMainPageInfoInit+0x108>
    2cc8:	e0bffd17 	ldw	r2,-12(fp)
    2ccc:	11000184 	addi	r4,r2,6
    2cd0:	e0bff98b 	ldhu	r2,-26(fp)
    2cd4:	10800044 	addi	r2,r2,1
    2cd8:	117fffcc 	andi	r5,r2,65535
    2cdc:	2960001c 	xori	r5,r5,32768
    2ce0:	29600004 	addi	r5,r5,-32768
    2ce4:	e0fffe0b 	ldhu	r3,-8(fp)
    2ce8:	e0bff98b 	ldhu	r2,-26(fp)
    2cec:	1885c83a 	sub	r2,r3,r2
    2cf0:	11bfffcc 	andi	r6,r2,65535
    2cf4:	31a0001c 	xori	r6,r6,32768
    2cf8:	31a00004 	addi	r6,r6,-32768
    2cfc:	e0bff88b 	ldhu	r2,-30(fp)
    2d00:	10800044 	addi	r2,r2,1
    2d04:	11ffffcc 	andi	r7,r2,65535
    2d08:	39e0001c 	xori	r7,r7,32768
    2d0c:	39e00004 	addi	r7,r7,-32768
    2d10:	e0fff88b 	ldhu	r3,-30(fp)
    2d14:	e0bff90b 	ldhu	r2,-28(fp)
    2d18:	1885883a 	add	r2,r3,r2
    2d1c:	10bfffcc 	andi	r2,r2,65535
    2d20:	10a0001c 	xori	r2,r2,32768
    2d24:	10a00004 	addi	r2,r2,-32768
    2d28:	d8800015 	stw	r2,0(sp)
    2d2c:	00003f40 	call	3f4 <setAreaRange>
    2d30:	10803fcc 	andi	r2,r2,255
    2d34:	10000226 	beq	r2,zero,2d40 <ScreenMainPageInfoInit+0x108>
    2d38:	00800044 	movi	r2,1
    2d3c:	00000106 	br	2d44 <ScreenMainPageInfoInit+0x10c>
    2d40:	0005883a 	mov	r2,zero
    2d44:	e0bff805 	stb	r2,-32(fp)
    2d48:	e0bff803 	ldbu	r2,-32(fp)
    2d4c:	1080004c 	andi	r2,r2,1
    2d50:	e0bff805 	stb	r2,-32(fp)
						prgBarMarginYU + prgBarHeight  );
	status = status && setDefaultProgressBar( &(scrPageInfoInst->prgBarX), width - (prgBarMarginX<<1), prgBarHeight );
    2d54:	e0bff803 	ldbu	r2,-32(fp)
    2d58:	10001126 	beq	r2,zero,2da0 <ScreenMainPageInfoInit+0x168>
    2d5c:	e0bffd17 	ldw	r2,-12(fp)
    2d60:	11000404 	addi	r4,r2,16
    2d64:	e0fffe0b 	ldhu	r3,-8(fp)
    2d68:	e0bff98b 	ldhu	r2,-26(fp)
    2d6c:	1085883a 	add	r2,r2,r2
    2d70:	1885c83a 	sub	r2,r3,r2
    2d74:	10ffffcc 	andi	r3,r2,65535
    2d78:	18e0001c 	xori	r3,r3,32768
    2d7c:	18e00004 	addi	r3,r3,-32768
    2d80:	e0bff90f 	ldh	r2,-28(fp)
    2d84:	180b883a 	mov	r5,r3
    2d88:	100d883a 	mov	r6,r2
    2d8c:	0000a700 	call	a70 <setDefaultProgressBar>
    2d90:	10803fcc 	andi	r2,r2,255
    2d94:	10000226 	beq	r2,zero,2da0 <ScreenMainPageInfoInit+0x168>
    2d98:	00800044 	movi	r2,1
    2d9c:	00000106 	br	2da4 <ScreenMainPageInfoInit+0x16c>
    2da0:	0005883a 	mov	r2,zero
    2da4:	e0bff805 	stb	r2,-32(fp)
    2da8:	e0bff803 	ldbu	r2,-32(fp)
    2dac:	1080004c 	andi	r2,r2,1
    2db0:	e0bff805 	stb	r2,-32(fp)

	//动态文本标签(高度设定)
	short tagHeight = ( height - prgBarMarginYU - prgBarHeight );
    2db4:	e0ffff0b 	ldhu	r3,-4(fp)
    2db8:	e0bff88b 	ldhu	r2,-30(fp)
    2dbc:	1885c83a 	sub	r2,r3,r2
    2dc0:	1007883a 	mov	r3,r2
    2dc4:	e0bff90b 	ldhu	r2,-28(fp)
    2dc8:	1885c83a 	sub	r2,r3,r2
    2dcc:	e0bffa0d 	sth	r2,-24(fp)
	short tagMarginYD = 5;
    2dd0:	00800144 	movi	r2,5
    2dd4:	e0bffa8d 	sth	r2,-22(fp)

	//进度百分数标签(向左侧偏移)格式为"53.33%"
	short tagPercentMarginXL = 10;
    2dd8:	00800284 	movi	r2,10
    2ddc:	e0bffb0d 	sth	r2,-20(fp)
	short tagPercWidth = 6 * SRC_LETTER_SIZE_X + 5 * DEFAULT_LETTER_SPACING + 20;//20是横向边界裕量
    2de0:	00801244 	movi	r2,73
    2de4:	e0bffb8d 	sth	r2,-18(fp)
	status = status && setAreaRange( &(scrPageInfoInst->tagPagePercTageArea), tagPercentMarginXL+1, tagPercentMarginXL+tagPercWidth,\
    2de8:	e0bff803 	ldbu	r2,-32(fp)
    2dec:	10002326 	beq	r2,zero,2e7c <ScreenMainPageInfoInit+0x244>
    2df0:	e0bffd17 	ldw	r2,-12(fp)
    2df4:	11001904 	addi	r4,r2,100
    2df8:	e0bffb0b 	ldhu	r2,-20(fp)
    2dfc:	10800044 	addi	r2,r2,1
    2e00:	117fffcc 	andi	r5,r2,65535
    2e04:	2960001c 	xori	r5,r5,32768
    2e08:	29600004 	addi	r5,r5,-32768
    2e0c:	e0fffb0b 	ldhu	r3,-20(fp)
    2e10:	e0bffb8b 	ldhu	r2,-18(fp)
    2e14:	1885883a 	add	r2,r3,r2
    2e18:	11bfffcc 	andi	r6,r2,65535
    2e1c:	31a0001c 	xori	r6,r6,32768
    2e20:	31a00004 	addi	r6,r6,-32768
    2e24:	e0ffff0b 	ldhu	r3,-4(fp)
    2e28:	e0bffa8b 	ldhu	r2,-22(fp)
    2e2c:	1885c83a 	sub	r2,r3,r2
    2e30:	1007883a 	mov	r3,r2
    2e34:	e0bffa0b 	ldhu	r2,-24(fp)
    2e38:	1885c83a 	sub	r2,r3,r2
    2e3c:	10800044 	addi	r2,r2,1
    2e40:	11ffffcc 	andi	r7,r2,65535
    2e44:	39e0001c 	xori	r7,r7,32768
    2e48:	39e00004 	addi	r7,r7,-32768
    2e4c:	e0ffff0b 	ldhu	r3,-4(fp)
    2e50:	e0bffa8b 	ldhu	r2,-22(fp)
    2e54:	1885c83a 	sub	r2,r3,r2
    2e58:	10bfffcc 	andi	r2,r2,65535
    2e5c:	10a0001c 	xori	r2,r2,32768
    2e60:	10a00004 	addi	r2,r2,-32768
    2e64:	d8800015 	stw	r2,0(sp)
    2e68:	00003f40 	call	3f4 <setAreaRange>
    2e6c:	10803fcc 	andi	r2,r2,255
    2e70:	10000226 	beq	r2,zero,2e7c <ScreenMainPageInfoInit+0x244>
    2e74:	00800044 	movi	r2,1
    2e78:	00000106 	br	2e80 <ScreenMainPageInfoInit+0x248>
    2e7c:	0005883a 	mov	r2,zero
    2e80:	e0bff805 	stb	r2,-32(fp)
    2e84:	e0bff803 	ldbu	r2,-32(fp)
    2e88:	1080004c 	andi	r2,r2,1
    2e8c:	e0bff805 	stb	r2,-32(fp)
						height - tagMarginYD - tagHeight + 1 , height - tagMarginYD );
	status = status && setDefaultTagBlock( &(scrPageInfoInst->tagPagePercTage), "33.33%", tagPercWidth, tagHeight );
    2e90:	e0bff803 	ldbu	r2,-32(fp)
    2e94:	10000d26 	beq	r2,zero,2ecc <ScreenMainPageInfoInit+0x294>
    2e98:	e0bffd17 	ldw	r2,-12(fp)
    2e9c:	11001b04 	addi	r4,r2,108
    2ea0:	e0fffb8f 	ldh	r3,-18(fp)
    2ea4:	e0bffa0f 	ldh	r2,-24(fp)
    2ea8:	01400374 	movhi	r5,13
    2eac:	296f5204 	addi	r5,r5,-17080
    2eb0:	180d883a 	mov	r6,r3
    2eb4:	100f883a 	mov	r7,r2
    2eb8:	000096c0 	call	96c <setDefaultTagBlock>
    2ebc:	10803fcc 	andi	r2,r2,255
    2ec0:	10000226 	beq	r2,zero,2ecc <ScreenMainPageInfoInit+0x294>
    2ec4:	00800044 	movi	r2,1
    2ec8:	00000106 	br	2ed0 <ScreenMainPageInfoInit+0x298>
    2ecc:	0005883a 	mov	r2,zero
    2ed0:	e0bff805 	stb	r2,-32(fp)
    2ed4:	e0bff803 	ldbu	r2,-32(fp)
    2ed8:	1080004c 	andi	r2,r2,1
    2edc:	e0bff805 	stb	r2,-32(fp)


	//进度页数标签(向右侧偏移)格式为：" 1234/99999"
	short tagPageNumMarginXR = 10;
    2ee0:	00800284 	movi	r2,10
    2ee4:	e0bffc0d 	sth	r2,-16(fp)
	short tagPsgeNumWidth = 11 * SRC_LETTER_SIZE_X + 10 * DEFAULT_LETTER_SPACING + 20;//20是横向边界裕量
    2ee8:	00801d84 	movi	r2,118
    2eec:	e0bffc8d 	sth	r2,-14(fp)

	status = status && setAreaRange( &(scrPageInfoInst->tagPageNumArea), width-tagPageNumMarginXR-tagPsgeNumWidth+1, width-tagPageNumMarginXR,\
    2ef0:	e0bff803 	ldbu	r2,-32(fp)
    2ef4:	10002826 	beq	r2,zero,2f98 <ScreenMainPageInfoInit+0x360>
    2ef8:	e0bffd17 	ldw	r2,-12(fp)
    2efc:	11002304 	addi	r4,r2,140
    2f00:	e0fffe0b 	ldhu	r3,-8(fp)
    2f04:	e0bffc0b 	ldhu	r2,-16(fp)
    2f08:	1885c83a 	sub	r2,r3,r2
    2f0c:	1007883a 	mov	r3,r2
    2f10:	e0bffc8b 	ldhu	r2,-14(fp)
    2f14:	1885c83a 	sub	r2,r3,r2
    2f18:	10800044 	addi	r2,r2,1
    2f1c:	117fffcc 	andi	r5,r2,65535
    2f20:	2960001c 	xori	r5,r5,32768
    2f24:	29600004 	addi	r5,r5,-32768
    2f28:	e0fffe0b 	ldhu	r3,-8(fp)
    2f2c:	e0bffc0b 	ldhu	r2,-16(fp)
    2f30:	1885c83a 	sub	r2,r3,r2
    2f34:	11bfffcc 	andi	r6,r2,65535
    2f38:	31a0001c 	xori	r6,r6,32768
    2f3c:	31a00004 	addi	r6,r6,-32768
    2f40:	e0ffff0b 	ldhu	r3,-4(fp)
    2f44:	e0bffa8b 	ldhu	r2,-22(fp)
    2f48:	1885c83a 	sub	r2,r3,r2
    2f4c:	1007883a 	mov	r3,r2
    2f50:	e0bffa0b 	ldhu	r2,-24(fp)
    2f54:	1885c83a 	sub	r2,r3,r2
    2f58:	10800044 	addi	r2,r2,1
    2f5c:	11ffffcc 	andi	r7,r2,65535
    2f60:	39e0001c 	xori	r7,r7,32768
    2f64:	39e00004 	addi	r7,r7,-32768
    2f68:	e0ffff0b 	ldhu	r3,-4(fp)
    2f6c:	e0bffa8b 	ldhu	r2,-22(fp)
    2f70:	1885c83a 	sub	r2,r3,r2
    2f74:	10bfffcc 	andi	r2,r2,65535
    2f78:	10a0001c 	xori	r2,r2,32768
    2f7c:	10a00004 	addi	r2,r2,-32768
    2f80:	d8800015 	stw	r2,0(sp)
    2f84:	00003f40 	call	3f4 <setAreaRange>
    2f88:	10803fcc 	andi	r2,r2,255
    2f8c:	10000226 	beq	r2,zero,2f98 <ScreenMainPageInfoInit+0x360>
    2f90:	00800044 	movi	r2,1
    2f94:	00000106 	br	2f9c <ScreenMainPageInfoInit+0x364>
    2f98:	0005883a 	mov	r2,zero
    2f9c:	e0bff805 	stb	r2,-32(fp)
    2fa0:	e0bff803 	ldbu	r2,-32(fp)
    2fa4:	1080004c 	andi	r2,r2,1
    2fa8:	e0bff805 	stb	r2,-32(fp)
						height - tagMarginYD - tagHeight + 1 , height - tagMarginYD );
	status = status && setDefaultTagBlock( &(scrPageInfoInst->tagPageNum), "33.33%", tagPsgeNumWidth, tagHeight );
    2fac:	e0bff803 	ldbu	r2,-32(fp)
    2fb0:	10000d26 	beq	r2,zero,2fe8 <ScreenMainPageInfoInit+0x3b0>
    2fb4:	e0bffd17 	ldw	r2,-12(fp)
    2fb8:	11002504 	addi	r4,r2,148
    2fbc:	e0fffc8f 	ldh	r3,-14(fp)
    2fc0:	e0bffa0f 	ldh	r2,-24(fp)
    2fc4:	01400374 	movhi	r5,13
    2fc8:	296f5204 	addi	r5,r5,-17080
    2fcc:	180d883a 	mov	r6,r3
    2fd0:	100f883a 	mov	r7,r2
    2fd4:	000096c0 	call	96c <setDefaultTagBlock>
    2fd8:	10803fcc 	andi	r2,r2,255
    2fdc:	10000226 	beq	r2,zero,2fe8 <ScreenMainPageInfoInit+0x3b0>
    2fe0:	00800044 	movi	r2,1
    2fe4:	00000106 	br	2fec <ScreenMainPageInfoInit+0x3b4>
    2fe8:	0005883a 	mov	r2,zero
    2fec:	e0bff805 	stb	r2,-32(fp)
    2ff0:	e0bff803 	ldbu	r2,-32(fp)
    2ff4:	1080004c 	andi	r2,r2,1
    2ff8:	e0bff805 	stb	r2,-32(fp)

	return status;
    2ffc:	e0bff803 	ldbu	r2,-32(fp)
}
    3000:	e037883a 	mov	sp,fp
    3004:	dfc00117 	ldw	ra,4(sp)
    3008:	df000017 	ldw	fp,0(sp)
    300c:	dec00204 	addi	sp,sp,8
    3010:	f800283a 	ret

00003014 <screenMainSettingInit>:

bool screenMainSettingInit( ScreenSetting *scrSettingInst, short width, short height )
{
    3014:	deffdf04 	addi	sp,sp,-132
    3018:	dfc02015 	stw	ra,128(sp)
    301c:	df001f15 	stw	fp,124(sp)
    3020:	df001f04 	addi	fp,sp,124
    3024:	e13ffd15 	stw	r4,-12(fp)
    3028:	2807883a 	mov	r3,r5
    302c:	3005883a 	mov	r2,r6
    3030:	e0fffe0d 	sth	r3,-8(fp)
    3034:	e0bfff0d 	sth	r2,-4(fp)
	bool status = true;
    3038:	00800044 	movi	r2,1
    303c:	e0bfe405 	stb	r2,-112(fp)

	scrSettingInst->borderVisible = true;
    3040:	e0bffd17 	ldw	r2,-12(fp)
    3044:	00c00044 	movi	r3,1
    3048:	10c00005 	stb	r3,0(r2)

	scrSettingInst->bkgColor = DEFAULT_BKG_COLOR;
    304c:	e0bffd17 	ldw	r2,-12(fp)
    3050:	00c48d04 	movi	r3,4660
    3054:	10c0010d 	sth	r3,4(r2)
	scrSettingInst->borderColor = DEFAULT_BORDER_COLOR;
    3058:	e0bffd17 	ldw	r2,-12(fp)
    305c:	1000008d 	sth	zero,2(r2)

	//设置左侧所有标签的位置
	short LeftTagMarginXL = 20;//左侧所有标签的左边距
    3060:	00800504 	movi	r2,20
    3064:	e0bfe48d 	sth	r2,-110(fp)
	short LeftTextMarginInTagX = 15;//在标签内部的文本与标签横向边界的距离
    3068:	008003c4 	movi	r2,15
    306c:	e0bfe50d 	sth	r2,-108(fp)
	short LeftTagGroupMarginXL = 10;//标签组的左边距
    3070:	00800284 	movi	r2,10
    3074:	e0bfe58d 	sth	r2,-106(fp)
	//高度设定
	short tag1CenterY = 60;
    3078:	00800f04 	movi	r2,60
    307c:	e0bfe60d 	sth	r2,-104(fp)
	short tag1HalfH = 25;
    3080:	00800644 	movi	r2,25
    3084:	e0bfe68d 	sth	r2,-102(fp)
	short editBkgColorCenterY = tag1CenterY + 70;
    3088:	e0bfe60b 	ldhu	r2,-104(fp)
    308c:	10801184 	addi	r2,r2,70
    3090:	e0bfe70d 	sth	r2,-100(fp)
	short editBkgColorHalfH = 25;
    3094:	00800644 	movi	r2,25
    3098:	e0bfe78d 	sth	r2,-98(fp)
	short editWordColorCenterY = editBkgColorCenterY + 60;
    309c:	e0bfe70b 	ldhu	r2,-100(fp)
    30a0:	10800f04 	addi	r2,r2,60
    30a4:	e0bfe80d 	sth	r2,-96(fp)
	short editWordColorHalfH = 25;
    30a8:	00800644 	movi	r2,25
    30ac:	e0bfe88d 	sth	r2,-94(fp)
	short editTurnPageModCenterY = editWordColorCenterY + 60;
    30b0:	e0bfe80b 	ldhu	r2,-96(fp)
    30b4:	10800f04 	addi	r2,r2,60
    30b8:	e0bfe90d 	sth	r2,-92(fp)
	short editTurnPageModHalfH = 25;
    30bc:	00800644 	movi	r2,25
    30c0:	e0bfe98d 	sth	r2,-90(fp)
	short tag2CenterY = editTurnPageModCenterY + 70;
    30c4:	e0bfe90b 	ldhu	r2,-92(fp)
    30c8:	10801184 	addi	r2,r2,70
    30cc:	e0bfea0d 	sth	r2,-88(fp)
	short tag2HalfH = 25;
    30d0:	00800644 	movi	r2,25
    30d4:	e0bfea8d 	sth	r2,-86(fp)

	if ( tag2CenterY + tag2HalfH > height )
    30d8:	e0ffea0f 	ldh	r3,-88(fp)
    30dc:	e0bfea8f 	ldh	r2,-86(fp)
    30e0:	1885883a 	add	r2,r3,r2
    30e4:	e0ffff0f 	ldh	r3,-4(fp)
    30e8:	1880010e 	bge	r3,r2,30f0 <screenMainSettingInit+0xdc>
	{
		status = false;
    30ec:	e03fe405 	stb	zero,-112(fp)
	}

	//设置静态标签：

	//"休息定时"
	short textWidth1 = getWidthOfText( "休息定时", 8 );//4字汉字文本的像素宽度
    30f0:	01000374 	movhi	r4,13
    30f4:	212f5404 	addi	r4,r4,-17072
    30f8:	01400204 	movi	r5,8
    30fc:	0000ef80 	call	ef8 <getWidthOfText>
    3100:	e0bfeb0d 	sth	r2,-84(fp)
	short staticTag1XLen = (LeftTextMarginInTagX<<1)+textWidth1;
    3104:	e0bfe50b 	ldhu	r2,-108(fp)
    3108:	1085883a 	add	r2,r2,r2
    310c:	1007883a 	mov	r3,r2
    3110:	e0bfeb0b 	ldhu	r2,-84(fp)
    3114:	1885883a 	add	r2,r3,r2
    3118:	e0bfeb8d 	sth	r2,-82(fp)
	short staticTag1XMax = LeftTagMarginXL+staticTag1XLen;
    311c:	e0ffe48b 	ldhu	r3,-110(fp)
    3120:	e0bfeb8b 	ldhu	r2,-82(fp)
    3124:	1885883a 	add	r2,r3,r2
    3128:	e0bfec0d 	sth	r2,-80(fp)

	status = status && setAreaRange( &(scrSettingInst->tag1Area), LeftTagMarginXL+1, staticTag1XMax, tag1CenterY-tag1HalfH+1, tag1CenterY+tag1HalfH );
    312c:	e0bfe403 	ldbu	r2,-112(fp)
    3130:	10001b26 	beq	r2,zero,31a0 <screenMainSettingInit+0x18c>
    3134:	e0bffd17 	ldw	r2,-12(fp)
    3138:	11000184 	addi	r4,r2,6
    313c:	e0bfe48b 	ldhu	r2,-110(fp)
    3140:	10800044 	addi	r2,r2,1
    3144:	117fffcc 	andi	r5,r2,65535
    3148:	2960001c 	xori	r5,r5,32768
    314c:	29600004 	addi	r5,r5,-32768
    3150:	e1bfec0f 	ldh	r6,-80(fp)
    3154:	e0ffe60b 	ldhu	r3,-104(fp)
    3158:	e0bfe68b 	ldhu	r2,-102(fp)
    315c:	1885c83a 	sub	r2,r3,r2
    3160:	10800044 	addi	r2,r2,1
    3164:	11ffffcc 	andi	r7,r2,65535
    3168:	39e0001c 	xori	r7,r7,32768
    316c:	39e00004 	addi	r7,r7,-32768
    3170:	e0ffe60b 	ldhu	r3,-104(fp)
    3174:	e0bfe68b 	ldhu	r2,-102(fp)
    3178:	1885883a 	add	r2,r3,r2
    317c:	10bfffcc 	andi	r2,r2,65535
    3180:	10a0001c 	xori	r2,r2,32768
    3184:	10a00004 	addi	r2,r2,-32768
    3188:	d8800015 	stw	r2,0(sp)
    318c:	00003f40 	call	3f4 <setAreaRange>
    3190:	10803fcc 	andi	r2,r2,255
    3194:	10000226 	beq	r2,zero,31a0 <screenMainSettingInit+0x18c>
    3198:	00800044 	movi	r2,1
    319c:	00000106 	br	31a4 <screenMainSettingInit+0x190>
    31a0:	0005883a 	mov	r2,zero
    31a4:	e0bfe405 	stb	r2,-112(fp)
    31a8:	e0bfe403 	ldbu	r2,-112(fp)
    31ac:	1080004c 	andi	r2,r2,1
    31b0:	e0bfe405 	stb	r2,-112(fp)
	status = status && setDefaultTagBlock( &(scrSettingInst->tag1), "休息定时", staticTag1XLen, tag1HalfH<<1 );
    31b4:	e0bfe403 	ldbu	r2,-112(fp)
    31b8:	10001126 	beq	r2,zero,3200 <screenMainSettingInit+0x1ec>
    31bc:	e0bffd17 	ldw	r2,-12(fp)
    31c0:	11000404 	addi	r4,r2,16
    31c4:	e0ffeb8f 	ldh	r3,-82(fp)
    31c8:	e0bfe68f 	ldh	r2,-102(fp)
    31cc:	1085883a 	add	r2,r2,r2
    31d0:	10bfffcc 	andi	r2,r2,65535
    31d4:	10a0001c 	xori	r2,r2,32768
    31d8:	10a00004 	addi	r2,r2,-32768
    31dc:	01400374 	movhi	r5,13
    31e0:	296f5404 	addi	r5,r5,-17072
    31e4:	180d883a 	mov	r6,r3
    31e8:	100f883a 	mov	r7,r2
    31ec:	000096c0 	call	96c <setDefaultTagBlock>
    31f0:	10803fcc 	andi	r2,r2,255
    31f4:	10000226 	beq	r2,zero,3200 <screenMainSettingInit+0x1ec>
    31f8:	00800044 	movi	r2,1
    31fc:	00000106 	br	3204 <screenMainSettingInit+0x1f0>
    3200:	0005883a 	mov	r2,zero
    3204:	e0bfe405 	stb	r2,-112(fp)
    3208:	e0bfe403 	ldbu	r2,-112(fp)
    320c:	1080004c 	andi	r2,r2,1
    3210:	e0bfe405 	stb	r2,-112(fp)


	//"自动翻页定时"
	short textWidth2 = getWidthOfText( "自动翻页定时", 12 );//6字汉字文本的像素宽度
    3214:	01000374 	movhi	r4,13
    3218:	212f5704 	addi	r4,r4,-17060
    321c:	01400304 	movi	r5,12
    3220:	0000ef80 	call	ef8 <getWidthOfText>
    3224:	e0bfec8d 	sth	r2,-78(fp)
	short staticTag2XLen = (LeftTextMarginInTagX<<1)+textWidth2;
    3228:	e0bfe50b 	ldhu	r2,-108(fp)
    322c:	1085883a 	add	r2,r2,r2
    3230:	1007883a 	mov	r3,r2
    3234:	e0bfec8b 	ldhu	r2,-78(fp)
    3238:	1885883a 	add	r2,r3,r2
    323c:	e0bfed0d 	sth	r2,-76(fp)
	short staticTag2XMax = LeftTagMarginXL+staticTag2XLen;
    3240:	e0ffe48b 	ldhu	r3,-110(fp)
    3244:	e0bfed0b 	ldhu	r2,-76(fp)
    3248:	1885883a 	add	r2,r3,r2
    324c:	e0bfed8d 	sth	r2,-74(fp)

	status = status && setAreaRange( &(scrSettingInst->tag1Area), LeftTagMarginXL+1, LeftTagMarginXL+staticTag2XLen, tag2CenterY-tag2HalfH+1, tag2CenterY+tag2HalfH );
    3250:	e0bfe403 	ldbu	r2,-112(fp)
    3254:	10002026 	beq	r2,zero,32d8 <screenMainSettingInit+0x2c4>
    3258:	e0bffd17 	ldw	r2,-12(fp)
    325c:	11000184 	addi	r4,r2,6
    3260:	e0bfe48b 	ldhu	r2,-110(fp)
    3264:	10800044 	addi	r2,r2,1
    3268:	117fffcc 	andi	r5,r2,65535
    326c:	2960001c 	xori	r5,r5,32768
    3270:	29600004 	addi	r5,r5,-32768
    3274:	e0ffe48b 	ldhu	r3,-110(fp)
    3278:	e0bfed0b 	ldhu	r2,-76(fp)
    327c:	1885883a 	add	r2,r3,r2
    3280:	11bfffcc 	andi	r6,r2,65535
    3284:	31a0001c 	xori	r6,r6,32768
    3288:	31a00004 	addi	r6,r6,-32768
    328c:	e0ffea0b 	ldhu	r3,-88(fp)
    3290:	e0bfea8b 	ldhu	r2,-86(fp)
    3294:	1885c83a 	sub	r2,r3,r2
    3298:	10800044 	addi	r2,r2,1
    329c:	11ffffcc 	andi	r7,r2,65535
    32a0:	39e0001c 	xori	r7,r7,32768
    32a4:	39e00004 	addi	r7,r7,-32768
    32a8:	e0ffea0b 	ldhu	r3,-88(fp)
    32ac:	e0bfea8b 	ldhu	r2,-86(fp)
    32b0:	1885883a 	add	r2,r3,r2
    32b4:	10bfffcc 	andi	r2,r2,65535
    32b8:	10a0001c 	xori	r2,r2,32768
    32bc:	10a00004 	addi	r2,r2,-32768
    32c0:	d8800015 	stw	r2,0(sp)
    32c4:	00003f40 	call	3f4 <setAreaRange>
    32c8:	10803fcc 	andi	r2,r2,255
    32cc:	10000226 	beq	r2,zero,32d8 <screenMainSettingInit+0x2c4>
    32d0:	00800044 	movi	r2,1
    32d4:	00000106 	br	32dc <screenMainSettingInit+0x2c8>
    32d8:	0005883a 	mov	r2,zero
    32dc:	e0bfe405 	stb	r2,-112(fp)
    32e0:	e0bfe403 	ldbu	r2,-112(fp)
    32e4:	1080004c 	andi	r2,r2,1
    32e8:	e0bfe405 	stb	r2,-112(fp)
	status = status && setDefaultTagBlock( &(scrSettingInst->tag1), "自动翻页定时", (LeftTextMarginInTagX<<1)+textWidth2, tag2HalfH<<1 );
    32ec:	e0bfe403 	ldbu	r2,-112(fp)
    32f0:	10001826 	beq	r2,zero,3354 <screenMainSettingInit+0x340>
    32f4:	e0bffd17 	ldw	r2,-12(fp)
    32f8:	11000404 	addi	r4,r2,16
    32fc:	e0bfe50b 	ldhu	r2,-108(fp)
    3300:	1085883a 	add	r2,r2,r2
    3304:	1007883a 	mov	r3,r2
    3308:	e0bfec8b 	ldhu	r2,-78(fp)
    330c:	1885883a 	add	r2,r3,r2
    3310:	10ffffcc 	andi	r3,r2,65535
    3314:	18e0001c 	xori	r3,r3,32768
    3318:	18e00004 	addi	r3,r3,-32768
    331c:	e0bfea8f 	ldh	r2,-86(fp)
    3320:	1085883a 	add	r2,r2,r2
    3324:	10bfffcc 	andi	r2,r2,65535
    3328:	10a0001c 	xori	r2,r2,32768
    332c:	10a00004 	addi	r2,r2,-32768
    3330:	01400374 	movhi	r5,13
    3334:	296f5704 	addi	r5,r5,-17060
    3338:	180d883a 	mov	r6,r3
    333c:	100f883a 	mov	r7,r2
    3340:	000096c0 	call	96c <setDefaultTagBlock>
    3344:	10803fcc 	andi	r2,r2,255
    3348:	10000226 	beq	r2,zero,3354 <screenMainSettingInit+0x340>
    334c:	00800044 	movi	r2,1
    3350:	00000106 	br	3358 <screenMainSettingInit+0x344>
    3354:	0005883a 	mov	r2,zero
    3358:	e0bfe405 	stb	r2,-112(fp)
    335c:	e0bfe403 	ldbu	r2,-112(fp)
    3360:	1080004c 	andi	r2,r2,1
    3364:	e0bfe405 	stb	r2,-112(fp)
	AreaFmt tempAreaFmt2;

	//"背景颜色","字体颜色","自动翻页"
	//设置tagGroup位置(水平用边距，垂直用中心距)

	short tagGroupWidth = width*2/3;
    3368:	e0bffe0f 	ldh	r2,-8(fp)
    336c:	1085883a 	add	r2,r2,r2
    3370:	1009883a 	mov	r4,r2
    3374:	014000c4 	movi	r5,3
    3378:	0003cc00 	call	3cc0 <__divsi3>
    337c:	e0bfee0d 	sth	r2,-72(fp)
	short tagGroupHalfH = editBkgColorHalfH + 5;
    3380:	e0bfe78b 	ldhu	r2,-98(fp)
    3384:	10800144 	addi	r2,r2,5
    3388:	e0bfee8d 	sth	r2,-70(fp)
	short tagGroupXSpacing = 50;//标签组中两个标签的水平间距
    338c:	00800c84 	movi	r2,50
    3390:	e0bfef0d 	sth	r2,-68(fp)

	status = status && setAreaFmt( &tempAreaFmt1, AREA_FMT_MARGIN, AREA_FMT_CENTER, \
    3394:	e0bfe403 	ldbu	r2,-112(fp)
    3398:	10001826 	beq	r2,zero,33fc <screenMainSettingInit+0x3e8>
    339c:	e1ffe58f 	ldh	r7,-106(fp)
    33a0:	e0fffe0b 	ldhu	r3,-8(fp)
    33a4:	e0bfee0b 	ldhu	r2,-72(fp)
    33a8:	1885c83a 	sub	r2,r3,r2
    33ac:	1007883a 	mov	r3,r2
    33b0:	e0bfe58b 	ldhu	r2,-106(fp)
    33b4:	1885c83a 	sub	r2,r3,r2
    33b8:	113fffcc 	andi	r4,r2,65535
    33bc:	2120001c 	xori	r4,r4,32768
    33c0:	21200004 	addi	r4,r4,-32768
    33c4:	e0ffe70f 	ldh	r3,-100(fp)
    33c8:	e0bfee8f 	ldh	r2,-70(fp)
    33cc:	e17ff504 	addi	r5,fp,-44
    33d0:	d9000015 	stw	r4,0(sp)
    33d4:	d8c00115 	stw	r3,4(sp)
    33d8:	d8800215 	stw	r2,8(sp)
    33dc:	2809883a 	mov	r4,r5
    33e0:	01400044 	movi	r5,1
    33e4:	000d883a 	mov	r6,zero
    33e8:	00006dc0 	call	6dc <setAreaFmt>
    33ec:	10803fcc 	andi	r2,r2,255
    33f0:	10000226 	beq	r2,zero,33fc <screenMainSettingInit+0x3e8>
    33f4:	00800044 	movi	r2,1
    33f8:	00000106 	br	3400 <screenMainSettingInit+0x3ec>
    33fc:	0005883a 	mov	r2,zero
    3400:	e0bfe405 	stb	r2,-112(fp)
    3404:	e0bfe403 	ldbu	r2,-112(fp)
    3408:	1080004c 	andi	r2,r2,1
    340c:	e0bfe405 	stb	r2,-112(fp)
			    LeftTagGroupMarginXL, width - tagGroupWidth - LeftTagGroupMarginXL, editBkgColorCenterY, tagGroupHalfH );

	setAreaRangeByAreaFmt( &(scrSettingInst->editBkgColorArea), &tempAreaFmt1, width, height );
    3410:	e0bffd17 	ldw	r2,-12(fp)
    3414:	11006404 	addi	r4,r2,400
    3418:	e0fffe0f 	ldh	r3,-8(fp)
    341c:	e0bfff0f 	ldh	r2,-4(fp)
    3420:	e17ff504 	addi	r5,fp,-44
    3424:	180d883a 	mov	r6,r3
    3428:	100f883a 	mov	r7,r2
    342c:	00004840 	call	484 <setAreaRangeByAreaFmt>
	tempAreaFmt1.fmtValY.fmtCenterVal.center = editWordColorCenterY;
    3430:	e0bfe80b 	ldhu	r2,-96(fp)
    3434:	e0bff80d 	sth	r2,-32(fp)
	setAreaRangeByAreaFmt( &(scrSettingInst->editWordColorArea), &tempAreaFmt1, width, height );
    3438:	e0bffd17 	ldw	r2,-12(fp)
    343c:	11007c04 	addi	r4,r2,496
    3440:	e0fffe0f 	ldh	r3,-8(fp)
    3444:	e0bfff0f 	ldh	r2,-4(fp)
    3448:	e17ff504 	addi	r5,fp,-44
    344c:	180d883a 	mov	r6,r3
    3450:	100f883a 	mov	r7,r2
    3454:	00004840 	call	484 <setAreaRangeByAreaFmt>
	tempAreaFmt1.fmtValY.fmtCenterVal.center = editTurnPageModCenterY;
    3458:	e0bfe90b 	ldhu	r2,-92(fp)
    345c:	e0bff80d 	sth	r2,-32(fp)
	setAreaRangeByAreaFmt( &(scrSettingInst->editTurnPageModArea), &tempAreaFmt1, width, height );
    3460:	e0bffd17 	ldw	r2,-12(fp)
    3464:	11009404 	addi	r4,r2,592
    3468:	e0fffe0f 	ldh	r3,-8(fp)
    346c:	e0bfff0f 	ldh	r2,-4(fp)
    3470:	e17ff504 	addi	r5,fp,-44
    3474:	180d883a 	mov	r6,r3
    3478:	100f883a 	mov	r7,r2
    347c:	00004840 	call	484 <setAreaRangeByAreaFmt>

	//设置tagGroup内容
	//左边的静态标签范围
	short leftTagMarginInGroupXL = LeftTagMarginXL - LeftTagGroupMarginXL;
    3480:	e0ffe48b 	ldhu	r3,-110(fp)
    3484:	e0bfe58b 	ldhu	r2,-106(fp)
    3488:	1885c83a 	sub	r2,r3,r2
    348c:	e0bfef8d 	sth	r2,-66(fp)
	status = status && setAreaFmt( &tempAreaFmt1, AREA_FMT_MARGIN, AREA_FMT_CENTER, \
    3490:	e0bfe403 	ldbu	r2,-112(fp)
    3494:	10001826 	beq	r2,zero,34f8 <screenMainSettingInit+0x4e4>
    3498:	e1ffef8f 	ldh	r7,-66(fp)
    349c:	e0ffee0b 	ldhu	r3,-72(fp)
    34a0:	e0bfef8b 	ldhu	r2,-66(fp)
    34a4:	1885c83a 	sub	r2,r3,r2
    34a8:	1007883a 	mov	r3,r2
    34ac:	e0bfeb8b 	ldhu	r2,-82(fp)
    34b0:	1885c83a 	sub	r2,r3,r2
    34b4:	113fffcc 	andi	r4,r2,65535
    34b8:	2120001c 	xori	r4,r4,32768
    34bc:	21200004 	addi	r4,r4,-32768
    34c0:	e0ffe70f 	ldh	r3,-100(fp)
    34c4:	e0bfe78f 	ldh	r2,-98(fp)
    34c8:	e17ff504 	addi	r5,fp,-44
    34cc:	d9000015 	stw	r4,0(sp)
    34d0:	d8c00115 	stw	r3,4(sp)
    34d4:	d8800215 	stw	r2,8(sp)
    34d8:	2809883a 	mov	r4,r5
    34dc:	01400044 	movi	r5,1
    34e0:	000d883a 	mov	r6,zero
    34e4:	00006dc0 	call	6dc <setAreaFmt>
    34e8:	10803fcc 	andi	r2,r2,255
    34ec:	10000226 	beq	r2,zero,34f8 <screenMainSettingInit+0x4e4>
    34f0:	00800044 	movi	r2,1
    34f4:	00000106 	br	34fc <screenMainSettingInit+0x4e8>
    34f8:	0005883a 	mov	r2,zero
    34fc:	e0bfe405 	stb	r2,-112(fp)
    3500:	e0bfe403 	ldbu	r2,-112(fp)
    3504:	1080004c 	andi	r2,r2,1
    3508:	e0bfe405 	stb	r2,-112(fp)
				leftTagMarginInGroupXL, tagGroupWidth - leftTagMarginInGroupXL - staticTag1XLen, editBkgColorCenterY, editBkgColorHalfH );
	//右边的动态标签范围
	short rightTagMarginInGroupXL = leftTagMarginInGroupXL + staticTag1XLen + tagGroupXSpacing;
    350c:	e0ffef8b 	ldhu	r3,-66(fp)
    3510:	e0bfeb8b 	ldhu	r2,-82(fp)
    3514:	1885883a 	add	r2,r3,r2
    3518:	1007883a 	mov	r3,r2
    351c:	e0bfef0b 	ldhu	r2,-68(fp)
    3520:	1885883a 	add	r2,r3,r2
    3524:	e0bff00d 	sth	r2,-64(fp)
	short rightTagWidth = 50;//要保证取值大于文本"off"的宽度，即3*SRC_LETTER_SIZE_X+2*DEFAULT_LETTER_SPACING
    3528:	00800c84 	movi	r2,50
    352c:	e0bff08d 	sth	r2,-62(fp)
	status = status && setAreaFmt( &tempAreaFmt2, AREA_FMT_MARGIN, AREA_FMT_CENTER, \
    3530:	e0bfe403 	ldbu	r2,-112(fp)
    3534:	10001826 	beq	r2,zero,3598 <screenMainSettingInit+0x584>
    3538:	e1fff00f 	ldh	r7,-64(fp)
    353c:	e0ffee0b 	ldhu	r3,-72(fp)
    3540:	e0bfef8b 	ldhu	r2,-66(fp)
    3544:	1885c83a 	sub	r2,r3,r2
    3548:	1007883a 	mov	r3,r2
    354c:	e0bff08b 	ldhu	r2,-62(fp)
    3550:	1885c83a 	sub	r2,r3,r2
    3554:	113fffcc 	andi	r4,r2,65535
    3558:	2120001c 	xori	r4,r4,32768
    355c:	21200004 	addi	r4,r4,-32768
    3560:	e0ffe70f 	ldh	r3,-100(fp)
    3564:	e0bfe78f 	ldh	r2,-98(fp)
    3568:	e17ff904 	addi	r5,fp,-28
    356c:	d9000015 	stw	r4,0(sp)
    3570:	d8c00115 	stw	r3,4(sp)
    3574:	d8800215 	stw	r2,8(sp)
    3578:	2809883a 	mov	r4,r5
    357c:	01400044 	movi	r5,1
    3580:	000d883a 	mov	r6,zero
    3584:	00006dc0 	call	6dc <setAreaFmt>
    3588:	10803fcc 	andi	r2,r2,255
    358c:	10000226 	beq	r2,zero,3598 <screenMainSettingInit+0x584>
    3590:	00800044 	movi	r2,1
    3594:	00000106 	br	359c <screenMainSettingInit+0x588>
    3598:	0005883a 	mov	r2,zero
    359c:	e0bfe405 	stb	r2,-112(fp)
    35a0:	e0bfe403 	ldbu	r2,-112(fp)
    35a4:	1080004c 	andi	r2,r2,1
    35a8:	e0bfe405 	stb	r2,-112(fp)
				rightTagMarginInGroupXL, tagGroupWidth - leftTagMarginInGroupXL - rightTagWidth, editBkgColorCenterY, editBkgColorHalfH );

	//设置标签组
	status = status && setDefaultTagBlockGroup( &(scrSettingInst->editBkgColor), &tempAreaFmt1, &tempAreaFmt2, \
    35ac:	e0bfe403 	ldbu	r2,-112(fp)
    35b0:	10001526 	beq	r2,zero,3608 <screenMainSettingInit+0x5f4>
    35b4:	e0bffd17 	ldw	r2,-12(fp)
    35b8:	11006604 	addi	r4,r2,408
    35bc:	e0ffee0f 	ldh	r3,-72(fp)
				tagGroupWidth, tagGroupHalfH<<1,"背景颜色", (void*)0 );
    35c0:	e0bfee8f 	ldh	r2,-70(fp)
    35c4:	1085883a 	add	r2,r2,r2
	short rightTagWidth = 50;//要保证取值大于文本"off"的宽度，即3*SRC_LETTER_SIZE_X+2*DEFAULT_LETTER_SPACING
	status = status && setAreaFmt( &tempAreaFmt2, AREA_FMT_MARGIN, AREA_FMT_CENTER, \
				rightTagMarginInGroupXL, tagGroupWidth - leftTagMarginInGroupXL - rightTagWidth, editBkgColorCenterY, editBkgColorHalfH );

	//设置标签组
	status = status && setDefaultTagBlockGroup( &(scrSettingInst->editBkgColor), &tempAreaFmt1, &tempAreaFmt2, \
    35c8:	10bfffcc 	andi	r2,r2,65535
    35cc:	10a0001c 	xori	r2,r2,32768
    35d0:	10a00004 	addi	r2,r2,-32768
    35d4:	e17ff504 	addi	r5,fp,-44
    35d8:	e1bff904 	addi	r6,fp,-28
    35dc:	d8800015 	stw	r2,0(sp)
    35e0:	00800374 	movhi	r2,13
    35e4:	10af5b04 	addi	r2,r2,-17044
    35e8:	d8800115 	stw	r2,4(sp)
    35ec:	d8000215 	stw	zero,8(sp)
    35f0:	180f883a 	mov	r7,r3
    35f4:	00011000 	call	1100 <setDefaultTagBlockGroup>
    35f8:	10803fcc 	andi	r2,r2,255
    35fc:	10000226 	beq	r2,zero,3608 <screenMainSettingInit+0x5f4>
    3600:	00800044 	movi	r2,1
    3604:	00000106 	br	360c <screenMainSettingInit+0x5f8>
    3608:	0005883a 	mov	r2,zero
    360c:	e0bfe405 	stb	r2,-112(fp)
    3610:	e0bfe403 	ldbu	r2,-112(fp)
    3614:	1080004c 	andi	r2,r2,1
    3618:	e0bfe405 	stb	r2,-112(fp)
				tagGroupWidth, tagGroupHalfH<<1,"背景颜色", (void*)0 );

	tempAreaFmt1.fmtValY.fmtCenterVal.half = editWordColorHalfH;
    361c:	e0bfe88b 	ldhu	r2,-94(fp)
    3620:	e0bff88d 	sth	r2,-30(fp)
	tempAreaFmt2.fmtValY.fmtCenterVal.half = editWordColorHalfH;
    3624:	e0bfe88b 	ldhu	r2,-94(fp)
    3628:	e0bffc8d 	sth	r2,-14(fp)
	status = status && setDefaultTagBlockGroup( &(scrSettingInst->editWordColor), &tempAreaFmt1, &tempAreaFmt2, \
    362c:	e0bfe403 	ldbu	r2,-112(fp)
    3630:	10001526 	beq	r2,zero,3688 <screenMainSettingInit+0x674>
    3634:	e0bffd17 	ldw	r2,-12(fp)
    3638:	11007e04 	addi	r4,r2,504
    363c:	e0ffee0f 	ldh	r3,-72(fp)
				tagGroupWidth, tagGroupHalfH<<1,"字体颜色", (void*)0 );
    3640:	e0bfee8f 	ldh	r2,-70(fp)
    3644:	1085883a 	add	r2,r2,r2
	status = status && setDefaultTagBlockGroup( &(scrSettingInst->editBkgColor), &tempAreaFmt1, &tempAreaFmt2, \
				tagGroupWidth, tagGroupHalfH<<1,"背景颜色", (void*)0 );

	tempAreaFmt1.fmtValY.fmtCenterVal.half = editWordColorHalfH;
	tempAreaFmt2.fmtValY.fmtCenterVal.half = editWordColorHalfH;
	status = status && setDefaultTagBlockGroup( &(scrSettingInst->editWordColor), &tempAreaFmt1, &tempAreaFmt2, \
    3648:	10bfffcc 	andi	r2,r2,65535
    364c:	10a0001c 	xori	r2,r2,32768
    3650:	10a00004 	addi	r2,r2,-32768
    3654:	e17ff504 	addi	r5,fp,-44
    3658:	e1bff904 	addi	r6,fp,-28
    365c:	d8800015 	stw	r2,0(sp)
    3660:	00800374 	movhi	r2,13
    3664:	10af5e04 	addi	r2,r2,-17032
    3668:	d8800115 	stw	r2,4(sp)
    366c:	d8000215 	stw	zero,8(sp)
    3670:	180f883a 	mov	r7,r3
    3674:	00011000 	call	1100 <setDefaultTagBlockGroup>
    3678:	10803fcc 	andi	r2,r2,255
    367c:	10000226 	beq	r2,zero,3688 <screenMainSettingInit+0x674>
    3680:	00800044 	movi	r2,1
    3684:	00000106 	br	368c <screenMainSettingInit+0x678>
    3688:	0005883a 	mov	r2,zero
    368c:	e0bfe405 	stb	r2,-112(fp)
    3690:	e0bfe403 	ldbu	r2,-112(fp)
    3694:	1080004c 	andi	r2,r2,1
    3698:	e0bfe405 	stb	r2,-112(fp)
				tagGroupWidth, tagGroupHalfH<<1,"字体颜色", (void*)0 );

	tempAreaFmt1.fmtValY.fmtCenterVal.half = editTurnPageModHalfH;
    369c:	e0bfe98b 	ldhu	r2,-90(fp)
    36a0:	e0bff88d 	sth	r2,-30(fp)
	tempAreaFmt2.fmtValY.fmtCenterVal.half = editTurnPageModHalfH;
    36a4:	e0bfe98b 	ldhu	r2,-90(fp)
    36a8:	e0bffc8d 	sth	r2,-14(fp)
	status = status && setDefaultTagBlockGroup( &(scrSettingInst->editTurnPageMod), &tempAreaFmt1, &tempAreaFmt2, \
    36ac:	e0bfe403 	ldbu	r2,-112(fp)
    36b0:	10001726 	beq	r2,zero,3710 <screenMainSettingInit+0x6fc>
    36b4:	e0bffd17 	ldw	r2,-12(fp)
    36b8:	11009604 	addi	r4,r2,600
    36bc:	e0ffee0f 	ldh	r3,-72(fp)
				tagGroupWidth, tagGroupHalfH<<1,"自动翻页", "off" );
    36c0:	e0bfee8f 	ldh	r2,-70(fp)
    36c4:	1085883a 	add	r2,r2,r2
	status = status && setDefaultTagBlockGroup( &(scrSettingInst->editWordColor), &tempAreaFmt1, &tempAreaFmt2, \
				tagGroupWidth, tagGroupHalfH<<1,"字体颜色", (void*)0 );

	tempAreaFmt1.fmtValY.fmtCenterVal.half = editTurnPageModHalfH;
	tempAreaFmt2.fmtValY.fmtCenterVal.half = editTurnPageModHalfH;
	status = status && setDefaultTagBlockGroup( &(scrSettingInst->editTurnPageMod), &tempAreaFmt1, &tempAreaFmt2, \
    36c8:	10bfffcc 	andi	r2,r2,65535
    36cc:	10a0001c 	xori	r2,r2,32768
    36d0:	10a00004 	addi	r2,r2,-32768
    36d4:	e17ff504 	addi	r5,fp,-44
    36d8:	e1bff904 	addi	r6,fp,-28
    36dc:	d8800015 	stw	r2,0(sp)
    36e0:	00800374 	movhi	r2,13
    36e4:	10af6104 	addi	r2,r2,-17020
    36e8:	d8800115 	stw	r2,4(sp)
    36ec:	00800374 	movhi	r2,13
    36f0:	10af6404 	addi	r2,r2,-17008
    36f4:	d8800215 	stw	r2,8(sp)
    36f8:	180f883a 	mov	r7,r3
    36fc:	00011000 	call	1100 <setDefaultTagBlockGroup>
    3700:	10803fcc 	andi	r2,r2,255
    3704:	10000226 	beq	r2,zero,3710 <screenMainSettingInit+0x6fc>
    3708:	00800044 	movi	r2,1
    370c:	00000106 	br	3714 <screenMainSettingInit+0x700>
    3710:	0005883a 	mov	r2,zero
    3714:	e0bfe405 	stb	r2,-112(fp)
    3718:	e0bfe403 	ldbu	r2,-112(fp)
    371c:	1080004c 	andi	r2,r2,1
    3720:	e0bfe405 	stb	r2,-112(fp)
				tagGroupWidth, tagGroupHalfH<<1,"自动翻页", "off" );


	//设置可编辑数字域
	short numEditGrpWidth = 100;
    3724:	00801904 	movi	r2,100
    3728:	e0bff10d 	sth	r2,-60(fp)
	short numEditGrpHeight = 110;
    372c:	00801b84 	movi	r2,110
    3730:	e0bff18d 	sth	r2,-58(fp)

	short tag1NumHourSpacingX = 20;
    3734:	00800504 	movi	r2,20
    3738:	e0bff20d 	sth	r2,-56(fp)
	short numHourNumMinuteSpacingX = 10;
    373c:	00800284 	movi	r2,10
    3740:	e0bff28d 	sth	r2,-54(fp)

	short tag2NumSecondSpacingX = 20;
    3744:	00800504 	movi	r2,20
    3748:	e0bff30d 	sth	r2,-52(fp)


	//闹钟的"时"(默认为1时)
	short alarmHourMarginXL = staticTag1XMax+tag1NumHourSpacingX;
    374c:	e0ffec0b 	ldhu	r3,-80(fp)
    3750:	e0bff20b 	ldhu	r2,-56(fp)
    3754:	1885883a 	add	r2,r3,r2
    3758:	e0bff38d 	sth	r2,-50(fp)
	status = status && setAreaRange( &(scrSettingInst->editAlarmHourArea), alarmHourMarginXL + 1, alarmHourMarginXL + numEditGrpWidth, \
    375c:	e0bfe403 	ldbu	r2,-112(fp)
    3760:	10002426 	beq	r2,zero,37f4 <screenMainSettingInit+0x7e0>
    3764:	e0bffd17 	ldw	r2,-12(fp)
    3768:	11000c04 	addi	r4,r2,48
    376c:	e0bff38b 	ldhu	r2,-50(fp)
    3770:	10800044 	addi	r2,r2,1
    3774:	117fffcc 	andi	r5,r2,65535
    3778:	2960001c 	xori	r5,r5,32768
    377c:	29600004 	addi	r5,r5,-32768
    3780:	e0fff38b 	ldhu	r3,-50(fp)
    3784:	e0bff10b 	ldhu	r2,-60(fp)
    3788:	1885883a 	add	r2,r3,r2
    378c:	11bfffcc 	andi	r6,r2,65535
    3790:	31a0001c 	xori	r6,r6,32768
    3794:	31a00004 	addi	r6,r6,-32768
    3798:	e0bfe60b 	ldhu	r2,-104(fp)
    379c:	e0fff18f 	ldh	r3,-58(fp)
    37a0:	1807d07a 	srai	r3,r3,1
    37a4:	10c5c83a 	sub	r2,r2,r3
    37a8:	10800044 	addi	r2,r2,1
    37ac:	10ffffcc 	andi	r3,r2,65535
    37b0:	18e0001c 	xori	r3,r3,32768
    37b4:	18e00004 	addi	r3,r3,-32768
    37b8:	e0bff18f 	ldh	r2,-58(fp)
    37bc:	1005d07a 	srai	r2,r2,1
    37c0:	100f883a 	mov	r7,r2
    37c4:	e0bfe60b 	ldhu	r2,-104(fp)
    37c8:	3885883a 	add	r2,r7,r2
    37cc:	10bfffcc 	andi	r2,r2,65535
    37d0:	10a0001c 	xori	r2,r2,32768
    37d4:	10a00004 	addi	r2,r2,-32768
    37d8:	d8800015 	stw	r2,0(sp)
    37dc:	180f883a 	mov	r7,r3
    37e0:	00003f40 	call	3f4 <setAreaRange>
    37e4:	10803fcc 	andi	r2,r2,255
    37e8:	10000226 	beq	r2,zero,37f4 <screenMainSettingInit+0x7e0>
    37ec:	00800044 	movi	r2,1
    37f0:	00000106 	br	37f8 <screenMainSettingInit+0x7e4>
    37f4:	0005883a 	mov	r2,zero
    37f8:	e0bfe405 	stb	r2,-112(fp)
    37fc:	e0bfe403 	ldbu	r2,-112(fp)
    3800:	1080004c 	andi	r2,r2,1
    3804:	e0bfe405 	stb	r2,-112(fp)
				tag1CenterY - (numEditGrpHeight>>1)+1, tag1CenterY + (numEditGrpHeight>>1) );
	status = status && setDefaultNumEditGroup( &(scrSettingInst->editAlarmHour), numEditGrpWidth, numEditGrpHeight, 23, 0, 1, "时" );
    3808:	e0bfe403 	ldbu	r2,-112(fp)
    380c:	10001126 	beq	r2,zero,3854 <screenMainSettingInit+0x840>
    3810:	e0bffd17 	ldw	r2,-12(fp)
    3814:	11000e04 	addi	r4,r2,56
    3818:	e17ff10f 	ldh	r5,-60(fp)
    381c:	e0fff18f 	ldh	r3,-58(fp)
    3820:	d8000015 	stw	zero,0(sp)
    3824:	00800044 	movi	r2,1
    3828:	d8800115 	stw	r2,4(sp)
    382c:	00800374 	movhi	r2,13
    3830:	10af6504 	addi	r2,r2,-17004
    3834:	d8800215 	stw	r2,8(sp)
    3838:	180d883a 	mov	r6,r3
    383c:	01c005c4 	movi	r7,23
    3840:	00012f40 	call	12f4 <setDefaultNumEditGroup>
    3844:	10803fcc 	andi	r2,r2,255
    3848:	10000226 	beq	r2,zero,3854 <screenMainSettingInit+0x840>
    384c:	00800044 	movi	r2,1
    3850:	00000106 	br	3858 <screenMainSettingInit+0x844>
    3854:	0005883a 	mov	r2,zero
    3858:	e0bfe405 	stb	r2,-112(fp)
    385c:	e0bfe403 	ldbu	r2,-112(fp)
    3860:	1080004c 	andi	r2,r2,1
    3864:	e0bfe405 	stb	r2,-112(fp)

	//闹钟的"分"(默认为0分)
	short alarmMinuteMarginXL = staticTag1XMax + tag1NumHourSpacingX + numEditGrpWidth + numHourNumMinuteSpacingX;
    3868:	e0ffec0b 	ldhu	r3,-80(fp)
    386c:	e0bff20b 	ldhu	r2,-56(fp)
    3870:	1885883a 	add	r2,r3,r2
    3874:	1007883a 	mov	r3,r2
    3878:	e0bff10b 	ldhu	r2,-60(fp)
    387c:	1885883a 	add	r2,r3,r2
    3880:	1007883a 	mov	r3,r2
    3884:	e0bff28b 	ldhu	r2,-54(fp)
    3888:	1885883a 	add	r2,r3,r2
    388c:	e0bff40d 	sth	r2,-48(fp)
	status = status && setAreaRange( &(scrSettingInst->editAlarmMinuteArea), alarmMinuteMarginXL+1, alarmMinuteMarginXL+numEditGrpWidth, \
    3890:	e0bfe403 	ldbu	r2,-112(fp)
    3894:	10002426 	beq	r2,zero,3928 <screenMainSettingInit+0x914>
    3898:	e0bffd17 	ldw	r2,-12(fp)
    389c:	11003804 	addi	r4,r2,224
    38a0:	e0bff40b 	ldhu	r2,-48(fp)
    38a4:	10800044 	addi	r2,r2,1
    38a8:	117fffcc 	andi	r5,r2,65535
    38ac:	2960001c 	xori	r5,r5,32768
    38b0:	29600004 	addi	r5,r5,-32768
    38b4:	e0fff40b 	ldhu	r3,-48(fp)
    38b8:	e0bff10b 	ldhu	r2,-60(fp)
    38bc:	1885883a 	add	r2,r3,r2
    38c0:	11bfffcc 	andi	r6,r2,65535
    38c4:	31a0001c 	xori	r6,r6,32768
    38c8:	31a00004 	addi	r6,r6,-32768
    38cc:	e0bfe60b 	ldhu	r2,-104(fp)
    38d0:	e0fff18f 	ldh	r3,-58(fp)
    38d4:	1807d07a 	srai	r3,r3,1
    38d8:	10c5c83a 	sub	r2,r2,r3
    38dc:	10800044 	addi	r2,r2,1
    38e0:	10ffffcc 	andi	r3,r2,65535
    38e4:	18e0001c 	xori	r3,r3,32768
    38e8:	18e00004 	addi	r3,r3,-32768
    38ec:	e0bff18f 	ldh	r2,-58(fp)
    38f0:	1005d07a 	srai	r2,r2,1
    38f4:	100f883a 	mov	r7,r2
    38f8:	e0bfe60b 	ldhu	r2,-104(fp)
    38fc:	3885883a 	add	r2,r7,r2
    3900:	10bfffcc 	andi	r2,r2,65535
    3904:	10a0001c 	xori	r2,r2,32768
    3908:	10a00004 	addi	r2,r2,-32768
    390c:	d8800015 	stw	r2,0(sp)
    3910:	180f883a 	mov	r7,r3
    3914:	00003f40 	call	3f4 <setAreaRange>
    3918:	10803fcc 	andi	r2,r2,255
    391c:	10000226 	beq	r2,zero,3928 <screenMainSettingInit+0x914>
    3920:	00800044 	movi	r2,1
    3924:	00000106 	br	392c <screenMainSettingInit+0x918>
    3928:	0005883a 	mov	r2,zero
    392c:	e0bfe405 	stb	r2,-112(fp)
    3930:	e0bfe403 	ldbu	r2,-112(fp)
    3934:	1080004c 	andi	r2,r2,1
    3938:	e0bfe405 	stb	r2,-112(fp)
				tag1CenterY - (numEditGrpHeight>>1)+1, tag1CenterY + (numEditGrpHeight>>1) );
	status = status && setDefaultNumEditGroup( &(scrSettingInst->editAlarmMinute), numEditGrpWidth, numEditGrpHeight, 59, 0, 0, "分" );
    393c:	e0bfe403 	ldbu	r2,-112(fp)
    3940:	10001026 	beq	r2,zero,3984 <screenMainSettingInit+0x970>
    3944:	e0bffd17 	ldw	r2,-12(fp)
    3948:	11003a04 	addi	r4,r2,232
    394c:	e17ff10f 	ldh	r5,-60(fp)
    3950:	e0fff18f 	ldh	r3,-58(fp)
    3954:	d8000015 	stw	zero,0(sp)
    3958:	d8000115 	stw	zero,4(sp)
    395c:	00800374 	movhi	r2,13
    3960:	10af6604 	addi	r2,r2,-17000
    3964:	d8800215 	stw	r2,8(sp)
    3968:	180d883a 	mov	r6,r3
    396c:	01c00ec4 	movi	r7,59
    3970:	00012f40 	call	12f4 <setDefaultNumEditGroup>
    3974:	10803fcc 	andi	r2,r2,255
    3978:	10000226 	beq	r2,zero,3984 <screenMainSettingInit+0x970>
    397c:	00800044 	movi	r2,1
    3980:	00000106 	br	3988 <screenMainSettingInit+0x974>
    3984:	0005883a 	mov	r2,zero
    3988:	e0bfe405 	stb	r2,-112(fp)
    398c:	e0bfe403 	ldbu	r2,-112(fp)
    3990:	1080004c 	andi	r2,r2,1
    3994:	e0bfe405 	stb	r2,-112(fp)

	//自动翻页定时的"秒"(默认为8秒)
	short trunPageSecMarginXL = staticTag2XMax+tag2NumSecondSpacingX;
    3998:	e0ffed8b 	ldhu	r3,-74(fp)
    399c:	e0bff30b 	ldhu	r2,-52(fp)
    39a0:	1885883a 	add	r2,r3,r2
    39a4:	e0bff48d 	sth	r2,-46(fp)
	status = status && setAreaRange( &(scrSettingInst->editTurnPageSecArea), trunPageSecMarginXL+1, trunPageSecMarginXL+numEditGrpWidth, \
    39a8:	e0bfe403 	ldbu	r2,-112(fp)
    39ac:	10002426 	beq	r2,zero,3a40 <screenMainSettingInit+0xa2c>
    39b0:	e0bffd17 	ldw	r2,-12(fp)
    39b4:	1100b604 	addi	r4,r2,728
    39b8:	e0bff48b 	ldhu	r2,-46(fp)
    39bc:	10800044 	addi	r2,r2,1
    39c0:	117fffcc 	andi	r5,r2,65535
    39c4:	2960001c 	xori	r5,r5,32768
    39c8:	29600004 	addi	r5,r5,-32768
    39cc:	e0fff48b 	ldhu	r3,-46(fp)
    39d0:	e0bff10b 	ldhu	r2,-60(fp)
    39d4:	1885883a 	add	r2,r3,r2
    39d8:	11bfffcc 	andi	r6,r2,65535
    39dc:	31a0001c 	xori	r6,r6,32768
    39e0:	31a00004 	addi	r6,r6,-32768
    39e4:	e0bfea0b 	ldhu	r2,-88(fp)
    39e8:	e0fff18f 	ldh	r3,-58(fp)
    39ec:	1807d07a 	srai	r3,r3,1
    39f0:	10c5c83a 	sub	r2,r2,r3
    39f4:	10800044 	addi	r2,r2,1
    39f8:	10ffffcc 	andi	r3,r2,65535
    39fc:	18e0001c 	xori	r3,r3,32768
    3a00:	18e00004 	addi	r3,r3,-32768
    3a04:	e0bff18f 	ldh	r2,-58(fp)
    3a08:	1005d07a 	srai	r2,r2,1
    3a0c:	100f883a 	mov	r7,r2
    3a10:	e0bfea0b 	ldhu	r2,-88(fp)
    3a14:	3885883a 	add	r2,r7,r2
    3a18:	10bfffcc 	andi	r2,r2,65535
    3a1c:	10a0001c 	xori	r2,r2,32768
    3a20:	10a00004 	addi	r2,r2,-32768
    3a24:	d8800015 	stw	r2,0(sp)
    3a28:	180f883a 	mov	r7,r3
    3a2c:	00003f40 	call	3f4 <setAreaRange>
    3a30:	10803fcc 	andi	r2,r2,255
    3a34:	10000226 	beq	r2,zero,3a40 <screenMainSettingInit+0xa2c>
    3a38:	00800044 	movi	r2,1
    3a3c:	00000106 	br	3a44 <screenMainSettingInit+0xa30>
    3a40:	0005883a 	mov	r2,zero
    3a44:	e0bfe405 	stb	r2,-112(fp)
    3a48:	e0bfe403 	ldbu	r2,-112(fp)
    3a4c:	1080004c 	andi	r2,r2,1
    3a50:	e0bfe405 	stb	r2,-112(fp)
				tag2CenterY - (numEditGrpHeight>>1)+1, tag2CenterY + (numEditGrpHeight>>1) );
	status = status && setDefaultNumEditGroup( &(scrSettingInst->editTurnPageSec), numEditGrpWidth, numEditGrpHeight, 30, 0, 8, "秒" );
    3a54:	e0bfe403 	ldbu	r2,-112(fp)
    3a58:	10001126 	beq	r2,zero,3aa0 <screenMainSettingInit+0xa8c>
    3a5c:	e0bffd17 	ldw	r2,-12(fp)
    3a60:	1100b804 	addi	r4,r2,736
    3a64:	e17ff10f 	ldh	r5,-60(fp)
    3a68:	e0fff18f 	ldh	r3,-58(fp)
    3a6c:	d8000015 	stw	zero,0(sp)
    3a70:	00800204 	movi	r2,8
    3a74:	d8800115 	stw	r2,4(sp)
    3a78:	00800374 	movhi	r2,13
    3a7c:	10af6704 	addi	r2,r2,-16996
    3a80:	d8800215 	stw	r2,8(sp)
    3a84:	180d883a 	mov	r6,r3
    3a88:	01c00784 	movi	r7,30
    3a8c:	00012f40 	call	12f4 <setDefaultNumEditGroup>
    3a90:	10803fcc 	andi	r2,r2,255
    3a94:	10000226 	beq	r2,zero,3aa0 <screenMainSettingInit+0xa8c>
    3a98:	00800044 	movi	r2,1
    3a9c:	00000106 	br	3aa4 <screenMainSettingInit+0xa90>
    3aa0:	0005883a 	mov	r2,zero
    3aa4:	e0bfe405 	stb	r2,-112(fp)
    3aa8:	e0bfe403 	ldbu	r2,-112(fp)
    3aac:	1080004c 	andi	r2,r2,1
    3ab0:	e0bfe405 	stb	r2,-112(fp)


	return status;
    3ab4:	e0bfe403 	ldbu	r2,-112(fp)
}
    3ab8:	e037883a 	mov	sp,fp
    3abc:	dfc00117 	ldw	ra,4(sp)
    3ac0:	df000017 	ldw	fp,0(sp)
    3ac4:	dec00204 	addi	sp,sp,8
    3ac8:	f800283a 	ret

00003acc <screenMainColorPickerInit>:
bool screenMainColorPickerInit( ScreenColorPicker *scrColorPickerInst, short width, short height )
{
    3acc:	defff904 	addi	sp,sp,-28
    3ad0:	dfc00615 	stw	ra,24(sp)
    3ad4:	df000515 	stw	fp,20(sp)
    3ad8:	df000504 	addi	fp,sp,20
    3adc:	e13ffd15 	stw	r4,-12(fp)
    3ae0:	2807883a 	mov	r3,r5
    3ae4:	3005883a 	mov	r2,r6
    3ae8:	e0fffe0d 	sth	r3,-8(fp)
    3aec:	e0bfff0d 	sth	r2,-4(fp)
	scrColorPickerInst->borderVisible = true;
    3af0:	e0bffd17 	ldw	r2,-12(fp)
    3af4:	00c00044 	movi	r3,1
    3af8:	10c00005 	stb	r3,0(r2)

	scrColorPickerInst->borderColor = DEFAULT_BORDER_COLOR;//上下边界颜色（不包括左右）
    3afc:	e0bffd17 	ldw	r2,-12(fp)
    3b00:	1000008d 	sth	zero,2(r2)
	scrColorPickerInst->bkgColor = DEFAULT_BKG_COLOR;//背景颜色
    3b04:	e0bffd17 	ldw	r2,-12(fp)
    3b08:	00c48d04 	movi	r3,4660
    3b0c:	10c0010d 	sth	r3,4(r2)


	bool status = true;
    3b10:	00800044 	movi	r2,1
    3b14:	e0bffc05 	stb	r2,-16(fp)
	if ( height < width )
    3b18:	e0ffff0f 	ldh	r3,-4(fp)
    3b1c:	e0bffe0f 	ldh	r2,-8(fp)
    3b20:	1880010e 	bge	r3,r2,3b28 <screenMainColorPickerInit+0x5c>
	{
		status = false;
    3b24:	e03ffc05 	stb	zero,-16(fp)
	}
	short marginYU = (height-width) >> 1;//上边距
    3b28:	e0ffff0f 	ldh	r3,-4(fp)
    3b2c:	e0bffe0f 	ldh	r2,-8(fp)
    3b30:	1885c83a 	sub	r2,r3,r2
    3b34:	1005d07a 	srai	r2,r2,1
    3b38:	e0bffc8d 	sth	r2,-14(fp)

	status = status && setAreaRange( &(scrColorPickerInst->colorPickerArea), 1, width, marginYU + 1, height - marginYU );
    3b3c:	e0bffc03 	ldbu	r2,-16(fp)
    3b40:	10001526 	beq	r2,zero,3b98 <screenMainColorPickerInit+0xcc>
    3b44:	e0bffd17 	ldw	r2,-12(fp)
    3b48:	11000184 	addi	r4,r2,6
    3b4c:	e1bffe0f 	ldh	r6,-8(fp)
    3b50:	e0bffc8b 	ldhu	r2,-14(fp)
    3b54:	10800044 	addi	r2,r2,1
    3b58:	11ffffcc 	andi	r7,r2,65535
    3b5c:	39e0001c 	xori	r7,r7,32768
    3b60:	39e00004 	addi	r7,r7,-32768
    3b64:	e0ffff0b 	ldhu	r3,-4(fp)
    3b68:	e0bffc8b 	ldhu	r2,-14(fp)
    3b6c:	1885c83a 	sub	r2,r3,r2
    3b70:	10bfffcc 	andi	r2,r2,65535
    3b74:	10a0001c 	xori	r2,r2,32768
    3b78:	10a00004 	addi	r2,r2,-32768
    3b7c:	d8800015 	stw	r2,0(sp)
    3b80:	01400044 	movi	r5,1
    3b84:	00003f40 	call	3f4 <setAreaRange>
    3b88:	10803fcc 	andi	r2,r2,255
    3b8c:	10000226 	beq	r2,zero,3b98 <screenMainColorPickerInit+0xcc>
    3b90:	00800044 	movi	r2,1
    3b94:	00000106 	br	3b9c <screenMainColorPickerInit+0xd0>
    3b98:	0005883a 	mov	r2,zero
    3b9c:	e0bffc05 	stb	r2,-16(fp)
    3ba0:	e0bffc03 	ldbu	r2,-16(fp)
    3ba4:	1080004c 	andi	r2,r2,1
    3ba8:	e0bffc05 	stb	r2,-16(fp)

	setDefaultColorTable( &(scrColorPickerInst->colorPicker), (void*)0, width, width );
    3bac:	e0bffd17 	ldw	r2,-12(fp)
    3bb0:	11000404 	addi	r4,r2,16
    3bb4:	e0fffe0f 	ldh	r3,-8(fp)
    3bb8:	e0bffe0f 	ldh	r2,-8(fp)
    3bbc:	000b883a 	mov	r5,zero
    3bc0:	180d883a 	mov	r6,r3
    3bc4:	100f883a 	mov	r7,r2
    3bc8:	0000e580 	call	e58 <setDefaultColorTable>

	return status;
    3bcc:	e0bffc03 	ldbu	r2,-16(fp)
}
    3bd0:	e037883a 	mov	sp,fp
    3bd4:	dfc00117 	ldw	ra,4(sp)
    3bd8:	df000017 	ldw	fp,0(sp)
    3bdc:	dec00204 	addi	sp,sp,8
    3be0:	f800283a 	ret

00003be4 <screenMainAreaInfo>:

void screenMainAreaInfo( ScrMainAreaInfo *mainAreaInfoInst )
{
    3be4:	defffd04 	addi	sp,sp,-12
    3be8:	df000215 	stw	fp,8(sp)
    3bec:	df000204 	addi	fp,sp,8
    3bf0:	e13fff15 	stw	r4,-4(fp)
	//设置当前页面为第一页
	mainAreaInfoInst->curScrIndex = 0;
    3bf4:	e0bfff17 	ldw	r2,-4(fp)
    3bf8:	1000040d 	sth	zero,16(r2)
	//设置第一页为主页
	(mainAreaInfoInst->scrIDStack)[0] = SCR_HOME;
    3bfc:	e0bfff17 	ldw	r2,-4(fp)
    3c00:	00c00044 	movi	r3,1
    3c04:	10c00015 	stw	r3,0(r2)
	//清空后面的栈页（即后面不存在栈页）
	int i;
	for ( i = 1; i < 4; i ++ )
    3c08:	00800044 	movi	r2,1
    3c0c:	e0bffe15 	stw	r2,-8(fp)
    3c10:	00000906 	br	3c38 <screenMainAreaInfo+0x54>
	{
		(mainAreaInfoInst->scrIDStack)[i] = SCR_NONE;
    3c14:	e0ffff17 	ldw	r3,-4(fp)
    3c18:	e0bffe17 	ldw	r2,-8(fp)
    3c1c:	1085883a 	add	r2,r2,r2
    3c20:	1085883a 	add	r2,r2,r2
    3c24:	1885883a 	add	r2,r3,r2
    3c28:	10000015 	stw	zero,0(r2)
	mainAreaInfoInst->curScrIndex = 0;
	//设置第一页为主页
	(mainAreaInfoInst->scrIDStack)[0] = SCR_HOME;
	//清空后面的栈页（即后面不存在栈页）
	int i;
	for ( i = 1; i < 4; i ++ )
    3c2c:	e0bffe17 	ldw	r2,-8(fp)
    3c30:	10800044 	addi	r2,r2,1
    3c34:	e0bffe15 	stw	r2,-8(fp)
    3c38:	e0bffe17 	ldw	r2,-8(fp)
    3c3c:	10800110 	cmplti	r2,r2,4
    3c40:	103ff41e 	bne	r2,zero,3c14 <__alt_data_end+0xf8003c14>
	{
		(mainAreaInfoInst->scrIDStack)[i] = SCR_NONE;
	}
}
    3c44:	e037883a 	mov	sp,fp
    3c48:	df000017 	ldw	fp,0(sp)
    3c4c:	dec00104 	addi	sp,sp,4
    3c50:	f800283a 	ret

00003c54 <udivmodsi4>:
    3c54:	2900182e 	bgeu	r5,r4,3cb8 <udivmodsi4+0x64>
    3c58:	28001716 	blt	r5,zero,3cb8 <udivmodsi4+0x64>
    3c5c:	00800804 	movi	r2,32
    3c60:	00c00044 	movi	r3,1
    3c64:	00000206 	br	3c70 <udivmodsi4+0x1c>
    3c68:	10001126 	beq	r2,zero,3cb0 <udivmodsi4+0x5c>
    3c6c:	28000516 	blt	r5,zero,3c84 <udivmodsi4+0x30>
    3c70:	294b883a 	add	r5,r5,r5
    3c74:	10bfffc4 	addi	r2,r2,-1
    3c78:	18c7883a 	add	r3,r3,r3
    3c7c:	293ffa36 	bltu	r5,r4,3c68 <__alt_data_end+0xf8003c68>
    3c80:	18000b26 	beq	r3,zero,3cb0 <udivmodsi4+0x5c>
    3c84:	0005883a 	mov	r2,zero
    3c88:	21400236 	bltu	r4,r5,3c94 <udivmodsi4+0x40>
    3c8c:	2149c83a 	sub	r4,r4,r5
    3c90:	10c4b03a 	or	r2,r2,r3
    3c94:	1806d07a 	srli	r3,r3,1
    3c98:	280ad07a 	srli	r5,r5,1
    3c9c:	183ffa1e 	bne	r3,zero,3c88 <__alt_data_end+0xf8003c88>
    3ca0:	3000011e 	bne	r6,zero,3ca8 <udivmodsi4+0x54>
    3ca4:	f800283a 	ret
    3ca8:	2005883a 	mov	r2,r4
    3cac:	f800283a 	ret
    3cb0:	0005883a 	mov	r2,zero
    3cb4:	003ffa06 	br	3ca0 <__alt_data_end+0xf8003ca0>
    3cb8:	00c00044 	movi	r3,1
    3cbc:	003ff106 	br	3c84 <__alt_data_end+0xf8003c84>

00003cc0 <__divsi3>:
    3cc0:	defffe04 	addi	sp,sp,-8
    3cc4:	dfc00115 	stw	ra,4(sp)
    3cc8:	dc000015 	stw	r16,0(sp)
    3ccc:	20000b16 	blt	r4,zero,3cfc <__divsi3+0x3c>
    3cd0:	0021883a 	mov	r16,zero
    3cd4:	28000c16 	blt	r5,zero,3d08 <__divsi3+0x48>
    3cd8:	000d883a 	mov	r6,zero
    3cdc:	0003c540 	call	3c54 <udivmodsi4>
    3ce0:	0407c83a 	sub	r3,zero,r16
    3ce4:	1884f03a 	xor	r2,r3,r2
    3ce8:	1405883a 	add	r2,r2,r16
    3cec:	dfc00117 	ldw	ra,4(sp)
    3cf0:	dc000017 	ldw	r16,0(sp)
    3cf4:	dec00204 	addi	sp,sp,8
    3cf8:	f800283a 	ret
    3cfc:	0109c83a 	sub	r4,zero,r4
    3d00:	04000044 	movi	r16,1
    3d04:	283ff40e 	bge	r5,zero,3cd8 <__alt_data_end+0xf8003cd8>
    3d08:	014bc83a 	sub	r5,zero,r5
    3d0c:	8400005c 	xori	r16,r16,1
    3d10:	003ff106 	br	3cd8 <__alt_data_end+0xf8003cd8>

00003d14 <__modsi3>:
    3d14:	defffd04 	addi	sp,sp,-12
    3d18:	dfc00215 	stw	ra,8(sp)
    3d1c:	dc400115 	stw	r17,4(sp)
    3d20:	dc000015 	stw	r16,0(sp)
    3d24:	20000c16 	blt	r4,zero,3d58 <__modsi3+0x44>
    3d28:	0023883a 	mov	r17,zero
    3d2c:	0021883a 	mov	r16,zero
    3d30:	28000d16 	blt	r5,zero,3d68 <__modsi3+0x54>
    3d34:	01800044 	movi	r6,1
    3d38:	0003c540 	call	3c54 <udivmodsi4>
    3d3c:	1404f03a 	xor	r2,r2,r16
    3d40:	8885883a 	add	r2,r17,r2
    3d44:	dfc00217 	ldw	ra,8(sp)
    3d48:	dc400117 	ldw	r17,4(sp)
    3d4c:	dc000017 	ldw	r16,0(sp)
    3d50:	dec00304 	addi	sp,sp,12
    3d54:	f800283a 	ret
    3d58:	0109c83a 	sub	r4,zero,r4
    3d5c:	04400044 	movi	r17,1
    3d60:	043fffc4 	movi	r16,-1
    3d64:	283ff30e 	bge	r5,zero,3d34 <__alt_data_end+0xf8003d34>
    3d68:	014bc83a 	sub	r5,zero,r5
    3d6c:	003ff106 	br	3d34 <__alt_data_end+0xf8003d34>

00003d70 <__udivsi3>:
    3d70:	000d883a 	mov	r6,zero
    3d74:	0003c541 	jmpi	3c54 <udivmodsi4>

00003d78 <__umodsi3>:
    3d78:	01800044 	movi	r6,1
    3d7c:	0003c541 	jmpi	3c54 <udivmodsi4>

00003d80 <malloc>:
    3d80:	00800374 	movhi	r2,13
    3d84:	10b74804 	addi	r2,r2,-8928
    3d88:	200b883a 	mov	r5,r4
    3d8c:	11000017 	ldw	r4,0(r2)
    3d90:	0003da81 	jmpi	3da8 <_malloc_r>

00003d94 <free>:
    3d94:	00800374 	movhi	r2,13
    3d98:	10b74804 	addi	r2,r2,-8928
    3d9c:	200b883a 	mov	r5,r4
    3da0:	11000017 	ldw	r4,0(r2)
    3da4:	00080dc1 	jmpi	80dc <_free_r>

00003da8 <_malloc_r>:
    3da8:	defff504 	addi	sp,sp,-44
    3dac:	dc800315 	stw	r18,12(sp)
    3db0:	dfc00a15 	stw	ra,40(sp)
    3db4:	df000915 	stw	fp,36(sp)
    3db8:	ddc00815 	stw	r23,32(sp)
    3dbc:	dd800715 	stw	r22,28(sp)
    3dc0:	dd400615 	stw	r21,24(sp)
    3dc4:	dd000515 	stw	r20,20(sp)
    3dc8:	dcc00415 	stw	r19,16(sp)
    3dcc:	dc400215 	stw	r17,8(sp)
    3dd0:	dc000115 	stw	r16,4(sp)
    3dd4:	288002c4 	addi	r2,r5,11
    3dd8:	00c00584 	movi	r3,22
    3ddc:	2025883a 	mov	r18,r4
    3de0:	18802a2e 	bgeu	r3,r2,3e8c <_malloc_r+0xe4>
    3de4:	047ffe04 	movi	r17,-8
    3de8:	1462703a 	and	r17,r2,r17
    3dec:	88009e16 	blt	r17,zero,4068 <_malloc_r+0x2c0>
    3df0:	89409d36 	bltu	r17,r5,4068 <_malloc_r+0x2c0>
    3df4:	000e5300 	call	e530 <__malloc_lock>
    3df8:	00807dc4 	movi	r2,503
    3dfc:	14402736 	bltu	r2,r17,3e9c <_malloc_r+0xf4>
    3e00:	8806d0fa 	srli	r3,r17,3
    3e04:	04c00374 	movhi	r19,13
    3e08:	9cf04a04 	addi	r19,r19,-16088
    3e0c:	18c5883a 	add	r2,r3,r3
    3e10:	1085883a 	add	r2,r2,r2
    3e14:	1085883a 	add	r2,r2,r2
    3e18:	9885883a 	add	r2,r19,r2
    3e1c:	14000317 	ldw	r16,12(r2)
    3e20:	80814a26 	beq	r16,r2,434c <_malloc_r+0x5a4>
    3e24:	80c00117 	ldw	r3,4(r16)
    3e28:	81000317 	ldw	r4,12(r16)
    3e2c:	00bfff04 	movi	r2,-4
    3e30:	1884703a 	and	r2,r3,r2
    3e34:	81400217 	ldw	r5,8(r16)
    3e38:	8085883a 	add	r2,r16,r2
    3e3c:	10c00117 	ldw	r3,4(r2)
    3e40:	29000315 	stw	r4,12(r5)
    3e44:	21400215 	stw	r5,8(r4)
    3e48:	18c00054 	ori	r3,r3,1
    3e4c:	10c00115 	stw	r3,4(r2)
    3e50:	9009883a 	mov	r4,r18
    3e54:	000e5500 	call	e550 <__malloc_unlock>
    3e58:	80800204 	addi	r2,r16,8
    3e5c:	dfc00a17 	ldw	ra,40(sp)
    3e60:	df000917 	ldw	fp,36(sp)
    3e64:	ddc00817 	ldw	r23,32(sp)
    3e68:	dd800717 	ldw	r22,28(sp)
    3e6c:	dd400617 	ldw	r21,24(sp)
    3e70:	dd000517 	ldw	r20,20(sp)
    3e74:	dcc00417 	ldw	r19,16(sp)
    3e78:	dc800317 	ldw	r18,12(sp)
    3e7c:	dc400217 	ldw	r17,8(sp)
    3e80:	dc000117 	ldw	r16,4(sp)
    3e84:	dec00b04 	addi	sp,sp,44
    3e88:	f800283a 	ret
    3e8c:	04400404 	movi	r17,16
    3e90:	89407536 	bltu	r17,r5,4068 <_malloc_r+0x2c0>
    3e94:	000e5300 	call	e530 <__malloc_lock>
    3e98:	003fd906 	br	3e00 <__alt_data_end+0xf8003e00>
    3e9c:	8806d27a 	srli	r3,r17,9
    3ea0:	18007526 	beq	r3,zero,4078 <_malloc_r+0x2d0>
    3ea4:	00800104 	movi	r2,4
    3ea8:	10c0ef36 	bltu	r2,r3,4268 <_malloc_r+0x4c0>
    3eac:	8806d1ba 	srli	r3,r17,6
    3eb0:	19c00e04 	addi	r7,r3,56
    3eb4:	39cb883a 	add	r5,r7,r7
    3eb8:	04c00374 	movhi	r19,13
    3ebc:	294b883a 	add	r5,r5,r5
    3ec0:	9cf04a04 	addi	r19,r19,-16088
    3ec4:	294b883a 	add	r5,r5,r5
    3ec8:	994b883a 	add	r5,r19,r5
    3ecc:	2c000317 	ldw	r16,12(r5)
    3ed0:	2c000e26 	beq	r5,r16,3f0c <_malloc_r+0x164>
    3ed4:	80800117 	ldw	r2,4(r16)
    3ed8:	01bfff04 	movi	r6,-4
    3edc:	010003c4 	movi	r4,15
    3ee0:	1184703a 	and	r2,r2,r6
    3ee4:	1447c83a 	sub	r3,r2,r17
    3ee8:	20c00716 	blt	r4,r3,3f08 <_malloc_r+0x160>
    3eec:	1800650e 	bge	r3,zero,4084 <_malloc_r+0x2dc>
    3ef0:	84000317 	ldw	r16,12(r16)
    3ef4:	2c000526 	beq	r5,r16,3f0c <_malloc_r+0x164>
    3ef8:	80800117 	ldw	r2,4(r16)
    3efc:	1184703a 	and	r2,r2,r6
    3f00:	1447c83a 	sub	r3,r2,r17
    3f04:	20fff90e 	bge	r4,r3,3eec <__alt_data_end+0xf8003eec>
    3f08:	39ffffc4 	addi	r7,r7,-1
    3f0c:	38c00044 	addi	r3,r7,1
    3f10:	01800374 	movhi	r6,13
    3f14:	9c000417 	ldw	r16,16(r19)
    3f18:	31b04a04 	addi	r6,r6,-16088
    3f1c:	32400204 	addi	r9,r6,8
    3f20:	82410326 	beq	r16,r9,4330 <_malloc_r+0x588>
    3f24:	81000117 	ldw	r4,4(r16)
    3f28:	00bfff04 	movi	r2,-4
    3f2c:	208e703a 	and	r7,r4,r2
    3f30:	3c45c83a 	sub	r2,r7,r17
    3f34:	010003c4 	movi	r4,15
    3f38:	2080ee16 	blt	r4,r2,42f4 <_malloc_r+0x54c>
    3f3c:	32400515 	stw	r9,20(r6)
    3f40:	32400415 	stw	r9,16(r6)
    3f44:	1000510e 	bge	r2,zero,408c <_malloc_r+0x2e4>
    3f48:	00807fc4 	movi	r2,511
    3f4c:	11c0ce36 	bltu	r2,r7,4288 <_malloc_r+0x4e0>
    3f50:	3808d0fa 	srli	r4,r7,3
    3f54:	01c00044 	movi	r7,1
    3f58:	30800117 	ldw	r2,4(r6)
    3f5c:	210b883a 	add	r5,r4,r4
    3f60:	294b883a 	add	r5,r5,r5
    3f64:	2009d0ba 	srai	r4,r4,2
    3f68:	294b883a 	add	r5,r5,r5
    3f6c:	298b883a 	add	r5,r5,r6
    3f70:	2a000217 	ldw	r8,8(r5)
    3f74:	3908983a 	sll	r4,r7,r4
    3f78:	81400315 	stw	r5,12(r16)
    3f7c:	82000215 	stw	r8,8(r16)
    3f80:	2088b03a 	or	r4,r4,r2
    3f84:	2c000215 	stw	r16,8(r5)
    3f88:	31000115 	stw	r4,4(r6)
    3f8c:	44000315 	stw	r16,12(r8)
    3f90:	1805d0ba 	srai	r2,r3,2
    3f94:	01400044 	movi	r5,1
    3f98:	288a983a 	sll	r5,r5,r2
    3f9c:	21404336 	bltu	r4,r5,40ac <_malloc_r+0x304>
    3fa0:	2144703a 	and	r2,r4,r5
    3fa4:	10000a1e 	bne	r2,zero,3fd0 <_malloc_r+0x228>
    3fa8:	00bfff04 	movi	r2,-4
    3fac:	294b883a 	add	r5,r5,r5
    3fb0:	1886703a 	and	r3,r3,r2
    3fb4:	2144703a 	and	r2,r4,r5
    3fb8:	18c00104 	addi	r3,r3,4
    3fbc:	1000041e 	bne	r2,zero,3fd0 <_malloc_r+0x228>
    3fc0:	294b883a 	add	r5,r5,r5
    3fc4:	2144703a 	and	r2,r4,r5
    3fc8:	18c00104 	addi	r3,r3,4
    3fcc:	103ffc26 	beq	r2,zero,3fc0 <__alt_data_end+0xf8003fc0>
    3fd0:	023fff04 	movi	r8,-4
    3fd4:	01c003c4 	movi	r7,15
    3fd8:	18c5883a 	add	r2,r3,r3
    3fdc:	1085883a 	add	r2,r2,r2
    3fe0:	1085883a 	add	r2,r2,r2
    3fe4:	9895883a 	add	r10,r19,r2
    3fe8:	52c00304 	addi	r11,r10,12
    3fec:	1819883a 	mov	r12,r3
    3ff0:	5c000017 	ldw	r16,0(r11)
    3ff4:	59bffd04 	addi	r6,r11,-12
    3ff8:	8180041e 	bne	r16,r6,400c <_malloc_r+0x264>
    3ffc:	0000ce06 	br	4338 <_malloc_r+0x590>
    4000:	2000d70e 	bge	r4,zero,4360 <_malloc_r+0x5b8>
    4004:	84000317 	ldw	r16,12(r16)
    4008:	8180cb26 	beq	r16,r6,4338 <_malloc_r+0x590>
    400c:	80800117 	ldw	r2,4(r16)
    4010:	1204703a 	and	r2,r2,r8
    4014:	1449c83a 	sub	r4,r2,r17
    4018:	393ff90e 	bge	r7,r4,4000 <__alt_data_end+0xf8004000>
    401c:	80800317 	ldw	r2,12(r16)
    4020:	80c00217 	ldw	r3,8(r16)
    4024:	89400054 	ori	r5,r17,1
    4028:	81400115 	stw	r5,4(r16)
    402c:	18800315 	stw	r2,12(r3)
    4030:	10c00215 	stw	r3,8(r2)
    4034:	8463883a 	add	r17,r16,r17
    4038:	9c400515 	stw	r17,20(r19)
    403c:	9c400415 	stw	r17,16(r19)
    4040:	20800054 	ori	r2,r4,1
    4044:	88800115 	stw	r2,4(r17)
    4048:	8a400315 	stw	r9,12(r17)
    404c:	8a400215 	stw	r9,8(r17)
    4050:	8923883a 	add	r17,r17,r4
    4054:	89000015 	stw	r4,0(r17)
    4058:	9009883a 	mov	r4,r18
    405c:	000e5500 	call	e550 <__malloc_unlock>
    4060:	80800204 	addi	r2,r16,8
    4064:	003f7d06 	br	3e5c <__alt_data_end+0xf8003e5c>
    4068:	00800304 	movi	r2,12
    406c:	90800015 	stw	r2,0(r18)
    4070:	0005883a 	mov	r2,zero
    4074:	003f7906 	br	3e5c <__alt_data_end+0xf8003e5c>
    4078:	01401f84 	movi	r5,126
    407c:	01c00fc4 	movi	r7,63
    4080:	003f8d06 	br	3eb8 <__alt_data_end+0xf8003eb8>
    4084:	81000317 	ldw	r4,12(r16)
    4088:	003f6a06 	br	3e34 <__alt_data_end+0xf8003e34>
    408c:	81c5883a 	add	r2,r16,r7
    4090:	10c00117 	ldw	r3,4(r2)
    4094:	9009883a 	mov	r4,r18
    4098:	18c00054 	ori	r3,r3,1
    409c:	10c00115 	stw	r3,4(r2)
    40a0:	000e5500 	call	e550 <__malloc_unlock>
    40a4:	80800204 	addi	r2,r16,8
    40a8:	003f6c06 	br	3e5c <__alt_data_end+0xf8003e5c>
    40ac:	9c000217 	ldw	r16,8(r19)
    40b0:	00bfff04 	movi	r2,-4
    40b4:	85800117 	ldw	r22,4(r16)
    40b8:	b0ac703a 	and	r22,r22,r2
    40bc:	b4400336 	bltu	r22,r17,40cc <_malloc_r+0x324>
    40c0:	b445c83a 	sub	r2,r22,r17
    40c4:	00c003c4 	movi	r3,15
    40c8:	18805d16 	blt	r3,r2,4240 <_malloc_r+0x498>
    40cc:	05c00374 	movhi	r23,13
    40d0:	00800374 	movhi	r2,13
    40d4:	bdf74504 	addi	r23,r23,-8940
    40d8:	10be6404 	addi	r2,r2,-1648
    40dc:	15400017 	ldw	r21,0(r2)
    40e0:	b9000017 	ldw	r4,0(r23)
    40e4:	00ffffc4 	movi	r3,-1
    40e8:	858d883a 	add	r6,r16,r22
    40ec:	8d6b883a 	add	r21,r17,r21
    40f0:	20c0e426 	beq	r4,r3,4484 <_malloc_r+0x6dc>
    40f4:	ad4403c4 	addi	r21,r21,4111
    40f8:	00fc0004 	movi	r3,-4096
    40fc:	a8ea703a 	and	r21,r21,r3
    4100:	9009883a 	mov	r4,r18
    4104:	a80b883a 	mov	r5,r21
    4108:	d9800015 	stw	r6,0(sp)
    410c:	00045500 	call	4550 <_sbrk_r>
    4110:	00ffffc4 	movi	r3,-1
    4114:	1029883a 	mov	r20,r2
    4118:	d9800017 	ldw	r6,0(sp)
    411c:	10c0a426 	beq	r2,r3,43b0 <_malloc_r+0x608>
    4120:	1180a236 	bltu	r2,r6,43ac <_malloc_r+0x604>
    4124:	07000374 	movhi	fp,13
    4128:	e73e7004 	addi	fp,fp,-1600
    412c:	e0c00017 	ldw	r3,0(fp)
    4130:	a8c7883a 	add	r3,r21,r3
    4134:	e0c00015 	stw	r3,0(fp)
    4138:	3500da26 	beq	r6,r20,44a4 <_malloc_r+0x6fc>
    413c:	b9000017 	ldw	r4,0(r23)
    4140:	00bfffc4 	movi	r2,-1
    4144:	2080e426 	beq	r4,r2,44d8 <_malloc_r+0x730>
    4148:	a185c83a 	sub	r2,r20,r6
    414c:	1885883a 	add	r2,r3,r2
    4150:	e0800015 	stw	r2,0(fp)
    4154:	a0c001cc 	andi	r3,r20,7
    4158:	1800b526 	beq	r3,zero,4430 <_malloc_r+0x688>
    415c:	a0e9c83a 	sub	r20,r20,r3
    4160:	00840204 	movi	r2,4104
    4164:	a5000204 	addi	r20,r20,8
    4168:	10c7c83a 	sub	r3,r2,r3
    416c:	a545883a 	add	r2,r20,r21
    4170:	1083ffcc 	andi	r2,r2,4095
    4174:	18abc83a 	sub	r21,r3,r2
    4178:	9009883a 	mov	r4,r18
    417c:	a80b883a 	mov	r5,r21
    4180:	00045500 	call	4550 <_sbrk_r>
    4184:	00ffffc4 	movi	r3,-1
    4188:	10c0d026 	beq	r2,r3,44cc <_malloc_r+0x724>
    418c:	1507c83a 	sub	r3,r2,r20
    4190:	a8c7883a 	add	r3,r21,r3
    4194:	18c00054 	ori	r3,r3,1
    4198:	e0800017 	ldw	r2,0(fp)
    419c:	9d000215 	stw	r20,8(r19)
    41a0:	a0c00115 	stw	r3,4(r20)
    41a4:	a887883a 	add	r3,r21,r2
    41a8:	e0c00015 	stw	r3,0(fp)
    41ac:	84c00e26 	beq	r16,r19,41e8 <_malloc_r+0x440>
    41b0:	018003c4 	movi	r6,15
    41b4:	3580a02e 	bgeu	r6,r22,4438 <_malloc_r+0x690>
    41b8:	81400117 	ldw	r5,4(r16)
    41bc:	013ffe04 	movi	r4,-8
    41c0:	b0bffd04 	addi	r2,r22,-12
    41c4:	1104703a 	and	r2,r2,r4
    41c8:	2900004c 	andi	r4,r5,1
    41cc:	1108b03a 	or	r4,r2,r4
    41d0:	81000115 	stw	r4,4(r16)
    41d4:	01400144 	movi	r5,5
    41d8:	8089883a 	add	r4,r16,r2
    41dc:	21400115 	stw	r5,4(r4)
    41e0:	21400215 	stw	r5,8(r4)
    41e4:	3080c036 	bltu	r6,r2,44e8 <_malloc_r+0x740>
    41e8:	00800374 	movhi	r2,13
    41ec:	10be6304 	addi	r2,r2,-1652
    41f0:	11000017 	ldw	r4,0(r2)
    41f4:	20c0012e 	bgeu	r4,r3,41fc <_malloc_r+0x454>
    41f8:	10c00015 	stw	r3,0(r2)
    41fc:	00800374 	movhi	r2,13
    4200:	10be6204 	addi	r2,r2,-1656
    4204:	11000017 	ldw	r4,0(r2)
    4208:	9c000217 	ldw	r16,8(r19)
    420c:	20c0012e 	bgeu	r4,r3,4214 <_malloc_r+0x46c>
    4210:	10c00015 	stw	r3,0(r2)
    4214:	80c00117 	ldw	r3,4(r16)
    4218:	00bfff04 	movi	r2,-4
    421c:	1886703a 	and	r3,r3,r2
    4220:	1c45c83a 	sub	r2,r3,r17
    4224:	1c400236 	bltu	r3,r17,4230 <_malloc_r+0x488>
    4228:	00c003c4 	movi	r3,15
    422c:	18800416 	blt	r3,r2,4240 <_malloc_r+0x498>
    4230:	9009883a 	mov	r4,r18
    4234:	000e5500 	call	e550 <__malloc_unlock>
    4238:	0005883a 	mov	r2,zero
    423c:	003f0706 	br	3e5c <__alt_data_end+0xf8003e5c>
    4240:	88c00054 	ori	r3,r17,1
    4244:	80c00115 	stw	r3,4(r16)
    4248:	8463883a 	add	r17,r16,r17
    424c:	10800054 	ori	r2,r2,1
    4250:	9c400215 	stw	r17,8(r19)
    4254:	88800115 	stw	r2,4(r17)
    4258:	9009883a 	mov	r4,r18
    425c:	000e5500 	call	e550 <__malloc_unlock>
    4260:	80800204 	addi	r2,r16,8
    4264:	003efd06 	br	3e5c <__alt_data_end+0xf8003e5c>
    4268:	00800504 	movi	r2,20
    426c:	10c0482e 	bgeu	r2,r3,4390 <_malloc_r+0x5e8>
    4270:	00801504 	movi	r2,84
    4274:	10c06836 	bltu	r2,r3,4418 <_malloc_r+0x670>
    4278:	8806d33a 	srli	r3,r17,12
    427c:	19c01b84 	addi	r7,r3,110
    4280:	39cb883a 	add	r5,r7,r7
    4284:	003f0c06 	br	3eb8 <__alt_data_end+0xf8003eb8>
    4288:	3804d27a 	srli	r2,r7,9
    428c:	01000104 	movi	r4,4
    4290:	2080422e 	bgeu	r4,r2,439c <_malloc_r+0x5f4>
    4294:	01000504 	movi	r4,20
    4298:	20807c36 	bltu	r4,r2,448c <_malloc_r+0x6e4>
    429c:	110016c4 	addi	r4,r2,91
    42a0:	210b883a 	add	r5,r4,r4
    42a4:	294b883a 	add	r5,r5,r5
    42a8:	294b883a 	add	r5,r5,r5
    42ac:	994b883a 	add	r5,r19,r5
    42b0:	28800217 	ldw	r2,8(r5)
    42b4:	02000374 	movhi	r8,13
    42b8:	42304a04 	addi	r8,r8,-16088
    42bc:	11406326 	beq	r2,r5,444c <_malloc_r+0x6a4>
    42c0:	01bfff04 	movi	r6,-4
    42c4:	11000117 	ldw	r4,4(r2)
    42c8:	2188703a 	and	r4,r4,r6
    42cc:	3900022e 	bgeu	r7,r4,42d8 <_malloc_r+0x530>
    42d0:	10800217 	ldw	r2,8(r2)
    42d4:	28bffb1e 	bne	r5,r2,42c4 <__alt_data_end+0xf80042c4>
    42d8:	11800317 	ldw	r6,12(r2)
    42dc:	99000117 	ldw	r4,4(r19)
    42e0:	81800315 	stw	r6,12(r16)
    42e4:	80800215 	stw	r2,8(r16)
    42e8:	34000215 	stw	r16,8(r6)
    42ec:	14000315 	stw	r16,12(r2)
    42f0:	003f2706 	br	3f90 <__alt_data_end+0xf8003f90>
    42f4:	88c00054 	ori	r3,r17,1
    42f8:	80c00115 	stw	r3,4(r16)
    42fc:	8463883a 	add	r17,r16,r17
    4300:	34400515 	stw	r17,20(r6)
    4304:	34400415 	stw	r17,16(r6)
    4308:	10c00054 	ori	r3,r2,1
    430c:	8a400315 	stw	r9,12(r17)
    4310:	8a400215 	stw	r9,8(r17)
    4314:	88c00115 	stw	r3,4(r17)
    4318:	88a3883a 	add	r17,r17,r2
    431c:	88800015 	stw	r2,0(r17)
    4320:	9009883a 	mov	r4,r18
    4324:	000e5500 	call	e550 <__malloc_unlock>
    4328:	80800204 	addi	r2,r16,8
    432c:	003ecb06 	br	3e5c <__alt_data_end+0xf8003e5c>
    4330:	31000117 	ldw	r4,4(r6)
    4334:	003f1606 	br	3f90 <__alt_data_end+0xf8003f90>
    4338:	63000044 	addi	r12,r12,1
    433c:	608000cc 	andi	r2,r12,3
    4340:	5ac00204 	addi	r11,r11,8
    4344:	103f2a1e 	bne	r2,zero,3ff0 <__alt_data_end+0xf8003ff0>
    4348:	00002106 	br	43d0 <_malloc_r+0x628>
    434c:	80800204 	addi	r2,r16,8
    4350:	84000517 	ldw	r16,20(r16)
    4354:	143eb31e 	bne	r2,r16,3e24 <__alt_data_end+0xf8003e24>
    4358:	18c00084 	addi	r3,r3,2
    435c:	003eec06 	br	3f10 <__alt_data_end+0xf8003f10>
    4360:	8085883a 	add	r2,r16,r2
    4364:	10c00117 	ldw	r3,4(r2)
    4368:	81000317 	ldw	r4,12(r16)
    436c:	81400217 	ldw	r5,8(r16)
    4370:	18c00054 	ori	r3,r3,1
    4374:	10c00115 	stw	r3,4(r2)
    4378:	29000315 	stw	r4,12(r5)
    437c:	21400215 	stw	r5,8(r4)
    4380:	9009883a 	mov	r4,r18
    4384:	000e5500 	call	e550 <__malloc_unlock>
    4388:	80800204 	addi	r2,r16,8
    438c:	003eb306 	br	3e5c <__alt_data_end+0xf8003e5c>
    4390:	19c016c4 	addi	r7,r3,91
    4394:	39cb883a 	add	r5,r7,r7
    4398:	003ec706 	br	3eb8 <__alt_data_end+0xf8003eb8>
    439c:	3804d1ba 	srli	r2,r7,6
    43a0:	11000e04 	addi	r4,r2,56
    43a4:	210b883a 	add	r5,r4,r4
    43a8:	003fbe06 	br	42a4 <__alt_data_end+0xf80042a4>
    43ac:	84ff5d26 	beq	r16,r19,4124 <__alt_data_end+0xf8004124>
    43b0:	9c000217 	ldw	r16,8(r19)
    43b4:	00bfff04 	movi	r2,-4
    43b8:	80c00117 	ldw	r3,4(r16)
    43bc:	1886703a 	and	r3,r3,r2
    43c0:	003f9706 	br	4220 <__alt_data_end+0xf8004220>
    43c4:	52800017 	ldw	r10,0(r10)
    43c8:	18ffffc4 	addi	r3,r3,-1
    43cc:	50805c1e 	bne	r10,r2,4540 <_malloc_r+0x798>
    43d0:	190000cc 	andi	r4,r3,3
    43d4:	50bffe04 	addi	r2,r10,-8
    43d8:	203ffa1e 	bne	r4,zero,43c4 <__alt_data_end+0xf80043c4>
    43dc:	98800117 	ldw	r2,4(r19)
    43e0:	0146303a 	nor	r3,zero,r5
    43e4:	1884703a 	and	r2,r3,r2
    43e8:	98800115 	stw	r2,4(r19)
    43ec:	294b883a 	add	r5,r5,r5
    43f0:	117f2e36 	bltu	r2,r5,40ac <__alt_data_end+0xf80040ac>
    43f4:	283f2d26 	beq	r5,zero,40ac <__alt_data_end+0xf80040ac>
    43f8:	1146703a 	and	r3,r2,r5
    43fc:	1800521e 	bne	r3,zero,4548 <_malloc_r+0x7a0>
    4400:	6007883a 	mov	r3,r12
    4404:	294b883a 	add	r5,r5,r5
    4408:	1148703a 	and	r4,r2,r5
    440c:	18c00104 	addi	r3,r3,4
    4410:	203ffc26 	beq	r4,zero,4404 <__alt_data_end+0xf8004404>
    4414:	003ef006 	br	3fd8 <__alt_data_end+0xf8003fd8>
    4418:	00805504 	movi	r2,340
    441c:	10c01336 	bltu	r2,r3,446c <_malloc_r+0x6c4>
    4420:	8806d3fa 	srli	r3,r17,15
    4424:	19c01dc4 	addi	r7,r3,119
    4428:	39cb883a 	add	r5,r7,r7
    442c:	003ea206 	br	3eb8 <__alt_data_end+0xf8003eb8>
    4430:	00c40004 	movi	r3,4096
    4434:	003f4d06 	br	416c <__alt_data_end+0xf800416c>
    4438:	00800044 	movi	r2,1
    443c:	a0800115 	stw	r2,4(r20)
    4440:	a021883a 	mov	r16,r20
    4444:	0007883a 	mov	r3,zero
    4448:	003f7506 	br	4220 <__alt_data_end+0xf8004220>
    444c:	200bd0ba 	srai	r5,r4,2
    4450:	01800044 	movi	r6,1
    4454:	41000117 	ldw	r4,4(r8)
    4458:	314a983a 	sll	r5,r6,r5
    445c:	100d883a 	mov	r6,r2
    4460:	2908b03a 	or	r4,r5,r4
    4464:	41000115 	stw	r4,4(r8)
    4468:	003f9d06 	br	42e0 <__alt_data_end+0xf80042e0>
    446c:	00815504 	movi	r2,1364
    4470:	10c01336 	bltu	r2,r3,44c0 <_malloc_r+0x718>
    4474:	8806d4ba 	srli	r3,r17,18
    4478:	19c01f04 	addi	r7,r3,124
    447c:	39cb883a 	add	r5,r7,r7
    4480:	003e8d06 	br	3eb8 <__alt_data_end+0xf8003eb8>
    4484:	ad400404 	addi	r21,r21,16
    4488:	003f1d06 	br	4100 <__alt_data_end+0xf8004100>
    448c:	01001504 	movi	r4,84
    4490:	20801c36 	bltu	r4,r2,4504 <_malloc_r+0x75c>
    4494:	3804d33a 	srli	r2,r7,12
    4498:	11001b84 	addi	r4,r2,110
    449c:	210b883a 	add	r5,r4,r4
    44a0:	003f8006 	br	42a4 <__alt_data_end+0xf80042a4>
    44a4:	3083ffcc 	andi	r2,r6,4095
    44a8:	103f241e 	bne	r2,zero,413c <__alt_data_end+0xf800413c>
    44ac:	99000217 	ldw	r4,8(r19)
    44b0:	ad85883a 	add	r2,r21,r22
    44b4:	10800054 	ori	r2,r2,1
    44b8:	20800115 	stw	r2,4(r4)
    44bc:	003f4a06 	br	41e8 <__alt_data_end+0xf80041e8>
    44c0:	01403f04 	movi	r5,252
    44c4:	01c01f84 	movi	r7,126
    44c8:	003e7b06 	br	3eb8 <__alt_data_end+0xf8003eb8>
    44cc:	00c00044 	movi	r3,1
    44d0:	002b883a 	mov	r21,zero
    44d4:	003f3006 	br	4198 <__alt_data_end+0xf8004198>
    44d8:	00800374 	movhi	r2,13
    44dc:	10b74504 	addi	r2,r2,-8940
    44e0:	15000015 	stw	r20,0(r2)
    44e4:	003f1b06 	br	4154 <__alt_data_end+0xf8004154>
    44e8:	9009883a 	mov	r4,r18
    44ec:	81400204 	addi	r5,r16,8
    44f0:	00080dc0 	call	80dc <_free_r>
    44f4:	00800374 	movhi	r2,13
    44f8:	10be7004 	addi	r2,r2,-1600
    44fc:	10c00017 	ldw	r3,0(r2)
    4500:	003f3906 	br	41e8 <__alt_data_end+0xf80041e8>
    4504:	01005504 	movi	r4,340
    4508:	20800436 	bltu	r4,r2,451c <_malloc_r+0x774>
    450c:	3804d3fa 	srli	r2,r7,15
    4510:	11001dc4 	addi	r4,r2,119
    4514:	210b883a 	add	r5,r4,r4
    4518:	003f6206 	br	42a4 <__alt_data_end+0xf80042a4>
    451c:	01015504 	movi	r4,1364
    4520:	20800436 	bltu	r4,r2,4534 <_malloc_r+0x78c>
    4524:	3804d4ba 	srli	r2,r7,18
    4528:	11001f04 	addi	r4,r2,124
    452c:	210b883a 	add	r5,r4,r4
    4530:	003f5c06 	br	42a4 <__alt_data_end+0xf80042a4>
    4534:	01403f04 	movi	r5,252
    4538:	01001f84 	movi	r4,126
    453c:	003f5906 	br	42a4 <__alt_data_end+0xf80042a4>
    4540:	98800117 	ldw	r2,4(r19)
    4544:	003fa906 	br	43ec <__alt_data_end+0xf80043ec>
    4548:	6007883a 	mov	r3,r12
    454c:	003ea206 	br	3fd8 <__alt_data_end+0xf8003fd8>

00004550 <_sbrk_r>:
    4550:	defffd04 	addi	sp,sp,-12
    4554:	dc000015 	stw	r16,0(sp)
    4558:	04000374 	movhi	r16,13
    455c:	dc400115 	stw	r17,4(sp)
    4560:	843e6504 	addi	r16,r16,-1644
    4564:	2023883a 	mov	r17,r4
    4568:	2809883a 	mov	r4,r5
    456c:	dfc00215 	stw	ra,8(sp)
    4570:	80000015 	stw	zero,0(r16)
    4574:	000e5700 	call	e570 <sbrk>
    4578:	00ffffc4 	movi	r3,-1
    457c:	10c00526 	beq	r2,r3,4594 <_sbrk_r+0x44>
    4580:	dfc00217 	ldw	ra,8(sp)
    4584:	dc400117 	ldw	r17,4(sp)
    4588:	dc000017 	ldw	r16,0(sp)
    458c:	dec00304 	addi	sp,sp,12
    4590:	f800283a 	ret
    4594:	80c00017 	ldw	r3,0(r16)
    4598:	183ff926 	beq	r3,zero,4580 <__alt_data_end+0xf8004580>
    459c:	88c00015 	stw	r3,0(r17)
    45a0:	003ff706 	br	4580 <__alt_data_end+0xf8004580>

000045a4 <_sprintf_r>:
    45a4:	deffe404 	addi	sp,sp,-112
    45a8:	2807883a 	mov	r3,r5
    45ac:	dfc01a15 	stw	ra,104(sp)
    45b0:	d9c01b15 	stw	r7,108(sp)
    45b4:	00a00034 	movhi	r2,32768
    45b8:	10bfffc4 	addi	r2,r2,-1
    45bc:	02008204 	movi	r8,520
    45c0:	d8800215 	stw	r2,8(sp)
    45c4:	d8800515 	stw	r2,20(sp)
    45c8:	d80b883a 	mov	r5,sp
    45cc:	d9c01b04 	addi	r7,sp,108
    45d0:	00bfffc4 	movi	r2,-1
    45d4:	d8c00015 	stw	r3,0(sp)
    45d8:	d8c00415 	stw	r3,16(sp)
    45dc:	da00030d 	sth	r8,12(sp)
    45e0:	d880038d 	sth	r2,14(sp)
    45e4:	00047000 	call	4700 <___svfprintf_internal_r>
    45e8:	d8c00017 	ldw	r3,0(sp)
    45ec:	18000005 	stb	zero,0(r3)
    45f0:	dfc01a17 	ldw	ra,104(sp)
    45f4:	dec01c04 	addi	sp,sp,112
    45f8:	f800283a 	ret

000045fc <sprintf>:
    45fc:	deffe304 	addi	sp,sp,-116
    4600:	2007883a 	mov	r3,r4
    4604:	dfc01a15 	stw	ra,104(sp)
    4608:	d9801b15 	stw	r6,108(sp)
    460c:	d9c01c15 	stw	r7,112(sp)
    4610:	01000374 	movhi	r4,13
    4614:	21374804 	addi	r4,r4,-8928
    4618:	21000017 	ldw	r4,0(r4)
    461c:	00a00034 	movhi	r2,32768
    4620:	10bfffc4 	addi	r2,r2,-1
    4624:	280d883a 	mov	r6,r5
    4628:	02008204 	movi	r8,520
    462c:	d8800215 	stw	r2,8(sp)
    4630:	d8800515 	stw	r2,20(sp)
    4634:	d80b883a 	mov	r5,sp
    4638:	d9c01b04 	addi	r7,sp,108
    463c:	00bfffc4 	movi	r2,-1
    4640:	d8c00015 	stw	r3,0(sp)
    4644:	d8c00415 	stw	r3,16(sp)
    4648:	da00030d 	sth	r8,12(sp)
    464c:	d880038d 	sth	r2,14(sp)
    4650:	00047000 	call	4700 <___svfprintf_internal_r>
    4654:	d8c00017 	ldw	r3,0(sp)
    4658:	18000005 	stb	zero,0(r3)
    465c:	dfc01a17 	ldw	ra,104(sp)
    4660:	dec01d04 	addi	sp,sp,116
    4664:	f800283a 	ret

00004668 <strlen>:
    4668:	208000cc 	andi	r2,r4,3
    466c:	10002026 	beq	r2,zero,46f0 <strlen+0x88>
    4670:	20800007 	ldb	r2,0(r4)
    4674:	10002026 	beq	r2,zero,46f8 <strlen+0x90>
    4678:	2005883a 	mov	r2,r4
    467c:	00000206 	br	4688 <strlen+0x20>
    4680:	10c00007 	ldb	r3,0(r2)
    4684:	18001826 	beq	r3,zero,46e8 <strlen+0x80>
    4688:	10800044 	addi	r2,r2,1
    468c:	10c000cc 	andi	r3,r2,3
    4690:	183ffb1e 	bne	r3,zero,4680 <__alt_data_end+0xf8004680>
    4694:	10c00017 	ldw	r3,0(r2)
    4698:	01ffbff4 	movhi	r7,65279
    469c:	39ffbfc4 	addi	r7,r7,-257
    46a0:	00ca303a 	nor	r5,zero,r3
    46a4:	01a02074 	movhi	r6,32897
    46a8:	19c7883a 	add	r3,r3,r7
    46ac:	31a02004 	addi	r6,r6,-32640
    46b0:	1946703a 	and	r3,r3,r5
    46b4:	1986703a 	and	r3,r3,r6
    46b8:	1800091e 	bne	r3,zero,46e0 <strlen+0x78>
    46bc:	10800104 	addi	r2,r2,4
    46c0:	10c00017 	ldw	r3,0(r2)
    46c4:	19cb883a 	add	r5,r3,r7
    46c8:	00c6303a 	nor	r3,zero,r3
    46cc:	28c6703a 	and	r3,r5,r3
    46d0:	1986703a 	and	r3,r3,r6
    46d4:	183ff926 	beq	r3,zero,46bc <__alt_data_end+0xf80046bc>
    46d8:	00000106 	br	46e0 <strlen+0x78>
    46dc:	10800044 	addi	r2,r2,1
    46e0:	10c00007 	ldb	r3,0(r2)
    46e4:	183ffd1e 	bne	r3,zero,46dc <__alt_data_end+0xf80046dc>
    46e8:	1105c83a 	sub	r2,r2,r4
    46ec:	f800283a 	ret
    46f0:	2005883a 	mov	r2,r4
    46f4:	003fe706 	br	4694 <__alt_data_end+0xf8004694>
    46f8:	0005883a 	mov	r2,zero
    46fc:	f800283a 	ret

00004700 <___svfprintf_internal_r>:
    4700:	deffb504 	addi	sp,sp,-300
    4704:	dfc04a15 	stw	ra,296(sp)
    4708:	ddc04815 	stw	r23,288(sp)
    470c:	d9002f15 	stw	r4,188(sp)
    4710:	282f883a 	mov	r23,r5
    4714:	d9802915 	stw	r6,164(sp)
    4718:	d9c02d15 	stw	r7,180(sp)
    471c:	df004915 	stw	fp,292(sp)
    4720:	dd804715 	stw	r22,284(sp)
    4724:	dd404615 	stw	r21,280(sp)
    4728:	dd004515 	stw	r20,276(sp)
    472c:	dcc04415 	stw	r19,272(sp)
    4730:	dc804315 	stw	r18,268(sp)
    4734:	dc404215 	stw	r17,264(sp)
    4738:	dc004115 	stw	r16,260(sp)
    473c:	00084780 	call	8478 <_localeconv_r>
    4740:	10800017 	ldw	r2,0(r2)
    4744:	1009883a 	mov	r4,r2
    4748:	d8803515 	stw	r2,212(sp)
    474c:	00046680 	call	4668 <strlen>
    4750:	d8803915 	stw	r2,228(sp)
    4754:	b880030b 	ldhu	r2,12(r23)
    4758:	1080200c 	andi	r2,r2,128
    475c:	10000226 	beq	r2,zero,4768 <___svfprintf_internal_r+0x68>
    4760:	b8800417 	ldw	r2,16(r23)
    4764:	10065d26 	beq	r2,zero,60dc <___svfprintf_internal_r+0x19dc>
    4768:	db001dc4 	addi	r12,sp,119
    476c:	dd801e04 	addi	r22,sp,120
    4770:	d8800404 	addi	r2,sp,16
    4774:	05000374 	movhi	r20,13
    4778:	b317c83a 	sub	r11,r22,r12
    477c:	a52f7884 	addi	r20,r20,-16926
    4780:	db002815 	stw	r12,160(sp)
    4784:	d8801e15 	stw	r2,120(sp)
    4788:	d8002015 	stw	zero,128(sp)
    478c:	d8001f15 	stw	zero,124(sp)
    4790:	d8003315 	stw	zero,204(sp)
    4794:	d8003715 	stw	zero,220(sp)
    4798:	d8003815 	stw	zero,224(sp)
    479c:	d8003b15 	stw	zero,236(sp)
    47a0:	d8003a15 	stw	zero,232(sp)
    47a4:	d8003015 	stw	zero,192(sp)
    47a8:	1011883a 	mov	r8,r2
    47ac:	dac03d15 	stw	r11,244(sp)
    47b0:	db002917 	ldw	r12,164(sp)
    47b4:	60800007 	ldb	r2,0(r12)
    47b8:	1000ab26 	beq	r2,zero,4a68 <___svfprintf_internal_r+0x368>
    47bc:	00c00944 	movi	r3,37
    47c0:	10c0a926 	beq	r2,r3,4a68 <___svfprintf_internal_r+0x368>
    47c4:	6021883a 	mov	r16,r12
    47c8:	00000106 	br	47d0 <___svfprintf_internal_r+0xd0>
    47cc:	10c08426 	beq	r2,r3,49e0 <___svfprintf_internal_r+0x2e0>
    47d0:	84000044 	addi	r16,r16,1
    47d4:	80800007 	ldb	r2,0(r16)
    47d8:	103ffc1e 	bne	r2,zero,47cc <__alt_data_end+0xf80047cc>
    47dc:	dac02917 	ldw	r11,164(sp)
    47e0:	82e3c83a 	sub	r17,r16,r11
    47e4:	88000f26 	beq	r17,zero,4824 <___svfprintf_internal_r+0x124>
    47e8:	d8c02017 	ldw	r3,128(sp)
    47ec:	d8801f17 	ldw	r2,124(sp)
    47f0:	dac02917 	ldw	r11,164(sp)
    47f4:	1c47883a 	add	r3,r3,r17
    47f8:	10800044 	addi	r2,r2,1
    47fc:	d8c02015 	stw	r3,128(sp)
    4800:	42c00015 	stw	r11,0(r8)
    4804:	44400115 	stw	r17,4(r8)
    4808:	d8801f15 	stw	r2,124(sp)
    480c:	00c001c4 	movi	r3,7
    4810:	18807616 	blt	r3,r2,49ec <___svfprintf_internal_r+0x2ec>
    4814:	42000204 	addi	r8,r8,8
    4818:	db003017 	ldw	r12,192(sp)
    481c:	6459883a 	add	r12,r12,r17
    4820:	db003015 	stw	r12,192(sp)
    4824:	80800007 	ldb	r2,0(r16)
    4828:	10007726 	beq	r2,zero,4a08 <___svfprintf_internal_r+0x308>
    482c:	80800044 	addi	r2,r16,1
    4830:	84000047 	ldb	r16,1(r16)
    4834:	d8002785 	stb	zero,158(sp)
    4838:	000d883a 	mov	r6,zero
    483c:	027fffc4 	movi	r9,-1
    4840:	d8002e15 	stw	zero,184(sp)
    4844:	0023883a 	mov	r17,zero
    4848:	01001604 	movi	r4,88
    484c:	01400244 	movi	r5,9
    4850:	02800a84 	movi	r10,42
    4854:	01c01b04 	movi	r7,108
    4858:	10c00044 	addi	r3,r2,1
    485c:	80bff804 	addi	r2,r16,-32
    4860:	2082e436 	bltu	r4,r2,53f4 <___svfprintf_internal_r+0xcf4>
    4864:	100490ba 	slli	r2,r2,2
    4868:	02c00034 	movhi	r11,0
    486c:	5ad21f04 	addi	r11,r11,18556
    4870:	12c5883a 	add	r2,r2,r11
    4874:	10800017 	ldw	r2,0(r2)
    4878:	1000683a 	jmp	r2
    487c:	000051ac 	andhi	zero,zero,326
    4880:	000053f4 	movhi	zero,335
    4884:	000053f4 	movhi	zero,335
    4888:	0000532c 	andhi	zero,zero,332
    488c:	000053f4 	movhi	zero,335
    4890:	000053f4 	movhi	zero,335
    4894:	000053f4 	movhi	zero,335
    4898:	000053f4 	movhi	zero,335
    489c:	000053f4 	movhi	zero,335
    48a0:	000053f4 	movhi	zero,335
    48a4:	000052f0 	cmpltui	zero,zero,331
    48a8:	0000531c 	xori	zero,zero,332
    48ac:	000053f4 	movhi	zero,335
    48b0:	00004a70 	cmpltui	zero,zero,297
    48b4:	00004a80 	call	4a8 <setAreaRangeByAreaFmt+0x24>
    48b8:	000053f4 	movhi	zero,335
    48bc:	00004ac0 	call	4ac <setAreaRangeByAreaFmt+0x28>
    48c0:	00004ad0 	cmplti	zero,zero,299
    48c4:	00004ad0 	cmplti	zero,zero,299
    48c8:	00004ad0 	cmplti	zero,zero,299
    48cc:	00004ad0 	cmplti	zero,zero,299
    48d0:	00004ad0 	cmplti	zero,zero,299
    48d4:	00004ad0 	cmplti	zero,zero,299
    48d8:	00004ad0 	cmplti	zero,zero,299
    48dc:	00004ad0 	cmplti	zero,zero,299
    48e0:	00004ad0 	cmplti	zero,zero,299
    48e4:	000053f4 	movhi	zero,335
    48e8:	000053f4 	movhi	zero,335
    48ec:	000053f4 	movhi	zero,335
    48f0:	000053f4 	movhi	zero,335
    48f4:	000053f4 	movhi	zero,335
    48f8:	000053f4 	movhi	zero,335
    48fc:	000053f4 	movhi	zero,335
    4900:	000053f4 	movhi	zero,335
    4904:	000053f4 	movhi	zero,335
    4908:	000053f4 	movhi	zero,335
    490c:	00004b04 	movi	zero,300
    4910:	00004ff0 	cmpltui	zero,zero,319
    4914:	000053f4 	movhi	zero,335
    4918:	00004ff0 	cmpltui	zero,zero,319
    491c:	000053f4 	movhi	zero,335
    4920:	000053f4 	movhi	zero,335
    4924:	000053f4 	movhi	zero,335
    4928:	000053f4 	movhi	zero,335
    492c:	000050dc 	xori	zero,zero,323
    4930:	000053f4 	movhi	zero,335
    4934:	000053f4 	movhi	zero,335
    4938:	00004f84 	movi	zero,318
    493c:	000053f4 	movhi	zero,335
    4940:	000053f4 	movhi	zero,335
    4944:	000053f4 	movhi	zero,335
    4948:	000053f4 	movhi	zero,335
    494c:	000053f4 	movhi	zero,335
    4950:	00004fc0 	call	4fc <setAreaRangeByAreaFmt+0x78>
    4954:	000053f4 	movhi	zero,335
    4958:	000053f4 	movhi	zero,335
    495c:	000051cc 	andi	zero,zero,327
    4960:	000053f4 	movhi	zero,335
    4964:	000053f4 	movhi	zero,335
    4968:	000053f4 	movhi	zero,335
    496c:	000053f4 	movhi	zero,335
    4970:	000053f4 	movhi	zero,335
    4974:	000053f4 	movhi	zero,335
    4978:	000053f4 	movhi	zero,335
    497c:	000053f4 	movhi	zero,335
    4980:	000053f4 	movhi	zero,335
    4984:	000053f4 	movhi	zero,335
    4988:	000052b0 	cmpltui	zero,zero,330
    498c:	000050ec 	andhi	zero,zero,323
    4990:	00004ff0 	cmpltui	zero,zero,319
    4994:	00004ff0 	cmpltui	zero,zero,319
    4998:	00004ff0 	cmpltui	zero,zero,319
    499c:	00005154 	movui	zero,325
    49a0:	000050ec 	andhi	zero,zero,323
    49a4:	000053f4 	movhi	zero,335
    49a8:	000053f4 	movhi	zero,335
    49ac:	00005164 	muli	zero,zero,325
    49b0:	000053f4 	movhi	zero,335
    49b4:	00005178 	rdprs	zero,zero,325
    49b8:	000053b8 	rdprs	zero,zero,334
    49bc:	00005094 	movui	zero,322
    49c0:	000052a0 	cmpeqi	zero,zero,330
    49c4:	000053f4 	movhi	zero,335
    49c8:	00005228 	cmpgeui	zero,zero,328
    49cc:	000053f4 	movhi	zero,335
    49d0:	0000537c 	xorhi	zero,zero,333
    49d4:	000053f4 	movhi	zero,335
    49d8:	000053f4 	movhi	zero,335
    49dc:	0000533c 	xorhi	zero,zero,332
    49e0:	db002917 	ldw	r12,164(sp)
    49e4:	8323c83a 	sub	r17,r16,r12
    49e8:	003f7e06 	br	47e4 <__alt_data_end+0xf80047e4>
    49ec:	d9002f17 	ldw	r4,188(sp)
    49f0:	b80b883a 	mov	r5,r23
    49f4:	b00d883a 	mov	r6,r22
    49f8:	00097700 	call	9770 <__ssprint_r>
    49fc:	1000081e 	bne	r2,zero,4a20 <___svfprintf_internal_r+0x320>
    4a00:	da000404 	addi	r8,sp,16
    4a04:	003f8406 	br	4818 <__alt_data_end+0xf8004818>
    4a08:	d8802017 	ldw	r2,128(sp)
    4a0c:	10000426 	beq	r2,zero,4a20 <___svfprintf_internal_r+0x320>
    4a10:	d9002f17 	ldw	r4,188(sp)
    4a14:	b80b883a 	mov	r5,r23
    4a18:	d9801e04 	addi	r6,sp,120
    4a1c:	00097700 	call	9770 <__ssprint_r>
    4a20:	b880030b 	ldhu	r2,12(r23)
    4a24:	1080100c 	andi	r2,r2,64
    4a28:	10000d1e 	bne	r2,zero,4a60 <___svfprintf_internal_r+0x360>
    4a2c:	d8803017 	ldw	r2,192(sp)
    4a30:	dfc04a17 	ldw	ra,296(sp)
    4a34:	df004917 	ldw	fp,292(sp)
    4a38:	ddc04817 	ldw	r23,288(sp)
    4a3c:	dd804717 	ldw	r22,284(sp)
    4a40:	dd404617 	ldw	r21,280(sp)
    4a44:	dd004517 	ldw	r20,276(sp)
    4a48:	dcc04417 	ldw	r19,272(sp)
    4a4c:	dc804317 	ldw	r18,268(sp)
    4a50:	dc404217 	ldw	r17,264(sp)
    4a54:	dc004117 	ldw	r16,260(sp)
    4a58:	dec04b04 	addi	sp,sp,300
    4a5c:	f800283a 	ret
    4a60:	00bfffc4 	movi	r2,-1
    4a64:	003ff206 	br	4a30 <__alt_data_end+0xf8004a30>
    4a68:	dc002917 	ldw	r16,164(sp)
    4a6c:	003f6d06 	br	4824 <__alt_data_end+0xf8004824>
    4a70:	1805883a 	mov	r2,r3
    4a74:	8c400114 	ori	r17,r17,4
    4a78:	1c000007 	ldb	r16,0(r3)
    4a7c:	003f7606 	br	4858 <__alt_data_end+0xf8004858>
    4a80:	1c000007 	ldb	r16,0(r3)
    4a84:	18800044 	addi	r2,r3,1
    4a88:	8286e726 	beq	r16,r10,6628 <___svfprintf_internal_r+0x1f28>
    4a8c:	82fff404 	addi	r11,r16,-48
    4a90:	1007883a 	mov	r3,r2
    4a94:	0013883a 	mov	r9,zero
    4a98:	2aff7036 	bltu	r5,r11,485c <__alt_data_end+0xf800485c>
    4a9c:	1c000007 	ldb	r16,0(r3)
    4aa0:	4a4002a4 	muli	r9,r9,10
    4aa4:	18c00044 	addi	r3,r3,1
    4aa8:	5a53883a 	add	r9,r11,r9
    4aac:	82fff404 	addi	r11,r16,-48
    4ab0:	2afffa2e 	bgeu	r5,r11,4a9c <__alt_data_end+0xf8004a9c>
    4ab4:	483f690e 	bge	r9,zero,485c <__alt_data_end+0xf800485c>
    4ab8:	027fffc4 	movi	r9,-1
    4abc:	003f6706 	br	485c <__alt_data_end+0xf800485c>
    4ac0:	8c402014 	ori	r17,r17,128
    4ac4:	1805883a 	mov	r2,r3
    4ac8:	1c000007 	ldb	r16,0(r3)
    4acc:	003f6206 	br	4858 <__alt_data_end+0xf8004858>
    4ad0:	1805883a 	mov	r2,r3
    4ad4:	d8002e15 	stw	zero,184(sp)
    4ad8:	82fff404 	addi	r11,r16,-48
    4adc:	0019883a 	mov	r12,zero
    4ae0:	14000007 	ldb	r16,0(r2)
    4ae4:	630002a4 	muli	r12,r12,10
    4ae8:	18c00044 	addi	r3,r3,1
    4aec:	1805883a 	mov	r2,r3
    4af0:	62d9883a 	add	r12,r12,r11
    4af4:	82fff404 	addi	r11,r16,-48
    4af8:	2afff92e 	bgeu	r5,r11,4ae0 <__alt_data_end+0xf8004ae0>
    4afc:	db002e15 	stw	r12,184(sp)
    4b00:	003f5606 	br	485c <__alt_data_end+0xf800485c>
    4b04:	8c400414 	ori	r17,r17,16
    4b08:	d8c02915 	stw	r3,164(sp)
    4b0c:	d9802785 	stb	r6,158(sp)
    4b10:	8880080c 	andi	r2,r17,32
    4b14:	d8c02d17 	ldw	r3,180(sp)
    4b18:	10017926 	beq	r2,zero,5100 <___svfprintf_internal_r+0xa00>
    4b1c:	db002d17 	ldw	r12,180(sp)
    4b20:	18800117 	ldw	r2,4(r3)
    4b24:	1cc00017 	ldw	r19,0(r3)
    4b28:	63000204 	addi	r12,r12,8
    4b2c:	db002d15 	stw	r12,180(sp)
    4b30:	1039883a 	mov	fp,r2
    4b34:	10017d16 	blt	r2,zero,512c <___svfprintf_internal_r+0xa2c>
    4b38:	dd402783 	ldbu	r21,158(sp)
    4b3c:	da403215 	stw	r9,200(sp)
    4b40:	00800044 	movi	r2,1
    4b44:	9f06b03a 	or	r3,r19,fp
    4b48:	48000216 	blt	r9,zero,4b54 <___svfprintf_internal_r+0x454>
    4b4c:	013fdfc4 	movi	r4,-129
    4b50:	8922703a 	and	r17,r17,r4
    4b54:	1802371e 	bne	r3,zero,5434 <___svfprintf_internal_r+0xd34>
    4b58:	48034526 	beq	r9,zero,5870 <___svfprintf_internal_r+0x1170>
    4b5c:	10803fcc 	andi	r2,r2,255
    4b60:	00c00044 	movi	r3,1
    4b64:	10c25826 	beq	r2,r3,54c8 <___svfprintf_internal_r+0xdc8>
    4b68:	00c00084 	movi	r3,2
    4b6c:	10c2db26 	beq	r2,r3,56dc <___svfprintf_internal_r+0xfdc>
    4b70:	b007883a 	mov	r3,r22
    4b74:	9808d0fa 	srli	r4,r19,3
    4b78:	e00a977a 	slli	r5,fp,29
    4b7c:	e038d0fa 	srli	fp,fp,3
    4b80:	9cc001cc 	andi	r19,r19,7
    4b84:	98800c04 	addi	r2,r19,48
    4b88:	18ffffc4 	addi	r3,r3,-1
    4b8c:	2926b03a 	or	r19,r5,r4
    4b90:	18800005 	stb	r2,0(r3)
    4b94:	9f08b03a 	or	r4,r19,fp
    4b98:	203ff61e 	bne	r4,zero,4b74 <__alt_data_end+0xf8004b74>
    4b9c:	8900004c 	andi	r4,r17,1
    4ba0:	d8c03115 	stw	r3,196(sp)
    4ba4:	2002db26 	beq	r4,zero,5714 <___svfprintf_internal_r+0x1014>
    4ba8:	10803fcc 	andi	r2,r2,255
    4bac:	1080201c 	xori	r2,r2,128
    4bb0:	10bfe004 	addi	r2,r2,-128
    4bb4:	01000c04 	movi	r4,48
    4bb8:	11056626 	beq	r2,r4,6154 <___svfprintf_internal_r+0x1a54>
    4bbc:	dac03117 	ldw	r11,196(sp)
    4bc0:	193fffc5 	stb	r4,-1(r3)
    4bc4:	5affffc4 	addi	r11,r11,-1
    4bc8:	dac03115 	stw	r11,196(sp)
    4bcc:	b2e5c83a 	sub	r18,r22,r11
    4bd0:	9005883a 	mov	r2,r18
    4bd4:	9240010e 	bge	r18,r9,4bdc <___svfprintf_internal_r+0x4dc>
    4bd8:	4805883a 	mov	r2,r9
    4bdc:	d8802a15 	stw	r2,168(sp)
    4be0:	d8003415 	stw	zero,208(sp)
    4be4:	a8803fcc 	andi	r2,r21,255
    4be8:	1080201c 	xori	r2,r2,128
    4bec:	10bfe004 	addi	r2,r2,-128
    4bf0:	10000326 	beq	r2,zero,4c00 <___svfprintf_internal_r+0x500>
    4bf4:	d8c02a17 	ldw	r3,168(sp)
    4bf8:	18c00044 	addi	r3,r3,1
    4bfc:	d8c02a15 	stw	r3,168(sp)
    4c00:	8ac0008c 	andi	r11,r17,2
    4c04:	dac02b15 	stw	r11,172(sp)
    4c08:	58000326 	beq	r11,zero,4c18 <___svfprintf_internal_r+0x518>
    4c0c:	db002a17 	ldw	r12,168(sp)
    4c10:	63000084 	addi	r12,r12,2
    4c14:	db002a15 	stw	r12,168(sp)
    4c18:	88c0210c 	andi	r3,r17,132
    4c1c:	d8c02c15 	stw	r3,176(sp)
    4c20:	1802021e 	bne	r3,zero,542c <___svfprintf_internal_r+0xd2c>
    4c24:	dac02e17 	ldw	r11,184(sp)
    4c28:	db002a17 	ldw	r12,168(sp)
    4c2c:	5b39c83a 	sub	fp,r11,r12
    4c30:	0701fe0e 	bge	zero,fp,542c <___svfprintf_internal_r+0xd2c>
    4c34:	02400404 	movi	r9,16
    4c38:	d8c02017 	ldw	r3,128(sp)
    4c3c:	d8801f17 	ldw	r2,124(sp)
    4c40:	4f057d0e 	bge	r9,fp,6238 <___svfprintf_internal_r+0x1b38>
    4c44:	01400374 	movhi	r5,13
    4c48:	e009883a 	mov	r4,fp
    4c4c:	296f7c84 	addi	r5,r5,-16910
    4c50:	dc003c15 	stw	r16,240(sp)
    4c54:	9039883a 	mov	fp,r18
    4c58:	d9403615 	stw	r5,216(sp)
    4c5c:	8825883a 	mov	r18,r17
    4c60:	482b883a 	mov	r21,r9
    4c64:	04c001c4 	movi	r19,7
    4c68:	dc002f17 	ldw	r16,188(sp)
    4c6c:	2023883a 	mov	r17,r4
    4c70:	00000306 	br	4c80 <___svfprintf_internal_r+0x580>
    4c74:	8c7ffc04 	addi	r17,r17,-16
    4c78:	42000204 	addi	r8,r8,8
    4c7c:	ac40130e 	bge	r21,r17,4ccc <___svfprintf_internal_r+0x5cc>
    4c80:	02c00374 	movhi	r11,13
    4c84:	18c00404 	addi	r3,r3,16
    4c88:	10800044 	addi	r2,r2,1
    4c8c:	5aef7c84 	addi	r11,r11,-16910
    4c90:	42c00015 	stw	r11,0(r8)
    4c94:	45400115 	stw	r21,4(r8)
    4c98:	d8c02015 	stw	r3,128(sp)
    4c9c:	d8801f15 	stw	r2,124(sp)
    4ca0:	98bff40e 	bge	r19,r2,4c74 <__alt_data_end+0xf8004c74>
    4ca4:	8009883a 	mov	r4,r16
    4ca8:	b80b883a 	mov	r5,r23
    4cac:	b00d883a 	mov	r6,r22
    4cb0:	00097700 	call	9770 <__ssprint_r>
    4cb4:	103f5a1e 	bne	r2,zero,4a20 <__alt_data_end+0xf8004a20>
    4cb8:	8c7ffc04 	addi	r17,r17,-16
    4cbc:	d8c02017 	ldw	r3,128(sp)
    4cc0:	d8801f17 	ldw	r2,124(sp)
    4cc4:	da000404 	addi	r8,sp,16
    4cc8:	ac7fed16 	blt	r21,r17,4c80 <__alt_data_end+0xf8004c80>
    4ccc:	dc003c17 	ldw	r16,240(sp)
    4cd0:	8809883a 	mov	r4,r17
    4cd4:	9023883a 	mov	r17,r18
    4cd8:	e025883a 	mov	r18,fp
    4cdc:	2039883a 	mov	fp,r4
    4ce0:	db003617 	ldw	r12,216(sp)
    4ce4:	e0c7883a 	add	r3,fp,r3
    4ce8:	10800044 	addi	r2,r2,1
    4cec:	43000015 	stw	r12,0(r8)
    4cf0:	47000115 	stw	fp,4(r8)
    4cf4:	d8c02015 	stw	r3,128(sp)
    4cf8:	d8801f15 	stw	r2,124(sp)
    4cfc:	010001c4 	movi	r4,7
    4d00:	20833516 	blt	r4,r2,59d8 <___svfprintf_internal_r+0x12d8>
    4d04:	d8802787 	ldb	r2,158(sp)
    4d08:	42000204 	addi	r8,r8,8
    4d0c:	10000c26 	beq	r2,zero,4d40 <___svfprintf_internal_r+0x640>
    4d10:	d8801f17 	ldw	r2,124(sp)
    4d14:	d9002784 	addi	r4,sp,158
    4d18:	18c00044 	addi	r3,r3,1
    4d1c:	10800044 	addi	r2,r2,1
    4d20:	41000015 	stw	r4,0(r8)
    4d24:	01000044 	movi	r4,1
    4d28:	41000115 	stw	r4,4(r8)
    4d2c:	d8c02015 	stw	r3,128(sp)
    4d30:	d8801f15 	stw	r2,124(sp)
    4d34:	010001c4 	movi	r4,7
    4d38:	2082df16 	blt	r4,r2,58b8 <___svfprintf_internal_r+0x11b8>
    4d3c:	42000204 	addi	r8,r8,8
    4d40:	dac02b17 	ldw	r11,172(sp)
    4d44:	58000c26 	beq	r11,zero,4d78 <___svfprintf_internal_r+0x678>
    4d48:	d8801f17 	ldw	r2,124(sp)
    4d4c:	d9002704 	addi	r4,sp,156
    4d50:	18c00084 	addi	r3,r3,2
    4d54:	10800044 	addi	r2,r2,1
    4d58:	41000015 	stw	r4,0(r8)
    4d5c:	01000084 	movi	r4,2
    4d60:	41000115 	stw	r4,4(r8)
    4d64:	d8c02015 	stw	r3,128(sp)
    4d68:	d8801f15 	stw	r2,124(sp)
    4d6c:	010001c4 	movi	r4,7
    4d70:	2082d916 	blt	r4,r2,58d8 <___svfprintf_internal_r+0x11d8>
    4d74:	42000204 	addi	r8,r8,8
    4d78:	db002c17 	ldw	r12,176(sp)
    4d7c:	00802004 	movi	r2,128
    4d80:	60822026 	beq	r12,r2,5604 <___svfprintf_internal_r+0xf04>
    4d84:	db003217 	ldw	r12,200(sp)
    4d88:	64abc83a 	sub	r21,r12,r18
    4d8c:	0540310e 	bge	zero,r21,4e54 <___svfprintf_internal_r+0x754>
    4d90:	07000404 	movi	fp,16
    4d94:	d8801f17 	ldw	r2,124(sp)
    4d98:	e544180e 	bge	fp,r21,5dfc <___svfprintf_internal_r+0x16fc>
    4d9c:	01400374 	movhi	r5,13
    4da0:	a809883a 	mov	r4,r21
    4da4:	296f7884 	addi	r5,r5,-16926
    4da8:	dc002c15 	stw	r16,176(sp)
    4dac:	902b883a 	mov	r21,r18
    4db0:	d9402b15 	stw	r5,172(sp)
    4db4:	8825883a 	mov	r18,r17
    4db8:	04c001c4 	movi	r19,7
    4dbc:	dc002f17 	ldw	r16,188(sp)
    4dc0:	2023883a 	mov	r17,r4
    4dc4:	00000306 	br	4dd4 <___svfprintf_internal_r+0x6d4>
    4dc8:	8c7ffc04 	addi	r17,r17,-16
    4dcc:	42000204 	addi	r8,r8,8
    4dd0:	e440110e 	bge	fp,r17,4e18 <___svfprintf_internal_r+0x718>
    4dd4:	18c00404 	addi	r3,r3,16
    4dd8:	10800044 	addi	r2,r2,1
    4ddc:	45000015 	stw	r20,0(r8)
    4de0:	47000115 	stw	fp,4(r8)
    4de4:	d8c02015 	stw	r3,128(sp)
    4de8:	d8801f15 	stw	r2,124(sp)
    4dec:	98bff60e 	bge	r19,r2,4dc8 <__alt_data_end+0xf8004dc8>
    4df0:	8009883a 	mov	r4,r16
    4df4:	b80b883a 	mov	r5,r23
    4df8:	b00d883a 	mov	r6,r22
    4dfc:	00097700 	call	9770 <__ssprint_r>
    4e00:	103f071e 	bne	r2,zero,4a20 <__alt_data_end+0xf8004a20>
    4e04:	8c7ffc04 	addi	r17,r17,-16
    4e08:	d8c02017 	ldw	r3,128(sp)
    4e0c:	d8801f17 	ldw	r2,124(sp)
    4e10:	da000404 	addi	r8,sp,16
    4e14:	e47fef16 	blt	fp,r17,4dd4 <__alt_data_end+0xf8004dd4>
    4e18:	dc002c17 	ldw	r16,176(sp)
    4e1c:	8809883a 	mov	r4,r17
    4e20:	9023883a 	mov	r17,r18
    4e24:	a825883a 	mov	r18,r21
    4e28:	202b883a 	mov	r21,r4
    4e2c:	dac02b17 	ldw	r11,172(sp)
    4e30:	1d47883a 	add	r3,r3,r21
    4e34:	10800044 	addi	r2,r2,1
    4e38:	42c00015 	stw	r11,0(r8)
    4e3c:	45400115 	stw	r21,4(r8)
    4e40:	d8c02015 	stw	r3,128(sp)
    4e44:	d8801f15 	stw	r2,124(sp)
    4e48:	010001c4 	movi	r4,7
    4e4c:	20829216 	blt	r4,r2,5898 <___svfprintf_internal_r+0x1198>
    4e50:	42000204 	addi	r8,r8,8
    4e54:	8880400c 	andi	r2,r17,256
    4e58:	1001a11e 	bne	r2,zero,54e0 <___svfprintf_internal_r+0xde0>
    4e5c:	d8801f17 	ldw	r2,124(sp)
    4e60:	db003117 	ldw	r12,196(sp)
    4e64:	1c87883a 	add	r3,r3,r18
    4e68:	10800044 	addi	r2,r2,1
    4e6c:	43000015 	stw	r12,0(r8)
    4e70:	44800115 	stw	r18,4(r8)
    4e74:	d8c02015 	stw	r3,128(sp)
    4e78:	d8801f15 	stw	r2,124(sp)
    4e7c:	010001c4 	movi	r4,7
    4e80:	20826d16 	blt	r4,r2,5838 <___svfprintf_internal_r+0x1138>
    4e84:	42000204 	addi	r8,r8,8
    4e88:	8c40010c 	andi	r17,r17,4
    4e8c:	88003226 	beq	r17,zero,4f58 <___svfprintf_internal_r+0x858>
    4e90:	db002e17 	ldw	r12,184(sp)
    4e94:	dac02a17 	ldw	r11,168(sp)
    4e98:	62e1c83a 	sub	r16,r12,r11
    4e9c:	04002e0e 	bge	zero,r16,4f58 <___svfprintf_internal_r+0x858>
    4ea0:	04400404 	movi	r17,16
    4ea4:	d8801f17 	ldw	r2,124(sp)
    4ea8:	8c05240e 	bge	r17,r16,633c <___svfprintf_internal_r+0x1c3c>
    4eac:	01000374 	movhi	r4,13
    4eb0:	212f7c84 	addi	r4,r4,-16910
    4eb4:	d9003615 	stw	r4,216(sp)
    4eb8:	048001c4 	movi	r18,7
    4ebc:	dcc02f17 	ldw	r19,188(sp)
    4ec0:	00000306 	br	4ed0 <___svfprintf_internal_r+0x7d0>
    4ec4:	843ffc04 	addi	r16,r16,-16
    4ec8:	42000204 	addi	r8,r8,8
    4ecc:	8c00130e 	bge	r17,r16,4f1c <___svfprintf_internal_r+0x81c>
    4ed0:	01400374 	movhi	r5,13
    4ed4:	18c00404 	addi	r3,r3,16
    4ed8:	10800044 	addi	r2,r2,1
    4edc:	296f7c84 	addi	r5,r5,-16910
    4ee0:	41400015 	stw	r5,0(r8)
    4ee4:	44400115 	stw	r17,4(r8)
    4ee8:	d8c02015 	stw	r3,128(sp)
    4eec:	d8801f15 	stw	r2,124(sp)
    4ef0:	90bff40e 	bge	r18,r2,4ec4 <__alt_data_end+0xf8004ec4>
    4ef4:	9809883a 	mov	r4,r19
    4ef8:	b80b883a 	mov	r5,r23
    4efc:	b00d883a 	mov	r6,r22
    4f00:	00097700 	call	9770 <__ssprint_r>
    4f04:	103ec61e 	bne	r2,zero,4a20 <__alt_data_end+0xf8004a20>
    4f08:	843ffc04 	addi	r16,r16,-16
    4f0c:	d8c02017 	ldw	r3,128(sp)
    4f10:	d8801f17 	ldw	r2,124(sp)
    4f14:	da000404 	addi	r8,sp,16
    4f18:	8c3fed16 	blt	r17,r16,4ed0 <__alt_data_end+0xf8004ed0>
    4f1c:	dac03617 	ldw	r11,216(sp)
    4f20:	1c07883a 	add	r3,r3,r16
    4f24:	10800044 	addi	r2,r2,1
    4f28:	42c00015 	stw	r11,0(r8)
    4f2c:	44000115 	stw	r16,4(r8)
    4f30:	d8c02015 	stw	r3,128(sp)
    4f34:	d8801f15 	stw	r2,124(sp)
    4f38:	010001c4 	movi	r4,7
    4f3c:	2080060e 	bge	r4,r2,4f58 <___svfprintf_internal_r+0x858>
    4f40:	d9002f17 	ldw	r4,188(sp)
    4f44:	b80b883a 	mov	r5,r23
    4f48:	b00d883a 	mov	r6,r22
    4f4c:	00097700 	call	9770 <__ssprint_r>
    4f50:	103eb31e 	bne	r2,zero,4a20 <__alt_data_end+0xf8004a20>
    4f54:	d8c02017 	ldw	r3,128(sp)
    4f58:	d8802a17 	ldw	r2,168(sp)
    4f5c:	db002e17 	ldw	r12,184(sp)
    4f60:	1300010e 	bge	r2,r12,4f68 <___svfprintf_internal_r+0x868>
    4f64:	6005883a 	mov	r2,r12
    4f68:	dac03017 	ldw	r11,192(sp)
    4f6c:	5897883a 	add	r11,r11,r2
    4f70:	dac03015 	stw	r11,192(sp)
    4f74:	1802381e 	bne	r3,zero,5858 <___svfprintf_internal_r+0x1158>
    4f78:	d8001f15 	stw	zero,124(sp)
    4f7c:	da000404 	addi	r8,sp,16
    4f80:	003e0b06 	br	47b0 <__alt_data_end+0xf80047b0>
    4f84:	8c400414 	ori	r17,r17,16
    4f88:	d8c02915 	stw	r3,164(sp)
    4f8c:	8880080c 	andi	r2,r17,32
    4f90:	10010c26 	beq	r2,zero,53c4 <___svfprintf_internal_r+0xcc4>
    4f94:	db002d17 	ldw	r12,180(sp)
    4f98:	0005883a 	mov	r2,zero
    4f9c:	64c00017 	ldw	r19,0(r12)
    4fa0:	67000117 	ldw	fp,4(r12)
    4fa4:	63000204 	addi	r12,r12,8
    4fa8:	db002d15 	stw	r12,180(sp)
    4fac:	9f06b03a 	or	r3,r19,fp
    4fb0:	d8002785 	stb	zero,158(sp)
    4fb4:	da403215 	stw	r9,200(sp)
    4fb8:	002b883a 	mov	r21,zero
    4fbc:	003ee206 	br	4b48 <__alt_data_end+0xf8004b48>
    4fc0:	8c400414 	ori	r17,r17,16
    4fc4:	d8c02915 	stw	r3,164(sp)
    4fc8:	8880080c 	andi	r2,r17,32
    4fcc:	1000ee26 	beq	r2,zero,5388 <___svfprintf_internal_r+0xc88>
    4fd0:	dac02d17 	ldw	r11,180(sp)
    4fd4:	00800044 	movi	r2,1
    4fd8:	5cc00017 	ldw	r19,0(r11)
    4fdc:	5f000117 	ldw	fp,4(r11)
    4fe0:	5ac00204 	addi	r11,r11,8
    4fe4:	dac02d15 	stw	r11,180(sp)
    4fe8:	9f06b03a 	or	r3,r19,fp
    4fec:	003ff006 	br	4fb0 <__alt_data_end+0xf8004fb0>
    4ff0:	db002d17 	ldw	r12,180(sp)
    4ff4:	dac02d17 	ldw	r11,180(sp)
    4ff8:	d8c02915 	stw	r3,164(sp)
    4ffc:	63000017 	ldw	r12,0(r12)
    5000:	5ac00117 	ldw	r11,4(r11)
    5004:	d9802785 	stb	r6,158(sp)
    5008:	6009883a 	mov	r4,r12
    500c:	580b883a 	mov	r5,r11
    5010:	db003715 	stw	r12,220(sp)
    5014:	da004015 	stw	r8,256(sp)
    5018:	da403f15 	stw	r9,252(sp)
    501c:	dac03815 	stw	r11,224(sp)
    5020:	00096580 	call	9658 <__fpclassifyd>
    5024:	db002d17 	ldw	r12,180(sp)
    5028:	04800044 	movi	r18,1
    502c:	da004017 	ldw	r8,256(sp)
    5030:	64c00204 	addi	r19,r12,8
    5034:	da403f17 	ldw	r9,252(sp)
    5038:	d9003717 	ldw	r4,220(sp)
    503c:	d9403817 	ldw	r5,224(sp)
    5040:	14832c1e 	bne	r2,r18,5cf4 <___svfprintf_internal_r+0x15f4>
    5044:	000d883a 	mov	r6,zero
    5048:	000f883a 	mov	r7,zero
    504c:	000d0a00 	call	d0a0 <__ledf2>
    5050:	da004017 	ldw	r8,256(sp)
    5054:	1004c416 	blt	r2,zero,6368 <___svfprintf_internal_r+0x1c68>
    5058:	dd402783 	ldbu	r21,158(sp)
    505c:	008011c4 	movi	r2,71
    5060:	14041a0e 	bge	r2,r16,60cc <___svfprintf_internal_r+0x19cc>
    5064:	00c00374 	movhi	r3,13
    5068:	18ef6904 	addi	r3,r3,-16988
    506c:	d8c03115 	stw	r3,196(sp)
    5070:	02c000c4 	movi	r11,3
    5074:	00bfdfc4 	movi	r2,-129
    5078:	dac02a15 	stw	r11,168(sp)
    507c:	88a2703a 	and	r17,r17,r2
    5080:	dcc02d15 	stw	r19,180(sp)
    5084:	5825883a 	mov	r18,r11
    5088:	d8003215 	stw	zero,200(sp)
    508c:	d8003415 	stw	zero,208(sp)
    5090:	003ed406 	br	4be4 <__alt_data_end+0xf8004be4>
    5094:	db002d17 	ldw	r12,180(sp)
    5098:	00800c04 	movi	r2,48
    509c:	d8802705 	stb	r2,156(sp)
    50a0:	64c00017 	ldw	r19,0(r12)
    50a4:	00801e04 	movi	r2,120
    50a8:	d8802745 	stb	r2,157(sp)
    50ac:	00800374 	movhi	r2,13
    50b0:	10af7104 	addi	r2,r2,-16956
    50b4:	63000104 	addi	r12,r12,4
    50b8:	d8c02915 	stw	r3,164(sp)
    50bc:	d8803b15 	stw	r2,236(sp)
    50c0:	0039883a 	mov	fp,zero
    50c4:	8c400094 	ori	r17,r17,2
    50c8:	db002d15 	stw	r12,180(sp)
    50cc:	00800084 	movi	r2,2
    50d0:	04001e04 	movi	r16,120
    50d4:	9807883a 	mov	r3,r19
    50d8:	003fb506 	br	4fb0 <__alt_data_end+0xf8004fb0>
    50dc:	8c400214 	ori	r17,r17,8
    50e0:	1805883a 	mov	r2,r3
    50e4:	1c000007 	ldb	r16,0(r3)
    50e8:	003ddb06 	br	4858 <__alt_data_end+0xf8004858>
    50ec:	d8c02915 	stw	r3,164(sp)
    50f0:	d9802785 	stb	r6,158(sp)
    50f4:	8880080c 	andi	r2,r17,32
    50f8:	d8c02d17 	ldw	r3,180(sp)
    50fc:	103e871e 	bne	r2,zero,4b1c <__alt_data_end+0xf8004b1c>
    5100:	8880040c 	andi	r2,r17,16
    5104:	10027a1e 	bne	r2,zero,5af0 <___svfprintf_internal_r+0x13f0>
    5108:	8880100c 	andi	r2,r17,64
    510c:	10027826 	beq	r2,zero,5af0 <___svfprintf_internal_r+0x13f0>
    5110:	1cc0000f 	ldh	r19,0(r3)
    5114:	db002d17 	ldw	r12,180(sp)
    5118:	9839d7fa 	srai	fp,r19,31
    511c:	63000104 	addi	r12,r12,4
    5120:	db002d15 	stw	r12,180(sp)
    5124:	e005883a 	mov	r2,fp
    5128:	103e830e 	bge	r2,zero,4b38 <__alt_data_end+0xf8004b38>
    512c:	04e7c83a 	sub	r19,zero,r19
    5130:	9804c03a 	cmpne	r2,r19,zero
    5134:	0739c83a 	sub	fp,zero,fp
    5138:	e0b9c83a 	sub	fp,fp,r2
    513c:	05400b44 	movi	r21,45
    5140:	dd402785 	stb	r21,158(sp)
    5144:	da403215 	stw	r9,200(sp)
    5148:	00800044 	movi	r2,1
    514c:	9f06b03a 	or	r3,r19,fp
    5150:	003e7d06 	br	4b48 <__alt_data_end+0xf8004b48>
    5154:	8c401014 	ori	r17,r17,64
    5158:	1805883a 	mov	r2,r3
    515c:	1c000007 	ldb	r16,0(r3)
    5160:	003dbd06 	br	4858 <__alt_data_end+0xf8004858>
    5164:	1c000007 	ldb	r16,0(r3)
    5168:	81c37126 	beq	r16,r7,5f30 <___svfprintf_internal_r+0x1830>
    516c:	8c400414 	ori	r17,r17,16
    5170:	1805883a 	mov	r2,r3
    5174:	003db806 	br	4858 <__alt_data_end+0xf8004858>
    5178:	d8c02915 	stw	r3,164(sp)
    517c:	d9802785 	stb	r6,158(sp)
    5180:	8880080c 	andi	r2,r17,32
    5184:	1002f026 	beq	r2,zero,5d48 <___svfprintf_internal_r+0x1648>
    5188:	db002d17 	ldw	r12,180(sp)
    518c:	dac03017 	ldw	r11,192(sp)
    5190:	60800017 	ldw	r2,0(r12)
    5194:	5807d7fa 	srai	r3,r11,31
    5198:	63000104 	addi	r12,r12,4
    519c:	db002d15 	stw	r12,180(sp)
    51a0:	12c00015 	stw	r11,0(r2)
    51a4:	10c00115 	stw	r3,4(r2)
    51a8:	003d8106 	br	47b0 <__alt_data_end+0xf80047b0>
    51ac:	30803fcc 	andi	r2,r6,255
    51b0:	1080201c 	xori	r2,r2,128
    51b4:	10bfe004 	addi	r2,r2,-128
    51b8:	1002fd1e 	bne	r2,zero,5db0 <___svfprintf_internal_r+0x16b0>
    51bc:	1805883a 	mov	r2,r3
    51c0:	01800804 	movi	r6,32
    51c4:	1c000007 	ldb	r16,0(r3)
    51c8:	003da306 	br	4858 <__alt_data_end+0xf8004858>
    51cc:	03000374 	movhi	r12,13
    51d0:	632f6c04 	addi	r12,r12,-16976
    51d4:	d8c02915 	stw	r3,164(sp)
    51d8:	d9802785 	stb	r6,158(sp)
    51dc:	db003b15 	stw	r12,236(sp)
    51e0:	88c0080c 	andi	r3,r17,32
    51e4:	d8802d17 	ldw	r2,180(sp)
    51e8:	18005c26 	beq	r3,zero,535c <___svfprintf_internal_r+0xc5c>
    51ec:	dac02d17 	ldw	r11,180(sp)
    51f0:	14c00017 	ldw	r19,0(r2)
    51f4:	17000117 	ldw	fp,4(r2)
    51f8:	5ac00204 	addi	r11,r11,8
    51fc:	dac02d15 	stw	r11,180(sp)
    5200:	8880004c 	andi	r2,r17,1
    5204:	10022f26 	beq	r2,zero,5ac4 <___svfprintf_internal_r+0x13c4>
    5208:	9f06b03a 	or	r3,r19,fp
    520c:	1802eb26 	beq	r3,zero,5dbc <___svfprintf_internal_r+0x16bc>
    5210:	00800c04 	movi	r2,48
    5214:	d8802705 	stb	r2,156(sp)
    5218:	dc002745 	stb	r16,157(sp)
    521c:	8c400094 	ori	r17,r17,2
    5220:	00800084 	movi	r2,2
    5224:	003f6206 	br	4fb0 <__alt_data_end+0xf8004fb0>
    5228:	dac02d17 	ldw	r11,180(sp)
    522c:	db002d17 	ldw	r12,180(sp)
    5230:	d8c02915 	stw	r3,164(sp)
    5234:	5ac00017 	ldw	r11,0(r11)
    5238:	d8002785 	stb	zero,158(sp)
    523c:	64c00104 	addi	r19,r12,4
    5240:	dac03115 	stw	r11,196(sp)
    5244:	58042e26 	beq	r11,zero,6300 <___svfprintf_internal_r+0x1c00>
    5248:	d9003117 	ldw	r4,196(sp)
    524c:	4803c416 	blt	r9,zero,6160 <___svfprintf_internal_r+0x1a60>
    5250:	480d883a 	mov	r6,r9
    5254:	000b883a 	mov	r5,zero
    5258:	da004015 	stw	r8,256(sp)
    525c:	da403f15 	stw	r9,252(sp)
    5260:	00084ac0 	call	84ac <memchr>
    5264:	da004017 	ldw	r8,256(sp)
    5268:	da403f17 	ldw	r9,252(sp)
    526c:	10048a26 	beq	r2,zero,6498 <___svfprintf_internal_r+0x1d98>
    5270:	d8c03117 	ldw	r3,196(sp)
    5274:	10e5c83a 	sub	r18,r2,r3
    5278:	4c80010e 	bge	r9,r18,5280 <___svfprintf_internal_r+0xb80>
    527c:	4825883a 	mov	r18,r9
    5280:	9005883a 	mov	r2,r18
    5284:	9003bb16 	blt	r18,zero,6174 <___svfprintf_internal_r+0x1a74>
    5288:	dd402783 	ldbu	r21,158(sp)
    528c:	d8802a15 	stw	r2,168(sp)
    5290:	dcc02d15 	stw	r19,180(sp)
    5294:	d8003215 	stw	zero,200(sp)
    5298:	d8003415 	stw	zero,208(sp)
    529c:	003e5106 	br	4be4 <__alt_data_end+0xf8004be4>
    52a0:	8c400814 	ori	r17,r17,32
    52a4:	1805883a 	mov	r2,r3
    52a8:	1c000007 	ldb	r16,0(r3)
    52ac:	003d6a06 	br	4858 <__alt_data_end+0xf8004858>
    52b0:	db002d17 	ldw	r12,180(sp)
    52b4:	d8c02915 	stw	r3,164(sp)
    52b8:	dac01404 	addi	r11,sp,80
    52bc:	60800017 	ldw	r2,0(r12)
    52c0:	00c00044 	movi	r3,1
    52c4:	63000104 	addi	r12,r12,4
    52c8:	d8801405 	stb	r2,80(sp)
    52cc:	d8c02a15 	stw	r3,168(sp)
    52d0:	d8002785 	stb	zero,158(sp)
    52d4:	db002d15 	stw	r12,180(sp)
    52d8:	1825883a 	mov	r18,r3
    52dc:	d8003215 	stw	zero,200(sp)
    52e0:	d8003415 	stw	zero,208(sp)
    52e4:	dac03115 	stw	r11,196(sp)
    52e8:	0005883a 	mov	r2,zero
    52ec:	003e4406 	br	4c00 <__alt_data_end+0xf8004c00>
    52f0:	dac02d17 	ldw	r11,180(sp)
    52f4:	db002d17 	ldw	r12,180(sp)
    52f8:	5ac00017 	ldw	r11,0(r11)
    52fc:	dac02e15 	stw	r11,184(sp)
    5300:	62c00104 	addi	r11,r12,4
    5304:	db002e17 	ldw	r12,184(sp)
    5308:	60030316 	blt	r12,zero,5f18 <___svfprintf_internal_r+0x1818>
    530c:	dac02d15 	stw	r11,180(sp)
    5310:	1805883a 	mov	r2,r3
    5314:	1c000007 	ldb	r16,0(r3)
    5318:	003d4f06 	br	4858 <__alt_data_end+0xf8004858>
    531c:	1805883a 	mov	r2,r3
    5320:	01800ac4 	movi	r6,43
    5324:	1c000007 	ldb	r16,0(r3)
    5328:	003d4b06 	br	4858 <__alt_data_end+0xf8004858>
    532c:	8c400054 	ori	r17,r17,1
    5330:	1805883a 	mov	r2,r3
    5334:	1c000007 	ldb	r16,0(r3)
    5338:	003d4706 	br	4858 <__alt_data_end+0xf8004858>
    533c:	00800374 	movhi	r2,13
    5340:	10af7104 	addi	r2,r2,-16956
    5344:	d8c02915 	stw	r3,164(sp)
    5348:	d8803b15 	stw	r2,236(sp)
    534c:	d9802785 	stb	r6,158(sp)
    5350:	88c0080c 	andi	r3,r17,32
    5354:	d8802d17 	ldw	r2,180(sp)
    5358:	183fa41e 	bne	r3,zero,51ec <__alt_data_end+0xf80051ec>
    535c:	88c0040c 	andi	r3,r17,16
    5360:	18028b26 	beq	r3,zero,5d90 <___svfprintf_internal_r+0x1690>
    5364:	db002d17 	ldw	r12,180(sp)
    5368:	14c00017 	ldw	r19,0(r2)
    536c:	0039883a 	mov	fp,zero
    5370:	63000104 	addi	r12,r12,4
    5374:	db002d15 	stw	r12,180(sp)
    5378:	003fa106 	br	5200 <__alt_data_end+0xf8005200>
    537c:	d8c02915 	stw	r3,164(sp)
    5380:	8880080c 	andi	r2,r17,32
    5384:	103f121e 	bne	r2,zero,4fd0 <__alt_data_end+0xf8004fd0>
    5388:	8880040c 	andi	r2,r17,16
    538c:	1001df1e 	bne	r2,zero,5b0c <___svfprintf_internal_r+0x140c>
    5390:	8880100c 	andi	r2,r17,64
    5394:	1001dd26 	beq	r2,zero,5b0c <___svfprintf_internal_r+0x140c>
    5398:	dac02d17 	ldw	r11,180(sp)
    539c:	0039883a 	mov	fp,zero
    53a0:	00800044 	movi	r2,1
    53a4:	5cc0000b 	ldhu	r19,0(r11)
    53a8:	5ac00104 	addi	r11,r11,4
    53ac:	dac02d15 	stw	r11,180(sp)
    53b0:	9807883a 	mov	r3,r19
    53b4:	003efe06 	br	4fb0 <__alt_data_end+0xf8004fb0>
    53b8:	d8c02915 	stw	r3,164(sp)
    53bc:	8880080c 	andi	r2,r17,32
    53c0:	103ef41e 	bne	r2,zero,4f94 <__alt_data_end+0xf8004f94>
    53c4:	8880040c 	andi	r2,r17,16
    53c8:	1001c11e 	bne	r2,zero,5ad0 <___svfprintf_internal_r+0x13d0>
    53cc:	8880100c 	andi	r2,r17,64
    53d0:	1001bf26 	beq	r2,zero,5ad0 <___svfprintf_internal_r+0x13d0>
    53d4:	db002d17 	ldw	r12,180(sp)
    53d8:	0039883a 	mov	fp,zero
    53dc:	0005883a 	mov	r2,zero
    53e0:	64c0000b 	ldhu	r19,0(r12)
    53e4:	63000104 	addi	r12,r12,4
    53e8:	db002d15 	stw	r12,180(sp)
    53ec:	9807883a 	mov	r3,r19
    53f0:	003eef06 	br	4fb0 <__alt_data_end+0xf8004fb0>
    53f4:	d8c02915 	stw	r3,164(sp)
    53f8:	d9802785 	stb	r6,158(sp)
    53fc:	803d8226 	beq	r16,zero,4a08 <__alt_data_end+0xf8004a08>
    5400:	02c00044 	movi	r11,1
    5404:	db001404 	addi	r12,sp,80
    5408:	dac02a15 	stw	r11,168(sp)
    540c:	dc001405 	stb	r16,80(sp)
    5410:	d8002785 	stb	zero,158(sp)
    5414:	5825883a 	mov	r18,r11
    5418:	d8003215 	stw	zero,200(sp)
    541c:	d8003415 	stw	zero,208(sp)
    5420:	db003115 	stw	r12,196(sp)
    5424:	0005883a 	mov	r2,zero
    5428:	003df506 	br	4c00 <__alt_data_end+0xf8004c00>
    542c:	d8c02017 	ldw	r3,128(sp)
    5430:	003e3606 	br	4d0c <__alt_data_end+0xf8004d0c>
    5434:	10803fcc 	andi	r2,r2,255
    5438:	00c00044 	movi	r3,1
    543c:	10fdca1e 	bne	r2,r3,4b68 <__alt_data_end+0xf8004b68>
    5440:	e000021e 	bne	fp,zero,544c <___svfprintf_internal_r+0xd4c>
    5444:	00800244 	movi	r2,9
    5448:	14c01f2e 	bgeu	r2,r19,54c8 <___svfprintf_internal_r+0xdc8>
    544c:	dc002a15 	stw	r16,168(sp)
    5450:	dc402b15 	stw	r17,172(sp)
    5454:	9821883a 	mov	r16,r19
    5458:	e023883a 	mov	r17,fp
    545c:	b025883a 	mov	r18,r22
    5460:	4027883a 	mov	r19,r8
    5464:	4839883a 	mov	fp,r9
    5468:	8009883a 	mov	r4,r16
    546c:	880b883a 	mov	r5,r17
    5470:	01800284 	movi	r6,10
    5474:	000f883a 	mov	r7,zero
    5478:	000b8440 	call	b844 <__umoddi3>
    547c:	10800c04 	addi	r2,r2,48
    5480:	94bfffc4 	addi	r18,r18,-1
    5484:	8009883a 	mov	r4,r16
    5488:	880b883a 	mov	r5,r17
    548c:	01800284 	movi	r6,10
    5490:	000f883a 	mov	r7,zero
    5494:	90800005 	stb	r2,0(r18)
    5498:	000b2840 	call	b284 <__udivdi3>
    549c:	1021883a 	mov	r16,r2
    54a0:	10c4b03a 	or	r2,r2,r3
    54a4:	1823883a 	mov	r17,r3
    54a8:	103fef1e 	bne	r2,zero,5468 <__alt_data_end+0xf8005468>
    54ac:	dc803115 	stw	r18,196(sp)
    54b0:	dc002a17 	ldw	r16,168(sp)
    54b4:	9811883a 	mov	r8,r19
    54b8:	dc402b17 	ldw	r17,172(sp)
    54bc:	e013883a 	mov	r9,fp
    54c0:	b4a5c83a 	sub	r18,r22,r18
    54c4:	003dc206 	br	4bd0 <__alt_data_end+0xf8004bd0>
    54c8:	9cc00c04 	addi	r19,r19,48
    54cc:	db001dc4 	addi	r12,sp,119
    54d0:	dcc01dc5 	stb	r19,119(sp)
    54d4:	dc803d17 	ldw	r18,244(sp)
    54d8:	db003115 	stw	r12,196(sp)
    54dc:	003dbc06 	br	4bd0 <__alt_data_end+0xf8004bd0>
    54e0:	00801944 	movi	r2,101
    54e4:	14008d0e 	bge	r2,r16,571c <___svfprintf_internal_r+0x101c>
    54e8:	d9003717 	ldw	r4,220(sp)
    54ec:	d9403817 	ldw	r5,224(sp)
    54f0:	000d883a 	mov	r6,zero
    54f4:	000f883a 	mov	r7,zero
    54f8:	d8c03e15 	stw	r3,248(sp)
    54fc:	da004015 	stw	r8,256(sp)
    5500:	000cf3c0 	call	cf3c <__eqdf2>
    5504:	d8c03e17 	ldw	r3,248(sp)
    5508:	da004017 	ldw	r8,256(sp)
    550c:	1000fd1e 	bne	r2,zero,5904 <___svfprintf_internal_r+0x1204>
    5510:	d8801f17 	ldw	r2,124(sp)
    5514:	01000374 	movhi	r4,13
    5518:	212f7804 	addi	r4,r4,-16928
    551c:	18c00044 	addi	r3,r3,1
    5520:	10800044 	addi	r2,r2,1
    5524:	41000015 	stw	r4,0(r8)
    5528:	01000044 	movi	r4,1
    552c:	41000115 	stw	r4,4(r8)
    5530:	d8c02015 	stw	r3,128(sp)
    5534:	d8801f15 	stw	r2,124(sp)
    5538:	010001c4 	movi	r4,7
    553c:	20823316 	blt	r4,r2,5e0c <___svfprintf_internal_r+0x170c>
    5540:	42000204 	addi	r8,r8,8
    5544:	d8802617 	ldw	r2,152(sp)
    5548:	dac03317 	ldw	r11,204(sp)
    554c:	12c00216 	blt	r2,r11,5558 <___svfprintf_internal_r+0xe58>
    5550:	8880004c 	andi	r2,r17,1
    5554:	103e4c26 	beq	r2,zero,4e88 <__alt_data_end+0xf8004e88>
    5558:	db003917 	ldw	r12,228(sp)
    555c:	d8801f17 	ldw	r2,124(sp)
    5560:	dac03517 	ldw	r11,212(sp)
    5564:	1b07883a 	add	r3,r3,r12
    5568:	10800044 	addi	r2,r2,1
    556c:	42c00015 	stw	r11,0(r8)
    5570:	43000115 	stw	r12,4(r8)
    5574:	d8c02015 	stw	r3,128(sp)
    5578:	d8801f15 	stw	r2,124(sp)
    557c:	010001c4 	movi	r4,7
    5580:	20826f16 	blt	r4,r2,5f40 <___svfprintf_internal_r+0x1840>
    5584:	42000204 	addi	r8,r8,8
    5588:	db003317 	ldw	r12,204(sp)
    558c:	643fffc4 	addi	r16,r12,-1
    5590:	043e3d0e 	bge	zero,r16,4e88 <__alt_data_end+0xf8004e88>
    5594:	04800404 	movi	r18,16
    5598:	d8801f17 	ldw	r2,124(sp)
    559c:	94009a0e 	bge	r18,r16,5808 <___svfprintf_internal_r+0x1108>
    55a0:	01400374 	movhi	r5,13
    55a4:	296f7884 	addi	r5,r5,-16926
    55a8:	d9402b15 	stw	r5,172(sp)
    55ac:	054001c4 	movi	r21,7
    55b0:	dcc02f17 	ldw	r19,188(sp)
    55b4:	00000306 	br	55c4 <___svfprintf_internal_r+0xec4>
    55b8:	42000204 	addi	r8,r8,8
    55bc:	843ffc04 	addi	r16,r16,-16
    55c0:	9400940e 	bge	r18,r16,5814 <___svfprintf_internal_r+0x1114>
    55c4:	18c00404 	addi	r3,r3,16
    55c8:	10800044 	addi	r2,r2,1
    55cc:	45000015 	stw	r20,0(r8)
    55d0:	44800115 	stw	r18,4(r8)
    55d4:	d8c02015 	stw	r3,128(sp)
    55d8:	d8801f15 	stw	r2,124(sp)
    55dc:	a8bff60e 	bge	r21,r2,55b8 <__alt_data_end+0xf80055b8>
    55e0:	9809883a 	mov	r4,r19
    55e4:	b80b883a 	mov	r5,r23
    55e8:	b00d883a 	mov	r6,r22
    55ec:	00097700 	call	9770 <__ssprint_r>
    55f0:	103d0b1e 	bne	r2,zero,4a20 <__alt_data_end+0xf8004a20>
    55f4:	d8c02017 	ldw	r3,128(sp)
    55f8:	d8801f17 	ldw	r2,124(sp)
    55fc:	da000404 	addi	r8,sp,16
    5600:	003fee06 	br	55bc <__alt_data_end+0xf80055bc>
    5604:	dac02e17 	ldw	r11,184(sp)
    5608:	db002a17 	ldw	r12,168(sp)
    560c:	5b2bc83a 	sub	r21,r11,r12
    5610:	057ddc0e 	bge	zero,r21,4d84 <__alt_data_end+0xf8004d84>
    5614:	07000404 	movi	fp,16
    5618:	d8801f17 	ldw	r2,124(sp)
    561c:	e5435d0e 	bge	fp,r21,6394 <___svfprintf_internal_r+0x1c94>
    5620:	01400374 	movhi	r5,13
    5624:	a809883a 	mov	r4,r21
    5628:	296f7884 	addi	r5,r5,-16926
    562c:	dc002c15 	stw	r16,176(sp)
    5630:	902b883a 	mov	r21,r18
    5634:	d9402b15 	stw	r5,172(sp)
    5638:	8825883a 	mov	r18,r17
    563c:	04c001c4 	movi	r19,7
    5640:	dc002f17 	ldw	r16,188(sp)
    5644:	2023883a 	mov	r17,r4
    5648:	00000306 	br	5658 <___svfprintf_internal_r+0xf58>
    564c:	8c7ffc04 	addi	r17,r17,-16
    5650:	42000204 	addi	r8,r8,8
    5654:	e440110e 	bge	fp,r17,569c <___svfprintf_internal_r+0xf9c>
    5658:	18c00404 	addi	r3,r3,16
    565c:	10800044 	addi	r2,r2,1
    5660:	45000015 	stw	r20,0(r8)
    5664:	47000115 	stw	fp,4(r8)
    5668:	d8c02015 	stw	r3,128(sp)
    566c:	d8801f15 	stw	r2,124(sp)
    5670:	98bff60e 	bge	r19,r2,564c <__alt_data_end+0xf800564c>
    5674:	8009883a 	mov	r4,r16
    5678:	b80b883a 	mov	r5,r23
    567c:	b00d883a 	mov	r6,r22
    5680:	00097700 	call	9770 <__ssprint_r>
    5684:	103ce61e 	bne	r2,zero,4a20 <__alt_data_end+0xf8004a20>
    5688:	8c7ffc04 	addi	r17,r17,-16
    568c:	d8c02017 	ldw	r3,128(sp)
    5690:	d8801f17 	ldw	r2,124(sp)
    5694:	da000404 	addi	r8,sp,16
    5698:	e47fef16 	blt	fp,r17,5658 <__alt_data_end+0xf8005658>
    569c:	dc002c17 	ldw	r16,176(sp)
    56a0:	8809883a 	mov	r4,r17
    56a4:	9023883a 	mov	r17,r18
    56a8:	a825883a 	mov	r18,r21
    56ac:	202b883a 	mov	r21,r4
    56b0:	dac02b17 	ldw	r11,172(sp)
    56b4:	1d47883a 	add	r3,r3,r21
    56b8:	10800044 	addi	r2,r2,1
    56bc:	42c00015 	stw	r11,0(r8)
    56c0:	45400115 	stw	r21,4(r8)
    56c4:	d8c02015 	stw	r3,128(sp)
    56c8:	d8801f15 	stw	r2,124(sp)
    56cc:	010001c4 	movi	r4,7
    56d0:	20818016 	blt	r4,r2,5cd4 <___svfprintf_internal_r+0x15d4>
    56d4:	42000204 	addi	r8,r8,8
    56d8:	003daa06 	br	4d84 <__alt_data_end+0xf8004d84>
    56dc:	d9403b17 	ldw	r5,236(sp)
    56e0:	b007883a 	mov	r3,r22
    56e4:	988003cc 	andi	r2,r19,15
    56e8:	e008973a 	slli	r4,fp,28
    56ec:	2885883a 	add	r2,r5,r2
    56f0:	9826d13a 	srli	r19,r19,4
    56f4:	10800003 	ldbu	r2,0(r2)
    56f8:	e038d13a 	srli	fp,fp,4
    56fc:	18ffffc4 	addi	r3,r3,-1
    5700:	24e6b03a 	or	r19,r4,r19
    5704:	18800005 	stb	r2,0(r3)
    5708:	9f04b03a 	or	r2,r19,fp
    570c:	103ff51e 	bne	r2,zero,56e4 <__alt_data_end+0xf80056e4>
    5710:	d8c03115 	stw	r3,196(sp)
    5714:	b0e5c83a 	sub	r18,r22,r3
    5718:	003d2d06 	br	4bd0 <__alt_data_end+0xf8004bd0>
    571c:	db003317 	ldw	r12,204(sp)
    5720:	00800044 	movi	r2,1
    5724:	18c00044 	addi	r3,r3,1
    5728:	13014b0e 	bge	r2,r12,5c58 <___svfprintf_internal_r+0x1558>
    572c:	dc001f17 	ldw	r16,124(sp)
    5730:	dac03117 	ldw	r11,196(sp)
    5734:	00800044 	movi	r2,1
    5738:	84000044 	addi	r16,r16,1
    573c:	40800115 	stw	r2,4(r8)
    5740:	42c00015 	stw	r11,0(r8)
    5744:	d8c02015 	stw	r3,128(sp)
    5748:	dc001f15 	stw	r16,124(sp)
    574c:	008001c4 	movi	r2,7
    5750:	14014e16 	blt	r2,r16,5c8c <___svfprintf_internal_r+0x158c>
    5754:	42000204 	addi	r8,r8,8
    5758:	db003917 	ldw	r12,228(sp)
    575c:	dac03517 	ldw	r11,212(sp)
    5760:	84000044 	addi	r16,r16,1
    5764:	1b07883a 	add	r3,r3,r12
    5768:	42c00015 	stw	r11,0(r8)
    576c:	43000115 	stw	r12,4(r8)
    5770:	d8c02015 	stw	r3,128(sp)
    5774:	dc001f15 	stw	r16,124(sp)
    5778:	008001c4 	movi	r2,7
    577c:	14014c16 	blt	r2,r16,5cb0 <___svfprintf_internal_r+0x15b0>
    5780:	44800204 	addi	r18,r8,8
    5784:	d9003717 	ldw	r4,220(sp)
    5788:	d9403817 	ldw	r5,224(sp)
    578c:	000d883a 	mov	r6,zero
    5790:	000f883a 	mov	r7,zero
    5794:	d8c03e15 	stw	r3,248(sp)
    5798:	000cf3c0 	call	cf3c <__eqdf2>
    579c:	d8c03e17 	ldw	r3,248(sp)
    57a0:	db003317 	ldw	r12,204(sp)
    57a4:	10009526 	beq	r2,zero,59fc <___svfprintf_internal_r+0x12fc>
    57a8:	dac03117 	ldw	r11,196(sp)
    57ac:	60bfffc4 	addi	r2,r12,-1
    57b0:	1887883a 	add	r3,r3,r2
    57b4:	59000044 	addi	r4,r11,1
    57b8:	84000044 	addi	r16,r16,1
    57bc:	90800115 	stw	r2,4(r18)
    57c0:	91000015 	stw	r4,0(r18)
    57c4:	d8c02015 	stw	r3,128(sp)
    57c8:	dc001f15 	stw	r16,124(sp)
    57cc:	008001c4 	movi	r2,7
    57d0:	1400b316 	blt	r2,r16,5aa0 <___svfprintf_internal_r+0x13a0>
    57d4:	94800204 	addi	r18,r18,8
    57d8:	dac03a17 	ldw	r11,232(sp)
    57dc:	dd4022c4 	addi	r21,sp,139
    57e0:	84000044 	addi	r16,r16,1
    57e4:	58c7883a 	add	r3,r11,r3
    57e8:	95400015 	stw	r21,0(r18)
    57ec:	92c00115 	stw	r11,4(r18)
    57f0:	d8c02015 	stw	r3,128(sp)
    57f4:	dc001f15 	stw	r16,124(sp)
    57f8:	008001c4 	movi	r2,7
    57fc:	14000e16 	blt	r2,r16,5838 <___svfprintf_internal_r+0x1138>
    5800:	92000204 	addi	r8,r18,8
    5804:	003da006 	br	4e88 <__alt_data_end+0xf8004e88>
    5808:	01000374 	movhi	r4,13
    580c:	212f7884 	addi	r4,r4,-16926
    5810:	d9002b15 	stw	r4,172(sp)
    5814:	dac02b17 	ldw	r11,172(sp)
    5818:	1c07883a 	add	r3,r3,r16
    581c:	44000115 	stw	r16,4(r8)
    5820:	42c00015 	stw	r11,0(r8)
    5824:	10800044 	addi	r2,r2,1
    5828:	d8c02015 	stw	r3,128(sp)
    582c:	d8801f15 	stw	r2,124(sp)
    5830:	010001c4 	movi	r4,7
    5834:	20bd930e 	bge	r4,r2,4e84 <__alt_data_end+0xf8004e84>
    5838:	d9002f17 	ldw	r4,188(sp)
    583c:	b80b883a 	mov	r5,r23
    5840:	b00d883a 	mov	r6,r22
    5844:	00097700 	call	9770 <__ssprint_r>
    5848:	103c751e 	bne	r2,zero,4a20 <__alt_data_end+0xf8004a20>
    584c:	d8c02017 	ldw	r3,128(sp)
    5850:	da000404 	addi	r8,sp,16
    5854:	003d8c06 	br	4e88 <__alt_data_end+0xf8004e88>
    5858:	d9002f17 	ldw	r4,188(sp)
    585c:	b80b883a 	mov	r5,r23
    5860:	b00d883a 	mov	r6,r22
    5864:	00097700 	call	9770 <__ssprint_r>
    5868:	103dc326 	beq	r2,zero,4f78 <__alt_data_end+0xf8004f78>
    586c:	003c6c06 	br	4a20 <__alt_data_end+0xf8004a20>
    5870:	10803fcc 	andi	r2,r2,255
    5874:	1000201e 	bne	r2,zero,58f8 <___svfprintf_internal_r+0x11f8>
    5878:	8880004c 	andi	r2,r17,1
    587c:	10001e26 	beq	r2,zero,58f8 <___svfprintf_internal_r+0x11f8>
    5880:	00800c04 	movi	r2,48
    5884:	d8c01dc4 	addi	r3,sp,119
    5888:	d8801dc5 	stb	r2,119(sp)
    588c:	dc803d17 	ldw	r18,244(sp)
    5890:	d8c03115 	stw	r3,196(sp)
    5894:	003cce06 	br	4bd0 <__alt_data_end+0xf8004bd0>
    5898:	d9002f17 	ldw	r4,188(sp)
    589c:	b80b883a 	mov	r5,r23
    58a0:	b00d883a 	mov	r6,r22
    58a4:	00097700 	call	9770 <__ssprint_r>
    58a8:	103c5d1e 	bne	r2,zero,4a20 <__alt_data_end+0xf8004a20>
    58ac:	d8c02017 	ldw	r3,128(sp)
    58b0:	da000404 	addi	r8,sp,16
    58b4:	003d6706 	br	4e54 <__alt_data_end+0xf8004e54>
    58b8:	d9002f17 	ldw	r4,188(sp)
    58bc:	b80b883a 	mov	r5,r23
    58c0:	b00d883a 	mov	r6,r22
    58c4:	00097700 	call	9770 <__ssprint_r>
    58c8:	103c551e 	bne	r2,zero,4a20 <__alt_data_end+0xf8004a20>
    58cc:	d8c02017 	ldw	r3,128(sp)
    58d0:	da000404 	addi	r8,sp,16
    58d4:	003d1a06 	br	4d40 <__alt_data_end+0xf8004d40>
    58d8:	d9002f17 	ldw	r4,188(sp)
    58dc:	b80b883a 	mov	r5,r23
    58e0:	b00d883a 	mov	r6,r22
    58e4:	00097700 	call	9770 <__ssprint_r>
    58e8:	103c4d1e 	bne	r2,zero,4a20 <__alt_data_end+0xf8004a20>
    58ec:	d8c02017 	ldw	r3,128(sp)
    58f0:	da000404 	addi	r8,sp,16
    58f4:	003d2006 	br	4d78 <__alt_data_end+0xf8004d78>
    58f8:	0025883a 	mov	r18,zero
    58fc:	dd803115 	stw	r22,196(sp)
    5900:	003cb306 	br	4bd0 <__alt_data_end+0xf8004bd0>
    5904:	dc002617 	ldw	r16,152(sp)
    5908:	0401480e 	bge	zero,r16,5e2c <___svfprintf_internal_r+0x172c>
    590c:	db003117 	ldw	r12,196(sp)
    5910:	dac03317 	ldw	r11,204(sp)
    5914:	62e1883a 	add	r16,r12,r11
    5918:	db003417 	ldw	r12,208(sp)
    591c:	5825883a 	mov	r18,r11
    5920:	62c0010e 	bge	r12,r11,5928 <___svfprintf_internal_r+0x1228>
    5924:	6025883a 	mov	r18,r12
    5928:	04800b0e 	bge	zero,r18,5958 <___svfprintf_internal_r+0x1258>
    592c:	d8801f17 	ldw	r2,124(sp)
    5930:	dac03117 	ldw	r11,196(sp)
    5934:	1c87883a 	add	r3,r3,r18
    5938:	10800044 	addi	r2,r2,1
    593c:	42c00015 	stw	r11,0(r8)
    5940:	44800115 	stw	r18,4(r8)
    5944:	d8c02015 	stw	r3,128(sp)
    5948:	d8801f15 	stw	r2,124(sp)
    594c:	010001c4 	movi	r4,7
    5950:	20823f16 	blt	r4,r2,6250 <___svfprintf_internal_r+0x1b50>
    5954:	42000204 	addi	r8,r8,8
    5958:	90023b16 	blt	r18,zero,6248 <___svfprintf_internal_r+0x1b48>
    595c:	db003417 	ldw	r12,208(sp)
    5960:	64a5c83a 	sub	r18,r12,r18
    5964:	0480780e 	bge	zero,r18,5b48 <___svfprintf_internal_r+0x1448>
    5968:	05400404 	movi	r21,16
    596c:	d8801f17 	ldw	r2,124(sp)
    5970:	ac81140e 	bge	r21,r18,5dc4 <___svfprintf_internal_r+0x16c4>
    5974:	01400374 	movhi	r5,13
    5978:	296f7884 	addi	r5,r5,-16926
    597c:	d9402b15 	stw	r5,172(sp)
    5980:	070001c4 	movi	fp,7
    5984:	dcc02f17 	ldw	r19,188(sp)
    5988:	00000306 	br	5998 <___svfprintf_internal_r+0x1298>
    598c:	42000204 	addi	r8,r8,8
    5990:	94bffc04 	addi	r18,r18,-16
    5994:	ac810e0e 	bge	r21,r18,5dd0 <___svfprintf_internal_r+0x16d0>
    5998:	18c00404 	addi	r3,r3,16
    599c:	10800044 	addi	r2,r2,1
    59a0:	45000015 	stw	r20,0(r8)
    59a4:	45400115 	stw	r21,4(r8)
    59a8:	d8c02015 	stw	r3,128(sp)
    59ac:	d8801f15 	stw	r2,124(sp)
    59b0:	e0bff60e 	bge	fp,r2,598c <__alt_data_end+0xf800598c>
    59b4:	9809883a 	mov	r4,r19
    59b8:	b80b883a 	mov	r5,r23
    59bc:	b00d883a 	mov	r6,r22
    59c0:	00097700 	call	9770 <__ssprint_r>
    59c4:	103c161e 	bne	r2,zero,4a20 <__alt_data_end+0xf8004a20>
    59c8:	d8c02017 	ldw	r3,128(sp)
    59cc:	d8801f17 	ldw	r2,124(sp)
    59d0:	da000404 	addi	r8,sp,16
    59d4:	003fee06 	br	5990 <__alt_data_end+0xf8005990>
    59d8:	d9002f17 	ldw	r4,188(sp)
    59dc:	b80b883a 	mov	r5,r23
    59e0:	b00d883a 	mov	r6,r22
    59e4:	00097700 	call	9770 <__ssprint_r>
    59e8:	103c0d1e 	bne	r2,zero,4a20 <__alt_data_end+0xf8004a20>
    59ec:	d8c02017 	ldw	r3,128(sp)
    59f0:	d8802787 	ldb	r2,158(sp)
    59f4:	da000404 	addi	r8,sp,16
    59f8:	003cc406 	br	4d0c <__alt_data_end+0xf8004d0c>
    59fc:	657fffc4 	addi	r21,r12,-1
    5a00:	057f750e 	bge	zero,r21,57d8 <__alt_data_end+0xf80057d8>
    5a04:	07000404 	movi	fp,16
    5a08:	e542ef0e 	bge	fp,r21,65c8 <___svfprintf_internal_r+0x1ec8>
    5a0c:	01000374 	movhi	r4,13
    5a10:	212f7884 	addi	r4,r4,-16926
    5a14:	d9002b15 	stw	r4,172(sp)
    5a18:	01c001c4 	movi	r7,7
    5a1c:	dcc02f17 	ldw	r19,188(sp)
    5a20:	00000306 	br	5a30 <___svfprintf_internal_r+0x1330>
    5a24:	ad7ffc04 	addi	r21,r21,-16
    5a28:	94800204 	addi	r18,r18,8
    5a2c:	e540130e 	bge	fp,r21,5a7c <___svfprintf_internal_r+0x137c>
    5a30:	18c00404 	addi	r3,r3,16
    5a34:	84000044 	addi	r16,r16,1
    5a38:	95000015 	stw	r20,0(r18)
    5a3c:	97000115 	stw	fp,4(r18)
    5a40:	d8c02015 	stw	r3,128(sp)
    5a44:	dc001f15 	stw	r16,124(sp)
    5a48:	3c3ff60e 	bge	r7,r16,5a24 <__alt_data_end+0xf8005a24>
    5a4c:	9809883a 	mov	r4,r19
    5a50:	b80b883a 	mov	r5,r23
    5a54:	b00d883a 	mov	r6,r22
    5a58:	d9c03e15 	stw	r7,248(sp)
    5a5c:	00097700 	call	9770 <__ssprint_r>
    5a60:	d9c03e17 	ldw	r7,248(sp)
    5a64:	103bee1e 	bne	r2,zero,4a20 <__alt_data_end+0xf8004a20>
    5a68:	ad7ffc04 	addi	r21,r21,-16
    5a6c:	d8c02017 	ldw	r3,128(sp)
    5a70:	dc001f17 	ldw	r16,124(sp)
    5a74:	dc800404 	addi	r18,sp,16
    5a78:	e57fed16 	blt	fp,r21,5a30 <__alt_data_end+0xf8005a30>
    5a7c:	dac02b17 	ldw	r11,172(sp)
    5a80:	1d47883a 	add	r3,r3,r21
    5a84:	84000044 	addi	r16,r16,1
    5a88:	92c00015 	stw	r11,0(r18)
    5a8c:	95400115 	stw	r21,4(r18)
    5a90:	d8c02015 	stw	r3,128(sp)
    5a94:	dc001f15 	stw	r16,124(sp)
    5a98:	008001c4 	movi	r2,7
    5a9c:	143f4d0e 	bge	r2,r16,57d4 <__alt_data_end+0xf80057d4>
    5aa0:	d9002f17 	ldw	r4,188(sp)
    5aa4:	b80b883a 	mov	r5,r23
    5aa8:	b00d883a 	mov	r6,r22
    5aac:	00097700 	call	9770 <__ssprint_r>
    5ab0:	103bdb1e 	bne	r2,zero,4a20 <__alt_data_end+0xf8004a20>
    5ab4:	d8c02017 	ldw	r3,128(sp)
    5ab8:	dc001f17 	ldw	r16,124(sp)
    5abc:	dc800404 	addi	r18,sp,16
    5ac0:	003f4506 	br	57d8 <__alt_data_end+0xf80057d8>
    5ac4:	00800084 	movi	r2,2
    5ac8:	9f06b03a 	or	r3,r19,fp
    5acc:	003d3806 	br	4fb0 <__alt_data_end+0xf8004fb0>
    5ad0:	dac02d17 	ldw	r11,180(sp)
    5ad4:	0039883a 	mov	fp,zero
    5ad8:	0005883a 	mov	r2,zero
    5adc:	5cc00017 	ldw	r19,0(r11)
    5ae0:	5ac00104 	addi	r11,r11,4
    5ae4:	dac02d15 	stw	r11,180(sp)
    5ae8:	9807883a 	mov	r3,r19
    5aec:	003d3006 	br	4fb0 <__alt_data_end+0xf8004fb0>
    5af0:	1cc00017 	ldw	r19,0(r3)
    5af4:	dac02d17 	ldw	r11,180(sp)
    5af8:	9839d7fa 	srai	fp,r19,31
    5afc:	5ac00104 	addi	r11,r11,4
    5b00:	dac02d15 	stw	r11,180(sp)
    5b04:	e005883a 	mov	r2,fp
    5b08:	003c0a06 	br	4b34 <__alt_data_end+0xf8004b34>
    5b0c:	db002d17 	ldw	r12,180(sp)
    5b10:	0039883a 	mov	fp,zero
    5b14:	00800044 	movi	r2,1
    5b18:	64c00017 	ldw	r19,0(r12)
    5b1c:	63000104 	addi	r12,r12,4
    5b20:	db002d15 	stw	r12,180(sp)
    5b24:	9807883a 	mov	r3,r19
    5b28:	003d2106 	br	4fb0 <__alt_data_end+0xf8004fb0>
    5b2c:	d9002f17 	ldw	r4,188(sp)
    5b30:	b80b883a 	mov	r5,r23
    5b34:	b00d883a 	mov	r6,r22
    5b38:	00097700 	call	9770 <__ssprint_r>
    5b3c:	103bb81e 	bne	r2,zero,4a20 <__alt_data_end+0xf8004a20>
    5b40:	d8c02017 	ldw	r3,128(sp)
    5b44:	da000404 	addi	r8,sp,16
    5b48:	db003117 	ldw	r12,196(sp)
    5b4c:	dac03417 	ldw	r11,208(sp)
    5b50:	d8802617 	ldw	r2,152(sp)
    5b54:	62e5883a 	add	r18,r12,r11
    5b58:	db003317 	ldw	r12,204(sp)
    5b5c:	13000216 	blt	r2,r12,5b68 <___svfprintf_internal_r+0x1468>
    5b60:	8900004c 	andi	r4,r17,1
    5b64:	20000c26 	beq	r4,zero,5b98 <___svfprintf_internal_r+0x1498>
    5b68:	dac03917 	ldw	r11,228(sp)
    5b6c:	d9001f17 	ldw	r4,124(sp)
    5b70:	db003517 	ldw	r12,212(sp)
    5b74:	1ac7883a 	add	r3,r3,r11
    5b78:	21000044 	addi	r4,r4,1
    5b7c:	43000015 	stw	r12,0(r8)
    5b80:	42c00115 	stw	r11,4(r8)
    5b84:	d8c02015 	stw	r3,128(sp)
    5b88:	d9001f15 	stw	r4,124(sp)
    5b8c:	014001c4 	movi	r5,7
    5b90:	2901b716 	blt	r5,r4,6270 <___svfprintf_internal_r+0x1b70>
    5b94:	42000204 	addi	r8,r8,8
    5b98:	dac03317 	ldw	r11,204(sp)
    5b9c:	8489c83a 	sub	r4,r16,r18
    5ba0:	5885c83a 	sub	r2,r11,r2
    5ba4:	1021883a 	mov	r16,r2
    5ba8:	2080010e 	bge	r4,r2,5bb0 <___svfprintf_internal_r+0x14b0>
    5bac:	2021883a 	mov	r16,r4
    5bb0:	04000a0e 	bge	zero,r16,5bdc <___svfprintf_internal_r+0x14dc>
    5bb4:	d9001f17 	ldw	r4,124(sp)
    5bb8:	1c07883a 	add	r3,r3,r16
    5bbc:	44800015 	stw	r18,0(r8)
    5bc0:	21000044 	addi	r4,r4,1
    5bc4:	44000115 	stw	r16,4(r8)
    5bc8:	d8c02015 	stw	r3,128(sp)
    5bcc:	d9001f15 	stw	r4,124(sp)
    5bd0:	014001c4 	movi	r5,7
    5bd4:	2901bf16 	blt	r5,r4,62d4 <___svfprintf_internal_r+0x1bd4>
    5bd8:	42000204 	addi	r8,r8,8
    5bdc:	8001bb16 	blt	r16,zero,62cc <___svfprintf_internal_r+0x1bcc>
    5be0:	1421c83a 	sub	r16,r2,r16
    5be4:	043ca80e 	bge	zero,r16,4e88 <__alt_data_end+0xf8004e88>
    5be8:	04800404 	movi	r18,16
    5bec:	d8801f17 	ldw	r2,124(sp)
    5bf0:	943f050e 	bge	r18,r16,5808 <__alt_data_end+0xf8005808>
    5bf4:	01400374 	movhi	r5,13
    5bf8:	296f7884 	addi	r5,r5,-16926
    5bfc:	d9402b15 	stw	r5,172(sp)
    5c00:	054001c4 	movi	r21,7
    5c04:	dcc02f17 	ldw	r19,188(sp)
    5c08:	00000306 	br	5c18 <___svfprintf_internal_r+0x1518>
    5c0c:	42000204 	addi	r8,r8,8
    5c10:	843ffc04 	addi	r16,r16,-16
    5c14:	943eff0e 	bge	r18,r16,5814 <__alt_data_end+0xf8005814>
    5c18:	18c00404 	addi	r3,r3,16
    5c1c:	10800044 	addi	r2,r2,1
    5c20:	45000015 	stw	r20,0(r8)
    5c24:	44800115 	stw	r18,4(r8)
    5c28:	d8c02015 	stw	r3,128(sp)
    5c2c:	d8801f15 	stw	r2,124(sp)
    5c30:	a8bff60e 	bge	r21,r2,5c0c <__alt_data_end+0xf8005c0c>
    5c34:	9809883a 	mov	r4,r19
    5c38:	b80b883a 	mov	r5,r23
    5c3c:	b00d883a 	mov	r6,r22
    5c40:	00097700 	call	9770 <__ssprint_r>
    5c44:	103b761e 	bne	r2,zero,4a20 <__alt_data_end+0xf8004a20>
    5c48:	d8c02017 	ldw	r3,128(sp)
    5c4c:	d8801f17 	ldw	r2,124(sp)
    5c50:	da000404 	addi	r8,sp,16
    5c54:	003fee06 	br	5c10 <__alt_data_end+0xf8005c10>
    5c58:	8888703a 	and	r4,r17,r2
    5c5c:	203eb31e 	bne	r4,zero,572c <__alt_data_end+0xf800572c>
    5c60:	dc001f17 	ldw	r16,124(sp)
    5c64:	db003117 	ldw	r12,196(sp)
    5c68:	40800115 	stw	r2,4(r8)
    5c6c:	84000044 	addi	r16,r16,1
    5c70:	43000015 	stw	r12,0(r8)
    5c74:	d8c02015 	stw	r3,128(sp)
    5c78:	dc001f15 	stw	r16,124(sp)
    5c7c:	008001c4 	movi	r2,7
    5c80:	143f8716 	blt	r2,r16,5aa0 <__alt_data_end+0xf8005aa0>
    5c84:	44800204 	addi	r18,r8,8
    5c88:	003ed306 	br	57d8 <__alt_data_end+0xf80057d8>
    5c8c:	d9002f17 	ldw	r4,188(sp)
    5c90:	b80b883a 	mov	r5,r23
    5c94:	b00d883a 	mov	r6,r22
    5c98:	00097700 	call	9770 <__ssprint_r>
    5c9c:	103b601e 	bne	r2,zero,4a20 <__alt_data_end+0xf8004a20>
    5ca0:	d8c02017 	ldw	r3,128(sp)
    5ca4:	dc001f17 	ldw	r16,124(sp)
    5ca8:	da000404 	addi	r8,sp,16
    5cac:	003eaa06 	br	5758 <__alt_data_end+0xf8005758>
    5cb0:	d9002f17 	ldw	r4,188(sp)
    5cb4:	b80b883a 	mov	r5,r23
    5cb8:	b00d883a 	mov	r6,r22
    5cbc:	00097700 	call	9770 <__ssprint_r>
    5cc0:	103b571e 	bne	r2,zero,4a20 <__alt_data_end+0xf8004a20>
    5cc4:	d8c02017 	ldw	r3,128(sp)
    5cc8:	dc001f17 	ldw	r16,124(sp)
    5ccc:	dc800404 	addi	r18,sp,16
    5cd0:	003eac06 	br	5784 <__alt_data_end+0xf8005784>
    5cd4:	d9002f17 	ldw	r4,188(sp)
    5cd8:	b80b883a 	mov	r5,r23
    5cdc:	b00d883a 	mov	r6,r22
    5ce0:	00097700 	call	9770 <__ssprint_r>
    5ce4:	103b4e1e 	bne	r2,zero,4a20 <__alt_data_end+0xf8004a20>
    5ce8:	d8c02017 	ldw	r3,128(sp)
    5cec:	da000404 	addi	r8,sp,16
    5cf0:	003c2406 	br	4d84 <__alt_data_end+0xf8004d84>
    5cf4:	da004015 	stw	r8,256(sp)
    5cf8:	da403f15 	stw	r9,252(sp)
    5cfc:	00096580 	call	9658 <__fpclassifyd>
    5d00:	da004017 	ldw	r8,256(sp)
    5d04:	da403f17 	ldw	r9,252(sp)
    5d08:	1000951e 	bne	r2,zero,5f60 <___svfprintf_internal_r+0x1860>
    5d0c:	008011c4 	movi	r2,71
    5d10:	1400fb16 	blt	r2,r16,6100 <___svfprintf_internal_r+0x1a00>
    5d14:	03000374 	movhi	r12,13
    5d18:	632f6a04 	addi	r12,r12,-16984
    5d1c:	db003115 	stw	r12,196(sp)
    5d20:	00c000c4 	movi	r3,3
    5d24:	00bfdfc4 	movi	r2,-129
    5d28:	d8c02a15 	stw	r3,168(sp)
    5d2c:	88a2703a 	and	r17,r17,r2
    5d30:	dd402783 	ldbu	r21,158(sp)
    5d34:	dcc02d15 	stw	r19,180(sp)
    5d38:	1825883a 	mov	r18,r3
    5d3c:	d8003215 	stw	zero,200(sp)
    5d40:	d8003415 	stw	zero,208(sp)
    5d44:	003ba706 	br	4be4 <__alt_data_end+0xf8004be4>
    5d48:	8880040c 	andi	r2,r17,16
    5d4c:	1000091e 	bne	r2,zero,5d74 <___svfprintf_internal_r+0x1674>
    5d50:	8c40100c 	andi	r17,r17,64
    5d54:	88000726 	beq	r17,zero,5d74 <___svfprintf_internal_r+0x1674>
    5d58:	db002d17 	ldw	r12,180(sp)
    5d5c:	dac03017 	ldw	r11,192(sp)
    5d60:	60800017 	ldw	r2,0(r12)
    5d64:	63000104 	addi	r12,r12,4
    5d68:	db002d15 	stw	r12,180(sp)
    5d6c:	12c0000d 	sth	r11,0(r2)
    5d70:	003a8f06 	br	47b0 <__alt_data_end+0xf80047b0>
    5d74:	db002d17 	ldw	r12,180(sp)
    5d78:	dac03017 	ldw	r11,192(sp)
    5d7c:	60800017 	ldw	r2,0(r12)
    5d80:	63000104 	addi	r12,r12,4
    5d84:	db002d15 	stw	r12,180(sp)
    5d88:	12c00015 	stw	r11,0(r2)
    5d8c:	003a8806 	br	47b0 <__alt_data_end+0xf80047b0>
    5d90:	88c0100c 	andi	r3,r17,64
    5d94:	1800e926 	beq	r3,zero,613c <___svfprintf_internal_r+0x1a3c>
    5d98:	dac02d17 	ldw	r11,180(sp)
    5d9c:	14c0000b 	ldhu	r19,0(r2)
    5da0:	0039883a 	mov	fp,zero
    5da4:	5ac00104 	addi	r11,r11,4
    5da8:	dac02d15 	stw	r11,180(sp)
    5dac:	003d1406 	br	5200 <__alt_data_end+0xf8005200>
    5db0:	1c000007 	ldb	r16,0(r3)
    5db4:	1805883a 	mov	r2,r3
    5db8:	003aa706 	br	4858 <__alt_data_end+0xf8004858>
    5dbc:	00800084 	movi	r2,2
    5dc0:	003c7b06 	br	4fb0 <__alt_data_end+0xf8004fb0>
    5dc4:	01000374 	movhi	r4,13
    5dc8:	212f7884 	addi	r4,r4,-16926
    5dcc:	d9002b15 	stw	r4,172(sp)
    5dd0:	dac02b17 	ldw	r11,172(sp)
    5dd4:	1c87883a 	add	r3,r3,r18
    5dd8:	10800044 	addi	r2,r2,1
    5ddc:	42c00015 	stw	r11,0(r8)
    5de0:	44800115 	stw	r18,4(r8)
    5de4:	d8c02015 	stw	r3,128(sp)
    5de8:	d8801f15 	stw	r2,124(sp)
    5dec:	010001c4 	movi	r4,7
    5df0:	20bf4e16 	blt	r4,r2,5b2c <__alt_data_end+0xf8005b2c>
    5df4:	42000204 	addi	r8,r8,8
    5df8:	003f5306 	br	5b48 <__alt_data_end+0xf8005b48>
    5dfc:	01000374 	movhi	r4,13
    5e00:	212f7884 	addi	r4,r4,-16926
    5e04:	d9002b15 	stw	r4,172(sp)
    5e08:	003c0806 	br	4e2c <__alt_data_end+0xf8004e2c>
    5e0c:	d9002f17 	ldw	r4,188(sp)
    5e10:	b80b883a 	mov	r5,r23
    5e14:	b00d883a 	mov	r6,r22
    5e18:	00097700 	call	9770 <__ssprint_r>
    5e1c:	103b001e 	bne	r2,zero,4a20 <__alt_data_end+0xf8004a20>
    5e20:	d8c02017 	ldw	r3,128(sp)
    5e24:	da000404 	addi	r8,sp,16
    5e28:	003dc606 	br	5544 <__alt_data_end+0xf8005544>
    5e2c:	d8801f17 	ldw	r2,124(sp)
    5e30:	03000374 	movhi	r12,13
    5e34:	01000044 	movi	r4,1
    5e38:	18c00044 	addi	r3,r3,1
    5e3c:	10800044 	addi	r2,r2,1
    5e40:	632f7804 	addi	r12,r12,-16928
    5e44:	41000115 	stw	r4,4(r8)
    5e48:	43000015 	stw	r12,0(r8)
    5e4c:	d8c02015 	stw	r3,128(sp)
    5e50:	d8801f15 	stw	r2,124(sp)
    5e54:	010001c4 	movi	r4,7
    5e58:	2080ad16 	blt	r4,r2,6110 <___svfprintf_internal_r+0x1a10>
    5e5c:	42000204 	addi	r8,r8,8
    5e60:	8000041e 	bne	r16,zero,5e74 <___svfprintf_internal_r+0x1774>
    5e64:	dac03317 	ldw	r11,204(sp)
    5e68:	5800021e 	bne	r11,zero,5e74 <___svfprintf_internal_r+0x1774>
    5e6c:	8880004c 	andi	r2,r17,1
    5e70:	103c0526 	beq	r2,zero,4e88 <__alt_data_end+0xf8004e88>
    5e74:	db003917 	ldw	r12,228(sp)
    5e78:	d8801f17 	ldw	r2,124(sp)
    5e7c:	dac03517 	ldw	r11,212(sp)
    5e80:	1b07883a 	add	r3,r3,r12
    5e84:	10800044 	addi	r2,r2,1
    5e88:	42c00015 	stw	r11,0(r8)
    5e8c:	43000115 	stw	r12,4(r8)
    5e90:	d8c02015 	stw	r3,128(sp)
    5e94:	d8801f15 	stw	r2,124(sp)
    5e98:	010001c4 	movi	r4,7
    5e9c:	20818816 	blt	r4,r2,64c0 <___svfprintf_internal_r+0x1dc0>
    5ea0:	42000204 	addi	r8,r8,8
    5ea4:	0421c83a 	sub	r16,zero,r16
    5ea8:	0400bc0e 	bge	zero,r16,619c <___svfprintf_internal_r+0x1a9c>
    5eac:	04800404 	movi	r18,16
    5eb0:	9400f80e 	bge	r18,r16,6294 <___svfprintf_internal_r+0x1b94>
    5eb4:	01000374 	movhi	r4,13
    5eb8:	212f7884 	addi	r4,r4,-16926
    5ebc:	d9002b15 	stw	r4,172(sp)
    5ec0:	054001c4 	movi	r21,7
    5ec4:	dcc02f17 	ldw	r19,188(sp)
    5ec8:	00000306 	br	5ed8 <___svfprintf_internal_r+0x17d8>
    5ecc:	42000204 	addi	r8,r8,8
    5ed0:	843ffc04 	addi	r16,r16,-16
    5ed4:	9400f20e 	bge	r18,r16,62a0 <___svfprintf_internal_r+0x1ba0>
    5ed8:	18c00404 	addi	r3,r3,16
    5edc:	10800044 	addi	r2,r2,1
    5ee0:	45000015 	stw	r20,0(r8)
    5ee4:	44800115 	stw	r18,4(r8)
    5ee8:	d8c02015 	stw	r3,128(sp)
    5eec:	d8801f15 	stw	r2,124(sp)
    5ef0:	a8bff60e 	bge	r21,r2,5ecc <__alt_data_end+0xf8005ecc>
    5ef4:	9809883a 	mov	r4,r19
    5ef8:	b80b883a 	mov	r5,r23
    5efc:	b00d883a 	mov	r6,r22
    5f00:	00097700 	call	9770 <__ssprint_r>
    5f04:	103ac61e 	bne	r2,zero,4a20 <__alt_data_end+0xf8004a20>
    5f08:	d8c02017 	ldw	r3,128(sp)
    5f0c:	d8801f17 	ldw	r2,124(sp)
    5f10:	da000404 	addi	r8,sp,16
    5f14:	003fee06 	br	5ed0 <__alt_data_end+0xf8005ed0>
    5f18:	db002e17 	ldw	r12,184(sp)
    5f1c:	1805883a 	mov	r2,r3
    5f20:	dac02d15 	stw	r11,180(sp)
    5f24:	0319c83a 	sub	r12,zero,r12
    5f28:	db002e15 	stw	r12,184(sp)
    5f2c:	003ad106 	br	4a74 <__alt_data_end+0xf8004a74>
    5f30:	18800044 	addi	r2,r3,1
    5f34:	8c400814 	ori	r17,r17,32
    5f38:	1c000047 	ldb	r16,1(r3)
    5f3c:	003a4606 	br	4858 <__alt_data_end+0xf8004858>
    5f40:	d9002f17 	ldw	r4,188(sp)
    5f44:	b80b883a 	mov	r5,r23
    5f48:	b00d883a 	mov	r6,r22
    5f4c:	00097700 	call	9770 <__ssprint_r>
    5f50:	103ab31e 	bne	r2,zero,4a20 <__alt_data_end+0xf8004a20>
    5f54:	d8c02017 	ldw	r3,128(sp)
    5f58:	da000404 	addi	r8,sp,16
    5f5c:	003d8a06 	br	5588 <__alt_data_end+0xf8005588>
    5f60:	057ff7c4 	movi	r21,-33
    5f64:	00bfffc4 	movi	r2,-1
    5f68:	856a703a 	and	r21,r16,r21
    5f6c:	48807126 	beq	r9,r2,6134 <___svfprintf_internal_r+0x1a34>
    5f70:	008011c4 	movi	r2,71
    5f74:	a8814f26 	beq	r21,r2,64b4 <___svfprintf_internal_r+0x1db4>
    5f78:	db003817 	ldw	r12,224(sp)
    5f7c:	8ac04014 	ori	r11,r17,256
    5f80:	dac02d15 	stw	r11,180(sp)
    5f84:	60015816 	blt	r12,zero,64e8 <___svfprintf_internal_r+0x1de8>
    5f88:	dc803817 	ldw	r18,224(sp)
    5f8c:	d8002a05 	stb	zero,168(sp)
    5f90:	00801984 	movi	r2,102
    5f94:	80808c26 	beq	r16,r2,61c8 <___svfprintf_internal_r+0x1ac8>
    5f98:	00801184 	movi	r2,70
    5f9c:	80808a26 	beq	r16,r2,61c8 <___svfprintf_internal_r+0x1ac8>
    5fa0:	00801144 	movi	r2,69
    5fa4:	a8815426 	beq	r21,r2,64f8 <___svfprintf_internal_r+0x1df8>
    5fa8:	4839883a 	mov	fp,r9
    5fac:	d8802604 	addi	r2,sp,152
    5fb0:	d8800115 	stw	r2,4(sp)
    5fb4:	d9002f17 	ldw	r4,188(sp)
    5fb8:	d8802504 	addi	r2,sp,148
    5fbc:	d9403717 	ldw	r5,220(sp)
    5fc0:	d8800215 	stw	r2,8(sp)
    5fc4:	d8802104 	addi	r2,sp,132
    5fc8:	df000015 	stw	fp,0(sp)
    5fcc:	d8800315 	stw	r2,12(sp)
    5fd0:	900d883a 	mov	r6,r18
    5fd4:	01c00084 	movi	r7,2
    5fd8:	da004015 	stw	r8,256(sp)
    5fdc:	da403f15 	stw	r9,252(sp)
    5fe0:	00068900 	call	6890 <_dtoa_r>
    5fe4:	d8803115 	stw	r2,196(sp)
    5fe8:	008019c4 	movi	r2,103
    5fec:	da004017 	ldw	r8,256(sp)
    5ff0:	da403f17 	ldw	r9,252(sp)
    5ff4:	80800226 	beq	r16,r2,6000 <___svfprintf_internal_r+0x1900>
    5ff8:	008011c4 	movi	r2,71
    5ffc:	8080841e 	bne	r16,r2,6210 <___svfprintf_internal_r+0x1b10>
    6000:	8880004c 	andi	r2,r17,1
    6004:	10015126 	beq	r2,zero,654c <___svfprintf_internal_r+0x1e4c>
    6008:	db003117 	ldw	r12,196(sp)
    600c:	6715883a 	add	r10,r12,fp
    6010:	d9003717 	ldw	r4,220(sp)
    6014:	900b883a 	mov	r5,r18
    6018:	000d883a 	mov	r6,zero
    601c:	000f883a 	mov	r7,zero
    6020:	da004015 	stw	r8,256(sp)
    6024:	da403f15 	stw	r9,252(sp)
    6028:	da803e15 	stw	r10,248(sp)
    602c:	000cf3c0 	call	cf3c <__eqdf2>
    6030:	da004017 	ldw	r8,256(sp)
    6034:	da403f17 	ldw	r9,252(sp)
    6038:	da803e17 	ldw	r10,248(sp)
    603c:	1000d926 	beq	r2,zero,63a4 <___svfprintf_internal_r+0x1ca4>
    6040:	d8802117 	ldw	r2,132(sp)
    6044:	1280062e 	bgeu	r2,r10,6060 <___svfprintf_internal_r+0x1960>
    6048:	01000c04 	movi	r4,48
    604c:	10c00044 	addi	r3,r2,1
    6050:	d8c02115 	stw	r3,132(sp)
    6054:	11000005 	stb	r4,0(r2)
    6058:	d8802117 	ldw	r2,132(sp)
    605c:	12bffb36 	bltu	r2,r10,604c <__alt_data_end+0xf800604c>
    6060:	db003117 	ldw	r12,196(sp)
    6064:	1305c83a 	sub	r2,r2,r12
    6068:	d8803315 	stw	r2,204(sp)
    606c:	008011c4 	movi	r2,71
    6070:	a880b626 	beq	r21,r2,634c <___svfprintf_internal_r+0x1c4c>
    6074:	00801944 	movi	r2,101
    6078:	14017e0e 	bge	r2,r16,6674 <___svfprintf_internal_r+0x1f74>
    607c:	00801984 	movi	r2,102
    6080:	80812826 	beq	r16,r2,6524 <___svfprintf_internal_r+0x1e24>
    6084:	db002617 	ldw	r12,152(sp)
    6088:	db003415 	stw	r12,208(sp)
    608c:	db003417 	ldw	r12,208(sp)
    6090:	dac03317 	ldw	r11,204(sp)
    6094:	62c11a16 	blt	r12,r11,6500 <___svfprintf_internal_r+0x1e00>
    6098:	8c40004c 	andi	r17,r17,1
    609c:	88013d1e 	bne	r17,zero,6594 <___svfprintf_internal_r+0x1e94>
    60a0:	6005883a 	mov	r2,r12
    60a4:	60012716 	blt	r12,zero,6544 <___svfprintf_internal_r+0x1e44>
    60a8:	dc803417 	ldw	r18,208(sp)
    60ac:	df002a07 	ldb	fp,168(sp)
    60b0:	e000b01e 	bne	fp,zero,6374 <___svfprintf_internal_r+0x1c74>
    60b4:	dc402d17 	ldw	r17,180(sp)
    60b8:	dd402783 	ldbu	r21,158(sp)
    60bc:	d8802a15 	stw	r2,168(sp)
    60c0:	dcc02d15 	stw	r19,180(sp)
    60c4:	d8003215 	stw	zero,200(sp)
    60c8:	003ac606 	br	4be4 <__alt_data_end+0xf8004be4>
    60cc:	00800374 	movhi	r2,13
    60d0:	10af6804 	addi	r2,r2,-16992
    60d4:	d8803115 	stw	r2,196(sp)
    60d8:	003be506 	br	5070 <__alt_data_end+0xf8005070>
    60dc:	d9002f17 	ldw	r4,188(sp)
    60e0:	04001004 	movi	r16,64
    60e4:	800b883a 	mov	r5,r16
    60e8:	0003da80 	call	3da8 <_malloc_r>
    60ec:	b8800015 	stw	r2,0(r23)
    60f0:	b8800415 	stw	r2,16(r23)
    60f4:	10016126 	beq	r2,zero,667c <___svfprintf_internal_r+0x1f7c>
    60f8:	bc000515 	stw	r16,20(r23)
    60fc:	00399a06 	br	4768 <__alt_data_end+0xf8004768>
    6100:	00800374 	movhi	r2,13
    6104:	10af6b04 	addi	r2,r2,-16980
    6108:	d8803115 	stw	r2,196(sp)
    610c:	003f0406 	br	5d20 <__alt_data_end+0xf8005d20>
    6110:	d9002f17 	ldw	r4,188(sp)
    6114:	b80b883a 	mov	r5,r23
    6118:	b00d883a 	mov	r6,r22
    611c:	00097700 	call	9770 <__ssprint_r>
    6120:	103a3f1e 	bne	r2,zero,4a20 <__alt_data_end+0xf8004a20>
    6124:	dc002617 	ldw	r16,152(sp)
    6128:	d8c02017 	ldw	r3,128(sp)
    612c:	da000404 	addi	r8,sp,16
    6130:	003f4b06 	br	5e60 <__alt_data_end+0xf8005e60>
    6134:	02400184 	movi	r9,6
    6138:	003f8f06 	br	5f78 <__alt_data_end+0xf8005f78>
    613c:	db002d17 	ldw	r12,180(sp)
    6140:	14c00017 	ldw	r19,0(r2)
    6144:	0039883a 	mov	fp,zero
    6148:	63000104 	addi	r12,r12,4
    614c:	db002d15 	stw	r12,180(sp)
    6150:	003c2b06 	br	5200 <__alt_data_end+0xf8005200>
    6154:	d8c03117 	ldw	r3,196(sp)
    6158:	b0e5c83a 	sub	r18,r22,r3
    615c:	003a9c06 	br	4bd0 <__alt_data_end+0xf8004bd0>
    6160:	da004015 	stw	r8,256(sp)
    6164:	00046680 	call	4668 <strlen>
    6168:	1025883a 	mov	r18,r2
    616c:	da004017 	ldw	r8,256(sp)
    6170:	903c450e 	bge	r18,zero,5288 <__alt_data_end+0xf8005288>
    6174:	0005883a 	mov	r2,zero
    6178:	003c4306 	br	5288 <__alt_data_end+0xf8005288>
    617c:	d9002f17 	ldw	r4,188(sp)
    6180:	b80b883a 	mov	r5,r23
    6184:	b00d883a 	mov	r6,r22
    6188:	00097700 	call	9770 <__ssprint_r>
    618c:	103a241e 	bne	r2,zero,4a20 <__alt_data_end+0xf8004a20>
    6190:	d8c02017 	ldw	r3,128(sp)
    6194:	d8801f17 	ldw	r2,124(sp)
    6198:	da000404 	addi	r8,sp,16
    619c:	db003317 	ldw	r12,204(sp)
    61a0:	dac03117 	ldw	r11,196(sp)
    61a4:	10800044 	addi	r2,r2,1
    61a8:	60c7883a 	add	r3,r12,r3
    61ac:	42c00015 	stw	r11,0(r8)
    61b0:	43000115 	stw	r12,4(r8)
    61b4:	d8c02015 	stw	r3,128(sp)
    61b8:	d8801f15 	stw	r2,124(sp)
    61bc:	010001c4 	movi	r4,7
    61c0:	20bb300e 	bge	r4,r2,4e84 <__alt_data_end+0xf8004e84>
    61c4:	003d9c06 	br	5838 <__alt_data_end+0xf8005838>
    61c8:	d8802604 	addi	r2,sp,152
    61cc:	d8800115 	stw	r2,4(sp)
    61d0:	d9002f17 	ldw	r4,188(sp)
    61d4:	d8802504 	addi	r2,sp,148
    61d8:	d9403717 	ldw	r5,220(sp)
    61dc:	d8800215 	stw	r2,8(sp)
    61e0:	d8802104 	addi	r2,sp,132
    61e4:	da400015 	stw	r9,0(sp)
    61e8:	d8800315 	stw	r2,12(sp)
    61ec:	900d883a 	mov	r6,r18
    61f0:	01c000c4 	movi	r7,3
    61f4:	da004015 	stw	r8,256(sp)
    61f8:	da403f15 	stw	r9,252(sp)
    61fc:	00068900 	call	6890 <_dtoa_r>
    6200:	da403f17 	ldw	r9,252(sp)
    6204:	da004017 	ldw	r8,256(sp)
    6208:	d8803115 	stw	r2,196(sp)
    620c:	4839883a 	mov	fp,r9
    6210:	dac03117 	ldw	r11,196(sp)
    6214:	00801184 	movi	r2,70
    6218:	5f15883a 	add	r10,r11,fp
    621c:	a8bf7c1e 	bne	r21,r2,6010 <__alt_data_end+0xf8006010>
    6220:	59000007 	ldb	r4,0(r11)
    6224:	00800c04 	movi	r2,48
    6228:	2080ca26 	beq	r4,r2,6554 <___svfprintf_internal_r+0x1e54>
    622c:	d8c02617 	ldw	r3,152(sp)
    6230:	50d5883a 	add	r10,r10,r3
    6234:	003f7606 	br	6010 <__alt_data_end+0xf8006010>
    6238:	01000374 	movhi	r4,13
    623c:	212f7c84 	addi	r4,r4,-16910
    6240:	d9003615 	stw	r4,216(sp)
    6244:	003aa606 	br	4ce0 <__alt_data_end+0xf8004ce0>
    6248:	0025883a 	mov	r18,zero
    624c:	003dc306 	br	595c <__alt_data_end+0xf800595c>
    6250:	d9002f17 	ldw	r4,188(sp)
    6254:	b80b883a 	mov	r5,r23
    6258:	b00d883a 	mov	r6,r22
    625c:	00097700 	call	9770 <__ssprint_r>
    6260:	1039ef1e 	bne	r2,zero,4a20 <__alt_data_end+0xf8004a20>
    6264:	d8c02017 	ldw	r3,128(sp)
    6268:	da000404 	addi	r8,sp,16
    626c:	003dba06 	br	5958 <__alt_data_end+0xf8005958>
    6270:	d9002f17 	ldw	r4,188(sp)
    6274:	b80b883a 	mov	r5,r23
    6278:	b00d883a 	mov	r6,r22
    627c:	00097700 	call	9770 <__ssprint_r>
    6280:	1039e71e 	bne	r2,zero,4a20 <__alt_data_end+0xf8004a20>
    6284:	d8802617 	ldw	r2,152(sp)
    6288:	d8c02017 	ldw	r3,128(sp)
    628c:	da000404 	addi	r8,sp,16
    6290:	003e4106 	br	5b98 <__alt_data_end+0xf8005b98>
    6294:	03000374 	movhi	r12,13
    6298:	632f7884 	addi	r12,r12,-16926
    629c:	db002b15 	stw	r12,172(sp)
    62a0:	dac02b17 	ldw	r11,172(sp)
    62a4:	1c07883a 	add	r3,r3,r16
    62a8:	10800044 	addi	r2,r2,1
    62ac:	42c00015 	stw	r11,0(r8)
    62b0:	44000115 	stw	r16,4(r8)
    62b4:	d8c02015 	stw	r3,128(sp)
    62b8:	d8801f15 	stw	r2,124(sp)
    62bc:	010001c4 	movi	r4,7
    62c0:	20bfae16 	blt	r4,r2,617c <__alt_data_end+0xf800617c>
    62c4:	42000204 	addi	r8,r8,8
    62c8:	003fb406 	br	619c <__alt_data_end+0xf800619c>
    62cc:	0021883a 	mov	r16,zero
    62d0:	003e4306 	br	5be0 <__alt_data_end+0xf8005be0>
    62d4:	d9002f17 	ldw	r4,188(sp)
    62d8:	b80b883a 	mov	r5,r23
    62dc:	b00d883a 	mov	r6,r22
    62e0:	00097700 	call	9770 <__ssprint_r>
    62e4:	1039ce1e 	bne	r2,zero,4a20 <__alt_data_end+0xf8004a20>
    62e8:	d8802617 	ldw	r2,152(sp)
    62ec:	db003317 	ldw	r12,204(sp)
    62f0:	d8c02017 	ldw	r3,128(sp)
    62f4:	da000404 	addi	r8,sp,16
    62f8:	6085c83a 	sub	r2,r12,r2
    62fc:	003e3706 	br	5bdc <__alt_data_end+0xf8005bdc>
    6300:	00800184 	movi	r2,6
    6304:	1240012e 	bgeu	r2,r9,630c <___svfprintf_internal_r+0x1c0c>
    6308:	1013883a 	mov	r9,r2
    630c:	4825883a 	mov	r18,r9
    6310:	4805883a 	mov	r2,r9
    6314:	4800a416 	blt	r9,zero,65a8 <___svfprintf_internal_r+0x1ea8>
    6318:	d8802a15 	stw	r2,168(sp)
    631c:	00800374 	movhi	r2,13
    6320:	10af7604 	addi	r2,r2,-16936
    6324:	d8803115 	stw	r2,196(sp)
    6328:	dcc02d15 	stw	r19,180(sp)
    632c:	d8003215 	stw	zero,200(sp)
    6330:	d8003415 	stw	zero,208(sp)
    6334:	0005883a 	mov	r2,zero
    6338:	003a3106 	br	4c00 <__alt_data_end+0xf8004c00>
    633c:	03000374 	movhi	r12,13
    6340:	632f7c84 	addi	r12,r12,-16910
    6344:	db003615 	stw	r12,216(sp)
    6348:	003af406 	br	4f1c <__alt_data_end+0xf8004f1c>
    634c:	d8c02617 	ldw	r3,152(sp)
    6350:	00bfff44 	movi	r2,-3
    6354:	18801516 	blt	r3,r2,63ac <___svfprintf_internal_r+0x1cac>
    6358:	48c01416 	blt	r9,r3,63ac <___svfprintf_internal_r+0x1cac>
    635c:	d8c03415 	stw	r3,208(sp)
    6360:	040019c4 	movi	r16,103
    6364:	003f4906 	br	608c <__alt_data_end+0xf800608c>
    6368:	05400b44 	movi	r21,45
    636c:	dd402785 	stb	r21,158(sp)
    6370:	003b3a06 	br	505c <__alt_data_end+0xf800505c>
    6374:	00c00b44 	movi	r3,45
    6378:	d8802a15 	stw	r2,168(sp)
    637c:	dc402d17 	ldw	r17,180(sp)
    6380:	d8c02785 	stb	r3,158(sp)
    6384:	dcc02d15 	stw	r19,180(sp)
    6388:	d8003215 	stw	zero,200(sp)
    638c:	00800b44 	movi	r2,45
    6390:	003a1806 	br	4bf4 <__alt_data_end+0xf8004bf4>
    6394:	01000374 	movhi	r4,13
    6398:	212f7884 	addi	r4,r4,-16926
    639c:	d9002b15 	stw	r4,172(sp)
    63a0:	003cc306 	br	56b0 <__alt_data_end+0xf80056b0>
    63a4:	5005883a 	mov	r2,r10
    63a8:	003f2d06 	br	6060 <__alt_data_end+0xf8006060>
    63ac:	843fff84 	addi	r16,r16,-2
    63b0:	1f3fffc4 	addi	fp,r3,-1
    63b4:	df002615 	stw	fp,152(sp)
    63b8:	dc0022c5 	stb	r16,139(sp)
    63bc:	e000a216 	blt	fp,zero,6648 <___svfprintf_internal_r+0x1f48>
    63c0:	00800ac4 	movi	r2,43
    63c4:	d8802305 	stb	r2,140(sp)
    63c8:	00800244 	movi	r2,9
    63cc:	1700820e 	bge	r2,fp,65d8 <___svfprintf_internal_r+0x1ed8>
    63d0:	dd4022c4 	addi	r21,sp,139
    63d4:	dc002b15 	stw	r16,172(sp)
    63d8:	8825883a 	mov	r18,r17
    63dc:	a821883a 	mov	r16,r21
    63e0:	4023883a 	mov	r17,r8
    63e4:	e009883a 	mov	r4,fp
    63e8:	01400284 	movi	r5,10
    63ec:	0003d140 	call	3d14 <__modsi3>
    63f0:	10800c04 	addi	r2,r2,48
    63f4:	843fffc4 	addi	r16,r16,-1
    63f8:	e009883a 	mov	r4,fp
    63fc:	01400284 	movi	r5,10
    6400:	80800005 	stb	r2,0(r16)
    6404:	0003cc00 	call	3cc0 <__divsi3>
    6408:	1039883a 	mov	fp,r2
    640c:	00800244 	movi	r2,9
    6410:	173ff416 	blt	r2,fp,63e4 <__alt_data_end+0xf80063e4>
    6414:	8811883a 	mov	r8,r17
    6418:	e0800c04 	addi	r2,fp,48
    641c:	9023883a 	mov	r17,r18
    6420:	8025883a 	mov	r18,r16
    6424:	913fffc4 	addi	r4,r18,-1
    6428:	90bfffc5 	stb	r2,-1(r18)
    642c:	dc002b17 	ldw	r16,172(sp)
    6430:	25408e2e 	bgeu	r4,r21,666c <___svfprintf_internal_r+0x1f6c>
    6434:	d9402384 	addi	r5,sp,142
    6438:	2c8bc83a 	sub	r5,r5,r18
    643c:	d8c02344 	addi	r3,sp,141
    6440:	a94b883a 	add	r5,r21,r5
    6444:	00000106 	br	644c <___svfprintf_internal_r+0x1d4c>
    6448:	20800003 	ldbu	r2,0(r4)
    644c:	18800005 	stb	r2,0(r3)
    6450:	18c00044 	addi	r3,r3,1
    6454:	21000044 	addi	r4,r4,1
    6458:	197ffb1e 	bne	r3,r5,6448 <__alt_data_end+0xf8006448>
    645c:	d8802304 	addi	r2,sp,140
    6460:	1485c83a 	sub	r2,r2,r18
    6464:	d8c02344 	addi	r3,sp,141
    6468:	1885883a 	add	r2,r3,r2
    646c:	dac03317 	ldw	r11,204(sp)
    6470:	156bc83a 	sub	r21,r2,r21
    6474:	dd403a15 	stw	r21,232(sp)
    6478:	00800044 	movi	r2,1
    647c:	5d65883a 	add	r18,r11,r21
    6480:	12c0770e 	bge	r2,r11,6660 <___svfprintf_internal_r+0x1f60>
    6484:	94800044 	addi	r18,r18,1
    6488:	9005883a 	mov	r2,r18
    648c:	90007216 	blt	r18,zero,6658 <___svfprintf_internal_r+0x1f58>
    6490:	d8003415 	stw	zero,208(sp)
    6494:	003f0506 	br	60ac <__alt_data_end+0xf80060ac>
    6498:	da402a15 	stw	r9,168(sp)
    649c:	dd402783 	ldbu	r21,158(sp)
    64a0:	4825883a 	mov	r18,r9
    64a4:	dcc02d15 	stw	r19,180(sp)
    64a8:	d8003215 	stw	zero,200(sp)
    64ac:	d8003415 	stw	zero,208(sp)
    64b0:	0039cc06 	br	4be4 <__alt_data_end+0xf8004be4>
    64b4:	483eb01e 	bne	r9,zero,5f78 <__alt_data_end+0xf8005f78>
    64b8:	9013883a 	mov	r9,r18
    64bc:	003eae06 	br	5f78 <__alt_data_end+0xf8005f78>
    64c0:	d9002f17 	ldw	r4,188(sp)
    64c4:	b80b883a 	mov	r5,r23
    64c8:	b00d883a 	mov	r6,r22
    64cc:	00097700 	call	9770 <__ssprint_r>
    64d0:	1039531e 	bne	r2,zero,4a20 <__alt_data_end+0xf8004a20>
    64d4:	dc002617 	ldw	r16,152(sp)
    64d8:	d8c02017 	ldw	r3,128(sp)
    64dc:	d8801f17 	ldw	r2,124(sp)
    64e0:	da000404 	addi	r8,sp,16
    64e4:	003e6f06 	br	5ea4 <__alt_data_end+0xf8005ea4>
    64e8:	00c00b44 	movi	r3,45
    64ec:	64a0003c 	xorhi	r18,r12,32768
    64f0:	d8c02a05 	stb	r3,168(sp)
    64f4:	003ea606 	br	5f90 <__alt_data_end+0xf8005f90>
    64f8:	4f000044 	addi	fp,r9,1
    64fc:	003eab06 	br	5fac <__alt_data_end+0xf8005fac>
    6500:	d8c03417 	ldw	r3,208(sp)
    6504:	00c0410e 	bge	zero,r3,660c <___svfprintf_internal_r+0x1f0c>
    6508:	04800044 	movi	r18,1
    650c:	dac03317 	ldw	r11,204(sp)
    6510:	92e5883a 	add	r18,r18,r11
    6514:	9005883a 	mov	r2,r18
    6518:	903ee40e 	bge	r18,zero,60ac <__alt_data_end+0xf80060ac>
    651c:	0005883a 	mov	r2,zero
    6520:	003ee206 	br	60ac <__alt_data_end+0xf80060ac>
    6524:	d8c02617 	ldw	r3,152(sp)
    6528:	d8c03415 	stw	r3,208(sp)
    652c:	00c0310e 	bge	zero,r3,65f4 <___svfprintf_internal_r+0x1ef4>
    6530:	48001f1e 	bne	r9,zero,65b0 <___svfprintf_internal_r+0x1eb0>
    6534:	8c40004c 	andi	r17,r17,1
    6538:	88001d1e 	bne	r17,zero,65b0 <___svfprintf_internal_r+0x1eb0>
    653c:	1805883a 	mov	r2,r3
    6540:	183ed90e 	bge	r3,zero,60a8 <__alt_data_end+0xf80060a8>
    6544:	0005883a 	mov	r2,zero
    6548:	003ed706 	br	60a8 <__alt_data_end+0xf80060a8>
    654c:	d8802117 	ldw	r2,132(sp)
    6550:	003ec306 	br	6060 <__alt_data_end+0xf8006060>
    6554:	d9003717 	ldw	r4,220(sp)
    6558:	900b883a 	mov	r5,r18
    655c:	000d883a 	mov	r6,zero
    6560:	000f883a 	mov	r7,zero
    6564:	da004015 	stw	r8,256(sp)
    6568:	da403f15 	stw	r9,252(sp)
    656c:	da803e15 	stw	r10,248(sp)
    6570:	000cf3c0 	call	cf3c <__eqdf2>
    6574:	da004017 	ldw	r8,256(sp)
    6578:	da403f17 	ldw	r9,252(sp)
    657c:	da803e17 	ldw	r10,248(sp)
    6580:	103f2a26 	beq	r2,zero,622c <__alt_data_end+0xf800622c>
    6584:	00800044 	movi	r2,1
    6588:	1707c83a 	sub	r3,r2,fp
    658c:	d8c02615 	stw	r3,152(sp)
    6590:	003f2706 	br	6230 <__alt_data_end+0xf8006230>
    6594:	db003417 	ldw	r12,208(sp)
    6598:	64800044 	addi	r18,r12,1
    659c:	9005883a 	mov	r2,r18
    65a0:	903ec20e 	bge	r18,zero,60ac <__alt_data_end+0xf80060ac>
    65a4:	003fdd06 	br	651c <__alt_data_end+0xf800651c>
    65a8:	0005883a 	mov	r2,zero
    65ac:	003f5a06 	br	6318 <__alt_data_end+0xf8006318>
    65b0:	dac03417 	ldw	r11,208(sp)
    65b4:	4a400044 	addi	r9,r9,1
    65b8:	5a65883a 	add	r18,r11,r9
    65bc:	9005883a 	mov	r2,r18
    65c0:	903eba0e 	bge	r18,zero,60ac <__alt_data_end+0xf80060ac>
    65c4:	003fd506 	br	651c <__alt_data_end+0xf800651c>
    65c8:	00800374 	movhi	r2,13
    65cc:	10af7884 	addi	r2,r2,-16926
    65d0:	d8802b15 	stw	r2,172(sp)
    65d4:	003d2906 	br	5a7c <__alt_data_end+0xf8005a7c>
    65d8:	00800c04 	movi	r2,48
    65dc:	e0c00c04 	addi	r3,fp,48
    65e0:	d8802345 	stb	r2,141(sp)
    65e4:	d8c02385 	stb	r3,142(sp)
    65e8:	d88023c4 	addi	r2,sp,143
    65ec:	dd4022c4 	addi	r21,sp,139
    65f0:	003f9e06 	br	646c <__alt_data_end+0xf800646c>
    65f4:	4800081e 	bne	r9,zero,6618 <___svfprintf_internal_r+0x1f18>
    65f8:	8c40004c 	andi	r17,r17,1
    65fc:	8800061e 	bne	r17,zero,6618 <___svfprintf_internal_r+0x1f18>
    6600:	00800044 	movi	r2,1
    6604:	1025883a 	mov	r18,r2
    6608:	003ea806 	br	60ac <__alt_data_end+0xf80060ac>
    660c:	04800084 	movi	r18,2
    6610:	90e5c83a 	sub	r18,r18,r3
    6614:	003fbd06 	br	650c <__alt_data_end+0xf800650c>
    6618:	4c800084 	addi	r18,r9,2
    661c:	9005883a 	mov	r2,r18
    6620:	903ea20e 	bge	r18,zero,60ac <__alt_data_end+0xf80060ac>
    6624:	003fbd06 	br	651c <__alt_data_end+0xf800651c>
    6628:	dac02d17 	ldw	r11,180(sp)
    662c:	5a400017 	ldw	r9,0(r11)
    6630:	5ac00104 	addi	r11,r11,4
    6634:	dac02d15 	stw	r11,180(sp)
    6638:	483e3f0e 	bge	r9,zero,5f38 <__alt_data_end+0xf8005f38>
    663c:	027fffc4 	movi	r9,-1
    6640:	1c000047 	ldb	r16,1(r3)
    6644:	00388406 	br	4858 <__alt_data_end+0xf8004858>
    6648:	00800b44 	movi	r2,45
    664c:	0739c83a 	sub	fp,zero,fp
    6650:	d8802305 	stb	r2,140(sp)
    6654:	003f5c06 	br	63c8 <__alt_data_end+0xf80063c8>
    6658:	0005883a 	mov	r2,zero
    665c:	003f8c06 	br	6490 <__alt_data_end+0xf8006490>
    6660:	88a2703a 	and	r17,r17,r2
    6664:	883f8826 	beq	r17,zero,6488 <__alt_data_end+0xf8006488>
    6668:	003f8606 	br	6484 <__alt_data_end+0xf8006484>
    666c:	d8802344 	addi	r2,sp,141
    6670:	003f7e06 	br	646c <__alt_data_end+0xf800646c>
    6674:	d8c02617 	ldw	r3,152(sp)
    6678:	003f4d06 	br	63b0 <__alt_data_end+0xf80063b0>
    667c:	dac02f17 	ldw	r11,188(sp)
    6680:	00800304 	movi	r2,12
    6684:	58800015 	stw	r2,0(r11)
    6688:	00bfffc4 	movi	r2,-1
    668c:	0038e806 	br	4a30 <__alt_data_end+0xf8004a30>

00006690 <quorem>:
    6690:	defff704 	addi	sp,sp,-36
    6694:	dc800215 	stw	r18,8(sp)
    6698:	20800417 	ldw	r2,16(r4)
    669c:	2c800417 	ldw	r18,16(r5)
    66a0:	dfc00815 	stw	ra,32(sp)
    66a4:	ddc00715 	stw	r23,28(sp)
    66a8:	dd800615 	stw	r22,24(sp)
    66ac:	dd400515 	stw	r21,20(sp)
    66b0:	dd000415 	stw	r20,16(sp)
    66b4:	dcc00315 	stw	r19,12(sp)
    66b8:	dc400115 	stw	r17,4(sp)
    66bc:	dc000015 	stw	r16,0(sp)
    66c0:	14807116 	blt	r2,r18,6888 <quorem+0x1f8>
    66c4:	94bfffc4 	addi	r18,r18,-1
    66c8:	94ad883a 	add	r22,r18,r18
    66cc:	b5ad883a 	add	r22,r22,r22
    66d0:	2c400504 	addi	r17,r5,20
    66d4:	8da9883a 	add	r20,r17,r22
    66d8:	25400504 	addi	r21,r4,20
    66dc:	282f883a 	mov	r23,r5
    66e0:	adad883a 	add	r22,r21,r22
    66e4:	a1400017 	ldw	r5,0(r20)
    66e8:	2021883a 	mov	r16,r4
    66ec:	b1000017 	ldw	r4,0(r22)
    66f0:	29400044 	addi	r5,r5,1
    66f4:	0003d700 	call	3d70 <__udivsi3>
    66f8:	1027883a 	mov	r19,r2
    66fc:	10002c26 	beq	r2,zero,67b0 <quorem+0x120>
    6700:	a813883a 	mov	r9,r21
    6704:	8811883a 	mov	r8,r17
    6708:	0009883a 	mov	r4,zero
    670c:	000d883a 	mov	r6,zero
    6710:	41c00017 	ldw	r7,0(r8)
    6714:	49400017 	ldw	r5,0(r9)
    6718:	42000104 	addi	r8,r8,4
    671c:	38bfffcc 	andi	r2,r7,65535
    6720:	14c5383a 	mul	r2,r2,r19
    6724:	380ed43a 	srli	r7,r7,16
    6728:	28ffffcc 	andi	r3,r5,65535
    672c:	2085883a 	add	r2,r4,r2
    6730:	1008d43a 	srli	r4,r2,16
    6734:	3ccf383a 	mul	r7,r7,r19
    6738:	198d883a 	add	r6,r3,r6
    673c:	10ffffcc 	andi	r3,r2,65535
    6740:	30c7c83a 	sub	r3,r6,r3
    6744:	280ad43a 	srli	r5,r5,16
    6748:	21c9883a 	add	r4,r4,r7
    674c:	180dd43a 	srai	r6,r3,16
    6750:	20bfffcc 	andi	r2,r4,65535
    6754:	288bc83a 	sub	r5,r5,r2
    6758:	298b883a 	add	r5,r5,r6
    675c:	280e943a 	slli	r7,r5,16
    6760:	18ffffcc 	andi	r3,r3,65535
    6764:	2008d43a 	srli	r4,r4,16
    6768:	38ceb03a 	or	r7,r7,r3
    676c:	49c00015 	stw	r7,0(r9)
    6770:	280dd43a 	srai	r6,r5,16
    6774:	4a400104 	addi	r9,r9,4
    6778:	a23fe52e 	bgeu	r20,r8,6710 <__alt_data_end+0xf8006710>
    677c:	b0800017 	ldw	r2,0(r22)
    6780:	10000b1e 	bne	r2,zero,67b0 <quorem+0x120>
    6784:	b0bfff04 	addi	r2,r22,-4
    6788:	a880082e 	bgeu	r21,r2,67ac <quorem+0x11c>
    678c:	b0ffff17 	ldw	r3,-4(r22)
    6790:	18000326 	beq	r3,zero,67a0 <quorem+0x110>
    6794:	00000506 	br	67ac <quorem+0x11c>
    6798:	10c00017 	ldw	r3,0(r2)
    679c:	1800031e 	bne	r3,zero,67ac <quorem+0x11c>
    67a0:	10bfff04 	addi	r2,r2,-4
    67a4:	94bfffc4 	addi	r18,r18,-1
    67a8:	a8bffb36 	bltu	r21,r2,6798 <__alt_data_end+0xf8006798>
    67ac:	84800415 	stw	r18,16(r16)
    67b0:	8009883a 	mov	r4,r16
    67b4:	b80b883a 	mov	r5,r23
    67b8:	0008f8c0 	call	8f8c <__mcmp>
    67bc:	10002616 	blt	r2,zero,6858 <quorem+0x1c8>
    67c0:	9cc00044 	addi	r19,r19,1
    67c4:	a80d883a 	mov	r6,r21
    67c8:	000b883a 	mov	r5,zero
    67cc:	31000017 	ldw	r4,0(r6)
    67d0:	88800017 	ldw	r2,0(r17)
    67d4:	31800104 	addi	r6,r6,4
    67d8:	20ffffcc 	andi	r3,r4,65535
    67dc:	194b883a 	add	r5,r3,r5
    67e0:	10ffffcc 	andi	r3,r2,65535
    67e4:	28c7c83a 	sub	r3,r5,r3
    67e8:	1004d43a 	srli	r2,r2,16
    67ec:	2008d43a 	srli	r4,r4,16
    67f0:	180bd43a 	srai	r5,r3,16
    67f4:	18ffffcc 	andi	r3,r3,65535
    67f8:	2089c83a 	sub	r4,r4,r2
    67fc:	2149883a 	add	r4,r4,r5
    6800:	2004943a 	slli	r2,r4,16
    6804:	8c400104 	addi	r17,r17,4
    6808:	200bd43a 	srai	r5,r4,16
    680c:	10c6b03a 	or	r3,r2,r3
    6810:	30ffff15 	stw	r3,-4(r6)
    6814:	a47fed2e 	bgeu	r20,r17,67cc <__alt_data_end+0xf80067cc>
    6818:	9485883a 	add	r2,r18,r18
    681c:	1085883a 	add	r2,r2,r2
    6820:	a887883a 	add	r3,r21,r2
    6824:	18800017 	ldw	r2,0(r3)
    6828:	10000b1e 	bne	r2,zero,6858 <quorem+0x1c8>
    682c:	18bfff04 	addi	r2,r3,-4
    6830:	a880082e 	bgeu	r21,r2,6854 <quorem+0x1c4>
    6834:	18ffff17 	ldw	r3,-4(r3)
    6838:	18000326 	beq	r3,zero,6848 <quorem+0x1b8>
    683c:	00000506 	br	6854 <quorem+0x1c4>
    6840:	10c00017 	ldw	r3,0(r2)
    6844:	1800031e 	bne	r3,zero,6854 <quorem+0x1c4>
    6848:	10bfff04 	addi	r2,r2,-4
    684c:	94bfffc4 	addi	r18,r18,-1
    6850:	a8bffb36 	bltu	r21,r2,6840 <__alt_data_end+0xf8006840>
    6854:	84800415 	stw	r18,16(r16)
    6858:	9805883a 	mov	r2,r19
    685c:	dfc00817 	ldw	ra,32(sp)
    6860:	ddc00717 	ldw	r23,28(sp)
    6864:	dd800617 	ldw	r22,24(sp)
    6868:	dd400517 	ldw	r21,20(sp)
    686c:	dd000417 	ldw	r20,16(sp)
    6870:	dcc00317 	ldw	r19,12(sp)
    6874:	dc800217 	ldw	r18,8(sp)
    6878:	dc400117 	ldw	r17,4(sp)
    687c:	dc000017 	ldw	r16,0(sp)
    6880:	dec00904 	addi	sp,sp,36
    6884:	f800283a 	ret
    6888:	0005883a 	mov	r2,zero
    688c:	003ff306 	br	685c <__alt_data_end+0xf800685c>

00006890 <_dtoa_r>:
    6890:	20801017 	ldw	r2,64(r4)
    6894:	deffde04 	addi	sp,sp,-136
    6898:	dd401d15 	stw	r21,116(sp)
    689c:	dcc01b15 	stw	r19,108(sp)
    68a0:	dc801a15 	stw	r18,104(sp)
    68a4:	dc401915 	stw	r17,100(sp)
    68a8:	dc001815 	stw	r16,96(sp)
    68ac:	dfc02115 	stw	ra,132(sp)
    68b0:	df002015 	stw	fp,128(sp)
    68b4:	ddc01f15 	stw	r23,124(sp)
    68b8:	dd801e15 	stw	r22,120(sp)
    68bc:	dd001c15 	stw	r20,112(sp)
    68c0:	d9c00315 	stw	r7,12(sp)
    68c4:	2021883a 	mov	r16,r4
    68c8:	302b883a 	mov	r21,r6
    68cc:	2825883a 	mov	r18,r5
    68d0:	dc402417 	ldw	r17,144(sp)
    68d4:	3027883a 	mov	r19,r6
    68d8:	10000826 	beq	r2,zero,68fc <_dtoa_r+0x6c>
    68dc:	21801117 	ldw	r6,68(r4)
    68e0:	00c00044 	movi	r3,1
    68e4:	100b883a 	mov	r5,r2
    68e8:	1986983a 	sll	r3,r3,r6
    68ec:	11800115 	stw	r6,4(r2)
    68f0:	10c00215 	stw	r3,8(r2)
    68f4:	00087740 	call	8774 <_Bfree>
    68f8:	80001015 	stw	zero,64(r16)
    68fc:	a8002d16 	blt	r21,zero,69b4 <_dtoa_r+0x124>
    6900:	88000015 	stw	zero,0(r17)
    6904:	a8dffc2c 	andhi	r3,r21,32752
    6908:	009ffc34 	movhi	r2,32752
    690c:	18801b26 	beq	r3,r2,697c <_dtoa_r+0xec>
    6910:	9009883a 	mov	r4,r18
    6914:	980b883a 	mov	r5,r19
    6918:	000d883a 	mov	r6,zero
    691c:	000f883a 	mov	r7,zero
    6920:	000cf3c0 	call	cf3c <__eqdf2>
    6924:	10002a1e 	bne	r2,zero,69d0 <_dtoa_r+0x140>
    6928:	d8c02317 	ldw	r3,140(sp)
    692c:	d9002517 	ldw	r4,148(sp)
    6930:	00800044 	movi	r2,1
    6934:	18800015 	stw	r2,0(r3)
    6938:	2001a226 	beq	r4,zero,6fc4 <_dtoa_r+0x734>
    693c:	00800374 	movhi	r2,13
    6940:	10af7844 	addi	r2,r2,-16927
    6944:	20800015 	stw	r2,0(r4)
    6948:	10bfffc4 	addi	r2,r2,-1
    694c:	dfc02117 	ldw	ra,132(sp)
    6950:	df002017 	ldw	fp,128(sp)
    6954:	ddc01f17 	ldw	r23,124(sp)
    6958:	dd801e17 	ldw	r22,120(sp)
    695c:	dd401d17 	ldw	r21,116(sp)
    6960:	dd001c17 	ldw	r20,112(sp)
    6964:	dcc01b17 	ldw	r19,108(sp)
    6968:	dc801a17 	ldw	r18,104(sp)
    696c:	dc401917 	ldw	r17,100(sp)
    6970:	dc001817 	ldw	r16,96(sp)
    6974:	dec02204 	addi	sp,sp,136
    6978:	f800283a 	ret
    697c:	d8c02317 	ldw	r3,140(sp)
    6980:	0089c3c4 	movi	r2,9999
    6984:	18800015 	stw	r2,0(r3)
    6988:	90017c26 	beq	r18,zero,6f7c <_dtoa_r+0x6ec>
    698c:	00800374 	movhi	r2,13
    6990:	10af8404 	addi	r2,r2,-16880
    6994:	d9002517 	ldw	r4,148(sp)
    6998:	203fec26 	beq	r4,zero,694c <__alt_data_end+0xf800694c>
    699c:	10c000c7 	ldb	r3,3(r2)
    69a0:	18017d1e 	bne	r3,zero,6f98 <_dtoa_r+0x708>
    69a4:	10c000c4 	addi	r3,r2,3
    69a8:	d9802517 	ldw	r6,148(sp)
    69ac:	30c00015 	stw	r3,0(r6)
    69b0:	003fe606 	br	694c <__alt_data_end+0xf800694c>
    69b4:	04e00034 	movhi	r19,32768
    69b8:	9cffffc4 	addi	r19,r19,-1
    69bc:	00800044 	movi	r2,1
    69c0:	ace6703a 	and	r19,r21,r19
    69c4:	88800015 	stw	r2,0(r17)
    69c8:	982b883a 	mov	r21,r19
    69cc:	003fcd06 	br	6904 <__alt_data_end+0xf8006904>
    69d0:	d8800204 	addi	r2,sp,8
    69d4:	a822d53a 	srli	r17,r21,20
    69d8:	d8800015 	stw	r2,0(sp)
    69dc:	8009883a 	mov	r4,r16
    69e0:	900b883a 	mov	r5,r18
    69e4:	980d883a 	mov	r6,r19
    69e8:	d9c00104 	addi	r7,sp,4
    69ec:	00093000 	call	9300 <__d2b>
    69f0:	1039883a 	mov	fp,r2
    69f4:	88016a1e 	bne	r17,zero,6fa0 <_dtoa_r+0x710>
    69f8:	dd000217 	ldw	r20,8(sp)
    69fc:	dc400117 	ldw	r17,4(sp)
    6a00:	00befbc4 	movi	r2,-1041
    6a04:	a463883a 	add	r17,r20,r17
    6a08:	8882ea16 	blt	r17,r2,75b4 <_dtoa_r+0xd24>
    6a0c:	00bf0384 	movi	r2,-1010
    6a10:	1445c83a 	sub	r2,r2,r17
    6a14:	89010484 	addi	r4,r17,1042
    6a18:	a8aa983a 	sll	r21,r21,r2
    6a1c:	9108d83a 	srl	r4,r18,r4
    6a20:	a908b03a 	or	r4,r21,r4
    6a24:	000e2cc0 	call	e2cc <__floatunsidf>
    6a28:	017f8434 	movhi	r5,65040
    6a2c:	01800044 	movi	r6,1
    6a30:	1009883a 	mov	r4,r2
    6a34:	194b883a 	add	r5,r3,r5
    6a38:	8c7fffc4 	addi	r17,r17,-1
    6a3c:	d9800f15 	stw	r6,60(sp)
    6a40:	000d883a 	mov	r6,zero
    6a44:	01cffe34 	movhi	r7,16376
    6a48:	000d8a40 	call	d8a4 <__subdf3>
    6a4c:	0198dbf4 	movhi	r6,25455
    6a50:	01cff4f4 	movhi	r7,16339
    6a54:	1009883a 	mov	r4,r2
    6a58:	180b883a 	mov	r5,r3
    6a5c:	3190d844 	addi	r6,r6,17249
    6a60:	39e1e9c4 	addi	r7,r7,-30809
    6a64:	000d1800 	call	d180 <__muldf3>
    6a68:	01a2d874 	movhi	r6,35681
    6a6c:	01cff1f4 	movhi	r7,16327
    6a70:	180b883a 	mov	r5,r3
    6a74:	31b22cc4 	addi	r6,r6,-14157
    6a78:	39e28a04 	addi	r7,r7,-30168
    6a7c:	1009883a 	mov	r4,r2
    6a80:	000bdd40 	call	bdd4 <__adddf3>
    6a84:	8809883a 	mov	r4,r17
    6a88:	102d883a 	mov	r22,r2
    6a8c:	182b883a 	mov	r21,r3
    6a90:	000e1fc0 	call	e1fc <__floatsidf>
    6a94:	019427f4 	movhi	r6,20639
    6a98:	01cff4f4 	movhi	r7,16339
    6a9c:	1009883a 	mov	r4,r2
    6aa0:	180b883a 	mov	r5,r3
    6aa4:	319e7ec4 	addi	r6,r6,31227
    6aa8:	39d104c4 	addi	r7,r7,17427
    6aac:	000d1800 	call	d180 <__muldf3>
    6ab0:	b009883a 	mov	r4,r22
    6ab4:	a80b883a 	mov	r5,r21
    6ab8:	100d883a 	mov	r6,r2
    6abc:	180f883a 	mov	r7,r3
    6ac0:	000bdd40 	call	bdd4 <__adddf3>
    6ac4:	1009883a 	mov	r4,r2
    6ac8:	180b883a 	mov	r5,r3
    6acc:	102d883a 	mov	r22,r2
    6ad0:	182b883a 	mov	r21,r3
    6ad4:	000e1740 	call	e174 <__fixdfsi>
    6ad8:	b009883a 	mov	r4,r22
    6adc:	a80b883a 	mov	r5,r21
    6ae0:	000d883a 	mov	r6,zero
    6ae4:	000f883a 	mov	r7,zero
    6ae8:	d8800515 	stw	r2,20(sp)
    6aec:	000d0a00 	call	d0a0 <__ledf2>
    6af0:	10023116 	blt	r2,zero,73b8 <_dtoa_r+0xb28>
    6af4:	d8c00517 	ldw	r3,20(sp)
    6af8:	00800584 	movi	r2,22
    6afc:	10c21f36 	bltu	r2,r3,737c <_dtoa_r+0xaec>
    6b00:	180490fa 	slli	r2,r3,3
    6b04:	00c00374 	movhi	r3,13
    6b08:	18efa004 	addi	r3,r3,-16768
    6b0c:	1885883a 	add	r2,r3,r2
    6b10:	11000017 	ldw	r4,0(r2)
    6b14:	11400117 	ldw	r5,4(r2)
    6b18:	900d883a 	mov	r6,r18
    6b1c:	980f883a 	mov	r7,r19
    6b20:	000cfc00 	call	cfc0 <__gedf2>
    6b24:	0082a70e 	bge	zero,r2,75c4 <_dtoa_r+0xd34>
    6b28:	d9000517 	ldw	r4,20(sp)
    6b2c:	d8000c15 	stw	zero,48(sp)
    6b30:	213fffc4 	addi	r4,r4,-1
    6b34:	d9000515 	stw	r4,20(sp)
    6b38:	a463c83a 	sub	r17,r20,r17
    6b3c:	8dbfffc4 	addi	r22,r17,-1
    6b40:	b0021916 	blt	r22,zero,73a8 <_dtoa_r+0xb18>
    6b44:	d8000815 	stw	zero,32(sp)
    6b48:	d8800517 	ldw	r2,20(sp)
    6b4c:	10020e16 	blt	r2,zero,7388 <_dtoa_r+0xaf8>
    6b50:	b0ad883a 	add	r22,r22,r2
    6b54:	d8800a15 	stw	r2,40(sp)
    6b58:	d8000915 	stw	zero,36(sp)
    6b5c:	d8c00317 	ldw	r3,12(sp)
    6b60:	00800244 	movi	r2,9
    6b64:	10c11a36 	bltu	r2,r3,6fd0 <_dtoa_r+0x740>
    6b68:	00800144 	movi	r2,5
    6b6c:	10c4fc0e 	bge	r2,r3,7f60 <_dtoa_r+0x16d0>
    6b70:	18ffff04 	addi	r3,r3,-4
    6b74:	d8c00315 	stw	r3,12(sp)
    6b78:	0029883a 	mov	r20,zero
    6b7c:	d9800317 	ldw	r6,12(sp)
    6b80:	008000c4 	movi	r2,3
    6b84:	3083bd26 	beq	r6,r2,7a7c <_dtoa_r+0x11ec>
    6b88:	1183670e 	bge	r2,r6,7928 <_dtoa_r+0x1098>
    6b8c:	d8c00317 	ldw	r3,12(sp)
    6b90:	00800104 	movi	r2,4
    6b94:	1882e726 	beq	r3,r2,7734 <_dtoa_r+0xea4>
    6b98:	00800144 	movi	r2,5
    6b9c:	1884f21e 	bne	r3,r2,7f68 <_dtoa_r+0x16d8>
    6ba0:	00800044 	movi	r2,1
    6ba4:	d8800b15 	stw	r2,44(sp)
    6ba8:	d8c02217 	ldw	r3,136(sp)
    6bac:	d9000517 	ldw	r4,20(sp)
    6bb0:	1907883a 	add	r3,r3,r4
    6bb4:	19800044 	addi	r6,r3,1
    6bb8:	d8c00d15 	stw	r3,52(sp)
    6bbc:	d9800615 	stw	r6,24(sp)
    6bc0:	0183c30e 	bge	zero,r6,7ad0 <_dtoa_r+0x1240>
    6bc4:	d9800617 	ldw	r6,24(sp)
    6bc8:	3023883a 	mov	r17,r6
    6bcc:	80001115 	stw	zero,68(r16)
    6bd0:	008005c4 	movi	r2,23
    6bd4:	1184f62e 	bgeu	r2,r6,7fb0 <_dtoa_r+0x1720>
    6bd8:	00c00044 	movi	r3,1
    6bdc:	00800104 	movi	r2,4
    6be0:	1085883a 	add	r2,r2,r2
    6be4:	11000504 	addi	r4,r2,20
    6be8:	180b883a 	mov	r5,r3
    6bec:	18c00044 	addi	r3,r3,1
    6bf0:	313ffb2e 	bgeu	r6,r4,6be0 <__alt_data_end+0xf8006be0>
    6bf4:	81401115 	stw	r5,68(r16)
    6bf8:	8009883a 	mov	r4,r16
    6bfc:	00086cc0 	call	86cc <_Balloc>
    6c00:	d8800715 	stw	r2,28(sp)
    6c04:	80801015 	stw	r2,64(r16)
    6c08:	00800384 	movi	r2,14
    6c0c:	1440fd36 	bltu	r2,r17,7004 <_dtoa_r+0x774>
    6c10:	a000fc26 	beq	r20,zero,7004 <_dtoa_r+0x774>
    6c14:	d8800517 	ldw	r2,20(sp)
    6c18:	0083b90e 	bge	zero,r2,7b00 <_dtoa_r+0x1270>
    6c1c:	d8c00517 	ldw	r3,20(sp)
    6c20:	108003cc 	andi	r2,r2,15
    6c24:	100490fa 	slli	r2,r2,3
    6c28:	182fd13a 	srai	r23,r3,4
    6c2c:	00c00374 	movhi	r3,13
    6c30:	18efa004 	addi	r3,r3,-16768
    6c34:	1885883a 	add	r2,r3,r2
    6c38:	b8c0040c 	andi	r3,r23,16
    6c3c:	12c00017 	ldw	r11,0(r2)
    6c40:	12800117 	ldw	r10,4(r2)
    6c44:	18039726 	beq	r3,zero,7aa4 <_dtoa_r+0x1214>
    6c48:	00800374 	movhi	r2,13
    6c4c:	10af9604 	addi	r2,r2,-16808
    6c50:	11800817 	ldw	r6,32(r2)
    6c54:	11c00917 	ldw	r7,36(r2)
    6c58:	9009883a 	mov	r4,r18
    6c5c:	980b883a 	mov	r5,r19
    6c60:	da801615 	stw	r10,88(sp)
    6c64:	dac01515 	stw	r11,84(sp)
    6c68:	000c6700 	call	c670 <__divdf3>
    6c6c:	da801617 	ldw	r10,88(sp)
    6c70:	dac01517 	ldw	r11,84(sp)
    6c74:	bdc003cc 	andi	r23,r23,15
    6c78:	044000c4 	movi	r17,3
    6c7c:	d8800e15 	stw	r2,56(sp)
    6c80:	182b883a 	mov	r21,r3
    6c84:	b8001126 	beq	r23,zero,6ccc <_dtoa_r+0x43c>
    6c88:	05000374 	movhi	r20,13
    6c8c:	a52f9604 	addi	r20,r20,-16808
    6c90:	5805883a 	mov	r2,r11
    6c94:	5007883a 	mov	r3,r10
    6c98:	b980004c 	andi	r6,r23,1
    6c9c:	1009883a 	mov	r4,r2
    6ca0:	b82fd07a 	srai	r23,r23,1
    6ca4:	180b883a 	mov	r5,r3
    6ca8:	30000426 	beq	r6,zero,6cbc <_dtoa_r+0x42c>
    6cac:	a1800017 	ldw	r6,0(r20)
    6cb0:	a1c00117 	ldw	r7,4(r20)
    6cb4:	8c400044 	addi	r17,r17,1
    6cb8:	000d1800 	call	d180 <__muldf3>
    6cbc:	a5000204 	addi	r20,r20,8
    6cc0:	b83ff51e 	bne	r23,zero,6c98 <__alt_data_end+0xf8006c98>
    6cc4:	1017883a 	mov	r11,r2
    6cc8:	1815883a 	mov	r10,r3
    6ccc:	d9000e17 	ldw	r4,56(sp)
    6cd0:	a80b883a 	mov	r5,r21
    6cd4:	580d883a 	mov	r6,r11
    6cd8:	500f883a 	mov	r7,r10
    6cdc:	000c6700 	call	c670 <__divdf3>
    6ce0:	1029883a 	mov	r20,r2
    6ce4:	182b883a 	mov	r21,r3
    6ce8:	d9800c17 	ldw	r6,48(sp)
    6cec:	30000626 	beq	r6,zero,6d08 <_dtoa_r+0x478>
    6cf0:	a009883a 	mov	r4,r20
    6cf4:	a80b883a 	mov	r5,r21
    6cf8:	000d883a 	mov	r6,zero
    6cfc:	01cffc34 	movhi	r7,16368
    6d00:	000d0a00 	call	d0a0 <__ledf2>
    6d04:	10043216 	blt	r2,zero,7dd0 <_dtoa_r+0x1540>
    6d08:	8809883a 	mov	r4,r17
    6d0c:	000e1fc0 	call	e1fc <__floatsidf>
    6d10:	1009883a 	mov	r4,r2
    6d14:	180b883a 	mov	r5,r3
    6d18:	a00d883a 	mov	r6,r20
    6d1c:	a80f883a 	mov	r7,r21
    6d20:	000d1800 	call	d180 <__muldf3>
    6d24:	000d883a 	mov	r6,zero
    6d28:	1009883a 	mov	r4,r2
    6d2c:	180b883a 	mov	r5,r3
    6d30:	01d00734 	movhi	r7,16412
    6d34:	000bdd40 	call	bdd4 <__adddf3>
    6d38:	1023883a 	mov	r17,r2
    6d3c:	d9800617 	ldw	r6,24(sp)
    6d40:	00bf3034 	movhi	r2,64704
    6d44:	1885883a 	add	r2,r3,r2
    6d48:	d8800e15 	stw	r2,56(sp)
    6d4c:	30032e26 	beq	r6,zero,7a08 <_dtoa_r+0x1178>
    6d50:	d8c00517 	ldw	r3,20(sp)
    6d54:	da800617 	ldw	r10,24(sp)
    6d58:	d8c01215 	stw	r3,72(sp)
    6d5c:	d9000b17 	ldw	r4,44(sp)
    6d60:	2003b026 	beq	r4,zero,7c24 <_dtoa_r+0x1394>
    6d64:	50bfffc4 	addi	r2,r10,-1
    6d68:	100490fa 	slli	r2,r2,3
    6d6c:	00c00374 	movhi	r3,13
    6d70:	18efa004 	addi	r3,r3,-16768
    6d74:	1885883a 	add	r2,r3,r2
    6d78:	11800017 	ldw	r6,0(r2)
    6d7c:	11c00117 	ldw	r7,4(r2)
    6d80:	d8800717 	ldw	r2,28(sp)
    6d84:	0009883a 	mov	r4,zero
    6d88:	014ff834 	movhi	r5,16352
    6d8c:	da801615 	stw	r10,88(sp)
    6d90:	15c00044 	addi	r23,r2,1
    6d94:	000c6700 	call	c670 <__divdf3>
    6d98:	d9c00e17 	ldw	r7,56(sp)
    6d9c:	880d883a 	mov	r6,r17
    6da0:	1009883a 	mov	r4,r2
    6da4:	180b883a 	mov	r5,r3
    6da8:	000d8a40 	call	d8a4 <__subdf3>
    6dac:	a80b883a 	mov	r5,r21
    6db0:	a009883a 	mov	r4,r20
    6db4:	d8c01015 	stw	r3,64(sp)
    6db8:	d8800e15 	stw	r2,56(sp)
    6dbc:	000e1740 	call	e174 <__fixdfsi>
    6dc0:	1009883a 	mov	r4,r2
    6dc4:	d8801715 	stw	r2,92(sp)
    6dc8:	000e1fc0 	call	e1fc <__floatsidf>
    6dcc:	a009883a 	mov	r4,r20
    6dd0:	a80b883a 	mov	r5,r21
    6dd4:	100d883a 	mov	r6,r2
    6dd8:	180f883a 	mov	r7,r3
    6ddc:	000d8a40 	call	d8a4 <__subdf3>
    6de0:	da001717 	ldw	r8,92(sp)
    6de4:	1829883a 	mov	r20,r3
    6de8:	d8c00717 	ldw	r3,28(sp)
    6dec:	d9000e17 	ldw	r4,56(sp)
    6df0:	d9401017 	ldw	r5,64(sp)
    6df4:	42000c04 	addi	r8,r8,48
    6df8:	1023883a 	mov	r17,r2
    6dfc:	1a000005 	stb	r8,0(r3)
    6e00:	880d883a 	mov	r6,r17
    6e04:	a00f883a 	mov	r7,r20
    6e08:	402b883a 	mov	r21,r8
    6e0c:	000cfc00 	call	cfc0 <__gedf2>
    6e10:	00844516 	blt	zero,r2,7f28 <_dtoa_r+0x1698>
    6e14:	0009883a 	mov	r4,zero
    6e18:	014ffc34 	movhi	r5,16368
    6e1c:	880d883a 	mov	r6,r17
    6e20:	a00f883a 	mov	r7,r20
    6e24:	000d8a40 	call	d8a4 <__subdf3>
    6e28:	d9000e17 	ldw	r4,56(sp)
    6e2c:	d9401017 	ldw	r5,64(sp)
    6e30:	100d883a 	mov	r6,r2
    6e34:	180f883a 	mov	r7,r3
    6e38:	000cfc00 	call	cfc0 <__gedf2>
    6e3c:	da801617 	ldw	r10,88(sp)
    6e40:	00843616 	blt	zero,r2,7f1c <_dtoa_r+0x168c>
    6e44:	00800044 	movi	r2,1
    6e48:	12806e0e 	bge	r2,r10,7004 <_dtoa_r+0x774>
    6e4c:	d9000717 	ldw	r4,28(sp)
    6e50:	dd801315 	stw	r22,76(sp)
    6e54:	dc001115 	stw	r16,68(sp)
    6e58:	2295883a 	add	r10,r4,r10
    6e5c:	dcc01415 	stw	r19,80(sp)
    6e60:	502d883a 	mov	r22,r10
    6e64:	dcc01017 	ldw	r19,64(sp)
    6e68:	b821883a 	mov	r16,r23
    6e6c:	dc801015 	stw	r18,64(sp)
    6e70:	dc800e17 	ldw	r18,56(sp)
    6e74:	00000906 	br	6e9c <_dtoa_r+0x60c>
    6e78:	000d8a40 	call	d8a4 <__subdf3>
    6e7c:	1009883a 	mov	r4,r2
    6e80:	180b883a 	mov	r5,r3
    6e84:	900d883a 	mov	r6,r18
    6e88:	980f883a 	mov	r7,r19
    6e8c:	000d0a00 	call	d0a0 <__ledf2>
    6e90:	10040e16 	blt	r2,zero,7ecc <_dtoa_r+0x163c>
    6e94:	b821883a 	mov	r16,r23
    6e98:	bd841026 	beq	r23,r22,7edc <_dtoa_r+0x164c>
    6e9c:	9009883a 	mov	r4,r18
    6ea0:	980b883a 	mov	r5,r19
    6ea4:	000d883a 	mov	r6,zero
    6ea8:	01d00934 	movhi	r7,16420
    6eac:	000d1800 	call	d180 <__muldf3>
    6eb0:	000d883a 	mov	r6,zero
    6eb4:	01d00934 	movhi	r7,16420
    6eb8:	8809883a 	mov	r4,r17
    6ebc:	a00b883a 	mov	r5,r20
    6ec0:	1025883a 	mov	r18,r2
    6ec4:	1827883a 	mov	r19,r3
    6ec8:	000d1800 	call	d180 <__muldf3>
    6ecc:	180b883a 	mov	r5,r3
    6ed0:	1009883a 	mov	r4,r2
    6ed4:	1823883a 	mov	r17,r3
    6ed8:	1029883a 	mov	r20,r2
    6edc:	000e1740 	call	e174 <__fixdfsi>
    6ee0:	1009883a 	mov	r4,r2
    6ee4:	102b883a 	mov	r21,r2
    6ee8:	000e1fc0 	call	e1fc <__floatsidf>
    6eec:	a009883a 	mov	r4,r20
    6ef0:	880b883a 	mov	r5,r17
    6ef4:	100d883a 	mov	r6,r2
    6ef8:	180f883a 	mov	r7,r3
    6efc:	000d8a40 	call	d8a4 <__subdf3>
    6f00:	ad400c04 	addi	r21,r21,48
    6f04:	1009883a 	mov	r4,r2
    6f08:	180b883a 	mov	r5,r3
    6f0c:	900d883a 	mov	r6,r18
    6f10:	980f883a 	mov	r7,r19
    6f14:	85400005 	stb	r21,0(r16)
    6f18:	1023883a 	mov	r17,r2
    6f1c:	1829883a 	mov	r20,r3
    6f20:	000d0a00 	call	d0a0 <__ledf2>
    6f24:	bdc00044 	addi	r23,r23,1
    6f28:	0009883a 	mov	r4,zero
    6f2c:	014ffc34 	movhi	r5,16368
    6f30:	880d883a 	mov	r6,r17
    6f34:	a00f883a 	mov	r7,r20
    6f38:	103fcf0e 	bge	r2,zero,6e78 <__alt_data_end+0xf8006e78>
    6f3c:	d9801217 	ldw	r6,72(sp)
    6f40:	dc001117 	ldw	r16,68(sp)
    6f44:	d9800515 	stw	r6,20(sp)
    6f48:	8009883a 	mov	r4,r16
    6f4c:	e00b883a 	mov	r5,fp
    6f50:	00087740 	call	8774 <_Bfree>
    6f54:	d8c00517 	ldw	r3,20(sp)
    6f58:	d9002317 	ldw	r4,140(sp)
    6f5c:	d9802517 	ldw	r6,148(sp)
    6f60:	b8000005 	stb	zero,0(r23)
    6f64:	18800044 	addi	r2,r3,1
    6f68:	20800015 	stw	r2,0(r4)
    6f6c:	30027226 	beq	r6,zero,7938 <_dtoa_r+0x10a8>
    6f70:	35c00015 	stw	r23,0(r6)
    6f74:	d8800717 	ldw	r2,28(sp)
    6f78:	003e7406 	br	694c <__alt_data_end+0xf800694c>
    6f7c:	00800434 	movhi	r2,16
    6f80:	10bfffc4 	addi	r2,r2,-1
    6f84:	a8aa703a 	and	r21,r21,r2
    6f88:	a83e801e 	bne	r21,zero,698c <__alt_data_end+0xf800698c>
    6f8c:	00800374 	movhi	r2,13
    6f90:	10af8104 	addi	r2,r2,-16892
    6f94:	003e7f06 	br	6994 <__alt_data_end+0xf8006994>
    6f98:	10c00204 	addi	r3,r2,8
    6f9c:	003e8206 	br	69a8 <__alt_data_end+0xf80069a8>
    6fa0:	01400434 	movhi	r5,16
    6fa4:	297fffc4 	addi	r5,r5,-1
    6fa8:	994a703a 	and	r5,r19,r5
    6fac:	9009883a 	mov	r4,r18
    6fb0:	8c7f0044 	addi	r17,r17,-1023
    6fb4:	294ffc34 	orhi	r5,r5,16368
    6fb8:	dd000217 	ldw	r20,8(sp)
    6fbc:	d8000f15 	stw	zero,60(sp)
    6fc0:	003e9f06 	br	6a40 <__alt_data_end+0xf8006a40>
    6fc4:	00800374 	movhi	r2,13
    6fc8:	10af7804 	addi	r2,r2,-16928
    6fcc:	003e5f06 	br	694c <__alt_data_end+0xf800694c>
    6fd0:	80001115 	stw	zero,68(r16)
    6fd4:	8009883a 	mov	r4,r16
    6fd8:	000b883a 	mov	r5,zero
    6fdc:	00086cc0 	call	86cc <_Balloc>
    6fe0:	01bfffc4 	movi	r6,-1
    6fe4:	d8800715 	stw	r2,28(sp)
    6fe8:	80801015 	stw	r2,64(r16)
    6fec:	00800044 	movi	r2,1
    6ff0:	d9800615 	stw	r6,24(sp)
    6ff4:	d8800b15 	stw	r2,44(sp)
    6ff8:	d8002215 	stw	zero,136(sp)
    6ffc:	d9800d15 	stw	r6,52(sp)
    7000:	d8000315 	stw	zero,12(sp)
    7004:	d8800117 	ldw	r2,4(sp)
    7008:	10008e16 	blt	r2,zero,7244 <_dtoa_r+0x9b4>
    700c:	d9000517 	ldw	r4,20(sp)
    7010:	00c00384 	movi	r3,14
    7014:	19008b16 	blt	r3,r4,7244 <_dtoa_r+0x9b4>
    7018:	200490fa 	slli	r2,r4,3
    701c:	00c00374 	movhi	r3,13
    7020:	d9802217 	ldw	r6,136(sp)
    7024:	18efa004 	addi	r3,r3,-16768
    7028:	1885883a 	add	r2,r3,r2
    702c:	14400017 	ldw	r17,0(r2)
    7030:	15000117 	ldw	r20,4(r2)
    7034:	3001c716 	blt	r6,zero,7754 <_dtoa_r+0xec4>
    7038:	880d883a 	mov	r6,r17
    703c:	a00f883a 	mov	r7,r20
    7040:	9009883a 	mov	r4,r18
    7044:	980b883a 	mov	r5,r19
    7048:	000c6700 	call	c670 <__divdf3>
    704c:	180b883a 	mov	r5,r3
    7050:	1009883a 	mov	r4,r2
    7054:	000e1740 	call	e174 <__fixdfsi>
    7058:	1009883a 	mov	r4,r2
    705c:	102d883a 	mov	r22,r2
    7060:	000e1fc0 	call	e1fc <__floatsidf>
    7064:	1009883a 	mov	r4,r2
    7068:	180b883a 	mov	r5,r3
    706c:	880d883a 	mov	r6,r17
    7070:	a00f883a 	mov	r7,r20
    7074:	000d1800 	call	d180 <__muldf3>
    7078:	9009883a 	mov	r4,r18
    707c:	980b883a 	mov	r5,r19
    7080:	100d883a 	mov	r6,r2
    7084:	180f883a 	mov	r7,r3
    7088:	000d8a40 	call	d8a4 <__subdf3>
    708c:	d9000717 	ldw	r4,28(sp)
    7090:	d9800617 	ldw	r6,24(sp)
    7094:	180b883a 	mov	r5,r3
    7098:	b0c00c04 	addi	r3,r22,48
    709c:	20c00005 	stb	r3,0(r4)
    70a0:	25c00044 	addi	r23,r4,1
    70a4:	01000044 	movi	r4,1
    70a8:	1011883a 	mov	r8,r2
    70ac:	2807883a 	mov	r3,r5
    70b0:	31003d26 	beq	r6,r4,71a8 <_dtoa_r+0x918>
    70b4:	000d883a 	mov	r6,zero
    70b8:	01d00934 	movhi	r7,16420
    70bc:	1009883a 	mov	r4,r2
    70c0:	000d1800 	call	d180 <__muldf3>
    70c4:	1009883a 	mov	r4,r2
    70c8:	180b883a 	mov	r5,r3
    70cc:	000d883a 	mov	r6,zero
    70d0:	000f883a 	mov	r7,zero
    70d4:	1027883a 	mov	r19,r2
    70d8:	182b883a 	mov	r21,r3
    70dc:	000cf3c0 	call	cf3c <__eqdf2>
    70e0:	103f9926 	beq	r2,zero,6f48 <__alt_data_end+0xf8006f48>
    70e4:	d8c00617 	ldw	r3,24(sp)
    70e8:	d9000717 	ldw	r4,28(sp)
    70ec:	b825883a 	mov	r18,r23
    70f0:	18bfffc4 	addi	r2,r3,-1
    70f4:	20ad883a 	add	r22,r4,r2
    70f8:	dc000315 	stw	r16,12(sp)
    70fc:	00000a06 	br	7128 <_dtoa_r+0x898>
    7100:	000d1800 	call	d180 <__muldf3>
    7104:	1009883a 	mov	r4,r2
    7108:	180b883a 	mov	r5,r3
    710c:	000d883a 	mov	r6,zero
    7110:	000f883a 	mov	r7,zero
    7114:	1027883a 	mov	r19,r2
    7118:	182b883a 	mov	r21,r3
    711c:	b825883a 	mov	r18,r23
    7120:	000cf3c0 	call	cf3c <__eqdf2>
    7124:	10022626 	beq	r2,zero,79c0 <_dtoa_r+0x1130>
    7128:	880d883a 	mov	r6,r17
    712c:	a00f883a 	mov	r7,r20
    7130:	9809883a 	mov	r4,r19
    7134:	a80b883a 	mov	r5,r21
    7138:	000c6700 	call	c670 <__divdf3>
    713c:	180b883a 	mov	r5,r3
    7140:	1009883a 	mov	r4,r2
    7144:	000e1740 	call	e174 <__fixdfsi>
    7148:	1009883a 	mov	r4,r2
    714c:	1021883a 	mov	r16,r2
    7150:	000e1fc0 	call	e1fc <__floatsidf>
    7154:	1009883a 	mov	r4,r2
    7158:	180b883a 	mov	r5,r3
    715c:	880d883a 	mov	r6,r17
    7160:	a00f883a 	mov	r7,r20
    7164:	000d1800 	call	d180 <__muldf3>
    7168:	9809883a 	mov	r4,r19
    716c:	a80b883a 	mov	r5,r21
    7170:	100d883a 	mov	r6,r2
    7174:	180f883a 	mov	r7,r3
    7178:	000d8a40 	call	d8a4 <__subdf3>
    717c:	82000c04 	addi	r8,r16,48
    7180:	92000005 	stb	r8,0(r18)
    7184:	1009883a 	mov	r4,r2
    7188:	180b883a 	mov	r5,r3
    718c:	000d883a 	mov	r6,zero
    7190:	01d00934 	movhi	r7,16420
    7194:	1011883a 	mov	r8,r2
    7198:	bdc00044 	addi	r23,r23,1
    719c:	95bfd81e 	bne	r18,r22,7100 <__alt_data_end+0xf8007100>
    71a0:	802d883a 	mov	r22,r16
    71a4:	dc000317 	ldw	r16,12(sp)
    71a8:	4009883a 	mov	r4,r8
    71ac:	180b883a 	mov	r5,r3
    71b0:	400d883a 	mov	r6,r8
    71b4:	180f883a 	mov	r7,r3
    71b8:	000bdd40 	call	bdd4 <__adddf3>
    71bc:	8809883a 	mov	r4,r17
    71c0:	a00b883a 	mov	r5,r20
    71c4:	100d883a 	mov	r6,r2
    71c8:	180f883a 	mov	r7,r3
    71cc:	1027883a 	mov	r19,r2
    71d0:	1825883a 	mov	r18,r3
    71d4:	000d0a00 	call	d0a0 <__ledf2>
    71d8:	10000816 	blt	r2,zero,71fc <_dtoa_r+0x96c>
    71dc:	8809883a 	mov	r4,r17
    71e0:	a00b883a 	mov	r5,r20
    71e4:	980d883a 	mov	r6,r19
    71e8:	900f883a 	mov	r7,r18
    71ec:	000cf3c0 	call	cf3c <__eqdf2>
    71f0:	103f551e 	bne	r2,zero,6f48 <__alt_data_end+0xf8006f48>
    71f4:	b580004c 	andi	r22,r22,1
    71f8:	b03f5326 	beq	r22,zero,6f48 <__alt_data_end+0xf8006f48>
    71fc:	bd7fffc3 	ldbu	r21,-1(r23)
    7200:	b8bfffc4 	addi	r2,r23,-1
    7204:	1007883a 	mov	r3,r2
    7208:	01400e44 	movi	r5,57
    720c:	d9800717 	ldw	r6,28(sp)
    7210:	00000506 	br	7228 <_dtoa_r+0x998>
    7214:	18ffffc4 	addi	r3,r3,-1
    7218:	30825e26 	beq	r6,r2,7b94 <_dtoa_r+0x1304>
    721c:	1d400003 	ldbu	r21,0(r3)
    7220:	102f883a 	mov	r23,r2
    7224:	10bfffc4 	addi	r2,r2,-1
    7228:	a9003fcc 	andi	r4,r21,255
    722c:	2100201c 	xori	r4,r4,128
    7230:	213fe004 	addi	r4,r4,-128
    7234:	217ff726 	beq	r4,r5,7214 <__alt_data_end+0xf8007214>
    7238:	aa000044 	addi	r8,r21,1
    723c:	12000005 	stb	r8,0(r2)
    7240:	003f4106 	br	6f48 <__alt_data_end+0xf8006f48>
    7244:	d8c00b17 	ldw	r3,44(sp)
    7248:	18006726 	beq	r3,zero,73e8 <_dtoa_r+0xb58>
    724c:	d9000317 	ldw	r4,12(sp)
    7250:	00c00044 	movi	r3,1
    7254:	19016a0e 	bge	r3,r4,7800 <_dtoa_r+0xf70>
    7258:	d8800617 	ldw	r2,24(sp)
    725c:	d8c00917 	ldw	r3,36(sp)
    7260:	157fffc4 	addi	r21,r2,-1
    7264:	1d420716 	blt	r3,r21,7a84 <_dtoa_r+0x11f4>
    7268:	1d6bc83a 	sub	r21,r3,r21
    726c:	d8800617 	ldw	r2,24(sp)
    7270:	1002c716 	blt	r2,zero,7d90 <_dtoa_r+0x1500>
    7274:	dd000817 	ldw	r20,32(sp)
    7278:	d8800617 	ldw	r2,24(sp)
    727c:	d9800817 	ldw	r6,32(sp)
    7280:	8009883a 	mov	r4,r16
    7284:	01400044 	movi	r5,1
    7288:	308d883a 	add	r6,r6,r2
    728c:	d9800815 	stw	r6,32(sp)
    7290:	b0ad883a 	add	r22,r22,r2
    7294:	0008acc0 	call	8acc <__i2b>
    7298:	1023883a 	mov	r17,r2
    729c:	a0000826 	beq	r20,zero,72c0 <_dtoa_r+0xa30>
    72a0:	0580070e 	bge	zero,r22,72c0 <_dtoa_r+0xa30>
    72a4:	b005883a 	mov	r2,r22
    72a8:	a5812016 	blt	r20,r22,772c <_dtoa_r+0xe9c>
    72ac:	d8c00817 	ldw	r3,32(sp)
    72b0:	a0a9c83a 	sub	r20,r20,r2
    72b4:	b0adc83a 	sub	r22,r22,r2
    72b8:	1887c83a 	sub	r3,r3,r2
    72bc:	d8c00815 	stw	r3,32(sp)
    72c0:	d9000917 	ldw	r4,36(sp)
    72c4:	0100140e 	bge	zero,r4,7318 <_dtoa_r+0xa88>
    72c8:	d9800b17 	ldw	r6,44(sp)
    72cc:	3001e526 	beq	r6,zero,7a64 <_dtoa_r+0x11d4>
    72d0:	05400e0e 	bge	zero,r21,730c <_dtoa_r+0xa7c>
    72d4:	880b883a 	mov	r5,r17
    72d8:	8009883a 	mov	r4,r16
    72dc:	a80d883a 	mov	r6,r21
    72e0:	0008d040 	call	8d04 <__pow5mult>
    72e4:	e00d883a 	mov	r6,fp
    72e8:	8009883a 	mov	r4,r16
    72ec:	100b883a 	mov	r5,r2
    72f0:	1023883a 	mov	r17,r2
    72f4:	0008b080 	call	8b08 <__multiply>
    72f8:	102f883a 	mov	r23,r2
    72fc:	e00b883a 	mov	r5,fp
    7300:	8009883a 	mov	r4,r16
    7304:	00087740 	call	8774 <_Bfree>
    7308:	b839883a 	mov	fp,r23
    730c:	d8800917 	ldw	r2,36(sp)
    7310:	154dc83a 	sub	r6,r2,r21
    7314:	3001281e 	bne	r6,zero,77b8 <_dtoa_r+0xf28>
    7318:	05c00044 	movi	r23,1
    731c:	8009883a 	mov	r4,r16
    7320:	b80b883a 	mov	r5,r23
    7324:	0008acc0 	call	8acc <__i2b>
    7328:	d8c00a17 	ldw	r3,40(sp)
    732c:	102b883a 	mov	r21,r2
    7330:	00c0310e 	bge	zero,r3,73f8 <_dtoa_r+0xb68>
    7334:	8009883a 	mov	r4,r16
    7338:	100b883a 	mov	r5,r2
    733c:	180d883a 	mov	r6,r3
    7340:	0008d040 	call	8d04 <__pow5mult>
    7344:	d9000317 	ldw	r4,12(sp)
    7348:	102b883a 	mov	r21,r2
    734c:	b9011f0e 	bge	r23,r4,77cc <_dtoa_r+0xf3c>
    7350:	0027883a 	mov	r19,zero
    7354:	a8800417 	ldw	r2,16(r21)
    7358:	10800104 	addi	r2,r2,4
    735c:	1085883a 	add	r2,r2,r2
    7360:	1085883a 	add	r2,r2,r2
    7364:	a885883a 	add	r2,r21,r2
    7368:	11000017 	ldw	r4,0(r2)
    736c:	00089b40 	call	89b4 <__hi0bits>
    7370:	00c00804 	movi	r3,32
    7374:	1885c83a 	sub	r2,r3,r2
    7378:	00002506 	br	7410 <_dtoa_r+0xb80>
    737c:	01800044 	movi	r6,1
    7380:	d9800c15 	stw	r6,48(sp)
    7384:	003dec06 	br	6b38 <__alt_data_end+0xf8006b38>
    7388:	d8c00817 	ldw	r3,32(sp)
    738c:	d9000517 	ldw	r4,20(sp)
    7390:	d8000a15 	stw	zero,40(sp)
    7394:	1907c83a 	sub	r3,r3,r4
    7398:	010dc83a 	sub	r6,zero,r4
    739c:	d8c00815 	stw	r3,32(sp)
    73a0:	d9800915 	stw	r6,36(sp)
    73a4:	003ded06 	br	6b5c <__alt_data_end+0xf8006b5c>
    73a8:	05adc83a 	sub	r22,zero,r22
    73ac:	dd800815 	stw	r22,32(sp)
    73b0:	002d883a 	mov	r22,zero
    73b4:	003de406 	br	6b48 <__alt_data_end+0xf8006b48>
    73b8:	d9000517 	ldw	r4,20(sp)
    73bc:	000e1fc0 	call	e1fc <__floatsidf>
    73c0:	1009883a 	mov	r4,r2
    73c4:	180b883a 	mov	r5,r3
    73c8:	b00d883a 	mov	r6,r22
    73cc:	a80f883a 	mov	r7,r21
    73d0:	000cf3c0 	call	cf3c <__eqdf2>
    73d4:	103dc726 	beq	r2,zero,6af4 <__alt_data_end+0xf8006af4>
    73d8:	d8800517 	ldw	r2,20(sp)
    73dc:	10bfffc4 	addi	r2,r2,-1
    73e0:	d8800515 	stw	r2,20(sp)
    73e4:	003dc306 	br	6af4 <__alt_data_end+0xf8006af4>
    73e8:	dd400917 	ldw	r21,36(sp)
    73ec:	dd000817 	ldw	r20,32(sp)
    73f0:	0023883a 	mov	r17,zero
    73f4:	003fa906 	br	729c <__alt_data_end+0xf800729c>
    73f8:	d9800317 	ldw	r6,12(sp)
    73fc:	b981670e 	bge	r23,r6,799c <_dtoa_r+0x110c>
    7400:	0027883a 	mov	r19,zero
    7404:	d8c00a17 	ldw	r3,40(sp)
    7408:	183fd21e 	bne	r3,zero,7354 <__alt_data_end+0xf8007354>
    740c:	00800044 	movi	r2,1
    7410:	1585883a 	add	r2,r2,r22
    7414:	108007cc 	andi	r2,r2,31
    7418:	10005f26 	beq	r2,zero,7598 <_dtoa_r+0xd08>
    741c:	00c00804 	movi	r3,32
    7420:	1887c83a 	sub	r3,r3,r2
    7424:	01000104 	movi	r4,4
    7428:	20c2dd0e 	bge	r4,r3,7fa0 <_dtoa_r+0x1710>
    742c:	d9000817 	ldw	r4,32(sp)
    7430:	00c00704 	movi	r3,28
    7434:	1885c83a 	sub	r2,r3,r2
    7438:	2089883a 	add	r4,r4,r2
    743c:	d9000815 	stw	r4,32(sp)
    7440:	a0a9883a 	add	r20,r20,r2
    7444:	b0ad883a 	add	r22,r22,r2
    7448:	d8800817 	ldw	r2,32(sp)
    744c:	0080050e 	bge	zero,r2,7464 <_dtoa_r+0xbd4>
    7450:	e00b883a 	mov	r5,fp
    7454:	8009883a 	mov	r4,r16
    7458:	100d883a 	mov	r6,r2
    745c:	0008e440 	call	8e44 <__lshift>
    7460:	1039883a 	mov	fp,r2
    7464:	0580050e 	bge	zero,r22,747c <_dtoa_r+0xbec>
    7468:	a80b883a 	mov	r5,r21
    746c:	8009883a 	mov	r4,r16
    7470:	b00d883a 	mov	r6,r22
    7474:	0008e440 	call	8e44 <__lshift>
    7478:	102b883a 	mov	r21,r2
    747c:	d8c00c17 	ldw	r3,48(sp)
    7480:	1801161e 	bne	r3,zero,78dc <_dtoa_r+0x104c>
    7484:	d8c00617 	ldw	r3,24(sp)
    7488:	00c12d0e 	bge	zero,r3,7940 <_dtoa_r+0x10b0>
    748c:	d8c00b17 	ldw	r3,44(sp)
    7490:	1800571e 	bne	r3,zero,75f0 <_dtoa_r+0xd60>
    7494:	dc800717 	ldw	r18,28(sp)
    7498:	dcc00617 	ldw	r19,24(sp)
    749c:	9029883a 	mov	r20,r18
    74a0:	00000206 	br	74ac <_dtoa_r+0xc1c>
    74a4:	000879c0 	call	879c <__multadd>
    74a8:	1039883a 	mov	fp,r2
    74ac:	e009883a 	mov	r4,fp
    74b0:	a80b883a 	mov	r5,r21
    74b4:	00066900 	call	6690 <quorem>
    74b8:	10800c04 	addi	r2,r2,48
    74bc:	90800005 	stb	r2,0(r18)
    74c0:	94800044 	addi	r18,r18,1
    74c4:	9507c83a 	sub	r3,r18,r20
    74c8:	8009883a 	mov	r4,r16
    74cc:	e00b883a 	mov	r5,fp
    74d0:	01800284 	movi	r6,10
    74d4:	000f883a 	mov	r7,zero
    74d8:	1cfff216 	blt	r3,r19,74a4 <__alt_data_end+0xf80074a4>
    74dc:	1011883a 	mov	r8,r2
    74e0:	d8800617 	ldw	r2,24(sp)
    74e4:	00822e0e 	bge	zero,r2,7da0 <_dtoa_r+0x1510>
    74e8:	d9000717 	ldw	r4,28(sp)
    74ec:	0025883a 	mov	r18,zero
    74f0:	20af883a 	add	r23,r4,r2
    74f4:	e00b883a 	mov	r5,fp
    74f8:	01800044 	movi	r6,1
    74fc:	8009883a 	mov	r4,r16
    7500:	da001715 	stw	r8,92(sp)
    7504:	0008e440 	call	8e44 <__lshift>
    7508:	1009883a 	mov	r4,r2
    750c:	a80b883a 	mov	r5,r21
    7510:	1039883a 	mov	fp,r2
    7514:	0008f8c0 	call	8f8c <__mcmp>
    7518:	da001717 	ldw	r8,92(sp)
    751c:	00816e0e 	bge	zero,r2,7ad8 <_dtoa_r+0x1248>
    7520:	b93fffc3 	ldbu	r4,-1(r23)
    7524:	b8bfffc4 	addi	r2,r23,-1
    7528:	1007883a 	mov	r3,r2
    752c:	01800e44 	movi	r6,57
    7530:	d9c00717 	ldw	r7,28(sp)
    7534:	00000506 	br	754c <_dtoa_r+0xcbc>
    7538:	18ffffc4 	addi	r3,r3,-1
    753c:	38811926 	beq	r7,r2,79a4 <_dtoa_r+0x1114>
    7540:	19000003 	ldbu	r4,0(r3)
    7544:	102f883a 	mov	r23,r2
    7548:	10bfffc4 	addi	r2,r2,-1
    754c:	21403fcc 	andi	r5,r4,255
    7550:	2940201c 	xori	r5,r5,128
    7554:	297fe004 	addi	r5,r5,-128
    7558:	29bff726 	beq	r5,r6,7538 <__alt_data_end+0xf8007538>
    755c:	21000044 	addi	r4,r4,1
    7560:	11000005 	stb	r4,0(r2)
    7564:	8009883a 	mov	r4,r16
    7568:	a80b883a 	mov	r5,r21
    756c:	00087740 	call	8774 <_Bfree>
    7570:	883e7526 	beq	r17,zero,6f48 <__alt_data_end+0xf8006f48>
    7574:	90000426 	beq	r18,zero,7588 <_dtoa_r+0xcf8>
    7578:	94400326 	beq	r18,r17,7588 <_dtoa_r+0xcf8>
    757c:	8009883a 	mov	r4,r16
    7580:	900b883a 	mov	r5,r18
    7584:	00087740 	call	8774 <_Bfree>
    7588:	8009883a 	mov	r4,r16
    758c:	880b883a 	mov	r5,r17
    7590:	00087740 	call	8774 <_Bfree>
    7594:	003e6c06 	br	6f48 <__alt_data_end+0xf8006f48>
    7598:	00800704 	movi	r2,28
    759c:	d9800817 	ldw	r6,32(sp)
    75a0:	a0a9883a 	add	r20,r20,r2
    75a4:	b0ad883a 	add	r22,r22,r2
    75a8:	308d883a 	add	r6,r6,r2
    75ac:	d9800815 	stw	r6,32(sp)
    75b0:	003fa506 	br	7448 <__alt_data_end+0xf8007448>
    75b4:	013efb84 	movi	r4,-1042
    75b8:	246bc83a 	sub	r21,r4,r17
    75bc:	9548983a 	sll	r4,r18,r21
    75c0:	003d1806 	br	6a24 <__alt_data_end+0xf8006a24>
    75c4:	d8000c15 	stw	zero,48(sp)
    75c8:	003d5b06 	br	6b38 <__alt_data_end+0xf8006b38>
    75cc:	880b883a 	mov	r5,r17
    75d0:	8009883a 	mov	r4,r16
    75d4:	01800284 	movi	r6,10
    75d8:	000f883a 	mov	r7,zero
    75dc:	000879c0 	call	879c <__multadd>
    75e0:	1023883a 	mov	r17,r2
    75e4:	d8800d17 	ldw	r2,52(sp)
    75e8:	0082550e 	bge	zero,r2,7f40 <_dtoa_r+0x16b0>
    75ec:	d8800615 	stw	r2,24(sp)
    75f0:	0500050e 	bge	zero,r20,7608 <_dtoa_r+0xd78>
    75f4:	880b883a 	mov	r5,r17
    75f8:	8009883a 	mov	r4,r16
    75fc:	a00d883a 	mov	r6,r20
    7600:	0008e440 	call	8e44 <__lshift>
    7604:	1023883a 	mov	r17,r2
    7608:	98016a1e 	bne	r19,zero,7bb4 <_dtoa_r+0x1324>
    760c:	8829883a 	mov	r20,r17
    7610:	d9000617 	ldw	r4,24(sp)
    7614:	dcc00717 	ldw	r19,28(sp)
    7618:	9480004c 	andi	r18,r18,1
    761c:	20bfffc4 	addi	r2,r4,-1
    7620:	9885883a 	add	r2,r19,r2
    7624:	d8800415 	stw	r2,16(sp)
    7628:	dc800615 	stw	r18,24(sp)
    762c:	e009883a 	mov	r4,fp
    7630:	a80b883a 	mov	r5,r21
    7634:	00066900 	call	6690 <quorem>
    7638:	e009883a 	mov	r4,fp
    763c:	880b883a 	mov	r5,r17
    7640:	102f883a 	mov	r23,r2
    7644:	0008f8c0 	call	8f8c <__mcmp>
    7648:	8009883a 	mov	r4,r16
    764c:	a80b883a 	mov	r5,r21
    7650:	a00d883a 	mov	r6,r20
    7654:	102d883a 	mov	r22,r2
    7658:	0008fec0 	call	8fec <__mdiff>
    765c:	1007883a 	mov	r3,r2
    7660:	10800317 	ldw	r2,12(r2)
    7664:	bc800c04 	addi	r18,r23,48
    7668:	1000971e 	bne	r2,zero,78c8 <_dtoa_r+0x1038>
    766c:	180b883a 	mov	r5,r3
    7670:	e009883a 	mov	r4,fp
    7674:	d8c01515 	stw	r3,84(sp)
    7678:	0008f8c0 	call	8f8c <__mcmp>
    767c:	d8c01517 	ldw	r3,84(sp)
    7680:	8009883a 	mov	r4,r16
    7684:	d8801515 	stw	r2,84(sp)
    7688:	180b883a 	mov	r5,r3
    768c:	00087740 	call	8774 <_Bfree>
    7690:	d8801517 	ldw	r2,84(sp)
    7694:	1000041e 	bne	r2,zero,76a8 <_dtoa_r+0xe18>
    7698:	d9800317 	ldw	r6,12(sp)
    769c:	3000021e 	bne	r6,zero,76a8 <_dtoa_r+0xe18>
    76a0:	d8c00617 	ldw	r3,24(sp)
    76a4:	18007626 	beq	r3,zero,7880 <_dtoa_r+0xff0>
    76a8:	b0005b16 	blt	r22,zero,7818 <_dtoa_r+0xf88>
    76ac:	b000041e 	bne	r22,zero,76c0 <_dtoa_r+0xe30>
    76b0:	d9000317 	ldw	r4,12(sp)
    76b4:	2000021e 	bne	r4,zero,76c0 <_dtoa_r+0xe30>
    76b8:	d8c00617 	ldw	r3,24(sp)
    76bc:	18005626 	beq	r3,zero,7818 <_dtoa_r+0xf88>
    76c0:	00814d16 	blt	zero,r2,7bf8 <_dtoa_r+0x1368>
    76c4:	d8c00417 	ldw	r3,16(sp)
    76c8:	9d800044 	addi	r22,r19,1
    76cc:	9c800005 	stb	r18,0(r19)
    76d0:	b02f883a 	mov	r23,r22
    76d4:	98c14c26 	beq	r19,r3,7c08 <_dtoa_r+0x1378>
    76d8:	e00b883a 	mov	r5,fp
    76dc:	8009883a 	mov	r4,r16
    76e0:	01800284 	movi	r6,10
    76e4:	000f883a 	mov	r7,zero
    76e8:	000879c0 	call	879c <__multadd>
    76ec:	1039883a 	mov	fp,r2
    76f0:	8d006d26 	beq	r17,r20,78a8 <_dtoa_r+0x1018>
    76f4:	880b883a 	mov	r5,r17
    76f8:	01800284 	movi	r6,10
    76fc:	000f883a 	mov	r7,zero
    7700:	8009883a 	mov	r4,r16
    7704:	000879c0 	call	879c <__multadd>
    7708:	a00b883a 	mov	r5,r20
    770c:	8009883a 	mov	r4,r16
    7710:	01800284 	movi	r6,10
    7714:	000f883a 	mov	r7,zero
    7718:	1023883a 	mov	r17,r2
    771c:	000879c0 	call	879c <__multadd>
    7720:	1029883a 	mov	r20,r2
    7724:	b027883a 	mov	r19,r22
    7728:	003fc006 	br	762c <__alt_data_end+0xf800762c>
    772c:	a005883a 	mov	r2,r20
    7730:	003ede06 	br	72ac <__alt_data_end+0xf80072ac>
    7734:	01000044 	movi	r4,1
    7738:	d9000b15 	stw	r4,44(sp)
    773c:	d9802217 	ldw	r6,136(sp)
    7740:	0180dc0e 	bge	zero,r6,7ab4 <_dtoa_r+0x1224>
    7744:	3023883a 	mov	r17,r6
    7748:	d9800d15 	stw	r6,52(sp)
    774c:	d9800615 	stw	r6,24(sp)
    7750:	003d1e06 	br	6bcc <__alt_data_end+0xf8006bcc>
    7754:	d8800617 	ldw	r2,24(sp)
    7758:	00be3716 	blt	zero,r2,7038 <__alt_data_end+0xf8007038>
    775c:	1000be1e 	bne	r2,zero,7a58 <_dtoa_r+0x11c8>
    7760:	8809883a 	mov	r4,r17
    7764:	a00b883a 	mov	r5,r20
    7768:	000d883a 	mov	r6,zero
    776c:	01d00534 	movhi	r7,16404
    7770:	000d1800 	call	d180 <__muldf3>
    7774:	1009883a 	mov	r4,r2
    7778:	180b883a 	mov	r5,r3
    777c:	900d883a 	mov	r6,r18
    7780:	980f883a 	mov	r7,r19
    7784:	000cfc00 	call	cfc0 <__gedf2>
    7788:	002b883a 	mov	r21,zero
    778c:	0023883a 	mov	r17,zero
    7790:	10007a16 	blt	r2,zero,797c <_dtoa_r+0x10ec>
    7794:	d9002217 	ldw	r4,136(sp)
    7798:	ddc00717 	ldw	r23,28(sp)
    779c:	0108303a 	nor	r4,zero,r4
    77a0:	d9000515 	stw	r4,20(sp)
    77a4:	8009883a 	mov	r4,r16
    77a8:	a80b883a 	mov	r5,r21
    77ac:	00087740 	call	8774 <_Bfree>
    77b0:	883f751e 	bne	r17,zero,7588 <__alt_data_end+0xf8007588>
    77b4:	003de406 	br	6f48 <__alt_data_end+0xf8006f48>
    77b8:	e00b883a 	mov	r5,fp
    77bc:	8009883a 	mov	r4,r16
    77c0:	0008d040 	call	8d04 <__pow5mult>
    77c4:	1039883a 	mov	fp,r2
    77c8:	003ed306 	br	7318 <__alt_data_end+0xf8007318>
    77cc:	903ee01e 	bne	r18,zero,7350 <__alt_data_end+0xf8007350>
    77d0:	00800434 	movhi	r2,16
    77d4:	10bfffc4 	addi	r2,r2,-1
    77d8:	9884703a 	and	r2,r19,r2
    77dc:	103f081e 	bne	r2,zero,7400 <__alt_data_end+0xf8007400>
    77e0:	9cdffc2c 	andhi	r19,r19,32752
    77e4:	983f0626 	beq	r19,zero,7400 <__alt_data_end+0xf8007400>
    77e8:	d8800817 	ldw	r2,32(sp)
    77ec:	b5800044 	addi	r22,r22,1
    77f0:	04c00044 	movi	r19,1
    77f4:	10800044 	addi	r2,r2,1
    77f8:	d8800815 	stw	r2,32(sp)
    77fc:	003f0106 	br	7404 <__alt_data_end+0xf8007404>
    7800:	d9800f17 	ldw	r6,60(sp)
    7804:	30016826 	beq	r6,zero,7da8 <_dtoa_r+0x1518>
    7808:	10810cc4 	addi	r2,r2,1075
    780c:	dd400917 	ldw	r21,36(sp)
    7810:	dd000817 	ldw	r20,32(sp)
    7814:	003e9906 	br	727c <__alt_data_end+0xf800727c>
    7818:	9011883a 	mov	r8,r18
    781c:	4007883a 	mov	r3,r8
    7820:	e02d883a 	mov	r22,fp
    7824:	0080100e 	bge	zero,r2,7868 <_dtoa_r+0xfd8>
    7828:	01800044 	movi	r6,1
    782c:	8009883a 	mov	r4,r16
    7830:	e00b883a 	mov	r5,fp
    7834:	da001515 	stw	r8,84(sp)
    7838:	da001715 	stw	r8,92(sp)
    783c:	0008e440 	call	8e44 <__lshift>
    7840:	1009883a 	mov	r4,r2
    7844:	a80b883a 	mov	r5,r21
    7848:	102d883a 	mov	r22,r2
    784c:	0008f8c0 	call	8f8c <__mcmp>
    7850:	d8c01517 	ldw	r3,84(sp)
    7854:	da001717 	ldw	r8,92(sp)
    7858:	0081a50e 	bge	zero,r2,7ef0 <_dtoa_r+0x1660>
    785c:	00800e44 	movi	r2,57
    7860:	40817b26 	beq	r8,r2,7e50 <_dtoa_r+0x15c0>
    7864:	40c00044 	addi	r3,r8,1
    7868:	8825883a 	mov	r18,r17
    786c:	9dc00044 	addi	r23,r19,1
    7870:	98c00005 	stb	r3,0(r19)
    7874:	a023883a 	mov	r17,r20
    7878:	b039883a 	mov	fp,r22
    787c:	003f3906 	br	7564 <__alt_data_end+0xf8007564>
    7880:	00800e44 	movi	r2,57
    7884:	9011883a 	mov	r8,r18
    7888:	90817226 	beq	r18,r2,7e54 <_dtoa_r+0x15c4>
    788c:	0580010e 	bge	zero,r22,7894 <_dtoa_r+0x1004>
    7890:	ba000c44 	addi	r8,r23,49
    7894:	8825883a 	mov	r18,r17
    7898:	9dc00044 	addi	r23,r19,1
    789c:	9a000005 	stb	r8,0(r19)
    78a0:	a023883a 	mov	r17,r20
    78a4:	003f2f06 	br	7564 <__alt_data_end+0xf8007564>
    78a8:	880b883a 	mov	r5,r17
    78ac:	8009883a 	mov	r4,r16
    78b0:	01800284 	movi	r6,10
    78b4:	000f883a 	mov	r7,zero
    78b8:	000879c0 	call	879c <__multadd>
    78bc:	1023883a 	mov	r17,r2
    78c0:	1029883a 	mov	r20,r2
    78c4:	003f9706 	br	7724 <__alt_data_end+0xf8007724>
    78c8:	8009883a 	mov	r4,r16
    78cc:	180b883a 	mov	r5,r3
    78d0:	00087740 	call	8774 <_Bfree>
    78d4:	00800044 	movi	r2,1
    78d8:	003f7306 	br	76a8 <__alt_data_end+0xf80076a8>
    78dc:	e009883a 	mov	r4,fp
    78e0:	a80b883a 	mov	r5,r21
    78e4:	0008f8c0 	call	8f8c <__mcmp>
    78e8:	103ee60e 	bge	r2,zero,7484 <__alt_data_end+0xf8007484>
    78ec:	8009883a 	mov	r4,r16
    78f0:	e00b883a 	mov	r5,fp
    78f4:	01800284 	movi	r6,10
    78f8:	000f883a 	mov	r7,zero
    78fc:	000879c0 	call	879c <__multadd>
    7900:	d9000517 	ldw	r4,20(sp)
    7904:	d9800b17 	ldw	r6,44(sp)
    7908:	1039883a 	mov	fp,r2
    790c:	213fffc4 	addi	r4,r4,-1
    7910:	d9000515 	stw	r4,20(sp)
    7914:	303f2d1e 	bne	r6,zero,75cc <__alt_data_end+0xf80075cc>
    7918:	d9000d17 	ldw	r4,52(sp)
    791c:	0101780e 	bge	zero,r4,7f00 <_dtoa_r+0x1670>
    7920:	d9000615 	stw	r4,24(sp)
    7924:	003edb06 	br	7494 <__alt_data_end+0xf8007494>
    7928:	00800084 	movi	r2,2
    792c:	30818e1e 	bne	r6,r2,7f68 <_dtoa_r+0x16d8>
    7930:	d8000b15 	stw	zero,44(sp)
    7934:	003f8106 	br	773c <__alt_data_end+0xf800773c>
    7938:	d8800717 	ldw	r2,28(sp)
    793c:	003c0306 	br	694c <__alt_data_end+0xf800694c>
    7940:	d9000317 	ldw	r4,12(sp)
    7944:	00800084 	movi	r2,2
    7948:	113ed00e 	bge	r2,r4,748c <__alt_data_end+0xf800748c>
    794c:	d8c00617 	ldw	r3,24(sp)
    7950:	183f901e 	bne	r3,zero,7794 <__alt_data_end+0xf8007794>
    7954:	a80b883a 	mov	r5,r21
    7958:	8009883a 	mov	r4,r16
    795c:	01800144 	movi	r6,5
    7960:	000f883a 	mov	r7,zero
    7964:	000879c0 	call	879c <__multadd>
    7968:	e009883a 	mov	r4,fp
    796c:	100b883a 	mov	r5,r2
    7970:	102b883a 	mov	r21,r2
    7974:	0008f8c0 	call	8f8c <__mcmp>
    7978:	00bf860e 	bge	zero,r2,7794 <__alt_data_end+0xf8007794>
    797c:	d9800717 	ldw	r6,28(sp)
    7980:	00800c44 	movi	r2,49
    7984:	30800005 	stb	r2,0(r6)
    7988:	d8800517 	ldw	r2,20(sp)
    798c:	35c00044 	addi	r23,r6,1
    7990:	10800044 	addi	r2,r2,1
    7994:	d8800515 	stw	r2,20(sp)
    7998:	003f8206 	br	77a4 <__alt_data_end+0xf80077a4>
    799c:	903e981e 	bne	r18,zero,7400 <__alt_data_end+0xf8007400>
    79a0:	003f8b06 	br	77d0 <__alt_data_end+0xf80077d0>
    79a4:	d9800517 	ldw	r6,20(sp)
    79a8:	d8c00717 	ldw	r3,28(sp)
    79ac:	00800c44 	movi	r2,49
    79b0:	31800044 	addi	r6,r6,1
    79b4:	d9800515 	stw	r6,20(sp)
    79b8:	18800005 	stb	r2,0(r3)
    79bc:	003ee906 	br	7564 <__alt_data_end+0xf8007564>
    79c0:	dc000317 	ldw	r16,12(sp)
    79c4:	003d6006 	br	6f48 <__alt_data_end+0xf8006f48>
    79c8:	8809883a 	mov	r4,r17
    79cc:	000e1fc0 	call	e1fc <__floatsidf>
    79d0:	a009883a 	mov	r4,r20
    79d4:	a80b883a 	mov	r5,r21
    79d8:	100d883a 	mov	r6,r2
    79dc:	180f883a 	mov	r7,r3
    79e0:	000d1800 	call	d180 <__muldf3>
    79e4:	1009883a 	mov	r4,r2
    79e8:	180b883a 	mov	r5,r3
    79ec:	000d883a 	mov	r6,zero
    79f0:	01d00734 	movhi	r7,16412
    79f4:	000bdd40 	call	bdd4 <__adddf3>
    79f8:	1023883a 	mov	r17,r2
    79fc:	00bf3034 	movhi	r2,64704
    7a00:	1885883a 	add	r2,r3,r2
    7a04:	d8800e15 	stw	r2,56(sp)
    7a08:	a009883a 	mov	r4,r20
    7a0c:	a80b883a 	mov	r5,r21
    7a10:	000d883a 	mov	r6,zero
    7a14:	01d00534 	movhi	r7,16404
    7a18:	000d8a40 	call	d8a4 <__subdf3>
    7a1c:	d9c00e17 	ldw	r7,56(sp)
    7a20:	1009883a 	mov	r4,r2
    7a24:	180b883a 	mov	r5,r3
    7a28:	880d883a 	mov	r6,r17
    7a2c:	102b883a 	mov	r21,r2
    7a30:	1829883a 	mov	r20,r3
    7a34:	000cfc00 	call	cfc0 <__gedf2>
    7a38:	00807716 	blt	zero,r2,7c18 <_dtoa_r+0x1388>
    7a3c:	d8800e17 	ldw	r2,56(sp)
    7a40:	a809883a 	mov	r4,r21
    7a44:	a00b883a 	mov	r5,r20
    7a48:	11e0003c 	xorhi	r7,r2,32768
    7a4c:	880d883a 	mov	r6,r17
    7a50:	000d0a00 	call	d0a0 <__ledf2>
    7a54:	103d6b0e 	bge	r2,zero,7004 <__alt_data_end+0xf8007004>
    7a58:	002b883a 	mov	r21,zero
    7a5c:	0023883a 	mov	r17,zero
    7a60:	003f4c06 	br	7794 <__alt_data_end+0xf8007794>
    7a64:	d9800917 	ldw	r6,36(sp)
    7a68:	e00b883a 	mov	r5,fp
    7a6c:	8009883a 	mov	r4,r16
    7a70:	0008d040 	call	8d04 <__pow5mult>
    7a74:	1039883a 	mov	fp,r2
    7a78:	003e2706 	br	7318 <__alt_data_end+0xf8007318>
    7a7c:	d8000b15 	stw	zero,44(sp)
    7a80:	003c4906 	br	6ba8 <__alt_data_end+0xf8006ba8>
    7a84:	d9000917 	ldw	r4,36(sp)
    7a88:	d9800a17 	ldw	r6,40(sp)
    7a8c:	dd400915 	stw	r21,36(sp)
    7a90:	a905c83a 	sub	r2,r21,r4
    7a94:	308d883a 	add	r6,r6,r2
    7a98:	d9800a15 	stw	r6,40(sp)
    7a9c:	002b883a 	mov	r21,zero
    7aa0:	003df206 	br	726c <__alt_data_end+0xf800726c>
    7aa4:	dc800e15 	stw	r18,56(sp)
    7aa8:	982b883a 	mov	r21,r19
    7aac:	04400084 	movi	r17,2
    7ab0:	003c7406 	br	6c84 <__alt_data_end+0xf8006c84>
    7ab4:	04400044 	movi	r17,1
    7ab8:	dc400d15 	stw	r17,52(sp)
    7abc:	dc400615 	stw	r17,24(sp)
    7ac0:	dc402215 	stw	r17,136(sp)
    7ac4:	80001115 	stw	zero,68(r16)
    7ac8:	000b883a 	mov	r5,zero
    7acc:	003c4a06 	br	6bf8 <__alt_data_end+0xf8006bf8>
    7ad0:	3023883a 	mov	r17,r6
    7ad4:	003ffb06 	br	7ac4 <__alt_data_end+0xf8007ac4>
    7ad8:	1000021e 	bne	r2,zero,7ae4 <_dtoa_r+0x1254>
    7adc:	4200004c 	andi	r8,r8,1
    7ae0:	403e8f1e 	bne	r8,zero,7520 <__alt_data_end+0xf8007520>
    7ae4:	01000c04 	movi	r4,48
    7ae8:	00000106 	br	7af0 <_dtoa_r+0x1260>
    7aec:	102f883a 	mov	r23,r2
    7af0:	b8bfffc4 	addi	r2,r23,-1
    7af4:	10c00007 	ldb	r3,0(r2)
    7af8:	193ffc26 	beq	r3,r4,7aec <__alt_data_end+0xf8007aec>
    7afc:	003e9906 	br	7564 <__alt_data_end+0xf8007564>
    7b00:	d9000517 	ldw	r4,20(sp)
    7b04:	012fc83a 	sub	r23,zero,r4
    7b08:	b800ad26 	beq	r23,zero,7dc0 <_dtoa_r+0x1530>
    7b0c:	b88003cc 	andi	r2,r23,15
    7b10:	100490fa 	slli	r2,r2,3
    7b14:	00c00374 	movhi	r3,13
    7b18:	18efa004 	addi	r3,r3,-16768
    7b1c:	1885883a 	add	r2,r3,r2
    7b20:	11800017 	ldw	r6,0(r2)
    7b24:	11c00117 	ldw	r7,4(r2)
    7b28:	b82fd13a 	srai	r23,r23,4
    7b2c:	9009883a 	mov	r4,r18
    7b30:	980b883a 	mov	r5,r19
    7b34:	000d1800 	call	d180 <__muldf3>
    7b38:	1029883a 	mov	r20,r2
    7b3c:	182b883a 	mov	r21,r3
    7b40:	b800f426 	beq	r23,zero,7f14 <_dtoa_r+0x1684>
    7b44:	02000374 	movhi	r8,13
    7b48:	422f9604 	addi	r8,r8,-16808
    7b4c:	8029883a 	mov	r20,r16
    7b50:	04400084 	movi	r17,2
    7b54:	4021883a 	mov	r16,r8
    7b58:	b980004c 	andi	r6,r23,1
    7b5c:	1009883a 	mov	r4,r2
    7b60:	b82fd07a 	srai	r23,r23,1
    7b64:	180b883a 	mov	r5,r3
    7b68:	30000426 	beq	r6,zero,7b7c <_dtoa_r+0x12ec>
    7b6c:	81800017 	ldw	r6,0(r16)
    7b70:	81c00117 	ldw	r7,4(r16)
    7b74:	8c400044 	addi	r17,r17,1
    7b78:	000d1800 	call	d180 <__muldf3>
    7b7c:	84000204 	addi	r16,r16,8
    7b80:	b83ff51e 	bne	r23,zero,7b58 <__alt_data_end+0xf8007b58>
    7b84:	a021883a 	mov	r16,r20
    7b88:	182b883a 	mov	r21,r3
    7b8c:	1029883a 	mov	r20,r2
    7b90:	003c5506 	br	6ce8 <__alt_data_end+0xf8006ce8>
    7b94:	d9800517 	ldw	r6,20(sp)
    7b98:	d9000717 	ldw	r4,28(sp)
    7b9c:	00c00c04 	movi	r3,48
    7ba0:	31800044 	addi	r6,r6,1
    7ba4:	d9800515 	stw	r6,20(sp)
    7ba8:	20c00005 	stb	r3,0(r4)
    7bac:	02000c44 	movi	r8,49
    7bb0:	003da206 	br	723c <__alt_data_end+0xf800723c>
    7bb4:	89400117 	ldw	r5,4(r17)
    7bb8:	8009883a 	mov	r4,r16
    7bbc:	00086cc0 	call	86cc <_Balloc>
    7bc0:	89800417 	ldw	r6,16(r17)
    7bc4:	11000304 	addi	r4,r2,12
    7bc8:	89400304 	addi	r5,r17,12
    7bcc:	31800084 	addi	r6,r6,2
    7bd0:	318d883a 	add	r6,r6,r6
    7bd4:	318d883a 	add	r6,r6,r6
    7bd8:	1027883a 	mov	r19,r2
    7bdc:	00085940 	call	8594 <memcpy>
    7be0:	8009883a 	mov	r4,r16
    7be4:	980b883a 	mov	r5,r19
    7be8:	01800044 	movi	r6,1
    7bec:	0008e440 	call	8e44 <__lshift>
    7bf0:	1029883a 	mov	r20,r2
    7bf4:	003e8606 	br	7610 <__alt_data_end+0xf8007610>
    7bf8:	00800e44 	movi	r2,57
    7bfc:	90809526 	beq	r18,r2,7e54 <_dtoa_r+0x15c4>
    7c00:	92000044 	addi	r8,r18,1
    7c04:	003f2306 	br	7894 <__alt_data_end+0xf8007894>
    7c08:	9011883a 	mov	r8,r18
    7c0c:	8825883a 	mov	r18,r17
    7c10:	a023883a 	mov	r17,r20
    7c14:	003e3706 	br	74f4 <__alt_data_end+0xf80074f4>
    7c18:	002b883a 	mov	r21,zero
    7c1c:	0023883a 	mov	r17,zero
    7c20:	003f5606 	br	797c <__alt_data_end+0xf800797c>
    7c24:	51bfffc4 	addi	r6,r10,-1
    7c28:	300490fa 	slli	r2,r6,3
    7c2c:	00c00374 	movhi	r3,13
    7c30:	18efa004 	addi	r3,r3,-16768
    7c34:	1885883a 	add	r2,r3,r2
    7c38:	d9c00e17 	ldw	r7,56(sp)
    7c3c:	11000017 	ldw	r4,0(r2)
    7c40:	11400117 	ldw	r5,4(r2)
    7c44:	d8800717 	ldw	r2,28(sp)
    7c48:	d9801015 	stw	r6,64(sp)
    7c4c:	880d883a 	mov	r6,r17
    7c50:	da801615 	stw	r10,88(sp)
    7c54:	15c00044 	addi	r23,r2,1
    7c58:	000d1800 	call	d180 <__muldf3>
    7c5c:	a80b883a 	mov	r5,r21
    7c60:	a009883a 	mov	r4,r20
    7c64:	d8c01115 	stw	r3,68(sp)
    7c68:	d8800e15 	stw	r2,56(sp)
    7c6c:	000e1740 	call	e174 <__fixdfsi>
    7c70:	1009883a 	mov	r4,r2
    7c74:	1023883a 	mov	r17,r2
    7c78:	000e1fc0 	call	e1fc <__floatsidf>
    7c7c:	a009883a 	mov	r4,r20
    7c80:	a80b883a 	mov	r5,r21
    7c84:	100d883a 	mov	r6,r2
    7c88:	180f883a 	mov	r7,r3
    7c8c:	000d8a40 	call	d8a4 <__subdf3>
    7c90:	1813883a 	mov	r9,r3
    7c94:	d8c00717 	ldw	r3,28(sp)
    7c98:	8c400c04 	addi	r17,r17,48
    7c9c:	1011883a 	mov	r8,r2
    7ca0:	1c400005 	stb	r17,0(r3)
    7ca4:	da801617 	ldw	r10,88(sp)
    7ca8:	00800044 	movi	r2,1
    7cac:	50802326 	beq	r10,r2,7d3c <_dtoa_r+0x14ac>
    7cb0:	d8800717 	ldw	r2,28(sp)
    7cb4:	b82b883a 	mov	r21,r23
    7cb8:	dc001315 	stw	r16,76(sp)
    7cbc:	12a9883a 	add	r20,r2,r10
    7cc0:	4807883a 	mov	r3,r9
    7cc4:	4005883a 	mov	r2,r8
    7cc8:	dc801415 	stw	r18,80(sp)
    7ccc:	000d883a 	mov	r6,zero
    7cd0:	01d00934 	movhi	r7,16420
    7cd4:	1009883a 	mov	r4,r2
    7cd8:	180b883a 	mov	r5,r3
    7cdc:	000d1800 	call	d180 <__muldf3>
    7ce0:	180b883a 	mov	r5,r3
    7ce4:	1009883a 	mov	r4,r2
    7ce8:	1821883a 	mov	r16,r3
    7cec:	1025883a 	mov	r18,r2
    7cf0:	000e1740 	call	e174 <__fixdfsi>
    7cf4:	1009883a 	mov	r4,r2
    7cf8:	1023883a 	mov	r17,r2
    7cfc:	000e1fc0 	call	e1fc <__floatsidf>
    7d00:	9009883a 	mov	r4,r18
    7d04:	800b883a 	mov	r5,r16
    7d08:	100d883a 	mov	r6,r2
    7d0c:	180f883a 	mov	r7,r3
    7d10:	8c400c04 	addi	r17,r17,48
    7d14:	000d8a40 	call	d8a4 <__subdf3>
    7d18:	ad400044 	addi	r21,r21,1
    7d1c:	ac7fffc5 	stb	r17,-1(r21)
    7d20:	ad3fea1e 	bne	r21,r20,7ccc <__alt_data_end+0xf8007ccc>
    7d24:	1813883a 	mov	r9,r3
    7d28:	d8c01017 	ldw	r3,64(sp)
    7d2c:	dc001317 	ldw	r16,76(sp)
    7d30:	dc801417 	ldw	r18,80(sp)
    7d34:	1011883a 	mov	r8,r2
    7d38:	b8ef883a 	add	r23,r23,r3
    7d3c:	d9000e17 	ldw	r4,56(sp)
    7d40:	d9401117 	ldw	r5,68(sp)
    7d44:	000d883a 	mov	r6,zero
    7d48:	01cff834 	movhi	r7,16352
    7d4c:	da001715 	stw	r8,92(sp)
    7d50:	da401515 	stw	r9,84(sp)
    7d54:	000bdd40 	call	bdd4 <__adddf3>
    7d58:	da001717 	ldw	r8,92(sp)
    7d5c:	da401517 	ldw	r9,84(sp)
    7d60:	1009883a 	mov	r4,r2
    7d64:	400d883a 	mov	r6,r8
    7d68:	480f883a 	mov	r7,r9
    7d6c:	180b883a 	mov	r5,r3
    7d70:	000d0a00 	call	d0a0 <__ledf2>
    7d74:	da001717 	ldw	r8,92(sp)
    7d78:	da401517 	ldw	r9,84(sp)
    7d7c:	10003b0e 	bge	r2,zero,7e6c <_dtoa_r+0x15dc>
    7d80:	d9001217 	ldw	r4,72(sp)
    7d84:	bd7fffc3 	ldbu	r21,-1(r23)
    7d88:	d9000515 	stw	r4,20(sp)
    7d8c:	003d1c06 	br	7200 <__alt_data_end+0xf8007200>
    7d90:	d8c00817 	ldw	r3,32(sp)
    7d94:	18a9c83a 	sub	r20,r3,r2
    7d98:	0005883a 	mov	r2,zero
    7d9c:	003d3706 	br	727c <__alt_data_end+0xf800727c>
    7da0:	00800044 	movi	r2,1
    7da4:	003dd006 	br	74e8 <__alt_data_end+0xf80074e8>
    7da8:	d8c00217 	ldw	r3,8(sp)
    7dac:	00800d84 	movi	r2,54
    7db0:	dd400917 	ldw	r21,36(sp)
    7db4:	10c5c83a 	sub	r2,r2,r3
    7db8:	dd000817 	ldw	r20,32(sp)
    7dbc:	003d2f06 	br	727c <__alt_data_end+0xf800727c>
    7dc0:	9029883a 	mov	r20,r18
    7dc4:	982b883a 	mov	r21,r19
    7dc8:	04400084 	movi	r17,2
    7dcc:	003bc606 	br	6ce8 <__alt_data_end+0xf8006ce8>
    7dd0:	d8800617 	ldw	r2,24(sp)
    7dd4:	103efc26 	beq	r2,zero,79c8 <__alt_data_end+0xf80079c8>
    7dd8:	d8c00d17 	ldw	r3,52(sp)
    7ddc:	00fc890e 	bge	zero,r3,7004 <__alt_data_end+0xf8007004>
    7de0:	a80b883a 	mov	r5,r21
    7de4:	a009883a 	mov	r4,r20
    7de8:	000d883a 	mov	r6,zero
    7dec:	01d00934 	movhi	r7,16420
    7df0:	000d1800 	call	d180 <__muldf3>
    7df4:	89000044 	addi	r4,r17,1
    7df8:	1029883a 	mov	r20,r2
    7dfc:	182b883a 	mov	r21,r3
    7e00:	000e1fc0 	call	e1fc <__floatsidf>
    7e04:	a009883a 	mov	r4,r20
    7e08:	a80b883a 	mov	r5,r21
    7e0c:	100d883a 	mov	r6,r2
    7e10:	180f883a 	mov	r7,r3
    7e14:	000d1800 	call	d180 <__muldf3>
    7e18:	1009883a 	mov	r4,r2
    7e1c:	180b883a 	mov	r5,r3
    7e20:	000d883a 	mov	r6,zero
    7e24:	01d00734 	movhi	r7,16412
    7e28:	000bdd40 	call	bdd4 <__adddf3>
    7e2c:	d9000517 	ldw	r4,20(sp)
    7e30:	1023883a 	mov	r17,r2
    7e34:	00bf3034 	movhi	r2,64704
    7e38:	213fffc4 	addi	r4,r4,-1
    7e3c:	1885883a 	add	r2,r3,r2
    7e40:	d9001215 	stw	r4,72(sp)
    7e44:	d8800e15 	stw	r2,56(sp)
    7e48:	da800d17 	ldw	r10,52(sp)
    7e4c:	003bc306 	br	6d5c <__alt_data_end+0xf8006d5c>
    7e50:	b039883a 	mov	fp,r22
    7e54:	01000e44 	movi	r4,57
    7e58:	8825883a 	mov	r18,r17
    7e5c:	9dc00044 	addi	r23,r19,1
    7e60:	99000005 	stb	r4,0(r19)
    7e64:	a023883a 	mov	r17,r20
    7e68:	003dae06 	br	7524 <__alt_data_end+0xf8007524>
    7e6c:	d9800e17 	ldw	r6,56(sp)
    7e70:	d9c01117 	ldw	r7,68(sp)
    7e74:	0009883a 	mov	r4,zero
    7e78:	014ff834 	movhi	r5,16352
    7e7c:	da001715 	stw	r8,92(sp)
    7e80:	da401515 	stw	r9,84(sp)
    7e84:	000d8a40 	call	d8a4 <__subdf3>
    7e88:	da001717 	ldw	r8,92(sp)
    7e8c:	da401517 	ldw	r9,84(sp)
    7e90:	1009883a 	mov	r4,r2
    7e94:	180b883a 	mov	r5,r3
    7e98:	400d883a 	mov	r6,r8
    7e9c:	480f883a 	mov	r7,r9
    7ea0:	000cfc00 	call	cfc0 <__gedf2>
    7ea4:	00bc570e 	bge	zero,r2,7004 <__alt_data_end+0xf8007004>
    7ea8:	01000c04 	movi	r4,48
    7eac:	00000106 	br	7eb4 <_dtoa_r+0x1624>
    7eb0:	102f883a 	mov	r23,r2
    7eb4:	b8bfffc4 	addi	r2,r23,-1
    7eb8:	10c00007 	ldb	r3,0(r2)
    7ebc:	193ffc26 	beq	r3,r4,7eb0 <__alt_data_end+0xf8007eb0>
    7ec0:	d9801217 	ldw	r6,72(sp)
    7ec4:	d9800515 	stw	r6,20(sp)
    7ec8:	003c1f06 	br	6f48 <__alt_data_end+0xf8006f48>
    7ecc:	d8801217 	ldw	r2,72(sp)
    7ed0:	dc001117 	ldw	r16,68(sp)
    7ed4:	d8800515 	stw	r2,20(sp)
    7ed8:	003cc906 	br	7200 <__alt_data_end+0xf8007200>
    7edc:	dd801317 	ldw	r22,76(sp)
    7ee0:	dc001117 	ldw	r16,68(sp)
    7ee4:	dcc01417 	ldw	r19,80(sp)
    7ee8:	dc801017 	ldw	r18,64(sp)
    7eec:	003c4506 	br	7004 <__alt_data_end+0xf8007004>
    7ef0:	103e5d1e 	bne	r2,zero,7868 <__alt_data_end+0xf8007868>
    7ef4:	4080004c 	andi	r2,r8,1
    7ef8:	103e5b26 	beq	r2,zero,7868 <__alt_data_end+0xf8007868>
    7efc:	003e5706 	br	785c <__alt_data_end+0xf800785c>
    7f00:	d8c00317 	ldw	r3,12(sp)
    7f04:	00800084 	movi	r2,2
    7f08:	10c00a16 	blt	r2,r3,7f34 <_dtoa_r+0x16a4>
    7f0c:	d9000d17 	ldw	r4,52(sp)
    7f10:	003e8306 	br	7920 <__alt_data_end+0xf8007920>
    7f14:	04400084 	movi	r17,2
    7f18:	003b7306 	br	6ce8 <__alt_data_end+0xf8006ce8>
    7f1c:	d9801217 	ldw	r6,72(sp)
    7f20:	d9800515 	stw	r6,20(sp)
    7f24:	003cb606 	br	7200 <__alt_data_end+0xf8007200>
    7f28:	d9001217 	ldw	r4,72(sp)
    7f2c:	d9000515 	stw	r4,20(sp)
    7f30:	003c0506 	br	6f48 <__alt_data_end+0xf8006f48>
    7f34:	d9800d17 	ldw	r6,52(sp)
    7f38:	d9800615 	stw	r6,24(sp)
    7f3c:	003e8306 	br	794c <__alt_data_end+0xf800794c>
    7f40:	d9800317 	ldw	r6,12(sp)
    7f44:	00800084 	movi	r2,2
    7f48:	11800216 	blt	r2,r6,7f54 <_dtoa_r+0x16c4>
    7f4c:	d8800d17 	ldw	r2,52(sp)
    7f50:	003da606 	br	75ec <__alt_data_end+0xf80075ec>
    7f54:	d8800d17 	ldw	r2,52(sp)
    7f58:	d8800615 	stw	r2,24(sp)
    7f5c:	003e7b06 	br	794c <__alt_data_end+0xf800794c>
    7f60:	05000044 	movi	r20,1
    7f64:	003b0506 	br	6b7c <__alt_data_end+0xf8006b7c>
    7f68:	8009883a 	mov	r4,r16
    7f6c:	80001115 	stw	zero,68(r16)
    7f70:	000b883a 	mov	r5,zero
    7f74:	00086cc0 	call	86cc <_Balloc>
    7f78:	d8800715 	stw	r2,28(sp)
    7f7c:	d8c00717 	ldw	r3,28(sp)
    7f80:	00bfffc4 	movi	r2,-1
    7f84:	01000044 	movi	r4,1
    7f88:	d8800615 	stw	r2,24(sp)
    7f8c:	80c01015 	stw	r3,64(r16)
    7f90:	d9000b15 	stw	r4,44(sp)
    7f94:	d8002215 	stw	zero,136(sp)
    7f98:	d8800d15 	stw	r2,52(sp)
    7f9c:	003c1906 	br	7004 <__alt_data_end+0xf8007004>
    7fa0:	193d2926 	beq	r3,r4,7448 <__alt_data_end+0xf8007448>
    7fa4:	00c00f04 	movi	r3,60
    7fa8:	1885c83a 	sub	r2,r3,r2
    7fac:	003d7b06 	br	759c <__alt_data_end+0xf800759c>
    7fb0:	000b883a 	mov	r5,zero
    7fb4:	003b1006 	br	6bf8 <__alt_data_end+0xf8006bf8>

00007fb8 <_malloc_trim_r>:
    7fb8:	defffb04 	addi	sp,sp,-20
    7fbc:	dcc00315 	stw	r19,12(sp)
    7fc0:	04c00374 	movhi	r19,13
    7fc4:	dc800215 	stw	r18,8(sp)
    7fc8:	dc400115 	stw	r17,4(sp)
    7fcc:	dc000015 	stw	r16,0(sp)
    7fd0:	dfc00415 	stw	ra,16(sp)
    7fd4:	2821883a 	mov	r16,r5
    7fd8:	9cf04a04 	addi	r19,r19,-16088
    7fdc:	2025883a 	mov	r18,r4
    7fe0:	000e5300 	call	e530 <__malloc_lock>
    7fe4:	98800217 	ldw	r2,8(r19)
    7fe8:	14400117 	ldw	r17,4(r2)
    7fec:	00bfff04 	movi	r2,-4
    7ff0:	88a2703a 	and	r17,r17,r2
    7ff4:	8c21c83a 	sub	r16,r17,r16
    7ff8:	8403fbc4 	addi	r16,r16,4079
    7ffc:	8020d33a 	srli	r16,r16,12
    8000:	0083ffc4 	movi	r2,4095
    8004:	843fffc4 	addi	r16,r16,-1
    8008:	8020933a 	slli	r16,r16,12
    800c:	1400060e 	bge	r2,r16,8028 <_malloc_trim_r+0x70>
    8010:	9009883a 	mov	r4,r18
    8014:	000b883a 	mov	r5,zero
    8018:	00045500 	call	4550 <_sbrk_r>
    801c:	98c00217 	ldw	r3,8(r19)
    8020:	1c47883a 	add	r3,r3,r17
    8024:	10c00a26 	beq	r2,r3,8050 <_malloc_trim_r+0x98>
    8028:	9009883a 	mov	r4,r18
    802c:	000e5500 	call	e550 <__malloc_unlock>
    8030:	0005883a 	mov	r2,zero
    8034:	dfc00417 	ldw	ra,16(sp)
    8038:	dcc00317 	ldw	r19,12(sp)
    803c:	dc800217 	ldw	r18,8(sp)
    8040:	dc400117 	ldw	r17,4(sp)
    8044:	dc000017 	ldw	r16,0(sp)
    8048:	dec00504 	addi	sp,sp,20
    804c:	f800283a 	ret
    8050:	9009883a 	mov	r4,r18
    8054:	040bc83a 	sub	r5,zero,r16
    8058:	00045500 	call	4550 <_sbrk_r>
    805c:	00ffffc4 	movi	r3,-1
    8060:	10c00d26 	beq	r2,r3,8098 <_malloc_trim_r+0xe0>
    8064:	00c00374 	movhi	r3,13
    8068:	18fe7004 	addi	r3,r3,-1600
    806c:	18800017 	ldw	r2,0(r3)
    8070:	99000217 	ldw	r4,8(r19)
    8074:	8c23c83a 	sub	r17,r17,r16
    8078:	8c400054 	ori	r17,r17,1
    807c:	1421c83a 	sub	r16,r2,r16
    8080:	24400115 	stw	r17,4(r4)
    8084:	9009883a 	mov	r4,r18
    8088:	1c000015 	stw	r16,0(r3)
    808c:	000e5500 	call	e550 <__malloc_unlock>
    8090:	00800044 	movi	r2,1
    8094:	003fe706 	br	8034 <__alt_data_end+0xf8008034>
    8098:	9009883a 	mov	r4,r18
    809c:	000b883a 	mov	r5,zero
    80a0:	00045500 	call	4550 <_sbrk_r>
    80a4:	99000217 	ldw	r4,8(r19)
    80a8:	014003c4 	movi	r5,15
    80ac:	1107c83a 	sub	r3,r2,r4
    80b0:	28ffdd0e 	bge	r5,r3,8028 <__alt_data_end+0xf8008028>
    80b4:	01400374 	movhi	r5,13
    80b8:	29774504 	addi	r5,r5,-8940
    80bc:	29400017 	ldw	r5,0(r5)
    80c0:	18c00054 	ori	r3,r3,1
    80c4:	20c00115 	stw	r3,4(r4)
    80c8:	00c00374 	movhi	r3,13
    80cc:	1145c83a 	sub	r2,r2,r5
    80d0:	18fe7004 	addi	r3,r3,-1600
    80d4:	18800015 	stw	r2,0(r3)
    80d8:	003fd306 	br	8028 <__alt_data_end+0xf8008028>

000080dc <_free_r>:
    80dc:	28004c26 	beq	r5,zero,8210 <_free_r+0x134>
    80e0:	defffd04 	addi	sp,sp,-12
    80e4:	dc400115 	stw	r17,4(sp)
    80e8:	dc000015 	stw	r16,0(sp)
    80ec:	2023883a 	mov	r17,r4
    80f0:	2821883a 	mov	r16,r5
    80f4:	dfc00215 	stw	ra,8(sp)
    80f8:	000e5300 	call	e530 <__malloc_lock>
    80fc:	813fff17 	ldw	r4,-4(r16)
    8100:	00bfff84 	movi	r2,-2
    8104:	02400374 	movhi	r9,13
    8108:	81bffe04 	addi	r6,r16,-8
    810c:	2084703a 	and	r2,r4,r2
    8110:	4a704a04 	addi	r9,r9,-16088
    8114:	308b883a 	add	r5,r6,r2
    8118:	2a000117 	ldw	r8,4(r5)
    811c:	49c00217 	ldw	r7,8(r9)
    8120:	00ffff04 	movi	r3,-4
    8124:	40c6703a 	and	r3,r8,r3
    8128:	39405326 	beq	r7,r5,8278 <_free_r+0x19c>
    812c:	28c00115 	stw	r3,4(r5)
    8130:	2100004c 	andi	r4,r4,1
    8134:	2000091e 	bne	r4,zero,815c <_free_r+0x80>
    8138:	81fffe17 	ldw	r7,-8(r16)
    813c:	4a000204 	addi	r8,r9,8
    8140:	31cdc83a 	sub	r6,r6,r7
    8144:	31000217 	ldw	r4,8(r6)
    8148:	11c5883a 	add	r2,r2,r7
    814c:	22006126 	beq	r4,r8,82d4 <_free_r+0x1f8>
    8150:	31c00317 	ldw	r7,12(r6)
    8154:	21c00315 	stw	r7,12(r4)
    8158:	39000215 	stw	r4,8(r7)
    815c:	28c9883a 	add	r4,r5,r3
    8160:	21c00117 	ldw	r7,4(r4)
    8164:	39c0004c 	andi	r7,r7,1
    8168:	38000d1e 	bne	r7,zero,81a0 <_free_r+0xc4>
    816c:	29000217 	ldw	r4,8(r5)
    8170:	10c5883a 	add	r2,r2,r3
    8174:	00c00374 	movhi	r3,13
    8178:	18f04c04 	addi	r3,r3,-16080
    817c:	20c07526 	beq	r4,r3,8354 <_free_r+0x278>
    8180:	29c00317 	ldw	r7,12(r5)
    8184:	11400054 	ori	r5,r2,1
    8188:	3087883a 	add	r3,r6,r2
    818c:	21c00315 	stw	r7,12(r4)
    8190:	39000215 	stw	r4,8(r7)
    8194:	31400115 	stw	r5,4(r6)
    8198:	18800015 	stw	r2,0(r3)
    819c:	00000406 	br	81b0 <_free_r+0xd4>
    81a0:	10c00054 	ori	r3,r2,1
    81a4:	30c00115 	stw	r3,4(r6)
    81a8:	3087883a 	add	r3,r6,r2
    81ac:	18800015 	stw	r2,0(r3)
    81b0:	00c07fc4 	movi	r3,511
    81b4:	18801736 	bltu	r3,r2,8214 <_free_r+0x138>
    81b8:	1004d0fa 	srli	r2,r2,3
    81bc:	01400044 	movi	r5,1
    81c0:	49000117 	ldw	r4,4(r9)
    81c4:	1087883a 	add	r3,r2,r2
    81c8:	18c7883a 	add	r3,r3,r3
    81cc:	1005d0ba 	srai	r2,r2,2
    81d0:	18c7883a 	add	r3,r3,r3
    81d4:	1a47883a 	add	r3,r3,r9
    81d8:	19c00217 	ldw	r7,8(r3)
    81dc:	2884983a 	sll	r2,r5,r2
    81e0:	30c00315 	stw	r3,12(r6)
    81e4:	31c00215 	stw	r7,8(r6)
    81e8:	1104b03a 	or	r2,r2,r4
    81ec:	19800215 	stw	r6,8(r3)
    81f0:	48800115 	stw	r2,4(r9)
    81f4:	39800315 	stw	r6,12(r7)
    81f8:	8809883a 	mov	r4,r17
    81fc:	dfc00217 	ldw	ra,8(sp)
    8200:	dc400117 	ldw	r17,4(sp)
    8204:	dc000017 	ldw	r16,0(sp)
    8208:	dec00304 	addi	sp,sp,12
    820c:	000e5501 	jmpi	e550 <__malloc_unlock>
    8210:	f800283a 	ret
    8214:	1006d27a 	srli	r3,r2,9
    8218:	01000104 	movi	r4,4
    821c:	20c04036 	bltu	r4,r3,8320 <_free_r+0x244>
    8220:	1006d1ba 	srli	r3,r2,6
    8224:	19400e04 	addi	r5,r3,56
    8228:	2947883a 	add	r3,r5,r5
    822c:	18c7883a 	add	r3,r3,r3
    8230:	18c7883a 	add	r3,r3,r3
    8234:	1a49883a 	add	r4,r3,r9
    8238:	20c00217 	ldw	r3,8(r4)
    823c:	01c00374 	movhi	r7,13
    8240:	39f04a04 	addi	r7,r7,-16088
    8244:	19003b26 	beq	r3,r4,8334 <_free_r+0x258>
    8248:	01ffff04 	movi	r7,-4
    824c:	19400117 	ldw	r5,4(r3)
    8250:	29ca703a 	and	r5,r5,r7
    8254:	1140022e 	bgeu	r2,r5,8260 <_free_r+0x184>
    8258:	18c00217 	ldw	r3,8(r3)
    825c:	20fffb1e 	bne	r4,r3,824c <__alt_data_end+0xf800824c>
    8260:	18800317 	ldw	r2,12(r3)
    8264:	30800315 	stw	r2,12(r6)
    8268:	30c00215 	stw	r3,8(r6)
    826c:	11800215 	stw	r6,8(r2)
    8270:	19800315 	stw	r6,12(r3)
    8274:	003fe006 	br	81f8 <__alt_data_end+0xf80081f8>
    8278:	2100004c 	andi	r4,r4,1
    827c:	1885883a 	add	r2,r3,r2
    8280:	2000071e 	bne	r4,zero,82a0 <_free_r+0x1c4>
    8284:	817ffe17 	ldw	r5,-8(r16)
    8288:	314dc83a 	sub	r6,r6,r5
    828c:	30c00317 	ldw	r3,12(r6)
    8290:	31000217 	ldw	r4,8(r6)
    8294:	1145883a 	add	r2,r2,r5
    8298:	20c00315 	stw	r3,12(r4)
    829c:	19000215 	stw	r4,8(r3)
    82a0:	10c00054 	ori	r3,r2,1
    82a4:	30c00115 	stw	r3,4(r6)
    82a8:	00c00374 	movhi	r3,13
    82ac:	18f74604 	addi	r3,r3,-8936
    82b0:	18c00017 	ldw	r3,0(r3)
    82b4:	49800215 	stw	r6,8(r9)
    82b8:	10ffcf36 	bltu	r2,r3,81f8 <__alt_data_end+0xf80081f8>
    82bc:	00800374 	movhi	r2,13
    82c0:	10be6404 	addi	r2,r2,-1648
    82c4:	11400017 	ldw	r5,0(r2)
    82c8:	8809883a 	mov	r4,r17
    82cc:	0007fb80 	call	7fb8 <_malloc_trim_r>
    82d0:	003fc906 	br	81f8 <__alt_data_end+0xf80081f8>
    82d4:	28c9883a 	add	r4,r5,r3
    82d8:	21000117 	ldw	r4,4(r4)
    82dc:	2100004c 	andi	r4,r4,1
    82e0:	20000a1e 	bne	r4,zero,830c <_free_r+0x230>
    82e4:	29000317 	ldw	r4,12(r5)
    82e8:	29400217 	ldw	r5,8(r5)
    82ec:	10c5883a 	add	r2,r2,r3
    82f0:	10c00054 	ori	r3,r2,1
    82f4:	29000315 	stw	r4,12(r5)
    82f8:	21400215 	stw	r5,8(r4)
    82fc:	30c00115 	stw	r3,4(r6)
    8300:	308d883a 	add	r6,r6,r2
    8304:	30800015 	stw	r2,0(r6)
    8308:	003fbb06 	br	81f8 <__alt_data_end+0xf80081f8>
    830c:	10c00054 	ori	r3,r2,1
    8310:	30c00115 	stw	r3,4(r6)
    8314:	308d883a 	add	r6,r6,r2
    8318:	30800015 	stw	r2,0(r6)
    831c:	003fb606 	br	81f8 <__alt_data_end+0xf80081f8>
    8320:	01000504 	movi	r4,20
    8324:	20c01436 	bltu	r4,r3,8378 <_free_r+0x29c>
    8328:	194016c4 	addi	r5,r3,91
    832c:	2947883a 	add	r3,r5,r5
    8330:	003fbe06 	br	822c <__alt_data_end+0xf800822c>
    8334:	280bd0ba 	srai	r5,r5,2
    8338:	00800044 	movi	r2,1
    833c:	39000117 	ldw	r4,4(r7)
    8340:	114a983a 	sll	r5,r2,r5
    8344:	1805883a 	mov	r2,r3
    8348:	2908b03a 	or	r4,r5,r4
    834c:	39000115 	stw	r4,4(r7)
    8350:	003fc406 	br	8264 <__alt_data_end+0xf8008264>
    8354:	49800515 	stw	r6,20(r9)
    8358:	49800415 	stw	r6,16(r9)
    835c:	10c00054 	ori	r3,r2,1
    8360:	31000315 	stw	r4,12(r6)
    8364:	31000215 	stw	r4,8(r6)
    8368:	30c00115 	stw	r3,4(r6)
    836c:	308d883a 	add	r6,r6,r2
    8370:	30800015 	stw	r2,0(r6)
    8374:	003fa006 	br	81f8 <__alt_data_end+0xf80081f8>
    8378:	01001504 	movi	r4,84
    837c:	20c00436 	bltu	r4,r3,8390 <_free_r+0x2b4>
    8380:	1006d33a 	srli	r3,r2,12
    8384:	19401b84 	addi	r5,r3,110
    8388:	2947883a 	add	r3,r5,r5
    838c:	003fa706 	br	822c <__alt_data_end+0xf800822c>
    8390:	01005504 	movi	r4,340
    8394:	20c00436 	bltu	r4,r3,83a8 <_free_r+0x2cc>
    8398:	1006d3fa 	srli	r3,r2,15
    839c:	19401dc4 	addi	r5,r3,119
    83a0:	2947883a 	add	r3,r5,r5
    83a4:	003fa106 	br	822c <__alt_data_end+0xf800822c>
    83a8:	01015504 	movi	r4,1364
    83ac:	20c00436 	bltu	r4,r3,83c0 <_free_r+0x2e4>
    83b0:	1006d4ba 	srli	r3,r2,18
    83b4:	19401f04 	addi	r5,r3,124
    83b8:	2947883a 	add	r3,r5,r5
    83bc:	003f9b06 	br	822c <__alt_data_end+0xf800822c>
    83c0:	00c03f04 	movi	r3,252
    83c4:	01401f84 	movi	r5,126
    83c8:	003f9806 	br	822c <__alt_data_end+0xf800822c>

000083cc <_setlocale_r>:
    83cc:	30001b26 	beq	r6,zero,843c <_setlocale_r+0x70>
    83d0:	01400374 	movhi	r5,13
    83d4:	defffe04 	addi	sp,sp,-8
    83d8:	296f8604 	addi	r5,r5,-16872
    83dc:	3009883a 	mov	r4,r6
    83e0:	dc000015 	stw	r16,0(sp)
    83e4:	dfc00115 	stw	ra,4(sp)
    83e8:	3021883a 	mov	r16,r6
    83ec:	00096cc0 	call	96cc <strcmp>
    83f0:	1000061e 	bne	r2,zero,840c <_setlocale_r+0x40>
    83f4:	00800374 	movhi	r2,13
    83f8:	10af8504 	addi	r2,r2,-16876
    83fc:	dfc00117 	ldw	ra,4(sp)
    8400:	dc000017 	ldw	r16,0(sp)
    8404:	dec00204 	addi	sp,sp,8
    8408:	f800283a 	ret
    840c:	01400374 	movhi	r5,13
    8410:	296f8504 	addi	r5,r5,-16876
    8414:	8009883a 	mov	r4,r16
    8418:	00096cc0 	call	96cc <strcmp>
    841c:	103ff526 	beq	r2,zero,83f4 <__alt_data_end+0xf80083f4>
    8420:	01400374 	movhi	r5,13
    8424:	296f7004 	addi	r5,r5,-16960
    8428:	8009883a 	mov	r4,r16
    842c:	00096cc0 	call	96cc <strcmp>
    8430:	103ff026 	beq	r2,zero,83f4 <__alt_data_end+0xf80083f4>
    8434:	0005883a 	mov	r2,zero
    8438:	003ff006 	br	83fc <__alt_data_end+0xf80083fc>
    843c:	00800374 	movhi	r2,13
    8440:	10af8504 	addi	r2,r2,-16876
    8444:	f800283a 	ret

00008448 <__locale_charset>:
    8448:	00800374 	movhi	r2,13
    844c:	10b25d04 	addi	r2,r2,-13964
    8450:	f800283a 	ret

00008454 <__locale_mb_cur_max>:
    8454:	00800374 	movhi	r2,13
    8458:	10b74904 	addi	r2,r2,-8924
    845c:	10800017 	ldw	r2,0(r2)
    8460:	f800283a 	ret

00008464 <__locale_msgcharset>:
    8464:	00800374 	movhi	r2,13
    8468:	10b25504 	addi	r2,r2,-13996
    846c:	f800283a 	ret

00008470 <__locale_cjk_lang>:
    8470:	0005883a 	mov	r2,zero
    8474:	f800283a 	ret

00008478 <_localeconv_r>:
    8478:	00800374 	movhi	r2,13
    847c:	10b26504 	addi	r2,r2,-13932
    8480:	f800283a 	ret

00008484 <setlocale>:
    8484:	00c00374 	movhi	r3,13
    8488:	18f74804 	addi	r3,r3,-8928
    848c:	2005883a 	mov	r2,r4
    8490:	19000017 	ldw	r4,0(r3)
    8494:	280d883a 	mov	r6,r5
    8498:	100b883a 	mov	r5,r2
    849c:	00083cc1 	jmpi	83cc <_setlocale_r>

000084a0 <localeconv>:
    84a0:	00800374 	movhi	r2,13
    84a4:	10b26504 	addi	r2,r2,-13932
    84a8:	f800283a 	ret

000084ac <memchr>:
    84ac:	208000cc 	andi	r2,r4,3
    84b0:	280f883a 	mov	r7,r5
    84b4:	10003526 	beq	r2,zero,858c <memchr+0xe0>
    84b8:	30bfffc4 	addi	r2,r6,-1
    84bc:	30001b26 	beq	r6,zero,852c <memchr+0x80>
    84c0:	21800003 	ldbu	r6,0(r4)
    84c4:	28c03fcc 	andi	r3,r5,255
    84c8:	30c01a26 	beq	r6,r3,8534 <memchr+0x88>
    84cc:	180d883a 	mov	r6,r3
    84d0:	00000406 	br	84e4 <memchr+0x38>
    84d4:	10001526 	beq	r2,zero,852c <memchr+0x80>
    84d8:	20c00003 	ldbu	r3,0(r4)
    84dc:	10bfffc4 	addi	r2,r2,-1
    84e0:	19801426 	beq	r3,r6,8534 <memchr+0x88>
    84e4:	21000044 	addi	r4,r4,1
    84e8:	20c000cc 	andi	r3,r4,3
    84ec:	183ff91e 	bne	r3,zero,84d4 <__alt_data_end+0xf80084d4>
    84f0:	024000c4 	movi	r9,3
    84f4:	48801136 	bltu	r9,r2,853c <memchr+0x90>
    84f8:	10000c26 	beq	r2,zero,852c <memchr+0x80>
    84fc:	20c00003 	ldbu	r3,0(r4)
    8500:	29403fcc 	andi	r5,r5,255
    8504:	19400b26 	beq	r3,r5,8534 <memchr+0x88>
    8508:	20c00044 	addi	r3,r4,1
    850c:	2085883a 	add	r2,r4,r2
    8510:	39803fcc 	andi	r6,r7,255
    8514:	00000306 	br	8524 <memchr+0x78>
    8518:	18c00044 	addi	r3,r3,1
    851c:	197fffc3 	ldbu	r5,-1(r3)
    8520:	29800426 	beq	r5,r6,8534 <memchr+0x88>
    8524:	1809883a 	mov	r4,r3
    8528:	18bffb1e 	bne	r3,r2,8518 <__alt_data_end+0xf8008518>
    852c:	0005883a 	mov	r2,zero
    8530:	f800283a 	ret
    8534:	2005883a 	mov	r2,r4
    8538:	f800283a 	ret
    853c:	28c03fcc 	andi	r3,r5,255
    8540:	1810923a 	slli	r8,r3,8
    8544:	02ffbff4 	movhi	r11,65279
    8548:	02a02074 	movhi	r10,32897
    854c:	40c6b03a 	or	r3,r8,r3
    8550:	1810943a 	slli	r8,r3,16
    8554:	5affbfc4 	addi	r11,r11,-257
    8558:	52a02004 	addi	r10,r10,-32640
    855c:	40d0b03a 	or	r8,r8,r3
    8560:	20c00017 	ldw	r3,0(r4)
    8564:	40c6f03a 	xor	r3,r8,r3
    8568:	1acd883a 	add	r6,r3,r11
    856c:	00c6303a 	nor	r3,zero,r3
    8570:	30c6703a 	and	r3,r6,r3
    8574:	1a86703a 	and	r3,r3,r10
    8578:	183fdf1e 	bne	r3,zero,84f8 <__alt_data_end+0xf80084f8>
    857c:	10bfff04 	addi	r2,r2,-4
    8580:	21000104 	addi	r4,r4,4
    8584:	48bff636 	bltu	r9,r2,8560 <__alt_data_end+0xf8008560>
    8588:	003fdb06 	br	84f8 <__alt_data_end+0xf80084f8>
    858c:	3005883a 	mov	r2,r6
    8590:	003fd706 	br	84f0 <__alt_data_end+0xf80084f0>

00008594 <memcpy>:
    8594:	deffff04 	addi	sp,sp,-4
    8598:	dc000015 	stw	r16,0(sp)
    859c:	00c003c4 	movi	r3,15
    85a0:	2005883a 	mov	r2,r4
    85a4:	1980432e 	bgeu	r3,r6,86b4 <memcpy+0x120>
    85a8:	2146b03a 	or	r3,r4,r5
    85ac:	18c000cc 	andi	r3,r3,3
    85b0:	1800421e 	bne	r3,zero,86bc <memcpy+0x128>
    85b4:	343ffc04 	addi	r16,r6,-16
    85b8:	8020d13a 	srli	r16,r16,4
    85bc:	28c00104 	addi	r3,r5,4
    85c0:	23400104 	addi	r13,r4,4
    85c4:	801e913a 	slli	r15,r16,4
    85c8:	2b000204 	addi	r12,r5,8
    85cc:	22c00204 	addi	r11,r4,8
    85d0:	7bc00504 	addi	r15,r15,20
    85d4:	2a800304 	addi	r10,r5,12
    85d8:	22400304 	addi	r9,r4,12
    85dc:	2bdf883a 	add	r15,r5,r15
    85e0:	2811883a 	mov	r8,r5
    85e4:	200f883a 	mov	r7,r4
    85e8:	41000017 	ldw	r4,0(r8)
    85ec:	39c00404 	addi	r7,r7,16
    85f0:	18c00404 	addi	r3,r3,16
    85f4:	393ffc15 	stw	r4,-16(r7)
    85f8:	1bbffc17 	ldw	r14,-16(r3)
    85fc:	6b400404 	addi	r13,r13,16
    8600:	5ac00404 	addi	r11,r11,16
    8604:	6bbffc15 	stw	r14,-16(r13)
    8608:	63800017 	ldw	r14,0(r12)
    860c:	4a400404 	addi	r9,r9,16
    8610:	42000404 	addi	r8,r8,16
    8614:	5bbffc15 	stw	r14,-16(r11)
    8618:	53800017 	ldw	r14,0(r10)
    861c:	63000404 	addi	r12,r12,16
    8620:	52800404 	addi	r10,r10,16
    8624:	4bbffc15 	stw	r14,-16(r9)
    8628:	1bffef1e 	bne	r3,r15,85e8 <__alt_data_end+0xf80085e8>
    862c:	81c00044 	addi	r7,r16,1
    8630:	380e913a 	slli	r7,r7,4
    8634:	310003cc 	andi	r4,r6,15
    8638:	02c000c4 	movi	r11,3
    863c:	11c7883a 	add	r3,r2,r7
    8640:	29cb883a 	add	r5,r5,r7
    8644:	59001f2e 	bgeu	r11,r4,86c4 <memcpy+0x130>
    8648:	1813883a 	mov	r9,r3
    864c:	2811883a 	mov	r8,r5
    8650:	200f883a 	mov	r7,r4
    8654:	42800017 	ldw	r10,0(r8)
    8658:	4a400104 	addi	r9,r9,4
    865c:	39ffff04 	addi	r7,r7,-4
    8660:	4abfff15 	stw	r10,-4(r9)
    8664:	42000104 	addi	r8,r8,4
    8668:	59fffa36 	bltu	r11,r7,8654 <__alt_data_end+0xf8008654>
    866c:	213fff04 	addi	r4,r4,-4
    8670:	2008d0ba 	srli	r4,r4,2
    8674:	318000cc 	andi	r6,r6,3
    8678:	21000044 	addi	r4,r4,1
    867c:	2109883a 	add	r4,r4,r4
    8680:	2109883a 	add	r4,r4,r4
    8684:	1907883a 	add	r3,r3,r4
    8688:	290b883a 	add	r5,r5,r4
    868c:	30000626 	beq	r6,zero,86a8 <memcpy+0x114>
    8690:	198d883a 	add	r6,r3,r6
    8694:	29c00003 	ldbu	r7,0(r5)
    8698:	18c00044 	addi	r3,r3,1
    869c:	29400044 	addi	r5,r5,1
    86a0:	19ffffc5 	stb	r7,-1(r3)
    86a4:	19bffb1e 	bne	r3,r6,8694 <__alt_data_end+0xf8008694>
    86a8:	dc000017 	ldw	r16,0(sp)
    86ac:	dec00104 	addi	sp,sp,4
    86b0:	f800283a 	ret
    86b4:	2007883a 	mov	r3,r4
    86b8:	003ff406 	br	868c <__alt_data_end+0xf800868c>
    86bc:	2007883a 	mov	r3,r4
    86c0:	003ff306 	br	8690 <__alt_data_end+0xf8008690>
    86c4:	200d883a 	mov	r6,r4
    86c8:	003ff006 	br	868c <__alt_data_end+0xf800868c>

000086cc <_Balloc>:
    86cc:	20801317 	ldw	r2,76(r4)
    86d0:	defffc04 	addi	sp,sp,-16
    86d4:	dc400115 	stw	r17,4(sp)
    86d8:	dc000015 	stw	r16,0(sp)
    86dc:	dfc00315 	stw	ra,12(sp)
    86e0:	dc800215 	stw	r18,8(sp)
    86e4:	2023883a 	mov	r17,r4
    86e8:	2821883a 	mov	r16,r5
    86ec:	10000f26 	beq	r2,zero,872c <_Balloc+0x60>
    86f0:	8407883a 	add	r3,r16,r16
    86f4:	18c7883a 	add	r3,r3,r3
    86f8:	10c7883a 	add	r3,r2,r3
    86fc:	18800017 	ldw	r2,0(r3)
    8700:	10001126 	beq	r2,zero,8748 <_Balloc+0x7c>
    8704:	11000017 	ldw	r4,0(r2)
    8708:	19000015 	stw	r4,0(r3)
    870c:	10000415 	stw	zero,16(r2)
    8710:	10000315 	stw	zero,12(r2)
    8714:	dfc00317 	ldw	ra,12(sp)
    8718:	dc800217 	ldw	r18,8(sp)
    871c:	dc400117 	ldw	r17,4(sp)
    8720:	dc000017 	ldw	r16,0(sp)
    8724:	dec00404 	addi	sp,sp,16
    8728:	f800283a 	ret
    872c:	01400104 	movi	r5,4
    8730:	01800844 	movi	r6,33
    8734:	000a9a00 	call	a9a0 <_calloc_r>
    8738:	88801315 	stw	r2,76(r17)
    873c:	103fec1e 	bne	r2,zero,86f0 <__alt_data_end+0xf80086f0>
    8740:	0005883a 	mov	r2,zero
    8744:	003ff306 	br	8714 <__alt_data_end+0xf8008714>
    8748:	01400044 	movi	r5,1
    874c:	2c24983a 	sll	r18,r5,r16
    8750:	8809883a 	mov	r4,r17
    8754:	91800144 	addi	r6,r18,5
    8758:	318d883a 	add	r6,r6,r6
    875c:	318d883a 	add	r6,r6,r6
    8760:	000a9a00 	call	a9a0 <_calloc_r>
    8764:	103ff626 	beq	r2,zero,8740 <__alt_data_end+0xf8008740>
    8768:	14000115 	stw	r16,4(r2)
    876c:	14800215 	stw	r18,8(r2)
    8770:	003fe606 	br	870c <__alt_data_end+0xf800870c>

00008774 <_Bfree>:
    8774:	28000826 	beq	r5,zero,8798 <_Bfree+0x24>
    8778:	28c00117 	ldw	r3,4(r5)
    877c:	20801317 	ldw	r2,76(r4)
    8780:	18c7883a 	add	r3,r3,r3
    8784:	18c7883a 	add	r3,r3,r3
    8788:	10c5883a 	add	r2,r2,r3
    878c:	10c00017 	ldw	r3,0(r2)
    8790:	28c00015 	stw	r3,0(r5)
    8794:	11400015 	stw	r5,0(r2)
    8798:	f800283a 	ret

0000879c <__multadd>:
    879c:	defffa04 	addi	sp,sp,-24
    87a0:	dc000115 	stw	r16,4(sp)
    87a4:	2c000417 	ldw	r16,16(r5)
    87a8:	dc800315 	stw	r18,12(sp)
    87ac:	dc400215 	stw	r17,8(sp)
    87b0:	dfc00515 	stw	ra,20(sp)
    87b4:	dcc00415 	stw	r19,16(sp)
    87b8:	2823883a 	mov	r17,r5
    87bc:	2025883a 	mov	r18,r4
    87c0:	2a400504 	addi	r9,r5,20
    87c4:	0015883a 	mov	r10,zero
    87c8:	4a000017 	ldw	r8,0(r9)
    87cc:	4a400104 	addi	r9,r9,4
    87d0:	52800044 	addi	r10,r10,1
    87d4:	40ffffcc 	andi	r3,r8,65535
    87d8:	1987383a 	mul	r3,r3,r6
    87dc:	4010d43a 	srli	r8,r8,16
    87e0:	19cf883a 	add	r7,r3,r7
    87e4:	4191383a 	mul	r8,r8,r6
    87e8:	3816d43a 	srli	r11,r7,16
    87ec:	38ffffcc 	andi	r3,r7,65535
    87f0:	5a0f883a 	add	r7,r11,r8
    87f4:	3810943a 	slli	r8,r7,16
    87f8:	380ed43a 	srli	r7,r7,16
    87fc:	40c7883a 	add	r3,r8,r3
    8800:	48ffff15 	stw	r3,-4(r9)
    8804:	543ff016 	blt	r10,r16,87c8 <__alt_data_end+0xf80087c8>
    8808:	38000926 	beq	r7,zero,8830 <__multadd+0x94>
    880c:	88800217 	ldw	r2,8(r17)
    8810:	80800f0e 	bge	r16,r2,8850 <__multadd+0xb4>
    8814:	80800144 	addi	r2,r16,5
    8818:	1085883a 	add	r2,r2,r2
    881c:	1085883a 	add	r2,r2,r2
    8820:	8885883a 	add	r2,r17,r2
    8824:	11c00015 	stw	r7,0(r2)
    8828:	84000044 	addi	r16,r16,1
    882c:	8c000415 	stw	r16,16(r17)
    8830:	8805883a 	mov	r2,r17
    8834:	dfc00517 	ldw	ra,20(sp)
    8838:	dcc00417 	ldw	r19,16(sp)
    883c:	dc800317 	ldw	r18,12(sp)
    8840:	dc400217 	ldw	r17,8(sp)
    8844:	dc000117 	ldw	r16,4(sp)
    8848:	dec00604 	addi	sp,sp,24
    884c:	f800283a 	ret
    8850:	89400117 	ldw	r5,4(r17)
    8854:	9009883a 	mov	r4,r18
    8858:	d9c00015 	stw	r7,0(sp)
    885c:	29400044 	addi	r5,r5,1
    8860:	00086cc0 	call	86cc <_Balloc>
    8864:	89800417 	ldw	r6,16(r17)
    8868:	89400304 	addi	r5,r17,12
    886c:	11000304 	addi	r4,r2,12
    8870:	31800084 	addi	r6,r6,2
    8874:	318d883a 	add	r6,r6,r6
    8878:	318d883a 	add	r6,r6,r6
    887c:	1027883a 	mov	r19,r2
    8880:	00085940 	call	8594 <memcpy>
    8884:	89000117 	ldw	r4,4(r17)
    8888:	90c01317 	ldw	r3,76(r18)
    888c:	d9c00017 	ldw	r7,0(sp)
    8890:	2109883a 	add	r4,r4,r4
    8894:	2109883a 	add	r4,r4,r4
    8898:	1907883a 	add	r3,r3,r4
    889c:	18800017 	ldw	r2,0(r3)
    88a0:	88800015 	stw	r2,0(r17)
    88a4:	1c400015 	stw	r17,0(r3)
    88a8:	9823883a 	mov	r17,r19
    88ac:	003fd906 	br	8814 <__alt_data_end+0xf8008814>

000088b0 <__s2b>:
    88b0:	defff904 	addi	sp,sp,-28
    88b4:	dc400115 	stw	r17,4(sp)
    88b8:	dc000015 	stw	r16,0(sp)
    88bc:	2023883a 	mov	r17,r4
    88c0:	2821883a 	mov	r16,r5
    88c4:	39000204 	addi	r4,r7,8
    88c8:	01400244 	movi	r5,9
    88cc:	dcc00315 	stw	r19,12(sp)
    88d0:	dc800215 	stw	r18,8(sp)
    88d4:	dfc00615 	stw	ra,24(sp)
    88d8:	dd400515 	stw	r21,20(sp)
    88dc:	dd000415 	stw	r20,16(sp)
    88e0:	3825883a 	mov	r18,r7
    88e4:	3027883a 	mov	r19,r6
    88e8:	0003cc00 	call	3cc0 <__divsi3>
    88ec:	00c00044 	movi	r3,1
    88f0:	000b883a 	mov	r5,zero
    88f4:	1880030e 	bge	r3,r2,8904 <__s2b+0x54>
    88f8:	18c7883a 	add	r3,r3,r3
    88fc:	29400044 	addi	r5,r5,1
    8900:	18bffd16 	blt	r3,r2,88f8 <__alt_data_end+0xf80088f8>
    8904:	8809883a 	mov	r4,r17
    8908:	00086cc0 	call	86cc <_Balloc>
    890c:	d8c00717 	ldw	r3,28(sp)
    8910:	10c00515 	stw	r3,20(r2)
    8914:	00c00044 	movi	r3,1
    8918:	10c00415 	stw	r3,16(r2)
    891c:	00c00244 	movi	r3,9
    8920:	1cc0210e 	bge	r3,r19,89a8 <__s2b+0xf8>
    8924:	80eb883a 	add	r21,r16,r3
    8928:	a829883a 	mov	r20,r21
    892c:	84e1883a 	add	r16,r16,r19
    8930:	a1c00007 	ldb	r7,0(r20)
    8934:	8809883a 	mov	r4,r17
    8938:	a5000044 	addi	r20,r20,1
    893c:	100b883a 	mov	r5,r2
    8940:	01800284 	movi	r6,10
    8944:	39fff404 	addi	r7,r7,-48
    8948:	000879c0 	call	879c <__multadd>
    894c:	a43ff81e 	bne	r20,r16,8930 <__alt_data_end+0xf8008930>
    8950:	ace1883a 	add	r16,r21,r19
    8954:	843ffe04 	addi	r16,r16,-8
    8958:	9c800a0e 	bge	r19,r18,8984 <__s2b+0xd4>
    895c:	94e5c83a 	sub	r18,r18,r19
    8960:	84a5883a 	add	r18,r16,r18
    8964:	81c00007 	ldb	r7,0(r16)
    8968:	8809883a 	mov	r4,r17
    896c:	84000044 	addi	r16,r16,1
    8970:	100b883a 	mov	r5,r2
    8974:	01800284 	movi	r6,10
    8978:	39fff404 	addi	r7,r7,-48
    897c:	000879c0 	call	879c <__multadd>
    8980:	84bff81e 	bne	r16,r18,8964 <__alt_data_end+0xf8008964>
    8984:	dfc00617 	ldw	ra,24(sp)
    8988:	dd400517 	ldw	r21,20(sp)
    898c:	dd000417 	ldw	r20,16(sp)
    8990:	dcc00317 	ldw	r19,12(sp)
    8994:	dc800217 	ldw	r18,8(sp)
    8998:	dc400117 	ldw	r17,4(sp)
    899c:	dc000017 	ldw	r16,0(sp)
    89a0:	dec00704 	addi	sp,sp,28
    89a4:	f800283a 	ret
    89a8:	84000284 	addi	r16,r16,10
    89ac:	1827883a 	mov	r19,r3
    89b0:	003fe906 	br	8958 <__alt_data_end+0xf8008958>

000089b4 <__hi0bits>:
    89b4:	20bfffec 	andhi	r2,r4,65535
    89b8:	1000141e 	bne	r2,zero,8a0c <__hi0bits+0x58>
    89bc:	2008943a 	slli	r4,r4,16
    89c0:	00800404 	movi	r2,16
    89c4:	20ffc02c 	andhi	r3,r4,65280
    89c8:	1800021e 	bne	r3,zero,89d4 <__hi0bits+0x20>
    89cc:	2008923a 	slli	r4,r4,8
    89d0:	10800204 	addi	r2,r2,8
    89d4:	20fc002c 	andhi	r3,r4,61440
    89d8:	1800021e 	bne	r3,zero,89e4 <__hi0bits+0x30>
    89dc:	2008913a 	slli	r4,r4,4
    89e0:	10800104 	addi	r2,r2,4
    89e4:	20f0002c 	andhi	r3,r4,49152
    89e8:	1800031e 	bne	r3,zero,89f8 <__hi0bits+0x44>
    89ec:	2109883a 	add	r4,r4,r4
    89f0:	10800084 	addi	r2,r2,2
    89f4:	2109883a 	add	r4,r4,r4
    89f8:	20000316 	blt	r4,zero,8a08 <__hi0bits+0x54>
    89fc:	2110002c 	andhi	r4,r4,16384
    8a00:	2000041e 	bne	r4,zero,8a14 <__hi0bits+0x60>
    8a04:	00800804 	movi	r2,32
    8a08:	f800283a 	ret
    8a0c:	0005883a 	mov	r2,zero
    8a10:	003fec06 	br	89c4 <__alt_data_end+0xf80089c4>
    8a14:	10800044 	addi	r2,r2,1
    8a18:	f800283a 	ret

00008a1c <__lo0bits>:
    8a1c:	20c00017 	ldw	r3,0(r4)
    8a20:	188001cc 	andi	r2,r3,7
    8a24:	10000826 	beq	r2,zero,8a48 <__lo0bits+0x2c>
    8a28:	1880004c 	andi	r2,r3,1
    8a2c:	1000211e 	bne	r2,zero,8ab4 <__lo0bits+0x98>
    8a30:	1880008c 	andi	r2,r3,2
    8a34:	1000211e 	bne	r2,zero,8abc <__lo0bits+0xa0>
    8a38:	1806d0ba 	srli	r3,r3,2
    8a3c:	00800084 	movi	r2,2
    8a40:	20c00015 	stw	r3,0(r4)
    8a44:	f800283a 	ret
    8a48:	18bfffcc 	andi	r2,r3,65535
    8a4c:	10001326 	beq	r2,zero,8a9c <__lo0bits+0x80>
    8a50:	0005883a 	mov	r2,zero
    8a54:	19403fcc 	andi	r5,r3,255
    8a58:	2800021e 	bne	r5,zero,8a64 <__lo0bits+0x48>
    8a5c:	1806d23a 	srli	r3,r3,8
    8a60:	10800204 	addi	r2,r2,8
    8a64:	194003cc 	andi	r5,r3,15
    8a68:	2800021e 	bne	r5,zero,8a74 <__lo0bits+0x58>
    8a6c:	1806d13a 	srli	r3,r3,4
    8a70:	10800104 	addi	r2,r2,4
    8a74:	194000cc 	andi	r5,r3,3
    8a78:	2800021e 	bne	r5,zero,8a84 <__lo0bits+0x68>
    8a7c:	1806d0ba 	srli	r3,r3,2
    8a80:	10800084 	addi	r2,r2,2
    8a84:	1940004c 	andi	r5,r3,1
    8a88:	2800081e 	bne	r5,zero,8aac <__lo0bits+0x90>
    8a8c:	1806d07a 	srli	r3,r3,1
    8a90:	1800051e 	bne	r3,zero,8aa8 <__lo0bits+0x8c>
    8a94:	00800804 	movi	r2,32
    8a98:	f800283a 	ret
    8a9c:	1806d43a 	srli	r3,r3,16
    8aa0:	00800404 	movi	r2,16
    8aa4:	003feb06 	br	8a54 <__alt_data_end+0xf8008a54>
    8aa8:	10800044 	addi	r2,r2,1
    8aac:	20c00015 	stw	r3,0(r4)
    8ab0:	f800283a 	ret
    8ab4:	0005883a 	mov	r2,zero
    8ab8:	f800283a 	ret
    8abc:	1806d07a 	srli	r3,r3,1
    8ac0:	00800044 	movi	r2,1
    8ac4:	20c00015 	stw	r3,0(r4)
    8ac8:	f800283a 	ret

00008acc <__i2b>:
    8acc:	defffd04 	addi	sp,sp,-12
    8ad0:	dc000015 	stw	r16,0(sp)
    8ad4:	04000044 	movi	r16,1
    8ad8:	dc400115 	stw	r17,4(sp)
    8adc:	2823883a 	mov	r17,r5
    8ae0:	800b883a 	mov	r5,r16
    8ae4:	dfc00215 	stw	ra,8(sp)
    8ae8:	00086cc0 	call	86cc <_Balloc>
    8aec:	14400515 	stw	r17,20(r2)
    8af0:	14000415 	stw	r16,16(r2)
    8af4:	dfc00217 	ldw	ra,8(sp)
    8af8:	dc400117 	ldw	r17,4(sp)
    8afc:	dc000017 	ldw	r16,0(sp)
    8b00:	dec00304 	addi	sp,sp,12
    8b04:	f800283a 	ret

00008b08 <__multiply>:
    8b08:	defffa04 	addi	sp,sp,-24
    8b0c:	dcc00315 	stw	r19,12(sp)
    8b10:	dc800215 	stw	r18,8(sp)
    8b14:	2cc00417 	ldw	r19,16(r5)
    8b18:	34800417 	ldw	r18,16(r6)
    8b1c:	dd000415 	stw	r20,16(sp)
    8b20:	dc400115 	stw	r17,4(sp)
    8b24:	dfc00515 	stw	ra,20(sp)
    8b28:	dc000015 	stw	r16,0(sp)
    8b2c:	2829883a 	mov	r20,r5
    8b30:	3023883a 	mov	r17,r6
    8b34:	9c807016 	blt	r19,r18,8cf8 <__multiply+0x1f0>
    8b38:	9005883a 	mov	r2,r18
    8b3c:	9825883a 	mov	r18,r19
    8b40:	1027883a 	mov	r19,r2
    8b44:	a0800217 	ldw	r2,8(r20)
    8b48:	94e1883a 	add	r16,r18,r19
    8b4c:	a1400117 	ldw	r5,4(r20)
    8b50:	1400010e 	bge	r2,r16,8b58 <__multiply+0x50>
    8b54:	29400044 	addi	r5,r5,1
    8b58:	00086cc0 	call	86cc <_Balloc>
    8b5c:	8417883a 	add	r11,r16,r16
    8b60:	13000504 	addi	r12,r2,20
    8b64:	5ad7883a 	add	r11,r11,r11
    8b68:	62d7883a 	add	r11,r12,r11
    8b6c:	6007883a 	mov	r3,r12
    8b70:	62c0032e 	bgeu	r12,r11,8b80 <__multiply+0x78>
    8b74:	18000015 	stw	zero,0(r3)
    8b78:	18c00104 	addi	r3,r3,4
    8b7c:	1afffd36 	bltu	r3,r11,8b74 <__alt_data_end+0xf8008b74>
    8b80:	9ce7883a 	add	r19,r19,r19
    8b84:	94a5883a 	add	r18,r18,r18
    8b88:	89800504 	addi	r6,r17,20
    8b8c:	9ce7883a 	add	r19,r19,r19
    8b90:	a3800504 	addi	r14,r20,20
    8b94:	94a5883a 	add	r18,r18,r18
    8b98:	34db883a 	add	r13,r6,r19
    8b9c:	7495883a 	add	r10,r14,r18
    8ba0:	3340422e 	bgeu	r6,r13,8cac <__multiply+0x1a4>
    8ba4:	34400017 	ldw	r17,0(r6)
    8ba8:	8cbfffcc 	andi	r18,r17,65535
    8bac:	90001b26 	beq	r18,zero,8c1c <__multiply+0x114>
    8bb0:	6013883a 	mov	r9,r12
    8bb4:	7023883a 	mov	r17,r14
    8bb8:	0011883a 	mov	r8,zero
    8bbc:	88c00017 	ldw	r3,0(r17)
    8bc0:	4bc00017 	ldw	r15,0(r9)
    8bc4:	8c400104 	addi	r17,r17,4
    8bc8:	19ffffcc 	andi	r7,r3,65535
    8bcc:	3c8f383a 	mul	r7,r7,r18
    8bd0:	1808d43a 	srli	r4,r3,16
    8bd4:	797fffcc 	andi	r5,r15,65535
    8bd8:	29cb883a 	add	r5,r5,r7
    8bdc:	2a0b883a 	add	r5,r5,r8
    8be0:	2489383a 	mul	r4,r4,r18
    8be4:	7806d43a 	srli	r3,r15,16
    8be8:	2810d43a 	srli	r8,r5,16
    8bec:	297fffcc 	andi	r5,r5,65535
    8bf0:	1907883a 	add	r3,r3,r4
    8bf4:	1a07883a 	add	r3,r3,r8
    8bf8:	1808943a 	slli	r4,r3,16
    8bfc:	480f883a 	mov	r7,r9
    8c00:	1810d43a 	srli	r8,r3,16
    8c04:	214ab03a 	or	r5,r4,r5
    8c08:	49400015 	stw	r5,0(r9)
    8c0c:	4a400104 	addi	r9,r9,4
    8c10:	8abfea36 	bltu	r17,r10,8bbc <__alt_data_end+0xf8008bbc>
    8c14:	3a000115 	stw	r8,4(r7)
    8c18:	34400017 	ldw	r17,0(r6)
    8c1c:	8822d43a 	srli	r17,r17,16
    8c20:	88001f26 	beq	r17,zero,8ca0 <__multiply+0x198>
    8c24:	60c00017 	ldw	r3,0(r12)
    8c28:	7013883a 	mov	r9,r14
    8c2c:	601f883a 	mov	r15,r12
    8c30:	1811883a 	mov	r8,r3
    8c34:	6027883a 	mov	r19,r12
    8c38:	000f883a 	mov	r7,zero
    8c3c:	00000106 	br	8c44 <__multiply+0x13c>
    8c40:	9027883a 	mov	r19,r18
    8c44:	4940000b 	ldhu	r5,0(r9)
    8c48:	4010d43a 	srli	r8,r8,16
    8c4c:	193fffcc 	andi	r4,r3,65535
    8c50:	2c4b383a 	mul	r5,r5,r17
    8c54:	7bc00104 	addi	r15,r15,4
    8c58:	4a400104 	addi	r9,r9,4
    8c5c:	2a0b883a 	add	r5,r5,r8
    8c60:	29cb883a 	add	r5,r5,r7
    8c64:	2806943a 	slli	r3,r5,16
    8c68:	9c800104 	addi	r18,r19,4
    8c6c:	280ad43a 	srli	r5,r5,16
    8c70:	1908b03a 	or	r4,r3,r4
    8c74:	793fff15 	stw	r4,-4(r15)
    8c78:	48ffff17 	ldw	r3,-4(r9)
    8c7c:	92000017 	ldw	r8,0(r18)
    8c80:	1806d43a 	srli	r3,r3,16
    8c84:	413fffcc 	andi	r4,r8,65535
    8c88:	1c47383a 	mul	r3,r3,r17
    8c8c:	1907883a 	add	r3,r3,r4
    8c90:	1947883a 	add	r3,r3,r5
    8c94:	180ed43a 	srli	r7,r3,16
    8c98:	4abfe936 	bltu	r9,r10,8c40 <__alt_data_end+0xf8008c40>
    8c9c:	98c00115 	stw	r3,4(r19)
    8ca0:	31800104 	addi	r6,r6,4
    8ca4:	63000104 	addi	r12,r12,4
    8ca8:	337fbe36 	bltu	r6,r13,8ba4 <__alt_data_end+0xf8008ba4>
    8cac:	0400090e 	bge	zero,r16,8cd4 <__multiply+0x1cc>
    8cb0:	58ffff17 	ldw	r3,-4(r11)
    8cb4:	5affff04 	addi	r11,r11,-4
    8cb8:	18000326 	beq	r3,zero,8cc8 <__multiply+0x1c0>
    8cbc:	00000506 	br	8cd4 <__multiply+0x1cc>
    8cc0:	58c00017 	ldw	r3,0(r11)
    8cc4:	1800031e 	bne	r3,zero,8cd4 <__multiply+0x1cc>
    8cc8:	843fffc4 	addi	r16,r16,-1
    8ccc:	5affff04 	addi	r11,r11,-4
    8cd0:	803ffb1e 	bne	r16,zero,8cc0 <__alt_data_end+0xf8008cc0>
    8cd4:	14000415 	stw	r16,16(r2)
    8cd8:	dfc00517 	ldw	ra,20(sp)
    8cdc:	dd000417 	ldw	r20,16(sp)
    8ce0:	dcc00317 	ldw	r19,12(sp)
    8ce4:	dc800217 	ldw	r18,8(sp)
    8ce8:	dc400117 	ldw	r17,4(sp)
    8cec:	dc000017 	ldw	r16,0(sp)
    8cf0:	dec00604 	addi	sp,sp,24
    8cf4:	f800283a 	ret
    8cf8:	3029883a 	mov	r20,r6
    8cfc:	2823883a 	mov	r17,r5
    8d00:	003f9006 	br	8b44 <__alt_data_end+0xf8008b44>

00008d04 <__pow5mult>:
    8d04:	defffa04 	addi	sp,sp,-24
    8d08:	dcc00315 	stw	r19,12(sp)
    8d0c:	dc800215 	stw	r18,8(sp)
    8d10:	dc000015 	stw	r16,0(sp)
    8d14:	dfc00515 	stw	ra,20(sp)
    8d18:	dd000415 	stw	r20,16(sp)
    8d1c:	dc400115 	stw	r17,4(sp)
    8d20:	308000cc 	andi	r2,r6,3
    8d24:	3021883a 	mov	r16,r6
    8d28:	2027883a 	mov	r19,r4
    8d2c:	2825883a 	mov	r18,r5
    8d30:	10002e1e 	bne	r2,zero,8dec <__pow5mult+0xe8>
    8d34:	8021d0ba 	srai	r16,r16,2
    8d38:	80001a26 	beq	r16,zero,8da4 <__pow5mult+0xa0>
    8d3c:	9c401217 	ldw	r17,72(r19)
    8d40:	8800061e 	bne	r17,zero,8d5c <__pow5mult+0x58>
    8d44:	00003406 	br	8e18 <__pow5mult+0x114>
    8d48:	8021d07a 	srai	r16,r16,1
    8d4c:	80001526 	beq	r16,zero,8da4 <__pow5mult+0xa0>
    8d50:	88800017 	ldw	r2,0(r17)
    8d54:	10001c26 	beq	r2,zero,8dc8 <__pow5mult+0xc4>
    8d58:	1023883a 	mov	r17,r2
    8d5c:	80c0004c 	andi	r3,r16,1
    8d60:	183ff926 	beq	r3,zero,8d48 <__alt_data_end+0xf8008d48>
    8d64:	900b883a 	mov	r5,r18
    8d68:	880d883a 	mov	r6,r17
    8d6c:	9809883a 	mov	r4,r19
    8d70:	0008b080 	call	8b08 <__multiply>
    8d74:	90001b26 	beq	r18,zero,8de4 <__pow5mult+0xe0>
    8d78:	91c00117 	ldw	r7,4(r18)
    8d7c:	98c01317 	ldw	r3,76(r19)
    8d80:	8021d07a 	srai	r16,r16,1
    8d84:	39cf883a 	add	r7,r7,r7
    8d88:	39cf883a 	add	r7,r7,r7
    8d8c:	19c7883a 	add	r3,r3,r7
    8d90:	19000017 	ldw	r4,0(r3)
    8d94:	91000015 	stw	r4,0(r18)
    8d98:	1c800015 	stw	r18,0(r3)
    8d9c:	1025883a 	mov	r18,r2
    8da0:	803feb1e 	bne	r16,zero,8d50 <__alt_data_end+0xf8008d50>
    8da4:	9005883a 	mov	r2,r18
    8da8:	dfc00517 	ldw	ra,20(sp)
    8dac:	dd000417 	ldw	r20,16(sp)
    8db0:	dcc00317 	ldw	r19,12(sp)
    8db4:	dc800217 	ldw	r18,8(sp)
    8db8:	dc400117 	ldw	r17,4(sp)
    8dbc:	dc000017 	ldw	r16,0(sp)
    8dc0:	dec00604 	addi	sp,sp,24
    8dc4:	f800283a 	ret
    8dc8:	9809883a 	mov	r4,r19
    8dcc:	880b883a 	mov	r5,r17
    8dd0:	880d883a 	mov	r6,r17
    8dd4:	0008b080 	call	8b08 <__multiply>
    8dd8:	88800015 	stw	r2,0(r17)
    8ddc:	10000015 	stw	zero,0(r2)
    8de0:	003fdd06 	br	8d58 <__alt_data_end+0xf8008d58>
    8de4:	1025883a 	mov	r18,r2
    8de8:	003fd706 	br	8d48 <__alt_data_end+0xf8008d48>
    8dec:	10bfffc4 	addi	r2,r2,-1
    8df0:	1085883a 	add	r2,r2,r2
    8df4:	00c00374 	movhi	r3,13
    8df8:	18ef8904 	addi	r3,r3,-16860
    8dfc:	1085883a 	add	r2,r2,r2
    8e00:	1885883a 	add	r2,r3,r2
    8e04:	11800017 	ldw	r6,0(r2)
    8e08:	000f883a 	mov	r7,zero
    8e0c:	000879c0 	call	879c <__multadd>
    8e10:	1025883a 	mov	r18,r2
    8e14:	003fc706 	br	8d34 <__alt_data_end+0xf8008d34>
    8e18:	05000044 	movi	r20,1
    8e1c:	9809883a 	mov	r4,r19
    8e20:	a00b883a 	mov	r5,r20
    8e24:	00086cc0 	call	86cc <_Balloc>
    8e28:	1023883a 	mov	r17,r2
    8e2c:	00809c44 	movi	r2,625
    8e30:	88800515 	stw	r2,20(r17)
    8e34:	8d000415 	stw	r20,16(r17)
    8e38:	9c401215 	stw	r17,72(r19)
    8e3c:	88000015 	stw	zero,0(r17)
    8e40:	003fc606 	br	8d5c <__alt_data_end+0xf8008d5c>

00008e44 <__lshift>:
    8e44:	defff904 	addi	sp,sp,-28
    8e48:	dd000415 	stw	r20,16(sp)
    8e4c:	dcc00315 	stw	r19,12(sp)
    8e50:	3029d17a 	srai	r20,r6,5
    8e54:	2cc00417 	ldw	r19,16(r5)
    8e58:	28800217 	ldw	r2,8(r5)
    8e5c:	dd400515 	stw	r21,20(sp)
    8e60:	a4e7883a 	add	r19,r20,r19
    8e64:	dc800215 	stw	r18,8(sp)
    8e68:	dc400115 	stw	r17,4(sp)
    8e6c:	dc000015 	stw	r16,0(sp)
    8e70:	dfc00615 	stw	ra,24(sp)
    8e74:	9c000044 	addi	r16,r19,1
    8e78:	2823883a 	mov	r17,r5
    8e7c:	302b883a 	mov	r21,r6
    8e80:	2025883a 	mov	r18,r4
    8e84:	29400117 	ldw	r5,4(r5)
    8e88:	1400030e 	bge	r2,r16,8e98 <__lshift+0x54>
    8e8c:	1085883a 	add	r2,r2,r2
    8e90:	29400044 	addi	r5,r5,1
    8e94:	143ffd16 	blt	r2,r16,8e8c <__alt_data_end+0xf8008e8c>
    8e98:	9009883a 	mov	r4,r18
    8e9c:	00086cc0 	call	86cc <_Balloc>
    8ea0:	11c00504 	addi	r7,r2,20
    8ea4:	0500090e 	bge	zero,r20,8ecc <__lshift+0x88>
    8ea8:	3811883a 	mov	r8,r7
    8eac:	0007883a 	mov	r3,zero
    8eb0:	40000015 	stw	zero,0(r8)
    8eb4:	18c00044 	addi	r3,r3,1
    8eb8:	42000104 	addi	r8,r8,4
    8ebc:	1d3ffc1e 	bne	r3,r20,8eb0 <__alt_data_end+0xf8008eb0>
    8ec0:	18c7883a 	add	r3,r3,r3
    8ec4:	18c7883a 	add	r3,r3,r3
    8ec8:	38cf883a 	add	r7,r7,r3
    8ecc:	89000417 	ldw	r4,16(r17)
    8ed0:	88c00504 	addi	r3,r17,20
    8ed4:	a98007cc 	andi	r6,r21,31
    8ed8:	2109883a 	add	r4,r4,r4
    8edc:	2109883a 	add	r4,r4,r4
    8ee0:	1909883a 	add	r4,r3,r4
    8ee4:	30002326 	beq	r6,zero,8f74 <__lshift+0x130>
    8ee8:	01400804 	movi	r5,32
    8eec:	298bc83a 	sub	r5,r5,r6
    8ef0:	0013883a 	mov	r9,zero
    8ef4:	1a000017 	ldw	r8,0(r3)
    8ef8:	3815883a 	mov	r10,r7
    8efc:	39c00104 	addi	r7,r7,4
    8f00:	4190983a 	sll	r8,r8,r6
    8f04:	18c00104 	addi	r3,r3,4
    8f08:	4a10b03a 	or	r8,r9,r8
    8f0c:	3a3fff15 	stw	r8,-4(r7)
    8f10:	1a3fff17 	ldw	r8,-4(r3)
    8f14:	4152d83a 	srl	r9,r8,r5
    8f18:	193ff636 	bltu	r3,r4,8ef4 <__alt_data_end+0xf8008ef4>
    8f1c:	52400115 	stw	r9,4(r10)
    8f20:	48000126 	beq	r9,zero,8f28 <__lshift+0xe4>
    8f24:	9c000084 	addi	r16,r19,2
    8f28:	89000117 	ldw	r4,4(r17)
    8f2c:	90c01317 	ldw	r3,76(r18)
    8f30:	843fffc4 	addi	r16,r16,-1
    8f34:	2109883a 	add	r4,r4,r4
    8f38:	2109883a 	add	r4,r4,r4
    8f3c:	1907883a 	add	r3,r3,r4
    8f40:	19000017 	ldw	r4,0(r3)
    8f44:	14000415 	stw	r16,16(r2)
    8f48:	89000015 	stw	r4,0(r17)
    8f4c:	1c400015 	stw	r17,0(r3)
    8f50:	dfc00617 	ldw	ra,24(sp)
    8f54:	dd400517 	ldw	r21,20(sp)
    8f58:	dd000417 	ldw	r20,16(sp)
    8f5c:	dcc00317 	ldw	r19,12(sp)
    8f60:	dc800217 	ldw	r18,8(sp)
    8f64:	dc400117 	ldw	r17,4(sp)
    8f68:	dc000017 	ldw	r16,0(sp)
    8f6c:	dec00704 	addi	sp,sp,28
    8f70:	f800283a 	ret
    8f74:	19400017 	ldw	r5,0(r3)
    8f78:	39c00104 	addi	r7,r7,4
    8f7c:	18c00104 	addi	r3,r3,4
    8f80:	397fff15 	stw	r5,-4(r7)
    8f84:	193ffb36 	bltu	r3,r4,8f74 <__alt_data_end+0xf8008f74>
    8f88:	003fe706 	br	8f28 <__alt_data_end+0xf8008f28>

00008f8c <__mcmp>:
    8f8c:	20800417 	ldw	r2,16(r4)
    8f90:	28c00417 	ldw	r3,16(r5)
    8f94:	10c5c83a 	sub	r2,r2,r3
    8f98:	1000111e 	bne	r2,zero,8fe0 <__mcmp+0x54>
    8f9c:	18c7883a 	add	r3,r3,r3
    8fa0:	18c7883a 	add	r3,r3,r3
    8fa4:	21000504 	addi	r4,r4,20
    8fa8:	29400504 	addi	r5,r5,20
    8fac:	20c5883a 	add	r2,r4,r3
    8fb0:	28cb883a 	add	r5,r5,r3
    8fb4:	00000106 	br	8fbc <__mcmp+0x30>
    8fb8:	20800a2e 	bgeu	r4,r2,8fe4 <__mcmp+0x58>
    8fbc:	10bfff04 	addi	r2,r2,-4
    8fc0:	297fff04 	addi	r5,r5,-4
    8fc4:	11800017 	ldw	r6,0(r2)
    8fc8:	28c00017 	ldw	r3,0(r5)
    8fcc:	30fffa26 	beq	r6,r3,8fb8 <__alt_data_end+0xf8008fb8>
    8fd0:	30c00236 	bltu	r6,r3,8fdc <__mcmp+0x50>
    8fd4:	00800044 	movi	r2,1
    8fd8:	f800283a 	ret
    8fdc:	00bfffc4 	movi	r2,-1
    8fe0:	f800283a 	ret
    8fe4:	0005883a 	mov	r2,zero
    8fe8:	f800283a 	ret

00008fec <__mdiff>:
    8fec:	defffb04 	addi	sp,sp,-20
    8ff0:	dc000015 	stw	r16,0(sp)
    8ff4:	2821883a 	mov	r16,r5
    8ff8:	dcc00315 	stw	r19,12(sp)
    8ffc:	300b883a 	mov	r5,r6
    9000:	2027883a 	mov	r19,r4
    9004:	8009883a 	mov	r4,r16
    9008:	dc800215 	stw	r18,8(sp)
    900c:	dfc00415 	stw	ra,16(sp)
    9010:	dc400115 	stw	r17,4(sp)
    9014:	3025883a 	mov	r18,r6
    9018:	0008f8c0 	call	8f8c <__mcmp>
    901c:	10005226 	beq	r2,zero,9168 <__mdiff+0x17c>
    9020:	10004c16 	blt	r2,zero,9154 <__mdiff+0x168>
    9024:	0023883a 	mov	r17,zero
    9028:	81400117 	ldw	r5,4(r16)
    902c:	9809883a 	mov	r4,r19
    9030:	00086cc0 	call	86cc <_Balloc>
    9034:	83400417 	ldw	r13,16(r16)
    9038:	93800417 	ldw	r14,16(r18)
    903c:	81000504 	addi	r4,r16,20
    9040:	6b59883a 	add	r12,r13,r13
    9044:	739d883a 	add	r14,r14,r14
    9048:	6319883a 	add	r12,r12,r12
    904c:	91800504 	addi	r6,r18,20
    9050:	739d883a 	add	r14,r14,r14
    9054:	14400315 	stw	r17,12(r2)
    9058:	2319883a 	add	r12,r4,r12
    905c:	339d883a 	add	r14,r6,r14
    9060:	12400504 	addi	r9,r2,20
    9064:	0007883a 	mov	r3,zero
    9068:	22000017 	ldw	r8,0(r4)
    906c:	32800017 	ldw	r10,0(r6)
    9070:	4ac00104 	addi	r11,r9,4
    9074:	41ffffcc 	andi	r7,r8,65535
    9078:	38c7883a 	add	r3,r7,r3
    907c:	51ffffcc 	andi	r7,r10,65535
    9080:	19cfc83a 	sub	r7,r3,r7
    9084:	4010d43a 	srli	r8,r8,16
    9088:	5014d43a 	srli	r10,r10,16
    908c:	3807d43a 	srai	r3,r7,16
    9090:	39ffffcc 	andi	r7,r7,65535
    9094:	4291c83a 	sub	r8,r8,r10
    9098:	40c7883a 	add	r3,r8,r3
    909c:	1810943a 	slli	r8,r3,16
    90a0:	31800104 	addi	r6,r6,4
    90a4:	21000104 	addi	r4,r4,4
    90a8:	41ceb03a 	or	r7,r8,r7
    90ac:	49c00015 	stw	r7,0(r9)
    90b0:	1807d43a 	srai	r3,r3,16
    90b4:	580b883a 	mov	r5,r11
    90b8:	5813883a 	mov	r9,r11
    90bc:	33bfea36 	bltu	r6,r14,9068 <__alt_data_end+0xf8009068>
    90c0:	2011883a 	mov	r8,r4
    90c4:	2300152e 	bgeu	r4,r12,911c <__mdiff+0x130>
    90c8:	21400017 	ldw	r5,0(r4)
    90cc:	4a400104 	addi	r9,r9,4
    90d0:	21000104 	addi	r4,r4,4
    90d4:	29ffffcc 	andi	r7,r5,65535
    90d8:	38c7883a 	add	r3,r7,r3
    90dc:	280ad43a 	srli	r5,r5,16
    90e0:	180dd43a 	srai	r6,r3,16
    90e4:	19ffffcc 	andi	r7,r3,65535
    90e8:	3147883a 	add	r3,r6,r5
    90ec:	180a943a 	slli	r5,r3,16
    90f0:	1807d43a 	srai	r3,r3,16
    90f4:	29ceb03a 	or	r7,r5,r7
    90f8:	49ffff15 	stw	r7,-4(r9)
    90fc:	233ff236 	bltu	r4,r12,90c8 <__alt_data_end+0xf80090c8>
    9100:	0206303a 	nor	r3,zero,r8
    9104:	1b07883a 	add	r3,r3,r12
    9108:	1806d0ba 	srli	r3,r3,2
    910c:	18c00044 	addi	r3,r3,1
    9110:	18c7883a 	add	r3,r3,r3
    9114:	18c7883a 	add	r3,r3,r3
    9118:	58cb883a 	add	r5,r11,r3
    911c:	28ffff04 	addi	r3,r5,-4
    9120:	3800041e 	bne	r7,zero,9134 <__mdiff+0x148>
    9124:	18ffff04 	addi	r3,r3,-4
    9128:	19000017 	ldw	r4,0(r3)
    912c:	6b7fffc4 	addi	r13,r13,-1
    9130:	203ffc26 	beq	r4,zero,9124 <__alt_data_end+0xf8009124>
    9134:	13400415 	stw	r13,16(r2)
    9138:	dfc00417 	ldw	ra,16(sp)
    913c:	dcc00317 	ldw	r19,12(sp)
    9140:	dc800217 	ldw	r18,8(sp)
    9144:	dc400117 	ldw	r17,4(sp)
    9148:	dc000017 	ldw	r16,0(sp)
    914c:	dec00504 	addi	sp,sp,20
    9150:	f800283a 	ret
    9154:	8005883a 	mov	r2,r16
    9158:	04400044 	movi	r17,1
    915c:	9021883a 	mov	r16,r18
    9160:	1025883a 	mov	r18,r2
    9164:	003fb006 	br	9028 <__alt_data_end+0xf8009028>
    9168:	9809883a 	mov	r4,r19
    916c:	000b883a 	mov	r5,zero
    9170:	00086cc0 	call	86cc <_Balloc>
    9174:	00c00044 	movi	r3,1
    9178:	10c00415 	stw	r3,16(r2)
    917c:	10000515 	stw	zero,20(r2)
    9180:	003fed06 	br	9138 <__alt_data_end+0xf8009138>

00009184 <__ulp>:
    9184:	295ffc2c 	andhi	r5,r5,32752
    9188:	00bf3034 	movhi	r2,64704
    918c:	2887883a 	add	r3,r5,r2
    9190:	00c0020e 	bge	zero,r3,919c <__ulp+0x18>
    9194:	0005883a 	mov	r2,zero
    9198:	f800283a 	ret
    919c:	00c7c83a 	sub	r3,zero,r3
    91a0:	180bd53a 	srai	r5,r3,20
    91a4:	008004c4 	movi	r2,19
    91a8:	11400a0e 	bge	r2,r5,91d4 <__ulp+0x50>
    91ac:	00800c84 	movi	r2,50
    91b0:	0007883a 	mov	r3,zero
    91b4:	11400516 	blt	r2,r5,91cc <__ulp+0x48>
    91b8:	00800cc4 	movi	r2,51
    91bc:	114bc83a 	sub	r5,r2,r5
    91c0:	00800044 	movi	r2,1
    91c4:	1144983a 	sll	r2,r2,r5
    91c8:	f800283a 	ret
    91cc:	00800044 	movi	r2,1
    91d0:	f800283a 	ret
    91d4:	00800234 	movhi	r2,8
    91d8:	1147d83a 	sra	r3,r2,r5
    91dc:	0005883a 	mov	r2,zero
    91e0:	f800283a 	ret

000091e4 <__b2d>:
    91e4:	defffa04 	addi	sp,sp,-24
    91e8:	dc000015 	stw	r16,0(sp)
    91ec:	24000417 	ldw	r16,16(r4)
    91f0:	dc400115 	stw	r17,4(sp)
    91f4:	24400504 	addi	r17,r4,20
    91f8:	8421883a 	add	r16,r16,r16
    91fc:	8421883a 	add	r16,r16,r16
    9200:	8c21883a 	add	r16,r17,r16
    9204:	dc800215 	stw	r18,8(sp)
    9208:	84bfff17 	ldw	r18,-4(r16)
    920c:	dd000415 	stw	r20,16(sp)
    9210:	dcc00315 	stw	r19,12(sp)
    9214:	9009883a 	mov	r4,r18
    9218:	2829883a 	mov	r20,r5
    921c:	dfc00515 	stw	ra,20(sp)
    9220:	00089b40 	call	89b4 <__hi0bits>
    9224:	00c00804 	movi	r3,32
    9228:	1887c83a 	sub	r3,r3,r2
    922c:	a0c00015 	stw	r3,0(r20)
    9230:	00c00284 	movi	r3,10
    9234:	84ffff04 	addi	r19,r16,-4
    9238:	18801216 	blt	r3,r2,9284 <__b2d+0xa0>
    923c:	014002c4 	movi	r5,11
    9240:	2889c83a 	sub	r4,r5,r2
    9244:	9106d83a 	srl	r3,r18,r4
    9248:	18cffc34 	orhi	r3,r3,16368
    924c:	8cc0282e 	bgeu	r17,r19,92f0 <__b2d+0x10c>
    9250:	817ffe17 	ldw	r5,-8(r16)
    9254:	290ad83a 	srl	r5,r5,r4
    9258:	10800544 	addi	r2,r2,21
    925c:	9084983a 	sll	r2,r18,r2
    9260:	2884b03a 	or	r2,r5,r2
    9264:	dfc00517 	ldw	ra,20(sp)
    9268:	dd000417 	ldw	r20,16(sp)
    926c:	dcc00317 	ldw	r19,12(sp)
    9270:	dc800217 	ldw	r18,8(sp)
    9274:	dc400117 	ldw	r17,4(sp)
    9278:	dc000017 	ldw	r16,0(sp)
    927c:	dec00604 	addi	sp,sp,24
    9280:	f800283a 	ret
    9284:	113ffd44 	addi	r4,r2,-11
    9288:	8cc00f2e 	bgeu	r17,r19,92c8 <__b2d+0xe4>
    928c:	81bffe04 	addi	r6,r16,-8
    9290:	817ffe17 	ldw	r5,-8(r16)
    9294:	20001326 	beq	r4,zero,92e4 <__b2d+0x100>
    9298:	00c00ac4 	movi	r3,43
    929c:	1885c83a 	sub	r2,r3,r2
    92a0:	2886d83a 	srl	r3,r5,r2
    92a4:	9124983a 	sll	r18,r18,r4
    92a8:	90e4b03a 	or	r18,r18,r3
    92ac:	90cffc34 	orhi	r3,r18,16368
    92b0:	8980112e 	bgeu	r17,r6,92f8 <__b2d+0x114>
    92b4:	81bffd17 	ldw	r6,-12(r16)
    92b8:	308cd83a 	srl	r6,r6,r2
    92bc:	2904983a 	sll	r2,r5,r4
    92c0:	1184b03a 	or	r2,r2,r6
    92c4:	003fe706 	br	9264 <__alt_data_end+0xf8009264>
    92c8:	20000526 	beq	r4,zero,92e0 <__b2d+0xfc>
    92cc:	9124983a 	sll	r18,r18,r4
    92d0:	000d883a 	mov	r6,zero
    92d4:	000b883a 	mov	r5,zero
    92d8:	90cffc34 	orhi	r3,r18,16368
    92dc:	003ff706 	br	92bc <__alt_data_end+0xf80092bc>
    92e0:	000b883a 	mov	r5,zero
    92e4:	90cffc34 	orhi	r3,r18,16368
    92e8:	2805883a 	mov	r2,r5
    92ec:	003fdd06 	br	9264 <__alt_data_end+0xf8009264>
    92f0:	000b883a 	mov	r5,zero
    92f4:	003fd806 	br	9258 <__alt_data_end+0xf8009258>
    92f8:	000d883a 	mov	r6,zero
    92fc:	003fef06 	br	92bc <__alt_data_end+0xf80092bc>

00009300 <__d2b>:
    9300:	defff704 	addi	sp,sp,-36
    9304:	dc000215 	stw	r16,8(sp)
    9308:	3021883a 	mov	r16,r6
    930c:	dc400315 	stw	r17,12(sp)
    9310:	8022907a 	slli	r17,r16,1
    9314:	dd400715 	stw	r21,28(sp)
    9318:	282b883a 	mov	r21,r5
    931c:	01400044 	movi	r5,1
    9320:	dd000615 	stw	r20,24(sp)
    9324:	dcc00515 	stw	r19,20(sp)
    9328:	dc800415 	stw	r18,16(sp)
    932c:	dfc00815 	stw	ra,32(sp)
    9330:	3829883a 	mov	r20,r7
    9334:	dc800917 	ldw	r18,36(sp)
    9338:	8822d57a 	srli	r17,r17,21
    933c:	00086cc0 	call	86cc <_Balloc>
    9340:	1027883a 	mov	r19,r2
    9344:	00800434 	movhi	r2,16
    9348:	10bfffc4 	addi	r2,r2,-1
    934c:	808c703a 	and	r6,r16,r2
    9350:	88000126 	beq	r17,zero,9358 <__d2b+0x58>
    9354:	31800434 	orhi	r6,r6,16
    9358:	d9800015 	stw	r6,0(sp)
    935c:	a8001f26 	beq	r21,zero,93dc <__d2b+0xdc>
    9360:	d9000104 	addi	r4,sp,4
    9364:	dd400115 	stw	r21,4(sp)
    9368:	0008a1c0 	call	8a1c <__lo0bits>
    936c:	d8c00017 	ldw	r3,0(sp)
    9370:	1000291e 	bne	r2,zero,9418 <__d2b+0x118>
    9374:	d9000117 	ldw	r4,4(sp)
    9378:	99000515 	stw	r4,20(r19)
    937c:	1820c03a 	cmpne	r16,r3,zero
    9380:	84000044 	addi	r16,r16,1
    9384:	98c00615 	stw	r3,24(r19)
    9388:	9c000415 	stw	r16,16(r19)
    938c:	88001b1e 	bne	r17,zero,93fc <__d2b+0xfc>
    9390:	800690ba 	slli	r3,r16,2
    9394:	10bef384 	addi	r2,r2,-1074
    9398:	a0800015 	stw	r2,0(r20)
    939c:	98c5883a 	add	r2,r19,r3
    93a0:	11000417 	ldw	r4,16(r2)
    93a4:	8020917a 	slli	r16,r16,5
    93a8:	00089b40 	call	89b4 <__hi0bits>
    93ac:	8085c83a 	sub	r2,r16,r2
    93b0:	90800015 	stw	r2,0(r18)
    93b4:	9805883a 	mov	r2,r19
    93b8:	dfc00817 	ldw	ra,32(sp)
    93bc:	dd400717 	ldw	r21,28(sp)
    93c0:	dd000617 	ldw	r20,24(sp)
    93c4:	dcc00517 	ldw	r19,20(sp)
    93c8:	dc800417 	ldw	r18,16(sp)
    93cc:	dc400317 	ldw	r17,12(sp)
    93d0:	dc000217 	ldw	r16,8(sp)
    93d4:	dec00904 	addi	sp,sp,36
    93d8:	f800283a 	ret
    93dc:	d809883a 	mov	r4,sp
    93e0:	0008a1c0 	call	8a1c <__lo0bits>
    93e4:	d8c00017 	ldw	r3,0(sp)
    93e8:	04000044 	movi	r16,1
    93ec:	9c000415 	stw	r16,16(r19)
    93f0:	98c00515 	stw	r3,20(r19)
    93f4:	10800804 	addi	r2,r2,32
    93f8:	883fe526 	beq	r17,zero,9390 <__alt_data_end+0xf8009390>
    93fc:	8c7ef344 	addi	r17,r17,-1075
    9400:	88a3883a 	add	r17,r17,r2
    9404:	00c00d44 	movi	r3,53
    9408:	a4400015 	stw	r17,0(r20)
    940c:	1885c83a 	sub	r2,r3,r2
    9410:	90800015 	stw	r2,0(r18)
    9414:	003fe706 	br	93b4 <__alt_data_end+0xf80093b4>
    9418:	01000804 	movi	r4,32
    941c:	2089c83a 	sub	r4,r4,r2
    9420:	1908983a 	sll	r4,r3,r4
    9424:	d9400117 	ldw	r5,4(sp)
    9428:	1886d83a 	srl	r3,r3,r2
    942c:	2148b03a 	or	r4,r4,r5
    9430:	99000515 	stw	r4,20(r19)
    9434:	d8c00015 	stw	r3,0(sp)
    9438:	003fd006 	br	937c <__alt_data_end+0xf800937c>

0000943c <__ratio>:
    943c:	defff904 	addi	sp,sp,-28
    9440:	dc400315 	stw	r17,12(sp)
    9444:	2823883a 	mov	r17,r5
    9448:	d9400104 	addi	r5,sp,4
    944c:	dfc00615 	stw	ra,24(sp)
    9450:	dcc00515 	stw	r19,20(sp)
    9454:	dc800415 	stw	r18,16(sp)
    9458:	2027883a 	mov	r19,r4
    945c:	dc000215 	stw	r16,8(sp)
    9460:	00091e40 	call	91e4 <__b2d>
    9464:	8809883a 	mov	r4,r17
    9468:	d80b883a 	mov	r5,sp
    946c:	1025883a 	mov	r18,r2
    9470:	1821883a 	mov	r16,r3
    9474:	00091e40 	call	91e4 <__b2d>
    9478:	8a400417 	ldw	r9,16(r17)
    947c:	9a000417 	ldw	r8,16(r19)
    9480:	100d883a 	mov	r6,r2
    9484:	d8800017 	ldw	r2,0(sp)
    9488:	4251c83a 	sub	r8,r8,r9
    948c:	4012917a 	slli	r9,r8,5
    9490:	da000117 	ldw	r8,4(sp)
    9494:	4091c83a 	sub	r8,r8,r2
    9498:	4251883a 	add	r8,r8,r9
    949c:	02000d0e 	bge	zero,r8,94d4 <__ratio+0x98>
    94a0:	4010953a 	slli	r8,r8,20
    94a4:	4421883a 	add	r16,r8,r16
    94a8:	9009883a 	mov	r4,r18
    94ac:	800b883a 	mov	r5,r16
    94b0:	180f883a 	mov	r7,r3
    94b4:	000c6700 	call	c670 <__divdf3>
    94b8:	dfc00617 	ldw	ra,24(sp)
    94bc:	dcc00517 	ldw	r19,20(sp)
    94c0:	dc800417 	ldw	r18,16(sp)
    94c4:	dc400317 	ldw	r17,12(sp)
    94c8:	dc000217 	ldw	r16,8(sp)
    94cc:	dec00704 	addi	sp,sp,28
    94d0:	f800283a 	ret
    94d4:	4010953a 	slli	r8,r8,20
    94d8:	1a07c83a 	sub	r3,r3,r8
    94dc:	003ff206 	br	94a8 <__alt_data_end+0xf80094a8>

000094e0 <_mprec_log10>:
    94e0:	defffe04 	addi	sp,sp,-8
    94e4:	dc000015 	stw	r16,0(sp)
    94e8:	dfc00115 	stw	ra,4(sp)
    94ec:	008005c4 	movi	r2,23
    94f0:	2021883a 	mov	r16,r4
    94f4:	11000d0e 	bge	r2,r4,952c <_mprec_log10+0x4c>
    94f8:	0005883a 	mov	r2,zero
    94fc:	00cffc34 	movhi	r3,16368
    9500:	843fffc4 	addi	r16,r16,-1
    9504:	1009883a 	mov	r4,r2
    9508:	180b883a 	mov	r5,r3
    950c:	000d883a 	mov	r6,zero
    9510:	01d00934 	movhi	r7,16420
    9514:	000d1800 	call	d180 <__muldf3>
    9518:	803ff91e 	bne	r16,zero,9500 <__alt_data_end+0xf8009500>
    951c:	dfc00117 	ldw	ra,4(sp)
    9520:	dc000017 	ldw	r16,0(sp)
    9524:	dec00204 	addi	sp,sp,8
    9528:	f800283a 	ret
    952c:	202090fa 	slli	r16,r4,3
    9530:	00800374 	movhi	r2,13
    9534:	10afa004 	addi	r2,r2,-16768
    9538:	1421883a 	add	r16,r2,r16
    953c:	80800017 	ldw	r2,0(r16)
    9540:	80c00117 	ldw	r3,4(r16)
    9544:	dfc00117 	ldw	ra,4(sp)
    9548:	dc000017 	ldw	r16,0(sp)
    954c:	dec00204 	addi	sp,sp,8
    9550:	f800283a 	ret

00009554 <__copybits>:
    9554:	297fffc4 	addi	r5,r5,-1
    9558:	280fd17a 	srai	r7,r5,5
    955c:	30c00417 	ldw	r3,16(r6)
    9560:	30800504 	addi	r2,r6,20
    9564:	39c00044 	addi	r7,r7,1
    9568:	18c7883a 	add	r3,r3,r3
    956c:	39cf883a 	add	r7,r7,r7
    9570:	18c7883a 	add	r3,r3,r3
    9574:	39cf883a 	add	r7,r7,r7
    9578:	10c7883a 	add	r3,r2,r3
    957c:	21cf883a 	add	r7,r4,r7
    9580:	10c00d2e 	bgeu	r2,r3,95b8 <__copybits+0x64>
    9584:	200b883a 	mov	r5,r4
    9588:	12000017 	ldw	r8,0(r2)
    958c:	29400104 	addi	r5,r5,4
    9590:	10800104 	addi	r2,r2,4
    9594:	2a3fff15 	stw	r8,-4(r5)
    9598:	10fffb36 	bltu	r2,r3,9588 <__alt_data_end+0xf8009588>
    959c:	1985c83a 	sub	r2,r3,r6
    95a0:	10bffac4 	addi	r2,r2,-21
    95a4:	1004d0ba 	srli	r2,r2,2
    95a8:	10800044 	addi	r2,r2,1
    95ac:	1085883a 	add	r2,r2,r2
    95b0:	1085883a 	add	r2,r2,r2
    95b4:	2089883a 	add	r4,r4,r2
    95b8:	21c0032e 	bgeu	r4,r7,95c8 <__copybits+0x74>
    95bc:	20000015 	stw	zero,0(r4)
    95c0:	21000104 	addi	r4,r4,4
    95c4:	21fffd36 	bltu	r4,r7,95bc <__alt_data_end+0xf80095bc>
    95c8:	f800283a 	ret

000095cc <__any_on>:
    95cc:	20c00417 	ldw	r3,16(r4)
    95d0:	2805d17a 	srai	r2,r5,5
    95d4:	21000504 	addi	r4,r4,20
    95d8:	18800d0e 	bge	r3,r2,9610 <__any_on+0x44>
    95dc:	18c7883a 	add	r3,r3,r3
    95e0:	18c7883a 	add	r3,r3,r3
    95e4:	20c7883a 	add	r3,r4,r3
    95e8:	20c0192e 	bgeu	r4,r3,9650 <__any_on+0x84>
    95ec:	18bfff17 	ldw	r2,-4(r3)
    95f0:	18ffff04 	addi	r3,r3,-4
    95f4:	1000041e 	bne	r2,zero,9608 <__any_on+0x3c>
    95f8:	20c0142e 	bgeu	r4,r3,964c <__any_on+0x80>
    95fc:	18ffff04 	addi	r3,r3,-4
    9600:	19400017 	ldw	r5,0(r3)
    9604:	283ffc26 	beq	r5,zero,95f8 <__alt_data_end+0xf80095f8>
    9608:	00800044 	movi	r2,1
    960c:	f800283a 	ret
    9610:	10c00a0e 	bge	r2,r3,963c <__any_on+0x70>
    9614:	1085883a 	add	r2,r2,r2
    9618:	1085883a 	add	r2,r2,r2
    961c:	294007cc 	andi	r5,r5,31
    9620:	2087883a 	add	r3,r4,r2
    9624:	283ff026 	beq	r5,zero,95e8 <__alt_data_end+0xf80095e8>
    9628:	19800017 	ldw	r6,0(r3)
    962c:	3144d83a 	srl	r2,r6,r5
    9630:	114a983a 	sll	r5,r2,r5
    9634:	29bff41e 	bne	r5,r6,9608 <__alt_data_end+0xf8009608>
    9638:	003feb06 	br	95e8 <__alt_data_end+0xf80095e8>
    963c:	1085883a 	add	r2,r2,r2
    9640:	1085883a 	add	r2,r2,r2
    9644:	2087883a 	add	r3,r4,r2
    9648:	003fe706 	br	95e8 <__alt_data_end+0xf80095e8>
    964c:	f800283a 	ret
    9650:	0005883a 	mov	r2,zero
    9654:	f800283a 	ret

00009658 <__fpclassifyd>:
    9658:	00a00034 	movhi	r2,32768
    965c:	10bfffc4 	addi	r2,r2,-1
    9660:	2884703a 	and	r2,r5,r2
    9664:	10000726 	beq	r2,zero,9684 <__fpclassifyd+0x2c>
    9668:	00fffc34 	movhi	r3,65520
    966c:	019ff834 	movhi	r6,32736
    9670:	28c7883a 	add	r3,r5,r3
    9674:	31bfffc4 	addi	r6,r6,-1
    9678:	30c00536 	bltu	r6,r3,9690 <__fpclassifyd+0x38>
    967c:	00800104 	movi	r2,4
    9680:	f800283a 	ret
    9684:	2000021e 	bne	r4,zero,9690 <__fpclassifyd+0x38>
    9688:	00800084 	movi	r2,2
    968c:	f800283a 	ret
    9690:	00dffc34 	movhi	r3,32752
    9694:	019ff834 	movhi	r6,32736
    9698:	28cb883a 	add	r5,r5,r3
    969c:	31bfffc4 	addi	r6,r6,-1
    96a0:	317ff62e 	bgeu	r6,r5,967c <__alt_data_end+0xf800967c>
    96a4:	01400434 	movhi	r5,16
    96a8:	297fffc4 	addi	r5,r5,-1
    96ac:	28800236 	bltu	r5,r2,96b8 <__fpclassifyd+0x60>
    96b0:	008000c4 	movi	r2,3
    96b4:	f800283a 	ret
    96b8:	10c00226 	beq	r2,r3,96c4 <__fpclassifyd+0x6c>
    96bc:	0005883a 	mov	r2,zero
    96c0:	f800283a 	ret
    96c4:	2005003a 	cmpeq	r2,r4,zero
    96c8:	f800283a 	ret

000096cc <strcmp>:
    96cc:	2144b03a 	or	r2,r4,r5
    96d0:	108000cc 	andi	r2,r2,3
    96d4:	1000171e 	bne	r2,zero,9734 <strcmp+0x68>
    96d8:	20800017 	ldw	r2,0(r4)
    96dc:	28c00017 	ldw	r3,0(r5)
    96e0:	10c0141e 	bne	r2,r3,9734 <strcmp+0x68>
    96e4:	027fbff4 	movhi	r9,65279
    96e8:	4a7fbfc4 	addi	r9,r9,-257
    96ec:	0086303a 	nor	r3,zero,r2
    96f0:	02202074 	movhi	r8,32897
    96f4:	1245883a 	add	r2,r2,r9
    96f8:	42202004 	addi	r8,r8,-32640
    96fc:	10c4703a 	and	r2,r2,r3
    9700:	1204703a 	and	r2,r2,r8
    9704:	10000226 	beq	r2,zero,9710 <strcmp+0x44>
    9708:	00001706 	br	9768 <strcmp+0x9c>
    970c:	1000161e 	bne	r2,zero,9768 <strcmp+0x9c>
    9710:	21000104 	addi	r4,r4,4
    9714:	20c00017 	ldw	r3,0(r4)
    9718:	29400104 	addi	r5,r5,4
    971c:	29800017 	ldw	r6,0(r5)
    9720:	1a4f883a 	add	r7,r3,r9
    9724:	00c4303a 	nor	r2,zero,r3
    9728:	3884703a 	and	r2,r7,r2
    972c:	1204703a 	and	r2,r2,r8
    9730:	19bff626 	beq	r3,r6,970c <__alt_data_end+0xf800970c>
    9734:	20800007 	ldb	r2,0(r4)
    9738:	1000051e 	bne	r2,zero,9750 <strcmp+0x84>
    973c:	00000606 	br	9758 <strcmp+0x8c>
    9740:	21000044 	addi	r4,r4,1
    9744:	20800007 	ldb	r2,0(r4)
    9748:	29400044 	addi	r5,r5,1
    974c:	10000226 	beq	r2,zero,9758 <strcmp+0x8c>
    9750:	28c00007 	ldb	r3,0(r5)
    9754:	10fffa26 	beq	r2,r3,9740 <__alt_data_end+0xf8009740>
    9758:	20800003 	ldbu	r2,0(r4)
    975c:	28c00003 	ldbu	r3,0(r5)
    9760:	10c5c83a 	sub	r2,r2,r3
    9764:	f800283a 	ret
    9768:	0005883a 	mov	r2,zero
    976c:	f800283a 	ret

00009770 <__ssprint_r>:
    9770:	30800217 	ldw	r2,8(r6)
    9774:	defff604 	addi	sp,sp,-40
    9778:	ddc00715 	stw	r23,28(sp)
    977c:	dcc00315 	stw	r19,12(sp)
    9780:	dfc00915 	stw	ra,36(sp)
    9784:	df000815 	stw	fp,32(sp)
    9788:	dd800615 	stw	r22,24(sp)
    978c:	dd400515 	stw	r21,20(sp)
    9790:	dd000415 	stw	r20,16(sp)
    9794:	dc800215 	stw	r18,8(sp)
    9798:	dc400115 	stw	r17,4(sp)
    979c:	dc000015 	stw	r16,0(sp)
    97a0:	3027883a 	mov	r19,r6
    97a4:	35c00017 	ldw	r23,0(r6)
    97a8:	10005526 	beq	r2,zero,9900 <__ssprint_r+0x190>
    97ac:	2029883a 	mov	r20,r4
    97b0:	29000017 	ldw	r4,0(r5)
    97b4:	2821883a 	mov	r16,r5
    97b8:	0039883a 	mov	fp,zero
    97bc:	0023883a 	mov	r17,zero
    97c0:	88003926 	beq	r17,zero,98a8 <__ssprint_r+0x138>
    97c4:	84800217 	ldw	r18,8(r16)
    97c8:	902d883a 	mov	r22,r18
    97cc:	8c803a36 	bltu	r17,r18,98b8 <__ssprint_r+0x148>
    97d0:	80c0030b 	ldhu	r3,12(r16)
    97d4:	1881200c 	andi	r2,r3,1152
    97d8:	10002626 	beq	r2,zero,9874 <__ssprint_r+0x104>
    97dc:	80800517 	ldw	r2,20(r16)
    97e0:	81400417 	ldw	r5,16(r16)
    97e4:	89c00044 	addi	r7,r17,1
    97e8:	108d883a 	add	r6,r2,r2
    97ec:	3085883a 	add	r2,r6,r2
    97f0:	100cd7fa 	srli	r6,r2,31
    97f4:	216dc83a 	sub	r22,r4,r5
    97f8:	3d89883a 	add	r4,r7,r22
    97fc:	3085883a 	add	r2,r6,r2
    9800:	1025d07a 	srai	r18,r2,1
    9804:	900d883a 	mov	r6,r18
    9808:	9100022e 	bgeu	r18,r4,9814 <__ssprint_r+0xa4>
    980c:	2025883a 	mov	r18,r4
    9810:	200d883a 	mov	r6,r4
    9814:	18c1000c 	andi	r3,r3,1024
    9818:	a009883a 	mov	r4,r20
    981c:	18002926 	beq	r3,zero,98c4 <__ssprint_r+0x154>
    9820:	300b883a 	mov	r5,r6
    9824:	0003da80 	call	3da8 <_malloc_r>
    9828:	102b883a 	mov	r21,r2
    982c:	10002b26 	beq	r2,zero,98dc <__ssprint_r+0x16c>
    9830:	81400417 	ldw	r5,16(r16)
    9834:	1009883a 	mov	r4,r2
    9838:	b00d883a 	mov	r6,r22
    983c:	00085940 	call	8594 <memcpy>
    9840:	8080030b 	ldhu	r2,12(r16)
    9844:	00fedfc4 	movi	r3,-1153
    9848:	10c4703a 	and	r2,r2,r3
    984c:	10802014 	ori	r2,r2,128
    9850:	8080030d 	sth	r2,12(r16)
    9854:	ad89883a 	add	r4,r21,r22
    9858:	95adc83a 	sub	r22,r18,r22
    985c:	84800515 	stw	r18,20(r16)
    9860:	85800215 	stw	r22,8(r16)
    9864:	85400415 	stw	r21,16(r16)
    9868:	81000015 	stw	r4,0(r16)
    986c:	8825883a 	mov	r18,r17
    9870:	882d883a 	mov	r22,r17
    9874:	e00b883a 	mov	r5,fp
    9878:	b00d883a 	mov	r6,r22
    987c:	000aa640 	call	aa64 <memmove>
    9880:	80c00217 	ldw	r3,8(r16)
    9884:	81000017 	ldw	r4,0(r16)
    9888:	98800217 	ldw	r2,8(r19)
    988c:	1ca5c83a 	sub	r18,r3,r18
    9890:	2589883a 	add	r4,r4,r22
    9894:	84800215 	stw	r18,8(r16)
    9898:	81000015 	stw	r4,0(r16)
    989c:	1463c83a 	sub	r17,r2,r17
    98a0:	9c400215 	stw	r17,8(r19)
    98a4:	88001626 	beq	r17,zero,9900 <__ssprint_r+0x190>
    98a8:	bf000017 	ldw	fp,0(r23)
    98ac:	bc400117 	ldw	r17,4(r23)
    98b0:	bdc00204 	addi	r23,r23,8
    98b4:	003fc206 	br	97c0 <__alt_data_end+0xf80097c0>
    98b8:	8825883a 	mov	r18,r17
    98bc:	882d883a 	mov	r22,r17
    98c0:	003fec06 	br	9874 <__alt_data_end+0xf8009874>
    98c4:	000ace40 	call	ace4 <_realloc_r>
    98c8:	102b883a 	mov	r21,r2
    98cc:	103fe11e 	bne	r2,zero,9854 <__alt_data_end+0xf8009854>
    98d0:	81400417 	ldw	r5,16(r16)
    98d4:	a009883a 	mov	r4,r20
    98d8:	00080dc0 	call	80dc <_free_r>
    98dc:	80c0030b 	ldhu	r3,12(r16)
    98e0:	00800304 	movi	r2,12
    98e4:	a0800015 	stw	r2,0(r20)
    98e8:	18c01014 	ori	r3,r3,64
    98ec:	80c0030d 	sth	r3,12(r16)
    98f0:	00bfffc4 	movi	r2,-1
    98f4:	98000215 	stw	zero,8(r19)
    98f8:	98000115 	stw	zero,4(r19)
    98fc:	00000206 	br	9908 <__ssprint_r+0x198>
    9900:	98000115 	stw	zero,4(r19)
    9904:	0005883a 	mov	r2,zero
    9908:	dfc00917 	ldw	ra,36(sp)
    990c:	df000817 	ldw	fp,32(sp)
    9910:	ddc00717 	ldw	r23,28(sp)
    9914:	dd800617 	ldw	r22,24(sp)
    9918:	dd400517 	ldw	r21,20(sp)
    991c:	dd000417 	ldw	r20,16(sp)
    9920:	dcc00317 	ldw	r19,12(sp)
    9924:	dc800217 	ldw	r18,8(sp)
    9928:	dc400117 	ldw	r17,4(sp)
    992c:	dc000017 	ldw	r16,0(sp)
    9930:	dec00a04 	addi	sp,sp,40
    9934:	f800283a 	ret

00009938 <___svfiprintf_internal_r>:
    9938:	2880030b 	ldhu	r2,12(r5)
    993c:	deffc904 	addi	sp,sp,-220
    9940:	dd403215 	stw	r21,200(sp)
    9944:	dfc03615 	stw	ra,216(sp)
    9948:	df003515 	stw	fp,212(sp)
    994c:	ddc03415 	stw	r23,208(sp)
    9950:	dd803315 	stw	r22,204(sp)
    9954:	dd003115 	stw	r20,196(sp)
    9958:	dcc03015 	stw	r19,192(sp)
    995c:	dc802f15 	stw	r18,188(sp)
    9960:	dc402e15 	stw	r17,184(sp)
    9964:	dc002d15 	stw	r16,180(sp)
    9968:	d9402715 	stw	r5,156(sp)
    996c:	d9002915 	stw	r4,164(sp)
    9970:	1080200c 	andi	r2,r2,128
    9974:	d9c02315 	stw	r7,140(sp)
    9978:	302b883a 	mov	r21,r6
    997c:	10000226 	beq	r2,zero,9988 <___svfiprintf_internal_r+0x50>
    9980:	28800417 	ldw	r2,16(r5)
    9984:	1003ce26 	beq	r2,zero,a8c0 <___svfiprintf_internal_r+0xf88>
    9988:	dac01a04 	addi	r11,sp,104
    998c:	da8019c4 	addi	r10,sp,103
    9990:	dc802917 	ldw	r18,164(sp)
    9994:	dd002717 	ldw	r20,156(sp)
    9998:	04c00374 	movhi	r19,13
    999c:	dac01e15 	stw	r11,120(sp)
    99a0:	5a97c83a 	sub	r11,r11,r10
    99a4:	9cefd204 	addi	r19,r19,-16568
    99a8:	da801f15 	stw	r10,124(sp)
    99ac:	dec01a15 	stw	sp,104(sp)
    99b0:	d8001c15 	stw	zero,112(sp)
    99b4:	d8001b15 	stw	zero,108(sp)
    99b8:	d8002a15 	stw	zero,168(sp)
    99bc:	d8002415 	stw	zero,144(sp)
    99c0:	d811883a 	mov	r8,sp
    99c4:	dac02b15 	stw	r11,172(sp)
    99c8:	a8800007 	ldb	r2,0(r21)
    99cc:	10026826 	beq	r2,zero,a370 <___svfiprintf_internal_r+0xa38>
    99d0:	01000944 	movi	r4,37
    99d4:	11026626 	beq	r2,r4,a370 <___svfiprintf_internal_r+0xa38>
    99d8:	a805883a 	mov	r2,r21
    99dc:	00000106 	br	99e4 <___svfiprintf_internal_r+0xac>
    99e0:	19000326 	beq	r3,r4,99f0 <___svfiprintf_internal_r+0xb8>
    99e4:	10800044 	addi	r2,r2,1
    99e8:	10c00007 	ldb	r3,0(r2)
    99ec:	183ffc1e 	bne	r3,zero,99e0 <__alt_data_end+0xf80099e0>
    99f0:	1561c83a 	sub	r16,r2,r21
    99f4:	102d883a 	mov	r22,r2
    99f8:	80000e26 	beq	r16,zero,9a34 <___svfiprintf_internal_r+0xfc>
    99fc:	d8c01c17 	ldw	r3,112(sp)
    9a00:	d8801b17 	ldw	r2,108(sp)
    9a04:	45400015 	stw	r21,0(r8)
    9a08:	1c07883a 	add	r3,r3,r16
    9a0c:	10800044 	addi	r2,r2,1
    9a10:	d8c01c15 	stw	r3,112(sp)
    9a14:	44000115 	stw	r16,4(r8)
    9a18:	d8801b15 	stw	r2,108(sp)
    9a1c:	00c001c4 	movi	r3,7
    9a20:	1882d616 	blt	r3,r2,a57c <___svfiprintf_internal_r+0xc44>
    9a24:	42000204 	addi	r8,r8,8
    9a28:	da802417 	ldw	r10,144(sp)
    9a2c:	5415883a 	add	r10,r10,r16
    9a30:	da802415 	stw	r10,144(sp)
    9a34:	b0800007 	ldb	r2,0(r22)
    9a38:	10027326 	beq	r2,zero,a408 <___svfiprintf_internal_r+0xad0>
    9a3c:	b1000047 	ldb	r4,1(r22)
    9a40:	b5400044 	addi	r21,r22,1
    9a44:	d8001d85 	stb	zero,118(sp)
    9a48:	000d883a 	mov	r6,zero
    9a4c:	043fffc4 	movi	r16,-1
    9a50:	d8002115 	stw	zero,132(sp)
    9a54:	0023883a 	mov	r17,zero
    9a58:	00c01604 	movi	r3,88
    9a5c:	01400244 	movi	r5,9
    9a60:	02400a84 	movi	r9,42
    9a64:	01c01b04 	movi	r7,108
    9a68:	ad400044 	addi	r21,r21,1
    9a6c:	20bff804 	addi	r2,r4,-32
    9a70:	18819536 	bltu	r3,r2,a0c8 <___svfiprintf_internal_r+0x790>
    9a74:	100490ba 	slli	r2,r2,2
    9a78:	02c00074 	movhi	r11,1
    9a7c:	5ae6a304 	addi	r11,r11,-25972
    9a80:	12c5883a 	add	r2,r2,r11
    9a84:	10800017 	ldw	r2,0(r2)
    9a88:	1000683a 	jmp	r2
    9a8c:	00009fc8 	cmpgei	zero,zero,639
    9a90:	0000a0c8 	cmpgei	zero,zero,643
    9a94:	0000a0c8 	cmpgei	zero,zero,643
    9a98:	00009fbc 	xorhi	zero,zero,638
    9a9c:	0000a0c8 	cmpgei	zero,zero,643
    9aa0:	0000a0c8 	cmpgei	zero,zero,643
    9aa4:	0000a0c8 	cmpgei	zero,zero,643
    9aa8:	0000a0c8 	cmpgei	zero,zero,643
    9aac:	0000a0c8 	cmpgei	zero,zero,643
    9ab0:	0000a0c8 	cmpgei	zero,zero,643
    9ab4:	00009cec 	andhi	zero,zero,627
    9ab8:	0000a0fc 	xorhi	zero,zero,643
    9abc:	0000a0c8 	cmpgei	zero,zero,643
    9ac0:	00009d14 	movui	zero,628
    9ac4:	0000a108 	cmpgei	zero,zero,644
    9ac8:	0000a0c8 	cmpgei	zero,zero,643
    9acc:	0000a0f0 	cmpltui	zero,zero,643
    9ad0:	0000a090 	cmplti	zero,zero,642
    9ad4:	0000a090 	cmplti	zero,zero,642
    9ad8:	0000a090 	cmplti	zero,zero,642
    9adc:	0000a090 	cmplti	zero,zero,642
    9ae0:	0000a090 	cmplti	zero,zero,642
    9ae4:	0000a090 	cmplti	zero,zero,642
    9ae8:	0000a090 	cmplti	zero,zero,642
    9aec:	0000a090 	cmplti	zero,zero,642
    9af0:	0000a090 	cmplti	zero,zero,642
    9af4:	0000a0c8 	cmpgei	zero,zero,643
    9af8:	0000a0c8 	cmpgei	zero,zero,643
    9afc:	0000a0c8 	cmpgei	zero,zero,643
    9b00:	0000a0c8 	cmpgei	zero,zero,643
    9b04:	0000a0c8 	cmpgei	zero,zero,643
    9b08:	0000a0c8 	cmpgei	zero,zero,643
    9b0c:	0000a0c8 	cmpgei	zero,zero,643
    9b10:	0000a0c8 	cmpgei	zero,zero,643
    9b14:	0000a0c8 	cmpgei	zero,zero,643
    9b18:	0000a0c8 	cmpgei	zero,zero,643
    9b1c:	0000a028 	cmpgeui	zero,zero,640
    9b20:	0000a0c8 	cmpgei	zero,zero,643
    9b24:	0000a0c8 	cmpgei	zero,zero,643
    9b28:	0000a0c8 	cmpgei	zero,zero,643
    9b2c:	0000a0c8 	cmpgei	zero,zero,643
    9b30:	0000a0c8 	cmpgei	zero,zero,643
    9b34:	0000a0c8 	cmpgei	zero,zero,643
    9b38:	0000a0c8 	cmpgei	zero,zero,643
    9b3c:	0000a0c8 	cmpgei	zero,zero,643
    9b40:	0000a0c8 	cmpgei	zero,zero,643
    9b44:	0000a0c8 	cmpgei	zero,zero,643
    9b48:	00009cbc 	xorhi	zero,zero,626
    9b4c:	0000a0c8 	cmpgei	zero,zero,643
    9b50:	0000a0c8 	cmpgei	zero,zero,643
    9b54:	0000a0c8 	cmpgei	zero,zero,643
    9b58:	0000a0c8 	cmpgei	zero,zero,643
    9b5c:	0000a0c8 	cmpgei	zero,zero,643
    9b60:	00009bf0 	cmpltui	zero,zero,623
    9b64:	0000a0c8 	cmpgei	zero,zero,643
    9b68:	0000a0c8 	cmpgei	zero,zero,643
    9b6c:	00009f1c 	xori	zero,zero,636
    9b70:	0000a0c8 	cmpgei	zero,zero,643
    9b74:	0000a0c8 	cmpgei	zero,zero,643
    9b78:	0000a0c8 	cmpgei	zero,zero,643
    9b7c:	0000a0c8 	cmpgei	zero,zero,643
    9b80:	0000a0c8 	cmpgei	zero,zero,643
    9b84:	0000a0c8 	cmpgei	zero,zero,643
    9b88:	0000a0c8 	cmpgei	zero,zero,643
    9b8c:	0000a0c8 	cmpgei	zero,zero,643
    9b90:	0000a0c8 	cmpgei	zero,zero,643
    9b94:	0000a0c8 	cmpgei	zero,zero,643
    9b98:	00009e08 	cmpgei	zero,zero,632
    9b9c:	00009dc8 	cmpgei	zero,zero,631
    9ba0:	0000a0c8 	cmpgei	zero,zero,643
    9ba4:	0000a0c8 	cmpgei	zero,zero,643
    9ba8:	0000a0c8 	cmpgei	zero,zero,643
    9bac:	00009f78 	rdprs	zero,zero,637
    9bb0:	00009dc8 	cmpgei	zero,zero,631
    9bb4:	0000a0c8 	cmpgei	zero,zero,643
    9bb8:	0000a0c8 	cmpgei	zero,zero,643
    9bbc:	00009f64 	muli	zero,zero,637
    9bc0:	0000a0c8 	cmpgei	zero,zero,643
    9bc4:	00009f84 	movi	zero,638
    9bc8:	00009cc0 	call	9cc <setDefaultTagBlock+0x60>
    9bcc:	00009d88 	cmpgei	zero,zero,630
    9bd0:	00009d7c 	xorhi	zero,zero,629
    9bd4:	0000a0c8 	cmpgei	zero,zero,643
    9bd8:	00009d20 	cmpeqi	zero,zero,628
    9bdc:	0000a0c8 	cmpgei	zero,zero,643
    9be0:	00009bf4 	movhi	zero,623
    9be4:	0000a0c8 	cmpgei	zero,zero,643
    9be8:	0000a0c8 	cmpgei	zero,zero,643
    9bec:	00009fe4 	muli	zero,zero,639
    9bf0:	8c400414 	ori	r17,r17,16
    9bf4:	88c0080c 	andi	r3,r17,32
    9bf8:	d8802317 	ldw	r2,140(sp)
    9bfc:	18029626 	beq	r3,zero,a658 <___svfiprintf_internal_r+0xd20>
    9c00:	dac02317 	ldw	r11,140(sp)
    9c04:	12400017 	ldw	r9,0(r2)
    9c08:	12800117 	ldw	r10,4(r2)
    9c0c:	5ac00204 	addi	r11,r11,8
    9c10:	dac02315 	stw	r11,140(sp)
    9c14:	00800044 	movi	r2,1
    9c18:	4a86b03a 	or	r3,r9,r10
    9c1c:	d8001d85 	stb	zero,118(sp)
    9c20:	8039883a 	mov	fp,r16
    9c24:	0017883a 	mov	r11,zero
    9c28:	80000216 	blt	r16,zero,9c34 <___svfiprintf_internal_r+0x2fc>
    9c2c:	013fdfc4 	movi	r4,-129
    9c30:	8922703a 	and	r17,r17,r4
    9c34:	1801d01e 	bne	r3,zero,a378 <___svfiprintf_internal_r+0xa40>
    9c38:	80024426 	beq	r16,zero,a54c <___svfiprintf_internal_r+0xc14>
    9c3c:	10803fcc 	andi	r2,r2,255
    9c40:	00c00044 	movi	r3,1
    9c44:	10c2b326 	beq	r2,r3,a714 <___svfiprintf_internal_r+0xddc>
    9c48:	00c00084 	movi	r3,2
    9c4c:	10c25b26 	beq	r2,r3,a5bc <___svfiprintf_internal_r+0xc84>
    9c50:	d8c01a04 	addi	r3,sp,104
    9c54:	4808d0fa 	srli	r4,r9,3
    9c58:	500a977a 	slli	r5,r10,29
    9c5c:	5014d0fa 	srli	r10,r10,3
    9c60:	4a4001cc 	andi	r9,r9,7
    9c64:	48800c04 	addi	r2,r9,48
    9c68:	18ffffc4 	addi	r3,r3,-1
    9c6c:	2912b03a 	or	r9,r5,r4
    9c70:	18800005 	stb	r2,0(r3)
    9c74:	4a88b03a 	or	r4,r9,r10
    9c78:	203ff61e 	bne	r4,zero,9c54 <__alt_data_end+0xf8009c54>
    9c7c:	8900004c 	andi	r4,r17,1
    9c80:	d8c02615 	stw	r3,152(sp)
    9c84:	2002951e 	bne	r4,zero,a6dc <___svfiprintf_internal_r+0xda4>
    9c88:	da801e17 	ldw	r10,120(sp)
    9c8c:	50f9c83a 	sub	fp,r10,r3
    9c90:	df002015 	stw	fp,128(sp)
    9c94:	e400010e 	bge	fp,r16,9c9c <___svfiprintf_internal_r+0x364>
    9c98:	dc002015 	stw	r16,128(sp)
    9c9c:	5ac03fcc 	andi	r11,r11,255
    9ca0:	5ac0201c 	xori	r11,r11,128
    9ca4:	5affe004 	addi	r11,r11,-128
    9ca8:	58006326 	beq	r11,zero,9e38 <___svfiprintf_internal_r+0x500>
    9cac:	d8c02017 	ldw	r3,128(sp)
    9cb0:	18c00044 	addi	r3,r3,1
    9cb4:	d8c02015 	stw	r3,128(sp)
    9cb8:	00005f06 	br	9e38 <___svfiprintf_internal_r+0x500>
    9cbc:	8c400414 	ori	r17,r17,16
    9cc0:	88c0080c 	andi	r3,r17,32
    9cc4:	d8802317 	ldw	r2,140(sp)
    9cc8:	18027826 	beq	r3,zero,a6ac <___svfiprintf_internal_r+0xd74>
    9ccc:	dac02317 	ldw	r11,140(sp)
    9cd0:	12400017 	ldw	r9,0(r2)
    9cd4:	12800117 	ldw	r10,4(r2)
    9cd8:	5ac00204 	addi	r11,r11,8
    9cdc:	dac02315 	stw	r11,140(sp)
    9ce0:	0005883a 	mov	r2,zero
    9ce4:	4a86b03a 	or	r3,r9,r10
    9ce8:	003fcc06 	br	9c1c <__alt_data_end+0xf8009c1c>
    9cec:	da802317 	ldw	r10,140(sp)
    9cf0:	dac02317 	ldw	r11,140(sp)
    9cf4:	52800017 	ldw	r10,0(r10)
    9cf8:	58800104 	addi	r2,r11,4
    9cfc:	da802115 	stw	r10,132(sp)
    9d00:	50028a0e 	bge	r10,zero,a72c <___svfiprintf_internal_r+0xdf4>
    9d04:	da802117 	ldw	r10,132(sp)
    9d08:	d8802315 	stw	r2,140(sp)
    9d0c:	0295c83a 	sub	r10,zero,r10
    9d10:	da802115 	stw	r10,132(sp)
    9d14:	8c400114 	ori	r17,r17,4
    9d18:	a9000007 	ldb	r4,0(r21)
    9d1c:	003f5206 	br	9a68 <__alt_data_end+0xf8009a68>
    9d20:	da802317 	ldw	r10,140(sp)
    9d24:	dac02317 	ldw	r11,140(sp)
    9d28:	d8001d85 	stb	zero,118(sp)
    9d2c:	52800017 	ldw	r10,0(r10)
    9d30:	5dc00104 	addi	r23,r11,4
    9d34:	da802615 	stw	r10,152(sp)
    9d38:	5002eb26 	beq	r10,zero,a8e8 <___svfiprintf_internal_r+0xfb0>
    9d3c:	d9002617 	ldw	r4,152(sp)
    9d40:	8002d716 	blt	r16,zero,a8a0 <___svfiprintf_internal_r+0xf68>
    9d44:	000b883a 	mov	r5,zero
    9d48:	800d883a 	mov	r6,r16
    9d4c:	da002c15 	stw	r8,176(sp)
    9d50:	00084ac0 	call	84ac <memchr>
    9d54:	da002c17 	ldw	r8,176(sp)
    9d58:	1002fb26 	beq	r2,zero,a948 <___svfiprintf_internal_r+0x1010>
    9d5c:	d8c02617 	ldw	r3,152(sp)
    9d60:	10f9c83a 	sub	fp,r2,r3
    9d64:	8700010e 	bge	r16,fp,9d6c <___svfiprintf_internal_r+0x434>
    9d68:	8039883a 	mov	fp,r16
    9d6c:	dac01d83 	ldbu	r11,118(sp)
    9d70:	ddc02315 	stw	r23,140(sp)
    9d74:	0021883a 	mov	r16,zero
    9d78:	003fc506 	br	9c90 <__alt_data_end+0xf8009c90>
    9d7c:	8c400814 	ori	r17,r17,32
    9d80:	a9000007 	ldb	r4,0(r21)
    9d84:	003f3806 	br	9a68 <__alt_data_end+0xf8009a68>
    9d88:	dac02317 	ldw	r11,140(sp)
    9d8c:	00800c04 	movi	r2,48
    9d90:	d8801d05 	stb	r2,116(sp)
    9d94:	5a400017 	ldw	r9,0(r11)
    9d98:	00801e04 	movi	r2,120
    9d9c:	d8801d45 	stb	r2,117(sp)
    9da0:	00800374 	movhi	r2,13
    9da4:	10af7104 	addi	r2,r2,-16956
    9da8:	5ac00104 	addi	r11,r11,4
    9dac:	d8802a15 	stw	r2,168(sp)
    9db0:	0015883a 	mov	r10,zero
    9db4:	8c400094 	ori	r17,r17,2
    9db8:	dac02315 	stw	r11,140(sp)
    9dbc:	00800084 	movi	r2,2
    9dc0:	4807883a 	mov	r3,r9
    9dc4:	003f9506 	br	9c1c <__alt_data_end+0xf8009c1c>
    9dc8:	d9801d85 	stb	r6,118(sp)
    9dcc:	8880080c 	andi	r2,r17,32
    9dd0:	d8c02317 	ldw	r3,140(sp)
    9dd4:	10009926 	beq	r2,zero,a03c <___svfiprintf_internal_r+0x704>
    9dd8:	dac02317 	ldw	r11,140(sp)
    9ddc:	18800117 	ldw	r2,4(r3)
    9de0:	1a400017 	ldw	r9,0(r3)
    9de4:	5ac00204 	addi	r11,r11,8
    9de8:	dac02315 	stw	r11,140(sp)
    9dec:	1015883a 	mov	r10,r2
    9df0:	10009d16 	blt	r2,zero,a068 <___svfiprintf_internal_r+0x730>
    9df4:	dac01d83 	ldbu	r11,118(sp)
    9df8:	8039883a 	mov	fp,r16
    9dfc:	00800044 	movi	r2,1
    9e00:	4a86b03a 	or	r3,r9,r10
    9e04:	003f8806 	br	9c28 <__alt_data_end+0xf8009c28>
    9e08:	dac02317 	ldw	r11,140(sp)
    9e0c:	00c00044 	movi	r3,1
    9e10:	da801004 	addi	r10,sp,64
    9e14:	58800017 	ldw	r2,0(r11)
    9e18:	5ac00104 	addi	r11,r11,4
    9e1c:	d8c02015 	stw	r3,128(sp)
    9e20:	d8001d85 	stb	zero,118(sp)
    9e24:	d8801005 	stb	r2,64(sp)
    9e28:	dac02315 	stw	r11,140(sp)
    9e2c:	1839883a 	mov	fp,r3
    9e30:	da802615 	stw	r10,152(sp)
    9e34:	0021883a 	mov	r16,zero
    9e38:	8a80008c 	andi	r10,r17,2
    9e3c:	da802215 	stw	r10,136(sp)
    9e40:	50000326 	beq	r10,zero,9e50 <___svfiprintf_internal_r+0x518>
    9e44:	dac02017 	ldw	r11,128(sp)
    9e48:	5ac00084 	addi	r11,r11,2
    9e4c:	dac02015 	stw	r11,128(sp)
    9e50:	88c0210c 	andi	r3,r17,132
    9e54:	d8c02515 	stw	r3,148(sp)
    9e58:	1800bb1e 	bne	r3,zero,a148 <___svfiprintf_internal_r+0x810>
    9e5c:	da802117 	ldw	r10,132(sp)
    9e60:	dac02017 	ldw	r11,128(sp)
    9e64:	52edc83a 	sub	r22,r10,r11
    9e68:	0580b70e 	bge	zero,r22,a148 <___svfiprintf_internal_r+0x810>
    9e6c:	02400404 	movi	r9,16
    9e70:	d8c01c17 	ldw	r3,112(sp)
    9e74:	d8801b17 	ldw	r2,108(sp)
    9e78:	4d82a70e 	bge	r9,r22,a918 <___svfiprintf_internal_r+0xfe0>
    9e7c:	01400374 	movhi	r5,13
    9e80:	296fd604 	addi	r5,r5,-16552
    9e84:	d9402815 	stw	r5,160(sp)
    9e88:	05c001c4 	movi	r23,7
    9e8c:	00000306 	br	9e9c <___svfiprintf_internal_r+0x564>
    9e90:	b5bffc04 	addi	r22,r22,-16
    9e94:	42000204 	addi	r8,r8,8
    9e98:	4d80150e 	bge	r9,r22,9ef0 <___svfiprintf_internal_r+0x5b8>
    9e9c:	02800374 	movhi	r10,13
    9ea0:	18c00404 	addi	r3,r3,16
    9ea4:	10800044 	addi	r2,r2,1
    9ea8:	52afd604 	addi	r10,r10,-16552
    9eac:	42800015 	stw	r10,0(r8)
    9eb0:	42400115 	stw	r9,4(r8)
    9eb4:	d8c01c15 	stw	r3,112(sp)
    9eb8:	d8801b15 	stw	r2,108(sp)
    9ebc:	b8bff40e 	bge	r23,r2,9e90 <__alt_data_end+0xf8009e90>
    9ec0:	9009883a 	mov	r4,r18
    9ec4:	a00b883a 	mov	r5,r20
    9ec8:	d9801a04 	addi	r6,sp,104
    9ecc:	da402c15 	stw	r9,176(sp)
    9ed0:	00097700 	call	9770 <__ssprint_r>
    9ed4:	da402c17 	ldw	r9,176(sp)
    9ed8:	1001511e 	bne	r2,zero,a420 <___svfiprintf_internal_r+0xae8>
    9edc:	b5bffc04 	addi	r22,r22,-16
    9ee0:	d8c01c17 	ldw	r3,112(sp)
    9ee4:	d8801b17 	ldw	r2,108(sp)
    9ee8:	d811883a 	mov	r8,sp
    9eec:	4dbfeb16 	blt	r9,r22,9e9c <__alt_data_end+0xf8009e9c>
    9ef0:	dac02817 	ldw	r11,160(sp)
    9ef4:	b0c7883a 	add	r3,r22,r3
    9ef8:	10800044 	addi	r2,r2,1
    9efc:	42c00015 	stw	r11,0(r8)
    9f00:	45800115 	stw	r22,4(r8)
    9f04:	d8c01c15 	stw	r3,112(sp)
    9f08:	d8801b15 	stw	r2,108(sp)
    9f0c:	010001c4 	movi	r4,7
    9f10:	2081dd16 	blt	r4,r2,a688 <___svfiprintf_internal_r+0xd50>
    9f14:	42000204 	addi	r8,r8,8
    9f18:	00008d06 	br	a150 <___svfiprintf_internal_r+0x818>
    9f1c:	00c00374 	movhi	r3,13
    9f20:	18ef6c04 	addi	r3,r3,-16976
    9f24:	d8c02a15 	stw	r3,168(sp)
    9f28:	d9801d85 	stb	r6,118(sp)
    9f2c:	88c0080c 	andi	r3,r17,32
    9f30:	d8802317 	ldw	r2,140(sp)
    9f34:	18003226 	beq	r3,zero,a000 <___svfiprintf_internal_r+0x6c8>
    9f38:	da802317 	ldw	r10,140(sp)
    9f3c:	12400017 	ldw	r9,0(r2)
    9f40:	52800204 	addi	r10,r10,8
    9f44:	da802315 	stw	r10,140(sp)
    9f48:	12800117 	ldw	r10,4(r2)
    9f4c:	8880004c 	andi	r2,r17,1
    9f50:	1001be26 	beq	r2,zero,a64c <___svfiprintf_internal_r+0xd14>
    9f54:	4a86b03a 	or	r3,r9,r10
    9f58:	1802291e 	bne	r3,zero,a800 <___svfiprintf_internal_r+0xec8>
    9f5c:	00800084 	movi	r2,2
    9f60:	003f2e06 	br	9c1c <__alt_data_end+0xf8009c1c>
    9f64:	a9000007 	ldb	r4,0(r21)
    9f68:	a805883a 	mov	r2,r21
    9f6c:	21c22a26 	beq	r4,r7,a818 <___svfiprintf_internal_r+0xee0>
    9f70:	8c400414 	ori	r17,r17,16
    9f74:	003ebc06 	br	9a68 <__alt_data_end+0xf8009a68>
    9f78:	8c401014 	ori	r17,r17,64
    9f7c:	a9000007 	ldb	r4,0(r21)
    9f80:	003eb906 	br	9a68 <__alt_data_end+0xf8009a68>
    9f84:	d9801d85 	stb	r6,118(sp)
    9f88:	8880080c 	andi	r2,r17,32
    9f8c:	1002131e 	bne	r2,zero,a7dc <___svfiprintf_internal_r+0xea4>
    9f90:	8880040c 	andi	r2,r17,16
    9f94:	1002241e 	bne	r2,zero,a828 <___svfiprintf_internal_r+0xef0>
    9f98:	8c40100c 	andi	r17,r17,64
    9f9c:	88022226 	beq	r17,zero,a828 <___svfiprintf_internal_r+0xef0>
    9fa0:	dac02317 	ldw	r11,140(sp)
    9fa4:	da802417 	ldw	r10,144(sp)
    9fa8:	58800017 	ldw	r2,0(r11)
    9fac:	5ac00104 	addi	r11,r11,4
    9fb0:	dac02315 	stw	r11,140(sp)
    9fb4:	1280000d 	sth	r10,0(r2)
    9fb8:	003e8306 	br	99c8 <__alt_data_end+0xf80099c8>
    9fbc:	8c400054 	ori	r17,r17,1
    9fc0:	a9000007 	ldb	r4,0(r21)
    9fc4:	003ea806 	br	9a68 <__alt_data_end+0xf8009a68>
    9fc8:	30803fcc 	andi	r2,r6,255
    9fcc:	1080201c 	xori	r2,r2,128
    9fd0:	10bfe004 	addi	r2,r2,-128
    9fd4:	1001ff1e 	bne	r2,zero,a7d4 <___svfiprintf_internal_r+0xe9c>
    9fd8:	01800804 	movi	r6,32
    9fdc:	a9000007 	ldb	r4,0(r21)
    9fe0:	003ea106 	br	9a68 <__alt_data_end+0xf8009a68>
    9fe4:	02c00374 	movhi	r11,13
    9fe8:	5aef7104 	addi	r11,r11,-16956
    9fec:	dac02a15 	stw	r11,168(sp)
    9ff0:	d9801d85 	stb	r6,118(sp)
    9ff4:	88c0080c 	andi	r3,r17,32
    9ff8:	d8802317 	ldw	r2,140(sp)
    9ffc:	183fce1e 	bne	r3,zero,9f38 <__alt_data_end+0xf8009f38>
    a000:	88c0040c 	andi	r3,r17,16
    a004:	1801ed1e 	bne	r3,zero,a7bc <___svfiprintf_internal_r+0xe84>
    a008:	88c0100c 	andi	r3,r17,64
    a00c:	18021a26 	beq	r3,zero,a878 <___svfiprintf_internal_r+0xf40>
    a010:	da802317 	ldw	r10,140(sp)
    a014:	1240000b 	ldhu	r9,0(r2)
    a018:	52800104 	addi	r10,r10,4
    a01c:	da802315 	stw	r10,140(sp)
    a020:	0015883a 	mov	r10,zero
    a024:	003fc906 	br	9f4c <__alt_data_end+0xf8009f4c>
    a028:	8c400414 	ori	r17,r17,16
    a02c:	d9801d85 	stb	r6,118(sp)
    a030:	8880080c 	andi	r2,r17,32
    a034:	d8c02317 	ldw	r3,140(sp)
    a038:	103f671e 	bne	r2,zero,9dd8 <__alt_data_end+0xf8009dd8>
    a03c:	8880040c 	andi	r2,r17,16
    a040:	1001c71e 	bne	r2,zero,a760 <___svfiprintf_internal_r+0xe28>
    a044:	8880100c 	andi	r2,r17,64
    a048:	1001c526 	beq	r2,zero,a760 <___svfiprintf_internal_r+0xe28>
    a04c:	1a40000f 	ldh	r9,0(r3)
    a050:	dac02317 	ldw	r11,140(sp)
    a054:	4815d7fa 	srai	r10,r9,31
    a058:	5ac00104 	addi	r11,r11,4
    a05c:	dac02315 	stw	r11,140(sp)
    a060:	5005883a 	mov	r2,r10
    a064:	103f630e 	bge	r2,zero,9df4 <__alt_data_end+0xf8009df4>
    a068:	0253c83a 	sub	r9,zero,r9
    a06c:	4804c03a 	cmpne	r2,r9,zero
    a070:	0295c83a 	sub	r10,zero,r10
    a074:	5095c83a 	sub	r10,r10,r2
    a078:	02c00b44 	movi	r11,45
    a07c:	dac01d85 	stb	r11,118(sp)
    a080:	8039883a 	mov	fp,r16
    a084:	00800044 	movi	r2,1
    a088:	4a86b03a 	or	r3,r9,r10
    a08c:	003ee606 	br	9c28 <__alt_data_end+0xf8009c28>
    a090:	a815883a 	mov	r10,r21
    a094:	d8002115 	stw	zero,132(sp)
    a098:	20bff404 	addi	r2,r4,-48
    a09c:	51000007 	ldb	r4,0(r10)
    a0a0:	da802117 	ldw	r10,132(sp)
    a0a4:	ad400044 	addi	r21,r21,1
    a0a8:	52c002a4 	muli	r11,r10,10
    a0ac:	a815883a 	mov	r10,r21
    a0b0:	5885883a 	add	r2,r11,r2
    a0b4:	d8802115 	stw	r2,132(sp)
    a0b8:	20bff404 	addi	r2,r4,-48
    a0bc:	28bff72e 	bgeu	r5,r2,a09c <__alt_data_end+0xf800a09c>
    a0c0:	20bff804 	addi	r2,r4,-32
    a0c4:	18be6b2e 	bgeu	r3,r2,9a74 <__alt_data_end+0xf8009a74>
    a0c8:	d9801d85 	stb	r6,118(sp)
    a0cc:	2000ce26 	beq	r4,zero,a408 <___svfiprintf_internal_r+0xad0>
    a0d0:	02800044 	movi	r10,1
    a0d4:	dac01004 	addi	r11,sp,64
    a0d8:	da802015 	stw	r10,128(sp)
    a0dc:	d9001005 	stb	r4,64(sp)
    a0e0:	d8001d85 	stb	zero,118(sp)
    a0e4:	5039883a 	mov	fp,r10
    a0e8:	dac02615 	stw	r11,152(sp)
    a0ec:	003f5106 	br	9e34 <__alt_data_end+0xf8009e34>
    a0f0:	8c402014 	ori	r17,r17,128
    a0f4:	a9000007 	ldb	r4,0(r21)
    a0f8:	003e5b06 	br	9a68 <__alt_data_end+0xf8009a68>
    a0fc:	01800ac4 	movi	r6,43
    a100:	a9000007 	ldb	r4,0(r21)
    a104:	003e5806 	br	9a68 <__alt_data_end+0xf8009a68>
    a108:	a9000007 	ldb	r4,0(r21)
    a10c:	aa800044 	addi	r10,r21,1
    a110:	22421426 	beq	r4,r9,a964 <___svfiprintf_internal_r+0x102c>
    a114:	20bff404 	addi	r2,r4,-48
    a118:	502b883a 	mov	r21,r10
    a11c:	0021883a 	mov	r16,zero
    a120:	28be5236 	bltu	r5,r2,9a6c <__alt_data_end+0xf8009a6c>
    a124:	a9000007 	ldb	r4,0(r21)
    a128:	840002a4 	muli	r16,r16,10
    a12c:	ad400044 	addi	r21,r21,1
    a130:	1421883a 	add	r16,r2,r16
    a134:	20bff404 	addi	r2,r4,-48
    a138:	28bffa2e 	bgeu	r5,r2,a124 <__alt_data_end+0xf800a124>
    a13c:	803e4b0e 	bge	r16,zero,9a6c <__alt_data_end+0xf8009a6c>
    a140:	043fffc4 	movi	r16,-1
    a144:	003e4906 	br	9a6c <__alt_data_end+0xf8009a6c>
    a148:	d8c01c17 	ldw	r3,112(sp)
    a14c:	d8801b17 	ldw	r2,108(sp)
    a150:	d9001d87 	ldb	r4,118(sp)
    a154:	20000b26 	beq	r4,zero,a184 <___svfiprintf_internal_r+0x84c>
    a158:	d9001d84 	addi	r4,sp,118
    a15c:	18c00044 	addi	r3,r3,1
    a160:	10800044 	addi	r2,r2,1
    a164:	41000015 	stw	r4,0(r8)
    a168:	01000044 	movi	r4,1
    a16c:	41000115 	stw	r4,4(r8)
    a170:	d8c01c15 	stw	r3,112(sp)
    a174:	d8801b15 	stw	r2,108(sp)
    a178:	010001c4 	movi	r4,7
    a17c:	20811e16 	blt	r4,r2,a5f8 <___svfiprintf_internal_r+0xcc0>
    a180:	42000204 	addi	r8,r8,8
    a184:	da802217 	ldw	r10,136(sp)
    a188:	50000b26 	beq	r10,zero,a1b8 <___svfiprintf_internal_r+0x880>
    a18c:	d9001d04 	addi	r4,sp,116
    a190:	18c00084 	addi	r3,r3,2
    a194:	10800044 	addi	r2,r2,1
    a198:	41000015 	stw	r4,0(r8)
    a19c:	01000084 	movi	r4,2
    a1a0:	41000115 	stw	r4,4(r8)
    a1a4:	d8c01c15 	stw	r3,112(sp)
    a1a8:	d8801b15 	stw	r2,108(sp)
    a1ac:	010001c4 	movi	r4,7
    a1b0:	20811a16 	blt	r4,r2,a61c <___svfiprintf_internal_r+0xce4>
    a1b4:	42000204 	addi	r8,r8,8
    a1b8:	dac02517 	ldw	r11,148(sp)
    a1bc:	01002004 	movi	r4,128
    a1c0:	5900a826 	beq	r11,r4,a464 <___svfiprintf_internal_r+0xb2c>
    a1c4:	8721c83a 	sub	r16,r16,fp
    a1c8:	0400260e 	bge	zero,r16,a264 <___svfiprintf_internal_r+0x92c>
    a1cc:	01c00404 	movi	r7,16
    a1d0:	3c01a50e 	bge	r7,r16,a868 <___svfiprintf_internal_r+0xf30>
    a1d4:	01000374 	movhi	r4,13
    a1d8:	212fd204 	addi	r4,r4,-16568
    a1dc:	d9002215 	stw	r4,136(sp)
    a1e0:	382f883a 	mov	r23,r7
    a1e4:	058001c4 	movi	r22,7
    a1e8:	00000306 	br	a1f8 <___svfiprintf_internal_r+0x8c0>
    a1ec:	843ffc04 	addi	r16,r16,-16
    a1f0:	42000204 	addi	r8,r8,8
    a1f4:	bc00110e 	bge	r23,r16,a23c <___svfiprintf_internal_r+0x904>
    a1f8:	18c00404 	addi	r3,r3,16
    a1fc:	10800044 	addi	r2,r2,1
    a200:	44c00015 	stw	r19,0(r8)
    a204:	45c00115 	stw	r23,4(r8)
    a208:	d8c01c15 	stw	r3,112(sp)
    a20c:	d8801b15 	stw	r2,108(sp)
    a210:	b0bff60e 	bge	r22,r2,a1ec <__alt_data_end+0xf800a1ec>
    a214:	9009883a 	mov	r4,r18
    a218:	a00b883a 	mov	r5,r20
    a21c:	d9801a04 	addi	r6,sp,104
    a220:	00097700 	call	9770 <__ssprint_r>
    a224:	10007e1e 	bne	r2,zero,a420 <___svfiprintf_internal_r+0xae8>
    a228:	843ffc04 	addi	r16,r16,-16
    a22c:	d8c01c17 	ldw	r3,112(sp)
    a230:	d8801b17 	ldw	r2,108(sp)
    a234:	d811883a 	mov	r8,sp
    a238:	bc3fef16 	blt	r23,r16,a1f8 <__alt_data_end+0xf800a1f8>
    a23c:	da802217 	ldw	r10,136(sp)
    a240:	1c07883a 	add	r3,r3,r16
    a244:	10800044 	addi	r2,r2,1
    a248:	42800015 	stw	r10,0(r8)
    a24c:	44000115 	stw	r16,4(r8)
    a250:	d8c01c15 	stw	r3,112(sp)
    a254:	d8801b15 	stw	r2,108(sp)
    a258:	010001c4 	movi	r4,7
    a25c:	2080ce16 	blt	r4,r2,a598 <___svfiprintf_internal_r+0xc60>
    a260:	42000204 	addi	r8,r8,8
    a264:	dac02617 	ldw	r11,152(sp)
    a268:	e0c7883a 	add	r3,fp,r3
    a26c:	10800044 	addi	r2,r2,1
    a270:	42c00015 	stw	r11,0(r8)
    a274:	47000115 	stw	fp,4(r8)
    a278:	d8c01c15 	stw	r3,112(sp)
    a27c:	d8801b15 	stw	r2,108(sp)
    a280:	010001c4 	movi	r4,7
    a284:	2080a316 	blt	r4,r2,a514 <___svfiprintf_internal_r+0xbdc>
    a288:	42000204 	addi	r8,r8,8
    a28c:	8c40010c 	andi	r17,r17,4
    a290:	88002b26 	beq	r17,zero,a340 <___svfiprintf_internal_r+0xa08>
    a294:	da802117 	ldw	r10,132(sp)
    a298:	dac02017 	ldw	r11,128(sp)
    a29c:	52e1c83a 	sub	r16,r10,r11
    a2a0:	0400270e 	bge	zero,r16,a340 <___svfiprintf_internal_r+0xa08>
    a2a4:	04400404 	movi	r17,16
    a2a8:	d8801b17 	ldw	r2,108(sp)
    a2ac:	8c019e0e 	bge	r17,r16,a928 <___svfiprintf_internal_r+0xff0>
    a2b0:	01400374 	movhi	r5,13
    a2b4:	296fd604 	addi	r5,r5,-16552
    a2b8:	d9402815 	stw	r5,160(sp)
    a2bc:	070001c4 	movi	fp,7
    a2c0:	00000306 	br	a2d0 <___svfiprintf_internal_r+0x998>
    a2c4:	843ffc04 	addi	r16,r16,-16
    a2c8:	42000204 	addi	r8,r8,8
    a2cc:	8c00130e 	bge	r17,r16,a31c <___svfiprintf_internal_r+0x9e4>
    a2d0:	02800374 	movhi	r10,13
    a2d4:	18c00404 	addi	r3,r3,16
    a2d8:	10800044 	addi	r2,r2,1
    a2dc:	52afd604 	addi	r10,r10,-16552
    a2e0:	42800015 	stw	r10,0(r8)
    a2e4:	44400115 	stw	r17,4(r8)
    a2e8:	d8c01c15 	stw	r3,112(sp)
    a2ec:	d8801b15 	stw	r2,108(sp)
    a2f0:	e0bff40e 	bge	fp,r2,a2c4 <__alt_data_end+0xf800a2c4>
    a2f4:	9009883a 	mov	r4,r18
    a2f8:	a00b883a 	mov	r5,r20
    a2fc:	d9801a04 	addi	r6,sp,104
    a300:	00097700 	call	9770 <__ssprint_r>
    a304:	1000461e 	bne	r2,zero,a420 <___svfiprintf_internal_r+0xae8>
    a308:	843ffc04 	addi	r16,r16,-16
    a30c:	d8c01c17 	ldw	r3,112(sp)
    a310:	d8801b17 	ldw	r2,108(sp)
    a314:	d811883a 	mov	r8,sp
    a318:	8c3fed16 	blt	r17,r16,a2d0 <__alt_data_end+0xf800a2d0>
    a31c:	dac02817 	ldw	r11,160(sp)
    a320:	1c07883a 	add	r3,r3,r16
    a324:	10800044 	addi	r2,r2,1
    a328:	42c00015 	stw	r11,0(r8)
    a32c:	44000115 	stw	r16,4(r8)
    a330:	d8c01c15 	stw	r3,112(sp)
    a334:	d8801b15 	stw	r2,108(sp)
    a338:	010001c4 	movi	r4,7
    a33c:	2080fe16 	blt	r4,r2,a738 <___svfiprintf_internal_r+0xe00>
    a340:	dd802017 	ldw	r22,128(sp)
    a344:	da802117 	ldw	r10,132(sp)
    a348:	b280010e 	bge	r22,r10,a350 <___svfiprintf_internal_r+0xa18>
    a34c:	502d883a 	mov	r22,r10
    a350:	dac02417 	ldw	r11,144(sp)
    a354:	5d97883a 	add	r11,r11,r22
    a358:	dac02415 	stw	r11,144(sp)
    a35c:	1800751e 	bne	r3,zero,a534 <___svfiprintf_internal_r+0xbfc>
    a360:	a8800007 	ldb	r2,0(r21)
    a364:	d8001b15 	stw	zero,108(sp)
    a368:	d811883a 	mov	r8,sp
    a36c:	103d981e 	bne	r2,zero,99d0 <__alt_data_end+0xf80099d0>
    a370:	a82d883a 	mov	r22,r21
    a374:	003daf06 	br	9a34 <__alt_data_end+0xf8009a34>
    a378:	10803fcc 	andi	r2,r2,255
    a37c:	00c00044 	movi	r3,1
    a380:	10fe311e 	bne	r2,r3,9c48 <__alt_data_end+0xf8009c48>
    a384:	5000e126 	beq	r10,zero,a70c <___svfiprintf_internal_r+0xdd4>
    a388:	dc402015 	stw	r17,128(sp)
    a38c:	dc002215 	stw	r16,136(sp)
    a390:	dd801a04 	addi	r22,sp,104
    a394:	402f883a 	mov	r23,r8
    a398:	5839883a 	mov	fp,r11
    a39c:	4821883a 	mov	r16,r9
    a3a0:	5023883a 	mov	r17,r10
    a3a4:	8009883a 	mov	r4,r16
    a3a8:	880b883a 	mov	r5,r17
    a3ac:	01800284 	movi	r6,10
    a3b0:	000f883a 	mov	r7,zero
    a3b4:	000b8440 	call	b844 <__umoddi3>
    a3b8:	10800c04 	addi	r2,r2,48
    a3bc:	b5bfffc4 	addi	r22,r22,-1
    a3c0:	8009883a 	mov	r4,r16
    a3c4:	880b883a 	mov	r5,r17
    a3c8:	01800284 	movi	r6,10
    a3cc:	000f883a 	mov	r7,zero
    a3d0:	b0800005 	stb	r2,0(r22)
    a3d4:	000b2840 	call	b284 <__udivdi3>
    a3d8:	1021883a 	mov	r16,r2
    a3dc:	10c4b03a 	or	r2,r2,r3
    a3e0:	1823883a 	mov	r17,r3
    a3e4:	103fef1e 	bne	r2,zero,a3a4 <__alt_data_end+0xf800a3a4>
    a3e8:	da801e17 	ldw	r10,120(sp)
    a3ec:	e017883a 	mov	r11,fp
    a3f0:	b811883a 	mov	r8,r23
    a3f4:	dc402017 	ldw	r17,128(sp)
    a3f8:	dc002217 	ldw	r16,136(sp)
    a3fc:	dd802615 	stw	r22,152(sp)
    a400:	55b9c83a 	sub	fp,r10,r22
    a404:	003e2206 	br	9c90 <__alt_data_end+0xf8009c90>
    a408:	d8801c17 	ldw	r2,112(sp)
    a40c:	10000426 	beq	r2,zero,a420 <___svfiprintf_internal_r+0xae8>
    a410:	d9002917 	ldw	r4,164(sp)
    a414:	d9402717 	ldw	r5,156(sp)
    a418:	d9801a04 	addi	r6,sp,104
    a41c:	00097700 	call	9770 <__ssprint_r>
    a420:	da802717 	ldw	r10,156(sp)
    a424:	5080030b 	ldhu	r2,12(r10)
    a428:	1080100c 	andi	r2,r2,64
    a42c:	1000511e 	bne	r2,zero,a574 <___svfiprintf_internal_r+0xc3c>
    a430:	d8802417 	ldw	r2,144(sp)
    a434:	dfc03617 	ldw	ra,216(sp)
    a438:	df003517 	ldw	fp,212(sp)
    a43c:	ddc03417 	ldw	r23,208(sp)
    a440:	dd803317 	ldw	r22,204(sp)
    a444:	dd403217 	ldw	r21,200(sp)
    a448:	dd003117 	ldw	r20,196(sp)
    a44c:	dcc03017 	ldw	r19,192(sp)
    a450:	dc802f17 	ldw	r18,188(sp)
    a454:	dc402e17 	ldw	r17,184(sp)
    a458:	dc002d17 	ldw	r16,180(sp)
    a45c:	dec03704 	addi	sp,sp,220
    a460:	f800283a 	ret
    a464:	da802117 	ldw	r10,132(sp)
    a468:	dac02017 	ldw	r11,128(sp)
    a46c:	52edc83a 	sub	r22,r10,r11
    a470:	05bf540e 	bge	zero,r22,a1c4 <__alt_data_end+0xf800a1c4>
    a474:	02400404 	movi	r9,16
    a478:	4d812f0e 	bge	r9,r22,a938 <___svfiprintf_internal_r+0x1000>
    a47c:	01400374 	movhi	r5,13
    a480:	296fd204 	addi	r5,r5,-16568
    a484:	d9402215 	stw	r5,136(sp)
    a488:	05c001c4 	movi	r23,7
    a48c:	00000306 	br	a49c <___svfiprintf_internal_r+0xb64>
    a490:	b5bffc04 	addi	r22,r22,-16
    a494:	42000204 	addi	r8,r8,8
    a498:	4d80130e 	bge	r9,r22,a4e8 <___svfiprintf_internal_r+0xbb0>
    a49c:	18c00404 	addi	r3,r3,16
    a4a0:	10800044 	addi	r2,r2,1
    a4a4:	44c00015 	stw	r19,0(r8)
    a4a8:	42400115 	stw	r9,4(r8)
    a4ac:	d8c01c15 	stw	r3,112(sp)
    a4b0:	d8801b15 	stw	r2,108(sp)
    a4b4:	b8bff60e 	bge	r23,r2,a490 <__alt_data_end+0xf800a490>
    a4b8:	9009883a 	mov	r4,r18
    a4bc:	a00b883a 	mov	r5,r20
    a4c0:	d9801a04 	addi	r6,sp,104
    a4c4:	da402c15 	stw	r9,176(sp)
    a4c8:	00097700 	call	9770 <__ssprint_r>
    a4cc:	da402c17 	ldw	r9,176(sp)
    a4d0:	103fd31e 	bne	r2,zero,a420 <__alt_data_end+0xf800a420>
    a4d4:	b5bffc04 	addi	r22,r22,-16
    a4d8:	d8c01c17 	ldw	r3,112(sp)
    a4dc:	d8801b17 	ldw	r2,108(sp)
    a4e0:	d811883a 	mov	r8,sp
    a4e4:	4dbfed16 	blt	r9,r22,a49c <__alt_data_end+0xf800a49c>
    a4e8:	da802217 	ldw	r10,136(sp)
    a4ec:	1d87883a 	add	r3,r3,r22
    a4f0:	10800044 	addi	r2,r2,1
    a4f4:	42800015 	stw	r10,0(r8)
    a4f8:	45800115 	stw	r22,4(r8)
    a4fc:	d8c01c15 	stw	r3,112(sp)
    a500:	d8801b15 	stw	r2,108(sp)
    a504:	010001c4 	movi	r4,7
    a508:	2080ce16 	blt	r4,r2,a844 <___svfiprintf_internal_r+0xf0c>
    a50c:	42000204 	addi	r8,r8,8
    a510:	003f2c06 	br	a1c4 <__alt_data_end+0xf800a1c4>
    a514:	9009883a 	mov	r4,r18
    a518:	a00b883a 	mov	r5,r20
    a51c:	d9801a04 	addi	r6,sp,104
    a520:	00097700 	call	9770 <__ssprint_r>
    a524:	103fbe1e 	bne	r2,zero,a420 <__alt_data_end+0xf800a420>
    a528:	d8c01c17 	ldw	r3,112(sp)
    a52c:	d811883a 	mov	r8,sp
    a530:	003f5606 	br	a28c <__alt_data_end+0xf800a28c>
    a534:	9009883a 	mov	r4,r18
    a538:	a00b883a 	mov	r5,r20
    a53c:	d9801a04 	addi	r6,sp,104
    a540:	00097700 	call	9770 <__ssprint_r>
    a544:	103f8626 	beq	r2,zero,a360 <__alt_data_end+0xf800a360>
    a548:	003fb506 	br	a420 <__alt_data_end+0xf800a420>
    a54c:	10803fcc 	andi	r2,r2,255
    a550:	10003b1e 	bne	r2,zero,a640 <___svfiprintf_internal_r+0xd08>
    a554:	8880004c 	andi	r2,r17,1
    a558:	10007e26 	beq	r2,zero,a754 <___svfiprintf_internal_r+0xe1c>
    a55c:	00800c04 	movi	r2,48
    a560:	d8c019c4 	addi	r3,sp,103
    a564:	d88019c5 	stb	r2,103(sp)
    a568:	df002b17 	ldw	fp,172(sp)
    a56c:	d8c02615 	stw	r3,152(sp)
    a570:	003dc706 	br	9c90 <__alt_data_end+0xf8009c90>
    a574:	00bfffc4 	movi	r2,-1
    a578:	003fae06 	br	a434 <__alt_data_end+0xf800a434>
    a57c:	9009883a 	mov	r4,r18
    a580:	a00b883a 	mov	r5,r20
    a584:	d9801a04 	addi	r6,sp,104
    a588:	00097700 	call	9770 <__ssprint_r>
    a58c:	103fa41e 	bne	r2,zero,a420 <__alt_data_end+0xf800a420>
    a590:	d811883a 	mov	r8,sp
    a594:	003d2406 	br	9a28 <__alt_data_end+0xf8009a28>
    a598:	9009883a 	mov	r4,r18
    a59c:	a00b883a 	mov	r5,r20
    a5a0:	d9801a04 	addi	r6,sp,104
    a5a4:	00097700 	call	9770 <__ssprint_r>
    a5a8:	103f9d1e 	bne	r2,zero,a420 <__alt_data_end+0xf800a420>
    a5ac:	d8c01c17 	ldw	r3,112(sp)
    a5b0:	d8801b17 	ldw	r2,108(sp)
    a5b4:	d811883a 	mov	r8,sp
    a5b8:	003f2a06 	br	a264 <__alt_data_end+0xf800a264>
    a5bc:	d9402a17 	ldw	r5,168(sp)
    a5c0:	d8c01a04 	addi	r3,sp,104
    a5c4:	488003cc 	andi	r2,r9,15
    a5c8:	5008973a 	slli	r4,r10,28
    a5cc:	2885883a 	add	r2,r5,r2
    a5d0:	4812d13a 	srli	r9,r9,4
    a5d4:	10800003 	ldbu	r2,0(r2)
    a5d8:	5014d13a 	srli	r10,r10,4
    a5dc:	18ffffc4 	addi	r3,r3,-1
    a5e0:	2252b03a 	or	r9,r4,r9
    a5e4:	18800005 	stb	r2,0(r3)
    a5e8:	4a84b03a 	or	r2,r9,r10
    a5ec:	103ff51e 	bne	r2,zero,a5c4 <__alt_data_end+0xf800a5c4>
    a5f0:	d8c02615 	stw	r3,152(sp)
    a5f4:	003da406 	br	9c88 <__alt_data_end+0xf8009c88>
    a5f8:	9009883a 	mov	r4,r18
    a5fc:	a00b883a 	mov	r5,r20
    a600:	d9801a04 	addi	r6,sp,104
    a604:	00097700 	call	9770 <__ssprint_r>
    a608:	103f851e 	bne	r2,zero,a420 <__alt_data_end+0xf800a420>
    a60c:	d8c01c17 	ldw	r3,112(sp)
    a610:	d8801b17 	ldw	r2,108(sp)
    a614:	d811883a 	mov	r8,sp
    a618:	003eda06 	br	a184 <__alt_data_end+0xf800a184>
    a61c:	9009883a 	mov	r4,r18
    a620:	a00b883a 	mov	r5,r20
    a624:	d9801a04 	addi	r6,sp,104
    a628:	00097700 	call	9770 <__ssprint_r>
    a62c:	103f7c1e 	bne	r2,zero,a420 <__alt_data_end+0xf800a420>
    a630:	d8c01c17 	ldw	r3,112(sp)
    a634:	d8801b17 	ldw	r2,108(sp)
    a638:	d811883a 	mov	r8,sp
    a63c:	003ede06 	br	a1b8 <__alt_data_end+0xf800a1b8>
    a640:	da801a04 	addi	r10,sp,104
    a644:	da802615 	stw	r10,152(sp)
    a648:	003d9106 	br	9c90 <__alt_data_end+0xf8009c90>
    a64c:	00800084 	movi	r2,2
    a650:	4a86b03a 	or	r3,r9,r10
    a654:	003d7106 	br	9c1c <__alt_data_end+0xf8009c1c>
    a658:	88c0040c 	andi	r3,r17,16
    a65c:	18004f1e 	bne	r3,zero,a79c <___svfiprintf_internal_r+0xe64>
    a660:	88c0100c 	andi	r3,r17,64
    a664:	18004d26 	beq	r3,zero,a79c <___svfiprintf_internal_r+0xe64>
    a668:	dac02317 	ldw	r11,140(sp)
    a66c:	1240000b 	ldhu	r9,0(r2)
    a670:	0015883a 	mov	r10,zero
    a674:	5ac00104 	addi	r11,r11,4
    a678:	dac02315 	stw	r11,140(sp)
    a67c:	00800044 	movi	r2,1
    a680:	4807883a 	mov	r3,r9
    a684:	003d6506 	br	9c1c <__alt_data_end+0xf8009c1c>
    a688:	9009883a 	mov	r4,r18
    a68c:	a00b883a 	mov	r5,r20
    a690:	d9801a04 	addi	r6,sp,104
    a694:	00097700 	call	9770 <__ssprint_r>
    a698:	103f611e 	bne	r2,zero,a420 <__alt_data_end+0xf800a420>
    a69c:	d8c01c17 	ldw	r3,112(sp)
    a6a0:	d8801b17 	ldw	r2,108(sp)
    a6a4:	d811883a 	mov	r8,sp
    a6a8:	003ea906 	br	a150 <__alt_data_end+0xf800a150>
    a6ac:	88c0040c 	andi	r3,r17,16
    a6b0:	1800321e 	bne	r3,zero,a77c <___svfiprintf_internal_r+0xe44>
    a6b4:	88c0100c 	andi	r3,r17,64
    a6b8:	18003026 	beq	r3,zero,a77c <___svfiprintf_internal_r+0xe44>
    a6bc:	dac02317 	ldw	r11,140(sp)
    a6c0:	1240000b 	ldhu	r9,0(r2)
    a6c4:	0015883a 	mov	r10,zero
    a6c8:	5ac00104 	addi	r11,r11,4
    a6cc:	dac02315 	stw	r11,140(sp)
    a6d0:	0005883a 	mov	r2,zero
    a6d4:	4807883a 	mov	r3,r9
    a6d8:	003d5006 	br	9c1c <__alt_data_end+0xf8009c1c>
    a6dc:	10803fcc 	andi	r2,r2,255
    a6e0:	1080201c 	xori	r2,r2,128
    a6e4:	10bfe004 	addi	r2,r2,-128
    a6e8:	01000c04 	movi	r4,48
    a6ec:	11006826 	beq	r2,r4,a890 <___svfiprintf_internal_r+0xf58>
    a6f0:	da802617 	ldw	r10,152(sp)
    a6f4:	d8801e17 	ldw	r2,120(sp)
    a6f8:	193fffc5 	stb	r4,-1(r3)
    a6fc:	52bfffc4 	addi	r10,r10,-1
    a700:	da802615 	stw	r10,152(sp)
    a704:	12b9c83a 	sub	fp,r2,r10
    a708:	003d6106 	br	9c90 <__alt_data_end+0xf8009c90>
    a70c:	00800244 	movi	r2,9
    a710:	127f1d36 	bltu	r2,r9,a388 <__alt_data_end+0xf800a388>
    a714:	4a400c04 	addi	r9,r9,48
    a718:	d8c019c4 	addi	r3,sp,103
    a71c:	da4019c5 	stb	r9,103(sp)
    a720:	df002b17 	ldw	fp,172(sp)
    a724:	d8c02615 	stw	r3,152(sp)
    a728:	003d5906 	br	9c90 <__alt_data_end+0xf8009c90>
    a72c:	d8802315 	stw	r2,140(sp)
    a730:	a9000007 	ldb	r4,0(r21)
    a734:	003ccc06 	br	9a68 <__alt_data_end+0xf8009a68>
    a738:	9009883a 	mov	r4,r18
    a73c:	a00b883a 	mov	r5,r20
    a740:	d9801a04 	addi	r6,sp,104
    a744:	00097700 	call	9770 <__ssprint_r>
    a748:	103f351e 	bne	r2,zero,a420 <__alt_data_end+0xf800a420>
    a74c:	d8c01c17 	ldw	r3,112(sp)
    a750:	003efb06 	br	a340 <__alt_data_end+0xf800a340>
    a754:	d8c01a04 	addi	r3,sp,104
    a758:	d8c02615 	stw	r3,152(sp)
    a75c:	003d4c06 	br	9c90 <__alt_data_end+0xf8009c90>
    a760:	da802317 	ldw	r10,140(sp)
    a764:	1a400017 	ldw	r9,0(r3)
    a768:	52800104 	addi	r10,r10,4
    a76c:	da802315 	stw	r10,140(sp)
    a770:	4815d7fa 	srai	r10,r9,31
    a774:	5005883a 	mov	r2,r10
    a778:	003d9d06 	br	9df0 <__alt_data_end+0xf8009df0>
    a77c:	da802317 	ldw	r10,140(sp)
    a780:	12400017 	ldw	r9,0(r2)
    a784:	0005883a 	mov	r2,zero
    a788:	52800104 	addi	r10,r10,4
    a78c:	da802315 	stw	r10,140(sp)
    a790:	4807883a 	mov	r3,r9
    a794:	0015883a 	mov	r10,zero
    a798:	003d2006 	br	9c1c <__alt_data_end+0xf8009c1c>
    a79c:	da802317 	ldw	r10,140(sp)
    a7a0:	12400017 	ldw	r9,0(r2)
    a7a4:	00800044 	movi	r2,1
    a7a8:	52800104 	addi	r10,r10,4
    a7ac:	da802315 	stw	r10,140(sp)
    a7b0:	4807883a 	mov	r3,r9
    a7b4:	0015883a 	mov	r10,zero
    a7b8:	003d1806 	br	9c1c <__alt_data_end+0xf8009c1c>
    a7bc:	dac02317 	ldw	r11,140(sp)
    a7c0:	12400017 	ldw	r9,0(r2)
    a7c4:	0015883a 	mov	r10,zero
    a7c8:	5ac00104 	addi	r11,r11,4
    a7cc:	dac02315 	stw	r11,140(sp)
    a7d0:	003dde06 	br	9f4c <__alt_data_end+0xf8009f4c>
    a7d4:	a9000007 	ldb	r4,0(r21)
    a7d8:	003ca306 	br	9a68 <__alt_data_end+0xf8009a68>
    a7dc:	dac02317 	ldw	r11,140(sp)
    a7e0:	da802417 	ldw	r10,144(sp)
    a7e4:	58800017 	ldw	r2,0(r11)
    a7e8:	5007d7fa 	srai	r3,r10,31
    a7ec:	5ac00104 	addi	r11,r11,4
    a7f0:	dac02315 	stw	r11,140(sp)
    a7f4:	12800015 	stw	r10,0(r2)
    a7f8:	10c00115 	stw	r3,4(r2)
    a7fc:	003c7206 	br	99c8 <__alt_data_end+0xf80099c8>
    a800:	00800c04 	movi	r2,48
    a804:	d8801d05 	stb	r2,116(sp)
    a808:	d9001d45 	stb	r4,117(sp)
    a80c:	8c400094 	ori	r17,r17,2
    a810:	00800084 	movi	r2,2
    a814:	003d0106 	br	9c1c <__alt_data_end+0xf8009c1c>
    a818:	ad400044 	addi	r21,r21,1
    a81c:	8c400814 	ori	r17,r17,32
    a820:	11000047 	ldb	r4,1(r2)
    a824:	003c9006 	br	9a68 <__alt_data_end+0xf8009a68>
    a828:	dac02317 	ldw	r11,140(sp)
    a82c:	da802417 	ldw	r10,144(sp)
    a830:	58800017 	ldw	r2,0(r11)
    a834:	5ac00104 	addi	r11,r11,4
    a838:	dac02315 	stw	r11,140(sp)
    a83c:	12800015 	stw	r10,0(r2)
    a840:	003c6106 	br	99c8 <__alt_data_end+0xf80099c8>
    a844:	9009883a 	mov	r4,r18
    a848:	a00b883a 	mov	r5,r20
    a84c:	d9801a04 	addi	r6,sp,104
    a850:	00097700 	call	9770 <__ssprint_r>
    a854:	103ef21e 	bne	r2,zero,a420 <__alt_data_end+0xf800a420>
    a858:	d8c01c17 	ldw	r3,112(sp)
    a85c:	d8801b17 	ldw	r2,108(sp)
    a860:	d811883a 	mov	r8,sp
    a864:	003e5706 	br	a1c4 <__alt_data_end+0xf800a1c4>
    a868:	02c00374 	movhi	r11,13
    a86c:	5aefd204 	addi	r11,r11,-16568
    a870:	dac02215 	stw	r11,136(sp)
    a874:	003e7106 	br	a23c <__alt_data_end+0xf800a23c>
    a878:	dac02317 	ldw	r11,140(sp)
    a87c:	12400017 	ldw	r9,0(r2)
    a880:	0015883a 	mov	r10,zero
    a884:	5ac00104 	addi	r11,r11,4
    a888:	dac02315 	stw	r11,140(sp)
    a88c:	003daf06 	br	9f4c <__alt_data_end+0xf8009f4c>
    a890:	da801e17 	ldw	r10,120(sp)
    a894:	d8c02617 	ldw	r3,152(sp)
    a898:	50f9c83a 	sub	fp,r10,r3
    a89c:	003cfc06 	br	9c90 <__alt_data_end+0xf8009c90>
    a8a0:	da002c15 	stw	r8,176(sp)
    a8a4:	00046680 	call	4668 <strlen>
    a8a8:	1039883a 	mov	fp,r2
    a8ac:	dac01d83 	ldbu	r11,118(sp)
    a8b0:	ddc02315 	stw	r23,140(sp)
    a8b4:	0021883a 	mov	r16,zero
    a8b8:	da002c17 	ldw	r8,176(sp)
    a8bc:	003cf406 	br	9c90 <__alt_data_end+0xf8009c90>
    a8c0:	04001004 	movi	r16,64
    a8c4:	800b883a 	mov	r5,r16
    a8c8:	0003da80 	call	3da8 <_malloc_r>
    a8cc:	da802717 	ldw	r10,156(sp)
    a8d0:	50800015 	stw	r2,0(r10)
    a8d4:	50800415 	stw	r2,16(r10)
    a8d8:	10002c26 	beq	r2,zero,a98c <___svfiprintf_internal_r+0x1054>
    a8dc:	da802717 	ldw	r10,156(sp)
    a8e0:	54000515 	stw	r16,20(r10)
    a8e4:	003c2806 	br	9988 <__alt_data_end+0xf8009988>
    a8e8:	00800184 	movi	r2,6
    a8ec:	1400012e 	bgeu	r2,r16,a8f4 <___svfiprintf_internal_r+0xfbc>
    a8f0:	1021883a 	mov	r16,r2
    a8f4:	8039883a 	mov	fp,r16
    a8f8:	802d883a 	mov	r22,r16
    a8fc:	80001716 	blt	r16,zero,a95c <___svfiprintf_internal_r+0x1024>
    a900:	00800374 	movhi	r2,13
    a904:	10af7604 	addi	r2,r2,-16936
    a908:	dd802015 	stw	r22,128(sp)
    a90c:	ddc02315 	stw	r23,140(sp)
    a910:	d8802615 	stw	r2,152(sp)
    a914:	003d4706 	br	9e34 <__alt_data_end+0xf8009e34>
    a918:	01000374 	movhi	r4,13
    a91c:	212fd604 	addi	r4,r4,-16552
    a920:	d9002815 	stw	r4,160(sp)
    a924:	003d7206 	br	9ef0 <__alt_data_end+0xf8009ef0>
    a928:	01000374 	movhi	r4,13
    a92c:	212fd604 	addi	r4,r4,-16552
    a930:	d9002815 	stw	r4,160(sp)
    a934:	003e7906 	br	a31c <__alt_data_end+0xf800a31c>
    a938:	01000374 	movhi	r4,13
    a93c:	212fd204 	addi	r4,r4,-16568
    a940:	d9002215 	stw	r4,136(sp)
    a944:	003ee806 	br	a4e8 <__alt_data_end+0xf800a4e8>
    a948:	8039883a 	mov	fp,r16
    a94c:	dac01d83 	ldbu	r11,118(sp)
    a950:	ddc02315 	stw	r23,140(sp)
    a954:	0021883a 	mov	r16,zero
    a958:	003ccd06 	br	9c90 <__alt_data_end+0xf8009c90>
    a95c:	002d883a 	mov	r22,zero
    a960:	003fe706 	br	a900 <__alt_data_end+0xf800a900>
    a964:	dac02317 	ldw	r11,140(sp)
    a968:	a805883a 	mov	r2,r21
    a96c:	502b883a 	mov	r21,r10
    a970:	5c000017 	ldw	r16,0(r11)
    a974:	59000104 	addi	r4,r11,4
    a978:	d9002315 	stw	r4,140(sp)
    a97c:	803fa80e 	bge	r16,zero,a820 <__alt_data_end+0xf800a820>
    a980:	043fffc4 	movi	r16,-1
    a984:	11000047 	ldb	r4,1(r2)
    a988:	003c3706 	br	9a68 <__alt_data_end+0xf8009a68>
    a98c:	dac02917 	ldw	r11,164(sp)
    a990:	00800304 	movi	r2,12
    a994:	58800015 	stw	r2,0(r11)
    a998:	00bfffc4 	movi	r2,-1
    a99c:	003ea506 	br	a434 <__alt_data_end+0xf800a434>

0000a9a0 <_calloc_r>:
    a9a0:	298b383a 	mul	r5,r5,r6
    a9a4:	defffe04 	addi	sp,sp,-8
    a9a8:	dc000015 	stw	r16,0(sp)
    a9ac:	dfc00115 	stw	ra,4(sp)
    a9b0:	0003da80 	call	3da8 <_malloc_r>
    a9b4:	1021883a 	mov	r16,r2
    a9b8:	10002826 	beq	r2,zero,aa5c <_calloc_r+0xbc>
    a9bc:	11bfff17 	ldw	r6,-4(r2)
    a9c0:	00bfff04 	movi	r2,-4
    a9c4:	00c00904 	movi	r3,36
    a9c8:	308c703a 	and	r6,r6,r2
    a9cc:	308d883a 	add	r6,r6,r2
    a9d0:	19801436 	bltu	r3,r6,aa24 <_calloc_r+0x84>
    a9d4:	008004c4 	movi	r2,19
    a9d8:	11800936 	bltu	r2,r6,aa00 <_calloc_r+0x60>
    a9dc:	8005883a 	mov	r2,r16
    a9e0:	10000015 	stw	zero,0(r2)
    a9e4:	10000115 	stw	zero,4(r2)
    a9e8:	10000215 	stw	zero,8(r2)
    a9ec:	8005883a 	mov	r2,r16
    a9f0:	dfc00117 	ldw	ra,4(sp)
    a9f4:	dc000017 	ldw	r16,0(sp)
    a9f8:	dec00204 	addi	sp,sp,8
    a9fc:	f800283a 	ret
    aa00:	80000015 	stw	zero,0(r16)
    aa04:	80000115 	stw	zero,4(r16)
    aa08:	008006c4 	movi	r2,27
    aa0c:	11800d2e 	bgeu	r2,r6,aa44 <_calloc_r+0xa4>
    aa10:	80000215 	stw	zero,8(r16)
    aa14:	80000315 	stw	zero,12(r16)
    aa18:	30c00c26 	beq	r6,r3,aa4c <_calloc_r+0xac>
    aa1c:	80800404 	addi	r2,r16,16
    aa20:	003fef06 	br	a9e0 <__alt_data_end+0xf800a9e0>
    aa24:	8009883a 	mov	r4,r16
    aa28:	000b883a 	mov	r5,zero
    aa2c:	000abc00 	call	abc0 <memset>
    aa30:	8005883a 	mov	r2,r16
    aa34:	dfc00117 	ldw	ra,4(sp)
    aa38:	dc000017 	ldw	r16,0(sp)
    aa3c:	dec00204 	addi	sp,sp,8
    aa40:	f800283a 	ret
    aa44:	80800204 	addi	r2,r16,8
    aa48:	003fe506 	br	a9e0 <__alt_data_end+0xf800a9e0>
    aa4c:	80000415 	stw	zero,16(r16)
    aa50:	80800604 	addi	r2,r16,24
    aa54:	80000515 	stw	zero,20(r16)
    aa58:	003fe106 	br	a9e0 <__alt_data_end+0xf800a9e0>
    aa5c:	0005883a 	mov	r2,zero
    aa60:	003fe306 	br	a9f0 <__alt_data_end+0xf800a9f0>

0000aa64 <memmove>:
    aa64:	2005883a 	mov	r2,r4
    aa68:	29000b2e 	bgeu	r5,r4,aa98 <memmove+0x34>
    aa6c:	298f883a 	add	r7,r5,r6
    aa70:	21c0092e 	bgeu	r4,r7,aa98 <memmove+0x34>
    aa74:	2187883a 	add	r3,r4,r6
    aa78:	198bc83a 	sub	r5,r3,r6
    aa7c:	30004b26 	beq	r6,zero,abac <memmove+0x148>
    aa80:	39ffffc4 	addi	r7,r7,-1
    aa84:	39000003 	ldbu	r4,0(r7)
    aa88:	18ffffc4 	addi	r3,r3,-1
    aa8c:	19000005 	stb	r4,0(r3)
    aa90:	197ffb1e 	bne	r3,r5,aa80 <__alt_data_end+0xf800aa80>
    aa94:	f800283a 	ret
    aa98:	00c003c4 	movi	r3,15
    aa9c:	1980412e 	bgeu	r3,r6,aba4 <memmove+0x140>
    aaa0:	1146b03a 	or	r3,r2,r5
    aaa4:	18c000cc 	andi	r3,r3,3
    aaa8:	1800411e 	bne	r3,zero,abb0 <memmove+0x14c>
    aaac:	33fffc04 	addi	r15,r6,-16
    aab0:	781ed13a 	srli	r15,r15,4
    aab4:	28c00104 	addi	r3,r5,4
    aab8:	13400104 	addi	r13,r2,4
    aabc:	781c913a 	slli	r14,r15,4
    aac0:	2b000204 	addi	r12,r5,8
    aac4:	12c00204 	addi	r11,r2,8
    aac8:	73800504 	addi	r14,r14,20
    aacc:	2a800304 	addi	r10,r5,12
    aad0:	12400304 	addi	r9,r2,12
    aad4:	2b9d883a 	add	r14,r5,r14
    aad8:	2811883a 	mov	r8,r5
    aadc:	100f883a 	mov	r7,r2
    aae0:	41000017 	ldw	r4,0(r8)
    aae4:	39c00404 	addi	r7,r7,16
    aae8:	18c00404 	addi	r3,r3,16
    aaec:	393ffc15 	stw	r4,-16(r7)
    aaf0:	193ffc17 	ldw	r4,-16(r3)
    aaf4:	6b400404 	addi	r13,r13,16
    aaf8:	5ac00404 	addi	r11,r11,16
    aafc:	693ffc15 	stw	r4,-16(r13)
    ab00:	61000017 	ldw	r4,0(r12)
    ab04:	4a400404 	addi	r9,r9,16
    ab08:	42000404 	addi	r8,r8,16
    ab0c:	593ffc15 	stw	r4,-16(r11)
    ab10:	51000017 	ldw	r4,0(r10)
    ab14:	63000404 	addi	r12,r12,16
    ab18:	52800404 	addi	r10,r10,16
    ab1c:	493ffc15 	stw	r4,-16(r9)
    ab20:	1bbfef1e 	bne	r3,r14,aae0 <__alt_data_end+0xf800aae0>
    ab24:	79000044 	addi	r4,r15,1
    ab28:	2008913a 	slli	r4,r4,4
    ab2c:	328003cc 	andi	r10,r6,15
    ab30:	02c000c4 	movi	r11,3
    ab34:	1107883a 	add	r3,r2,r4
    ab38:	290b883a 	add	r5,r5,r4
    ab3c:	5a801e2e 	bgeu	r11,r10,abb8 <memmove+0x154>
    ab40:	1813883a 	mov	r9,r3
    ab44:	2811883a 	mov	r8,r5
    ab48:	500f883a 	mov	r7,r10
    ab4c:	41000017 	ldw	r4,0(r8)
    ab50:	4a400104 	addi	r9,r9,4
    ab54:	39ffff04 	addi	r7,r7,-4
    ab58:	493fff15 	stw	r4,-4(r9)
    ab5c:	42000104 	addi	r8,r8,4
    ab60:	59fffa36 	bltu	r11,r7,ab4c <__alt_data_end+0xf800ab4c>
    ab64:	513fff04 	addi	r4,r10,-4
    ab68:	2008d0ba 	srli	r4,r4,2
    ab6c:	318000cc 	andi	r6,r6,3
    ab70:	21000044 	addi	r4,r4,1
    ab74:	2109883a 	add	r4,r4,r4
    ab78:	2109883a 	add	r4,r4,r4
    ab7c:	1907883a 	add	r3,r3,r4
    ab80:	290b883a 	add	r5,r5,r4
    ab84:	30000926 	beq	r6,zero,abac <memmove+0x148>
    ab88:	198d883a 	add	r6,r3,r6
    ab8c:	29c00003 	ldbu	r7,0(r5)
    ab90:	18c00044 	addi	r3,r3,1
    ab94:	29400044 	addi	r5,r5,1
    ab98:	19ffffc5 	stb	r7,-1(r3)
    ab9c:	19bffb1e 	bne	r3,r6,ab8c <__alt_data_end+0xf800ab8c>
    aba0:	f800283a 	ret
    aba4:	1007883a 	mov	r3,r2
    aba8:	003ff606 	br	ab84 <__alt_data_end+0xf800ab84>
    abac:	f800283a 	ret
    abb0:	1007883a 	mov	r3,r2
    abb4:	003ff406 	br	ab88 <__alt_data_end+0xf800ab88>
    abb8:	500d883a 	mov	r6,r10
    abbc:	003ff106 	br	ab84 <__alt_data_end+0xf800ab84>

0000abc0 <memset>:
    abc0:	20c000cc 	andi	r3,r4,3
    abc4:	2005883a 	mov	r2,r4
    abc8:	18004326 	beq	r3,zero,acd8 <memset+0x118>
    abcc:	31ffffc4 	addi	r7,r6,-1
    abd0:	30004026 	beq	r6,zero,acd4 <memset+0x114>
    abd4:	2813883a 	mov	r9,r5
    abd8:	200d883a 	mov	r6,r4
    abdc:	2007883a 	mov	r3,r4
    abe0:	00000406 	br	abf4 <memset+0x34>
    abe4:	3a3fffc4 	addi	r8,r7,-1
    abe8:	31800044 	addi	r6,r6,1
    abec:	38003926 	beq	r7,zero,acd4 <memset+0x114>
    abf0:	400f883a 	mov	r7,r8
    abf4:	18c00044 	addi	r3,r3,1
    abf8:	32400005 	stb	r9,0(r6)
    abfc:	1a0000cc 	andi	r8,r3,3
    ac00:	403ff81e 	bne	r8,zero,abe4 <__alt_data_end+0xf800abe4>
    ac04:	010000c4 	movi	r4,3
    ac08:	21c02d2e 	bgeu	r4,r7,acc0 <memset+0x100>
    ac0c:	29803fcc 	andi	r6,r5,255
    ac10:	3008923a 	slli	r4,r6,8
    ac14:	218cb03a 	or	r6,r4,r6
    ac18:	3008943a 	slli	r4,r6,16
    ac1c:	218cb03a 	or	r6,r4,r6
    ac20:	010003c4 	movi	r4,15
    ac24:	21c0182e 	bgeu	r4,r7,ac88 <memset+0xc8>
    ac28:	3b3ffc04 	addi	r12,r7,-16
    ac2c:	6018d13a 	srli	r12,r12,4
    ac30:	1a000104 	addi	r8,r3,4
    ac34:	1ac00204 	addi	r11,r3,8
    ac38:	6008913a 	slli	r4,r12,4
    ac3c:	1a800304 	addi	r10,r3,12
    ac40:	1813883a 	mov	r9,r3
    ac44:	21000504 	addi	r4,r4,20
    ac48:	1909883a 	add	r4,r3,r4
    ac4c:	49800015 	stw	r6,0(r9)
    ac50:	41800015 	stw	r6,0(r8)
    ac54:	59800015 	stw	r6,0(r11)
    ac58:	51800015 	stw	r6,0(r10)
    ac5c:	42000404 	addi	r8,r8,16
    ac60:	4a400404 	addi	r9,r9,16
    ac64:	5ac00404 	addi	r11,r11,16
    ac68:	52800404 	addi	r10,r10,16
    ac6c:	413ff71e 	bne	r8,r4,ac4c <__alt_data_end+0xf800ac4c>
    ac70:	63000044 	addi	r12,r12,1
    ac74:	6018913a 	slli	r12,r12,4
    ac78:	39c003cc 	andi	r7,r7,15
    ac7c:	010000c4 	movi	r4,3
    ac80:	1b07883a 	add	r3,r3,r12
    ac84:	21c00e2e 	bgeu	r4,r7,acc0 <memset+0x100>
    ac88:	1813883a 	mov	r9,r3
    ac8c:	3811883a 	mov	r8,r7
    ac90:	010000c4 	movi	r4,3
    ac94:	49800015 	stw	r6,0(r9)
    ac98:	423fff04 	addi	r8,r8,-4
    ac9c:	4a400104 	addi	r9,r9,4
    aca0:	223ffc36 	bltu	r4,r8,ac94 <__alt_data_end+0xf800ac94>
    aca4:	393fff04 	addi	r4,r7,-4
    aca8:	2008d0ba 	srli	r4,r4,2
    acac:	39c000cc 	andi	r7,r7,3
    acb0:	21000044 	addi	r4,r4,1
    acb4:	2109883a 	add	r4,r4,r4
    acb8:	2109883a 	add	r4,r4,r4
    acbc:	1907883a 	add	r3,r3,r4
    acc0:	38000426 	beq	r7,zero,acd4 <memset+0x114>
    acc4:	19cf883a 	add	r7,r3,r7
    acc8:	19400005 	stb	r5,0(r3)
    accc:	18c00044 	addi	r3,r3,1
    acd0:	19fffd1e 	bne	r3,r7,acc8 <__alt_data_end+0xf800acc8>
    acd4:	f800283a 	ret
    acd8:	2007883a 	mov	r3,r4
    acdc:	300f883a 	mov	r7,r6
    ace0:	003fc806 	br	ac04 <__alt_data_end+0xf800ac04>

0000ace4 <_realloc_r>:
    ace4:	defff604 	addi	sp,sp,-40
    ace8:	dcc00315 	stw	r19,12(sp)
    acec:	dc400115 	stw	r17,4(sp)
    acf0:	dfc00915 	stw	ra,36(sp)
    acf4:	df000815 	stw	fp,32(sp)
    acf8:	ddc00715 	stw	r23,28(sp)
    acfc:	dd800615 	stw	r22,24(sp)
    ad00:	dd400515 	stw	r21,20(sp)
    ad04:	dd000415 	stw	r20,16(sp)
    ad08:	dc800215 	stw	r18,8(sp)
    ad0c:	dc000015 	stw	r16,0(sp)
    ad10:	2827883a 	mov	r19,r5
    ad14:	3023883a 	mov	r17,r6
    ad18:	2800bf26 	beq	r5,zero,b018 <_realloc_r+0x334>
    ad1c:	2025883a 	mov	r18,r4
    ad20:	000e5300 	call	e530 <__malloc_lock>
    ad24:	98ffff17 	ldw	r3,-4(r19)
    ad28:	01bfff04 	movi	r6,-4
    ad2c:	890002c4 	addi	r4,r17,11
    ad30:	01c00584 	movi	r7,22
    ad34:	9d7ffe04 	addi	r21,r19,-8
    ad38:	19a0703a 	and	r16,r3,r6
    ad3c:	39003f2e 	bgeu	r7,r4,ae3c <_realloc_r+0x158>
    ad40:	053ffe04 	movi	r20,-8
    ad44:	2528703a 	and	r20,r4,r20
    ad48:	a00f883a 	mov	r7,r20
    ad4c:	a0008216 	blt	r20,zero,af58 <_realloc_r+0x274>
    ad50:	a4408136 	bltu	r20,r17,af58 <_realloc_r+0x274>
    ad54:	81c03c0e 	bge	r16,r7,ae48 <_realloc_r+0x164>
    ad58:	07000374 	movhi	fp,13
    ad5c:	e7304a04 	addi	fp,fp,-16088
    ad60:	e1000217 	ldw	r4,8(fp)
    ad64:	ac05883a 	add	r2,r21,r16
    ad68:	2080bf26 	beq	r4,r2,b068 <_realloc_r+0x384>
    ad6c:	11000117 	ldw	r4,4(r2)
    ad70:	023fff84 	movi	r8,-2
    ad74:	2210703a 	and	r8,r4,r8
    ad78:	1211883a 	add	r8,r2,r8
    ad7c:	41400117 	ldw	r5,4(r8)
    ad80:	2940004c 	andi	r5,r5,1
    ad84:	28004a1e 	bne	r5,zero,aeb0 <_realloc_r+0x1cc>
    ad88:	017fff04 	movi	r5,-4
    ad8c:	2148703a 	and	r4,r4,r5
    ad90:	2409883a 	add	r4,r4,r16
    ad94:	21c0ad0e 	bge	r4,r7,b04c <_realloc_r+0x368>
    ad98:	18c0004c 	andi	r3,r3,1
    ad9c:	18007f1e 	bne	r3,zero,af9c <_realloc_r+0x2b8>
    ada0:	9dfffe17 	ldw	r23,-8(r19)
    ada4:	adefc83a 	sub	r23,r21,r23
    ada8:	bd800117 	ldw	r22,4(r23)
    adac:	b14a703a 	and	r5,r22,r5
    adb0:	216d883a 	add	r22,r4,r5
    adb4:	b1c04516 	blt	r22,r7,aecc <_realloc_r+0x1e8>
    adb8:	10c00317 	ldw	r3,12(r2)
    adbc:	10800217 	ldw	r2,8(r2)
    adc0:	81bfff04 	addi	r6,r16,-4
    adc4:	bc400204 	addi	r17,r23,8
    adc8:	10c00315 	stw	r3,12(r2)
    adcc:	18800215 	stw	r2,8(r3)
    add0:	b9400217 	ldw	r5,8(r23)
    add4:	b8c00317 	ldw	r3,12(r23)
    add8:	00800904 	movi	r2,36
    addc:	28c00315 	stw	r3,12(r5)
    ade0:	19400215 	stw	r5,8(r3)
    ade4:	1180ef36 	bltu	r2,r6,b1a4 <_realloc_r+0x4c0>
    ade8:	008004c4 	movi	r2,19
    adec:	1180da2e 	bgeu	r2,r6,b158 <_realloc_r+0x474>
    adf0:	98800017 	ldw	r2,0(r19)
    adf4:	b8800215 	stw	r2,8(r23)
    adf8:	98800117 	ldw	r2,4(r19)
    adfc:	b8800315 	stw	r2,12(r23)
    ae00:	008006c4 	movi	r2,27
    ae04:	1180fc2e 	bgeu	r2,r6,b1f8 <_realloc_r+0x514>
    ae08:	98800217 	ldw	r2,8(r19)
    ae0c:	b8800415 	stw	r2,16(r23)
    ae10:	98800317 	ldw	r2,12(r19)
    ae14:	b8800515 	stw	r2,20(r23)
    ae18:	00800904 	movi	r2,36
    ae1c:	3080421e 	bne	r6,r2,af28 <_realloc_r+0x244>
    ae20:	98800417 	ldw	r2,16(r19)
    ae24:	9cc00604 	addi	r19,r19,24
    ae28:	b8c00804 	addi	r3,r23,32
    ae2c:	b8800615 	stw	r2,24(r23)
    ae30:	98bfff17 	ldw	r2,-4(r19)
    ae34:	b8800715 	stw	r2,28(r23)
    ae38:	00003d06 	br	af30 <_realloc_r+0x24c>
    ae3c:	01c00404 	movi	r7,16
    ae40:	3829883a 	mov	r20,r7
    ae44:	003fc206 	br	ad50 <__alt_data_end+0xf800ad50>
    ae48:	9823883a 	mov	r17,r19
    ae4c:	850fc83a 	sub	r7,r16,r20
    ae50:	008003c4 	movi	r2,15
    ae54:	18c0004c 	andi	r3,r3,1
    ae58:	11c04336 	bltu	r2,r7,af68 <_realloc_r+0x284>
    ae5c:	1c06b03a 	or	r3,r3,r16
    ae60:	a8c00115 	stw	r3,4(r21)
    ae64:	ac21883a 	add	r16,r21,r16
    ae68:	80c00117 	ldw	r3,4(r16)
    ae6c:	18c00054 	ori	r3,r3,1
    ae70:	80c00115 	stw	r3,4(r16)
    ae74:	9009883a 	mov	r4,r18
    ae78:	000e5500 	call	e550 <__malloc_unlock>
    ae7c:	8805883a 	mov	r2,r17
    ae80:	dfc00917 	ldw	ra,36(sp)
    ae84:	df000817 	ldw	fp,32(sp)
    ae88:	ddc00717 	ldw	r23,28(sp)
    ae8c:	dd800617 	ldw	r22,24(sp)
    ae90:	dd400517 	ldw	r21,20(sp)
    ae94:	dd000417 	ldw	r20,16(sp)
    ae98:	dcc00317 	ldw	r19,12(sp)
    ae9c:	dc800217 	ldw	r18,8(sp)
    aea0:	dc400117 	ldw	r17,4(sp)
    aea4:	dc000017 	ldw	r16,0(sp)
    aea8:	dec00a04 	addi	sp,sp,40
    aeac:	f800283a 	ret
    aeb0:	18c0004c 	andi	r3,r3,1
    aeb4:	1800391e 	bne	r3,zero,af9c <_realloc_r+0x2b8>
    aeb8:	9dfffe17 	ldw	r23,-8(r19)
    aebc:	00bfff04 	movi	r2,-4
    aec0:	adefc83a 	sub	r23,r21,r23
    aec4:	b9400117 	ldw	r5,4(r23)
    aec8:	288a703a 	and	r5,r5,r2
    aecc:	2c2d883a 	add	r22,r5,r16
    aed0:	b1c03216 	blt	r22,r7,af9c <_realloc_r+0x2b8>
    aed4:	b8800317 	ldw	r2,12(r23)
    aed8:	b8c00217 	ldw	r3,8(r23)
    aedc:	81bfff04 	addi	r6,r16,-4
    aee0:	01000904 	movi	r4,36
    aee4:	18800315 	stw	r2,12(r3)
    aee8:	10c00215 	stw	r3,8(r2)
    aeec:	bc400204 	addi	r17,r23,8
    aef0:	2180ac36 	bltu	r4,r6,b1a4 <_realloc_r+0x4c0>
    aef4:	008004c4 	movi	r2,19
    aef8:	1180972e 	bgeu	r2,r6,b158 <_realloc_r+0x474>
    aefc:	98800017 	ldw	r2,0(r19)
    af00:	b8800215 	stw	r2,8(r23)
    af04:	98800117 	ldw	r2,4(r19)
    af08:	b8800315 	stw	r2,12(r23)
    af0c:	008006c4 	movi	r2,27
    af10:	1180b92e 	bgeu	r2,r6,b1f8 <_realloc_r+0x514>
    af14:	98800217 	ldw	r2,8(r19)
    af18:	b8800415 	stw	r2,16(r23)
    af1c:	98800317 	ldw	r2,12(r19)
    af20:	b8800515 	stw	r2,20(r23)
    af24:	313fbe26 	beq	r6,r4,ae20 <__alt_data_end+0xf800ae20>
    af28:	b8c00604 	addi	r3,r23,24
    af2c:	9cc00404 	addi	r19,r19,16
    af30:	98800017 	ldw	r2,0(r19)
    af34:	b021883a 	mov	r16,r22
    af38:	b82b883a 	mov	r21,r23
    af3c:	18800015 	stw	r2,0(r3)
    af40:	98800117 	ldw	r2,4(r19)
    af44:	18800115 	stw	r2,4(r3)
    af48:	98800217 	ldw	r2,8(r19)
    af4c:	18800215 	stw	r2,8(r3)
    af50:	b8c00117 	ldw	r3,4(r23)
    af54:	003fbd06 	br	ae4c <__alt_data_end+0xf800ae4c>
    af58:	00800304 	movi	r2,12
    af5c:	90800015 	stw	r2,0(r18)
    af60:	0005883a 	mov	r2,zero
    af64:	003fc606 	br	ae80 <__alt_data_end+0xf800ae80>
    af68:	1d06b03a 	or	r3,r3,r20
    af6c:	ad0b883a 	add	r5,r21,r20
    af70:	a8c00115 	stw	r3,4(r21)
    af74:	38800054 	ori	r2,r7,1
    af78:	28800115 	stw	r2,4(r5)
    af7c:	29cf883a 	add	r7,r5,r7
    af80:	38800117 	ldw	r2,4(r7)
    af84:	9009883a 	mov	r4,r18
    af88:	29400204 	addi	r5,r5,8
    af8c:	10800054 	ori	r2,r2,1
    af90:	38800115 	stw	r2,4(r7)
    af94:	00080dc0 	call	80dc <_free_r>
    af98:	003fb606 	br	ae74 <__alt_data_end+0xf800ae74>
    af9c:	880b883a 	mov	r5,r17
    afa0:	9009883a 	mov	r4,r18
    afa4:	0003da80 	call	3da8 <_malloc_r>
    afa8:	1023883a 	mov	r17,r2
    afac:	1000aa26 	beq	r2,zero,b258 <_realloc_r+0x574>
    afb0:	98ffff17 	ldw	r3,-4(r19)
    afb4:	113ffe04 	addi	r4,r2,-8
    afb8:	00bfff84 	movi	r2,-2
    afbc:	1884703a 	and	r2,r3,r2
    afc0:	a885883a 	add	r2,r21,r2
    afc4:	20808626 	beq	r4,r2,b1e0 <_realloc_r+0x4fc>
    afc8:	81bfff04 	addi	r6,r16,-4
    afcc:	00800904 	movi	r2,36
    afd0:	11807036 	bltu	r2,r6,b194 <_realloc_r+0x4b0>
    afd4:	00c004c4 	movi	r3,19
    afd8:	19805636 	bltu	r3,r6,b134 <_realloc_r+0x450>
    afdc:	8805883a 	mov	r2,r17
    afe0:	9807883a 	mov	r3,r19
    afe4:	19000017 	ldw	r4,0(r3)
    afe8:	11000015 	stw	r4,0(r2)
    afec:	19000117 	ldw	r4,4(r3)
    aff0:	11000115 	stw	r4,4(r2)
    aff4:	18c00217 	ldw	r3,8(r3)
    aff8:	10c00215 	stw	r3,8(r2)
    affc:	980b883a 	mov	r5,r19
    b000:	9009883a 	mov	r4,r18
    b004:	00080dc0 	call	80dc <_free_r>
    b008:	9009883a 	mov	r4,r18
    b00c:	000e5500 	call	e550 <__malloc_unlock>
    b010:	8805883a 	mov	r2,r17
    b014:	003f9a06 	br	ae80 <__alt_data_end+0xf800ae80>
    b018:	300b883a 	mov	r5,r6
    b01c:	dfc00917 	ldw	ra,36(sp)
    b020:	df000817 	ldw	fp,32(sp)
    b024:	ddc00717 	ldw	r23,28(sp)
    b028:	dd800617 	ldw	r22,24(sp)
    b02c:	dd400517 	ldw	r21,20(sp)
    b030:	dd000417 	ldw	r20,16(sp)
    b034:	dcc00317 	ldw	r19,12(sp)
    b038:	dc800217 	ldw	r18,8(sp)
    b03c:	dc400117 	ldw	r17,4(sp)
    b040:	dc000017 	ldw	r16,0(sp)
    b044:	dec00a04 	addi	sp,sp,40
    b048:	0003da81 	jmpi	3da8 <_malloc_r>
    b04c:	11400317 	ldw	r5,12(r2)
    b050:	10800217 	ldw	r2,8(r2)
    b054:	9823883a 	mov	r17,r19
    b058:	2021883a 	mov	r16,r4
    b05c:	11400315 	stw	r5,12(r2)
    b060:	28800215 	stw	r2,8(r5)
    b064:	003f7906 	br	ae4c <__alt_data_end+0xf800ae4c>
    b068:	21000117 	ldw	r4,4(r4)
    b06c:	00bfff04 	movi	r2,-4
    b070:	a1800404 	addi	r6,r20,16
    b074:	2088703a 	and	r4,r4,r2
    b078:	2409883a 	add	r4,r4,r16
    b07c:	2180380e 	bge	r4,r6,b160 <_realloc_r+0x47c>
    b080:	18c0004c 	andi	r3,r3,1
    b084:	183fc51e 	bne	r3,zero,af9c <__alt_data_end+0xf800af9c>
    b088:	9dfffe17 	ldw	r23,-8(r19)
    b08c:	adefc83a 	sub	r23,r21,r23
    b090:	b9400117 	ldw	r5,4(r23)
    b094:	288a703a 	and	r5,r5,r2
    b098:	216d883a 	add	r22,r4,r5
    b09c:	b1bf8b16 	blt	r22,r6,aecc <__alt_data_end+0xf800aecc>
    b0a0:	b8800317 	ldw	r2,12(r23)
    b0a4:	b8c00217 	ldw	r3,8(r23)
    b0a8:	81bfff04 	addi	r6,r16,-4
    b0ac:	01000904 	movi	r4,36
    b0b0:	18800315 	stw	r2,12(r3)
    b0b4:	10c00215 	stw	r3,8(r2)
    b0b8:	bc400204 	addi	r17,r23,8
    b0bc:	21805a36 	bltu	r4,r6,b228 <_realloc_r+0x544>
    b0c0:	008004c4 	movi	r2,19
    b0c4:	1180562e 	bgeu	r2,r6,b220 <_realloc_r+0x53c>
    b0c8:	98800017 	ldw	r2,0(r19)
    b0cc:	b8800215 	stw	r2,8(r23)
    b0d0:	98800117 	ldw	r2,4(r19)
    b0d4:	b8800315 	stw	r2,12(r23)
    b0d8:	008006c4 	movi	r2,27
    b0dc:	11805636 	bltu	r2,r6,b238 <_realloc_r+0x554>
    b0e0:	b8800404 	addi	r2,r23,16
    b0e4:	9cc00204 	addi	r19,r19,8
    b0e8:	98c00017 	ldw	r3,0(r19)
    b0ec:	10c00015 	stw	r3,0(r2)
    b0f0:	98c00117 	ldw	r3,4(r19)
    b0f4:	10c00115 	stw	r3,4(r2)
    b0f8:	98c00217 	ldw	r3,8(r19)
    b0fc:	10c00215 	stw	r3,8(r2)
    b100:	bd07883a 	add	r3,r23,r20
    b104:	b505c83a 	sub	r2,r22,r20
    b108:	e0c00215 	stw	r3,8(fp)
    b10c:	10800054 	ori	r2,r2,1
    b110:	18800115 	stw	r2,4(r3)
    b114:	b8800117 	ldw	r2,4(r23)
    b118:	9009883a 	mov	r4,r18
    b11c:	1080004c 	andi	r2,r2,1
    b120:	a0a8b03a 	or	r20,r20,r2
    b124:	bd000115 	stw	r20,4(r23)
    b128:	000e5500 	call	e550 <__malloc_unlock>
    b12c:	8805883a 	mov	r2,r17
    b130:	003f5306 	br	ae80 <__alt_data_end+0xf800ae80>
    b134:	98c00017 	ldw	r3,0(r19)
    b138:	88c00015 	stw	r3,0(r17)
    b13c:	98c00117 	ldw	r3,4(r19)
    b140:	88c00115 	stw	r3,4(r17)
    b144:	00c006c4 	movi	r3,27
    b148:	19801d36 	bltu	r3,r6,b1c0 <_realloc_r+0x4dc>
    b14c:	88800204 	addi	r2,r17,8
    b150:	98c00204 	addi	r3,r19,8
    b154:	003fa306 	br	afe4 <__alt_data_end+0xf800afe4>
    b158:	8807883a 	mov	r3,r17
    b15c:	003f7406 	br	af30 <__alt_data_end+0xf800af30>
    b160:	ad2b883a 	add	r21,r21,r20
    b164:	2505c83a 	sub	r2,r4,r20
    b168:	e5400215 	stw	r21,8(fp)
    b16c:	10800054 	ori	r2,r2,1
    b170:	a8800115 	stw	r2,4(r21)
    b174:	98bfff17 	ldw	r2,-4(r19)
    b178:	9009883a 	mov	r4,r18
    b17c:	1080004c 	andi	r2,r2,1
    b180:	a0a8b03a 	or	r20,r20,r2
    b184:	9d3fff15 	stw	r20,-4(r19)
    b188:	000e5500 	call	e550 <__malloc_unlock>
    b18c:	9805883a 	mov	r2,r19
    b190:	003f3b06 	br	ae80 <__alt_data_end+0xf800ae80>
    b194:	8809883a 	mov	r4,r17
    b198:	980b883a 	mov	r5,r19
    b19c:	000aa640 	call	aa64 <memmove>
    b1a0:	003f9606 	br	affc <__alt_data_end+0xf800affc>
    b1a4:	8809883a 	mov	r4,r17
    b1a8:	980b883a 	mov	r5,r19
    b1ac:	000aa640 	call	aa64 <memmove>
    b1b0:	b8c00117 	ldw	r3,4(r23)
    b1b4:	b021883a 	mov	r16,r22
    b1b8:	b82b883a 	mov	r21,r23
    b1bc:	003f2306 	br	ae4c <__alt_data_end+0xf800ae4c>
    b1c0:	98c00217 	ldw	r3,8(r19)
    b1c4:	88c00215 	stw	r3,8(r17)
    b1c8:	98c00317 	ldw	r3,12(r19)
    b1cc:	88c00315 	stw	r3,12(r17)
    b1d0:	30800c26 	beq	r6,r2,b204 <_realloc_r+0x520>
    b1d4:	88800404 	addi	r2,r17,16
    b1d8:	98c00404 	addi	r3,r19,16
    b1dc:	003f8106 	br	afe4 <__alt_data_end+0xf800afe4>
    b1e0:	893fff17 	ldw	r4,-4(r17)
    b1e4:	00bfff04 	movi	r2,-4
    b1e8:	9823883a 	mov	r17,r19
    b1ec:	2084703a 	and	r2,r4,r2
    b1f0:	80a1883a 	add	r16,r16,r2
    b1f4:	003f1506 	br	ae4c <__alt_data_end+0xf800ae4c>
    b1f8:	b8c00404 	addi	r3,r23,16
    b1fc:	9cc00204 	addi	r19,r19,8
    b200:	003f4b06 	br	af30 <__alt_data_end+0xf800af30>
    b204:	99000417 	ldw	r4,16(r19)
    b208:	88800604 	addi	r2,r17,24
    b20c:	98c00604 	addi	r3,r19,24
    b210:	89000415 	stw	r4,16(r17)
    b214:	99000517 	ldw	r4,20(r19)
    b218:	89000515 	stw	r4,20(r17)
    b21c:	003f7106 	br	afe4 <__alt_data_end+0xf800afe4>
    b220:	8805883a 	mov	r2,r17
    b224:	003fb006 	br	b0e8 <__alt_data_end+0xf800b0e8>
    b228:	8809883a 	mov	r4,r17
    b22c:	980b883a 	mov	r5,r19
    b230:	000aa640 	call	aa64 <memmove>
    b234:	003fb206 	br	b100 <__alt_data_end+0xf800b100>
    b238:	98800217 	ldw	r2,8(r19)
    b23c:	b8800415 	stw	r2,16(r23)
    b240:	98800317 	ldw	r2,12(r19)
    b244:	b8800515 	stw	r2,20(r23)
    b248:	31000726 	beq	r6,r4,b268 <_realloc_r+0x584>
    b24c:	b8800604 	addi	r2,r23,24
    b250:	9cc00404 	addi	r19,r19,16
    b254:	003fa406 	br	b0e8 <__alt_data_end+0xf800b0e8>
    b258:	9009883a 	mov	r4,r18
    b25c:	000e5500 	call	e550 <__malloc_unlock>
    b260:	0005883a 	mov	r2,zero
    b264:	003f0606 	br	ae80 <__alt_data_end+0xf800ae80>
    b268:	98c00417 	ldw	r3,16(r19)
    b26c:	9cc00604 	addi	r19,r19,24
    b270:	b8800804 	addi	r2,r23,32
    b274:	b8c00615 	stw	r3,24(r23)
    b278:	98ffff17 	ldw	r3,-4(r19)
    b27c:	b8c00715 	stw	r3,28(r23)
    b280:	003f9906 	br	b0e8 <__alt_data_end+0xf800b0e8>

0000b284 <__udivdi3>:
    b284:	defff504 	addi	sp,sp,-44
    b288:	dcc00415 	stw	r19,16(sp)
    b28c:	dc000115 	stw	r16,4(sp)
    b290:	dfc00a15 	stw	ra,40(sp)
    b294:	df000915 	stw	fp,36(sp)
    b298:	ddc00815 	stw	r23,32(sp)
    b29c:	dd800715 	stw	r22,28(sp)
    b2a0:	dd400615 	stw	r21,24(sp)
    b2a4:	dd000515 	stw	r20,20(sp)
    b2a8:	dc800315 	stw	r18,12(sp)
    b2ac:	dc400215 	stw	r17,8(sp)
    b2b0:	2027883a 	mov	r19,r4
    b2b4:	2821883a 	mov	r16,r5
    b2b8:	3800421e 	bne	r7,zero,b3c4 <__udivdi3+0x140>
    b2bc:	3025883a 	mov	r18,r6
    b2c0:	2023883a 	mov	r17,r4
    b2c4:	2980542e 	bgeu	r5,r6,b418 <__udivdi3+0x194>
    b2c8:	00bfffd4 	movui	r2,65535
    b2cc:	282d883a 	mov	r22,r5
    b2d0:	1180a836 	bltu	r2,r6,b574 <__udivdi3+0x2f0>
    b2d4:	00803fc4 	movi	r2,255
    b2d8:	1181422e 	bgeu	r2,r6,b7e4 <__udivdi3+0x560>
    b2dc:	00800204 	movi	r2,8
    b2e0:	1007883a 	mov	r3,r2
    b2e4:	3084d83a 	srl	r2,r6,r2
    b2e8:	01000374 	movhi	r4,13
    b2ec:	212fda04 	addi	r4,r4,-16536
    b2f0:	2085883a 	add	r2,r4,r2
    b2f4:	10800003 	ldbu	r2,0(r2)
    b2f8:	10c7883a 	add	r3,r2,r3
    b2fc:	00800804 	movi	r2,32
    b300:	10c5c83a 	sub	r2,r2,r3
    b304:	10000526 	beq	r2,zero,b31c <__udivdi3+0x98>
    b308:	80a0983a 	sll	r16,r16,r2
    b30c:	98c6d83a 	srl	r3,r19,r3
    b310:	30a4983a 	sll	r18,r6,r2
    b314:	98a2983a 	sll	r17,r19,r2
    b318:	80ecb03a 	or	r22,r16,r3
    b31c:	902ad43a 	srli	r21,r18,16
    b320:	b009883a 	mov	r4,r22
    b324:	953fffcc 	andi	r20,r18,65535
    b328:	a80b883a 	mov	r5,r21
    b32c:	0003d780 	call	3d78 <__umodsi3>
    b330:	b009883a 	mov	r4,r22
    b334:	a80b883a 	mov	r5,r21
    b338:	1027883a 	mov	r19,r2
    b33c:	0003d700 	call	3d70 <__udivsi3>
    b340:	1021883a 	mov	r16,r2
    b344:	8806d43a 	srli	r3,r17,16
    b348:	9804943a 	slli	r2,r19,16
    b34c:	8527383a 	mul	r19,r16,r20
    b350:	10c4b03a 	or	r2,r2,r3
    b354:	14c0052e 	bgeu	r2,r19,b36c <__udivdi3+0xe8>
    b358:	1485883a 	add	r2,r2,r18
    b35c:	80ffffc4 	addi	r3,r16,-1
    b360:	14800136 	bltu	r2,r18,b368 <__udivdi3+0xe4>
    b364:	14c13436 	bltu	r2,r19,b838 <__udivdi3+0x5b4>
    b368:	1821883a 	mov	r16,r3
    b36c:	14e7c83a 	sub	r19,r2,r19
    b370:	9809883a 	mov	r4,r19
    b374:	a80b883a 	mov	r5,r21
    b378:	0003d780 	call	3d78 <__umodsi3>
    b37c:	102d883a 	mov	r22,r2
    b380:	9809883a 	mov	r4,r19
    b384:	a80b883a 	mov	r5,r21
    b388:	0003d700 	call	3d70 <__udivsi3>
    b38c:	b02c943a 	slli	r22,r22,16
    b390:	1529383a 	mul	r20,r2,r20
    b394:	8c7fffcc 	andi	r17,r17,65535
    b398:	b462b03a 	or	r17,r22,r17
    b39c:	8d00052e 	bgeu	r17,r20,b3b4 <__udivdi3+0x130>
    b3a0:	8ca3883a 	add	r17,r17,r18
    b3a4:	10ffffc4 	addi	r3,r2,-1
    b3a8:	8c80f636 	bltu	r17,r18,b784 <__udivdi3+0x500>
    b3ac:	8d00f52e 	bgeu	r17,r20,b784 <__udivdi3+0x500>
    b3b0:	10bfff84 	addi	r2,r2,-2
    b3b4:	8020943a 	slli	r16,r16,16
    b3b8:	0007883a 	mov	r3,zero
    b3bc:	1404b03a 	or	r2,r2,r16
    b3c0:	00005b06 	br	b530 <__udivdi3+0x2ac>
    b3c4:	29c05836 	bltu	r5,r7,b528 <__udivdi3+0x2a4>
    b3c8:	00bfffd4 	movui	r2,65535
    b3cc:	11c0642e 	bgeu	r2,r7,b560 <__udivdi3+0x2dc>
    b3d0:	00804034 	movhi	r2,256
    b3d4:	10bfffc4 	addi	r2,r2,-1
    b3d8:	11c0f32e 	bgeu	r2,r7,b7a8 <__udivdi3+0x524>
    b3dc:	00c00604 	movi	r3,24
    b3e0:	180b883a 	mov	r5,r3
    b3e4:	38c6d83a 	srl	r3,r7,r3
    b3e8:	00800374 	movhi	r2,13
    b3ec:	10afda04 	addi	r2,r2,-16536
    b3f0:	10c7883a 	add	r3,r2,r3
    b3f4:	18c00003 	ldbu	r3,0(r3)
    b3f8:	01000804 	movi	r4,32
    b3fc:	1947883a 	add	r3,r3,r5
    b400:	20e5c83a 	sub	r18,r4,r3
    b404:	9000661e 	bne	r18,zero,b5a0 <__udivdi3+0x31c>
    b408:	3c00f936 	bltu	r7,r16,b7f0 <__udivdi3+0x56c>
    b40c:	9985403a 	cmpgeu	r2,r19,r6
    b410:	0007883a 	mov	r3,zero
    b414:	00004606 	br	b530 <__udivdi3+0x2ac>
    b418:	3000041e 	bne	r6,zero,b42c <__udivdi3+0x1a8>
    b41c:	01000044 	movi	r4,1
    b420:	000b883a 	mov	r5,zero
    b424:	0003d700 	call	3d70 <__udivsi3>
    b428:	1025883a 	mov	r18,r2
    b42c:	00bfffd4 	movui	r2,65535
    b430:	1480562e 	bgeu	r2,r18,b58c <__udivdi3+0x308>
    b434:	00804034 	movhi	r2,256
    b438:	10bfffc4 	addi	r2,r2,-1
    b43c:	1480e32e 	bgeu	r2,r18,b7cc <__udivdi3+0x548>
    b440:	00800604 	movi	r2,24
    b444:	1007883a 	mov	r3,r2
    b448:	9084d83a 	srl	r2,r18,r2
    b44c:	01000374 	movhi	r4,13
    b450:	212fda04 	addi	r4,r4,-16536
    b454:	2085883a 	add	r2,r4,r2
    b458:	10800003 	ldbu	r2,0(r2)
    b45c:	10c5883a 	add	r2,r2,r3
    b460:	00c00804 	movi	r3,32
    b464:	1887c83a 	sub	r3,r3,r2
    b468:	1800911e 	bne	r3,zero,b6b0 <__udivdi3+0x42c>
    b46c:	9028d43a 	srli	r20,r18,16
    b470:	84a1c83a 	sub	r16,r16,r18
    b474:	957fffcc 	andi	r21,r18,65535
    b478:	00c00044 	movi	r3,1
    b47c:	8009883a 	mov	r4,r16
    b480:	a00b883a 	mov	r5,r20
    b484:	d8c00015 	stw	r3,0(sp)
    b488:	0003d780 	call	3d78 <__umodsi3>
    b48c:	8009883a 	mov	r4,r16
    b490:	a00b883a 	mov	r5,r20
    b494:	1027883a 	mov	r19,r2
    b498:	0003d700 	call	3d70 <__udivsi3>
    b49c:	1021883a 	mov	r16,r2
    b4a0:	880cd43a 	srli	r6,r17,16
    b4a4:	9804943a 	slli	r2,r19,16
    b4a8:	8567383a 	mul	r19,r16,r21
    b4ac:	d8c00017 	ldw	r3,0(sp)
    b4b0:	1188b03a 	or	r4,r2,r6
    b4b4:	24c0052e 	bgeu	r4,r19,b4cc <__udivdi3+0x248>
    b4b8:	2489883a 	add	r4,r4,r18
    b4bc:	80bfffc4 	addi	r2,r16,-1
    b4c0:	24800136 	bltu	r4,r18,b4c8 <__udivdi3+0x244>
    b4c4:	24c0d936 	bltu	r4,r19,b82c <__udivdi3+0x5a8>
    b4c8:	1021883a 	mov	r16,r2
    b4cc:	24e7c83a 	sub	r19,r4,r19
    b4d0:	9809883a 	mov	r4,r19
    b4d4:	a00b883a 	mov	r5,r20
    b4d8:	d8c00015 	stw	r3,0(sp)
    b4dc:	0003d780 	call	3d78 <__umodsi3>
    b4e0:	102d883a 	mov	r22,r2
    b4e4:	9809883a 	mov	r4,r19
    b4e8:	a00b883a 	mov	r5,r20
    b4ec:	0003d700 	call	3d70 <__udivsi3>
    b4f0:	b02c943a 	slli	r22,r22,16
    b4f4:	156b383a 	mul	r21,r2,r21
    b4f8:	8c7fffcc 	andi	r17,r17,65535
    b4fc:	b462b03a 	or	r17,r22,r17
    b500:	d8c00017 	ldw	r3,0(sp)
    b504:	8d40052e 	bgeu	r17,r21,b51c <__udivdi3+0x298>
    b508:	8ca3883a 	add	r17,r17,r18
    b50c:	113fffc4 	addi	r4,r2,-1
    b510:	8c809a36 	bltu	r17,r18,b77c <__udivdi3+0x4f8>
    b514:	8d40992e 	bgeu	r17,r21,b77c <__udivdi3+0x4f8>
    b518:	10bfff84 	addi	r2,r2,-2
    b51c:	8020943a 	slli	r16,r16,16
    b520:	1404b03a 	or	r2,r2,r16
    b524:	00000206 	br	b530 <__udivdi3+0x2ac>
    b528:	0007883a 	mov	r3,zero
    b52c:	0005883a 	mov	r2,zero
    b530:	dfc00a17 	ldw	ra,40(sp)
    b534:	df000917 	ldw	fp,36(sp)
    b538:	ddc00817 	ldw	r23,32(sp)
    b53c:	dd800717 	ldw	r22,28(sp)
    b540:	dd400617 	ldw	r21,24(sp)
    b544:	dd000517 	ldw	r20,20(sp)
    b548:	dcc00417 	ldw	r19,16(sp)
    b54c:	dc800317 	ldw	r18,12(sp)
    b550:	dc400217 	ldw	r17,8(sp)
    b554:	dc000117 	ldw	r16,4(sp)
    b558:	dec00b04 	addi	sp,sp,44
    b55c:	f800283a 	ret
    b560:	00803fc4 	movi	r2,255
    b564:	11c0932e 	bgeu	r2,r7,b7b4 <__udivdi3+0x530>
    b568:	00c00204 	movi	r3,8
    b56c:	180b883a 	mov	r5,r3
    b570:	003f9c06 	br	b3e4 <__alt_data_end+0xf800b3e4>
    b574:	00804034 	movhi	r2,256
    b578:	10bfffc4 	addi	r2,r2,-1
    b57c:	1180902e 	bgeu	r2,r6,b7c0 <__udivdi3+0x53c>
    b580:	00800604 	movi	r2,24
    b584:	1007883a 	mov	r3,r2
    b588:	003f5606 	br	b2e4 <__alt_data_end+0xf800b2e4>
    b58c:	00803fc4 	movi	r2,255
    b590:	1480912e 	bgeu	r2,r18,b7d8 <__udivdi3+0x554>
    b594:	00800204 	movi	r2,8
    b598:	1007883a 	mov	r3,r2
    b59c:	003faa06 	br	b448 <__alt_data_end+0xf800b448>
    b5a0:	30eed83a 	srl	r23,r6,r3
    b5a4:	3c8e983a 	sll	r7,r7,r18
    b5a8:	80f8d83a 	srl	fp,r16,r3
    b5ac:	98c6d83a 	srl	r3,r19,r3
    b5b0:	3deeb03a 	or	r23,r7,r23
    b5b4:	b828d43a 	srli	r20,r23,16
    b5b8:	84a0983a 	sll	r16,r16,r18
    b5bc:	e009883a 	mov	r4,fp
    b5c0:	a00b883a 	mov	r5,r20
    b5c4:	80e2b03a 	or	r17,r16,r3
    b5c8:	34aa983a 	sll	r21,r6,r18
    b5cc:	0003d780 	call	3d78 <__umodsi3>
    b5d0:	e009883a 	mov	r4,fp
    b5d4:	a00b883a 	mov	r5,r20
    b5d8:	102d883a 	mov	r22,r2
    b5dc:	0003d700 	call	3d70 <__udivsi3>
    b5e0:	1021883a 	mov	r16,r2
    b5e4:	bf3fffcc 	andi	fp,r23,65535
    b5e8:	b004943a 	slli	r2,r22,16
    b5ec:	8808d43a 	srli	r4,r17,16
    b5f0:	872d383a 	mul	r22,r16,fp
    b5f4:	1104b03a 	or	r2,r2,r4
    b5f8:	1580042e 	bgeu	r2,r22,b60c <__udivdi3+0x388>
    b5fc:	15c5883a 	add	r2,r2,r23
    b600:	80ffffc4 	addi	r3,r16,-1
    b604:	15c0812e 	bgeu	r2,r23,b80c <__udivdi3+0x588>
    b608:	1821883a 	mov	r16,r3
    b60c:	15adc83a 	sub	r22,r2,r22
    b610:	b009883a 	mov	r4,r22
    b614:	a00b883a 	mov	r5,r20
    b618:	0003d780 	call	3d78 <__umodsi3>
    b61c:	a00b883a 	mov	r5,r20
    b620:	b009883a 	mov	r4,r22
    b624:	d8800015 	stw	r2,0(sp)
    b628:	0003d700 	call	3d70 <__udivsi3>
    b62c:	d8c00017 	ldw	r3,0(sp)
    b630:	170b383a 	mul	r5,r2,fp
    b634:	8c7fffcc 	andi	r17,r17,65535
    b638:	1806943a 	slli	r3,r3,16
    b63c:	1c46b03a 	or	r3,r3,r17
    b640:	1940042e 	bgeu	r3,r5,b654 <__udivdi3+0x3d0>
    b644:	1dc7883a 	add	r3,r3,r23
    b648:	113fffc4 	addi	r4,r2,-1
    b64c:	1dc06b2e 	bgeu	r3,r23,b7fc <__udivdi3+0x578>
    b650:	2005883a 	mov	r2,r4
    b654:	8020943a 	slli	r16,r16,16
    b658:	a9ffffcc 	andi	r7,r21,65535
    b65c:	a82ad43a 	srli	r21,r21,16
    b660:	1404b03a 	or	r2,r2,r16
    b664:	113fffcc 	andi	r4,r2,65535
    b668:	100cd43a 	srli	r6,r2,16
    b66c:	21d3383a 	mul	r9,r4,r7
    b670:	2549383a 	mul	r4,r4,r21
    b674:	31cf383a 	mul	r7,r6,r7
    b678:	4810d43a 	srli	r8,r9,16
    b67c:	1947c83a 	sub	r3,r3,r5
    b680:	3909883a 	add	r4,r7,r4
    b684:	2209883a 	add	r4,r4,r8
    b688:	354d383a 	mul	r6,r6,r21
    b68c:	21c0022e 	bgeu	r4,r7,b698 <__udivdi3+0x414>
    b690:	01400074 	movhi	r5,1
    b694:	314d883a 	add	r6,r6,r5
    b698:	202ad43a 	srli	r21,r4,16
    b69c:	354d883a 	add	r6,r6,r21
    b6a0:	19803f36 	bltu	r3,r6,b7a0 <__udivdi3+0x51c>
    b6a4:	19803926 	beq	r3,r6,b78c <__udivdi3+0x508>
    b6a8:	0007883a 	mov	r3,zero
    b6ac:	003fa006 	br	b530 <__alt_data_end+0xf800b530>
    b6b0:	90e4983a 	sll	r18,r18,r3
    b6b4:	80aad83a 	srl	r21,r16,r2
    b6b8:	80e0983a 	sll	r16,r16,r3
    b6bc:	9028d43a 	srli	r20,r18,16
    b6c0:	9884d83a 	srl	r2,r19,r2
    b6c4:	a809883a 	mov	r4,r21
    b6c8:	a00b883a 	mov	r5,r20
    b6cc:	80acb03a 	or	r22,r16,r2
    b6d0:	98e2983a 	sll	r17,r19,r3
    b6d4:	0003d780 	call	3d78 <__umodsi3>
    b6d8:	a809883a 	mov	r4,r21
    b6dc:	a00b883a 	mov	r5,r20
    b6e0:	1021883a 	mov	r16,r2
    b6e4:	0003d700 	call	3d70 <__udivsi3>
    b6e8:	957fffcc 	andi	r21,r18,65535
    b6ec:	8020943a 	slli	r16,r16,16
    b6f0:	b00ad43a 	srli	r5,r22,16
    b6f4:	1567383a 	mul	r19,r2,r21
    b6f8:	102f883a 	mov	r23,r2
    b6fc:	8148b03a 	or	r4,r16,r5
    b700:	24c0062e 	bgeu	r4,r19,b71c <__udivdi3+0x498>
    b704:	2489883a 	add	r4,r4,r18
    b708:	10bfffc4 	addi	r2,r2,-1
    b70c:	24804536 	bltu	r4,r18,b824 <__udivdi3+0x5a0>
    b710:	24c0442e 	bgeu	r4,r19,b824 <__udivdi3+0x5a0>
    b714:	bdffff84 	addi	r23,r23,-2
    b718:	2489883a 	add	r4,r4,r18
    b71c:	24e7c83a 	sub	r19,r4,r19
    b720:	9809883a 	mov	r4,r19
    b724:	a00b883a 	mov	r5,r20
    b728:	0003d780 	call	3d78 <__umodsi3>
    b72c:	1021883a 	mov	r16,r2
    b730:	9809883a 	mov	r4,r19
    b734:	a00b883a 	mov	r5,r20
    b738:	0003d700 	call	3d70 <__udivsi3>
    b73c:	8020943a 	slli	r16,r16,16
    b740:	1007883a 	mov	r3,r2
    b744:	1545383a 	mul	r2,r2,r21
    b748:	b13fffcc 	andi	r4,r22,65535
    b74c:	8108b03a 	or	r4,r16,r4
    b750:	2080062e 	bgeu	r4,r2,b76c <__udivdi3+0x4e8>
    b754:	2489883a 	add	r4,r4,r18
    b758:	197fffc4 	addi	r5,r3,-1
    b75c:	24802f36 	bltu	r4,r18,b81c <__udivdi3+0x598>
    b760:	20802e2e 	bgeu	r4,r2,b81c <__udivdi3+0x598>
    b764:	18ffff84 	addi	r3,r3,-2
    b768:	2489883a 	add	r4,r4,r18
    b76c:	b82e943a 	slli	r23,r23,16
    b770:	20a1c83a 	sub	r16,r4,r2
    b774:	1dc6b03a 	or	r3,r3,r23
    b778:	003f4006 	br	b47c <__alt_data_end+0xf800b47c>
    b77c:	2005883a 	mov	r2,r4
    b780:	003f6606 	br	b51c <__alt_data_end+0xf800b51c>
    b784:	1805883a 	mov	r2,r3
    b788:	003f0a06 	br	b3b4 <__alt_data_end+0xf800b3b4>
    b78c:	2006943a 	slli	r3,r4,16
    b790:	9c88983a 	sll	r4,r19,r18
    b794:	4a7fffcc 	andi	r9,r9,65535
    b798:	1a47883a 	add	r3,r3,r9
    b79c:	20ffc22e 	bgeu	r4,r3,b6a8 <__alt_data_end+0xf800b6a8>
    b7a0:	10bfffc4 	addi	r2,r2,-1
    b7a4:	003fc006 	br	b6a8 <__alt_data_end+0xf800b6a8>
    b7a8:	00c00404 	movi	r3,16
    b7ac:	180b883a 	mov	r5,r3
    b7b0:	003f0c06 	br	b3e4 <__alt_data_end+0xf800b3e4>
    b7b4:	0007883a 	mov	r3,zero
    b7b8:	000b883a 	mov	r5,zero
    b7bc:	003f0906 	br	b3e4 <__alt_data_end+0xf800b3e4>
    b7c0:	00800404 	movi	r2,16
    b7c4:	1007883a 	mov	r3,r2
    b7c8:	003ec606 	br	b2e4 <__alt_data_end+0xf800b2e4>
    b7cc:	00800404 	movi	r2,16
    b7d0:	1007883a 	mov	r3,r2
    b7d4:	003f1c06 	br	b448 <__alt_data_end+0xf800b448>
    b7d8:	0005883a 	mov	r2,zero
    b7dc:	0007883a 	mov	r3,zero
    b7e0:	003f1906 	br	b448 <__alt_data_end+0xf800b448>
    b7e4:	0005883a 	mov	r2,zero
    b7e8:	0007883a 	mov	r3,zero
    b7ec:	003ebd06 	br	b2e4 <__alt_data_end+0xf800b2e4>
    b7f0:	0007883a 	mov	r3,zero
    b7f4:	00800044 	movi	r2,1
    b7f8:	003f4d06 	br	b530 <__alt_data_end+0xf800b530>
    b7fc:	197f942e 	bgeu	r3,r5,b650 <__alt_data_end+0xf800b650>
    b800:	10bfff84 	addi	r2,r2,-2
    b804:	1dc7883a 	add	r3,r3,r23
    b808:	003f9206 	br	b654 <__alt_data_end+0xf800b654>
    b80c:	15bf7e2e 	bgeu	r2,r22,b608 <__alt_data_end+0xf800b608>
    b810:	843fff84 	addi	r16,r16,-2
    b814:	15c5883a 	add	r2,r2,r23
    b818:	003f7c06 	br	b60c <__alt_data_end+0xf800b60c>
    b81c:	2807883a 	mov	r3,r5
    b820:	003fd206 	br	b76c <__alt_data_end+0xf800b76c>
    b824:	102f883a 	mov	r23,r2
    b828:	003fbc06 	br	b71c <__alt_data_end+0xf800b71c>
    b82c:	843fff84 	addi	r16,r16,-2
    b830:	2489883a 	add	r4,r4,r18
    b834:	003f2506 	br	b4cc <__alt_data_end+0xf800b4cc>
    b838:	843fff84 	addi	r16,r16,-2
    b83c:	1485883a 	add	r2,r2,r18
    b840:	003eca06 	br	b36c <__alt_data_end+0xf800b36c>

0000b844 <__umoddi3>:
    b844:	defff404 	addi	sp,sp,-48
    b848:	ddc00915 	stw	r23,36(sp)
    b84c:	dc400315 	stw	r17,12(sp)
    b850:	dc000215 	stw	r16,8(sp)
    b854:	dfc00b15 	stw	ra,44(sp)
    b858:	df000a15 	stw	fp,40(sp)
    b85c:	dd800815 	stw	r22,32(sp)
    b860:	dd400715 	stw	r21,28(sp)
    b864:	dd000615 	stw	r20,24(sp)
    b868:	dcc00515 	stw	r19,20(sp)
    b86c:	dc800415 	stw	r18,16(sp)
    b870:	2021883a 	mov	r16,r4
    b874:	2823883a 	mov	r17,r5
    b878:	282f883a 	mov	r23,r5
    b87c:	3800381e 	bne	r7,zero,b960 <__umoddi3+0x11c>
    b880:	3027883a 	mov	r19,r6
    b884:	2029883a 	mov	r20,r4
    b888:	29804e2e 	bgeu	r5,r6,b9c4 <__umoddi3+0x180>
    b88c:	00bfffd4 	movui	r2,65535
    b890:	11809c36 	bltu	r2,r6,bb04 <__umoddi3+0x2c0>
    b894:	00803fc4 	movi	r2,255
    b898:	11813b2e 	bgeu	r2,r6,bd88 <__umoddi3+0x544>
    b89c:	01400204 	movi	r5,8
    b8a0:	2805883a 	mov	r2,r5
    b8a4:	314ad83a 	srl	r5,r6,r5
    b8a8:	00c00374 	movhi	r3,13
    b8ac:	18efda04 	addi	r3,r3,-16536
    b8b0:	194b883a 	add	r5,r3,r5
    b8b4:	29000003 	ldbu	r4,0(r5)
    b8b8:	2089883a 	add	r4,r4,r2
    b8bc:	00800804 	movi	r2,32
    b8c0:	1105c83a 	sub	r2,r2,r4
    b8c4:	1000ec26 	beq	r2,zero,bc78 <__umoddi3+0x434>
    b8c8:	88a2983a 	sll	r17,r17,r2
    b8cc:	8108d83a 	srl	r4,r16,r4
    b8d0:	30a6983a 	sll	r19,r6,r2
    b8d4:	80a8983a 	sll	r20,r16,r2
    b8d8:	1025883a 	mov	r18,r2
    b8dc:	892eb03a 	or	r23,r17,r4
    b8e0:	982cd43a 	srli	r22,r19,16
    b8e4:	b809883a 	mov	r4,r23
    b8e8:	9d7fffcc 	andi	r21,r19,65535
    b8ec:	b00b883a 	mov	r5,r22
    b8f0:	0003d780 	call	3d78 <__umodsi3>
    b8f4:	b809883a 	mov	r4,r23
    b8f8:	b00b883a 	mov	r5,r22
    b8fc:	1021883a 	mov	r16,r2
    b900:	0003d700 	call	3d70 <__udivsi3>
    b904:	8020943a 	slli	r16,r16,16
    b908:	a00cd43a 	srli	r6,r20,16
    b90c:	1545383a 	mul	r2,r2,r21
    b910:	8188b03a 	or	r4,r16,r6
    b914:	2080042e 	bgeu	r4,r2,b928 <__umoddi3+0xe4>
    b918:	24c9883a 	add	r4,r4,r19
    b91c:	24c00236 	bltu	r4,r19,b928 <__umoddi3+0xe4>
    b920:	2080012e 	bgeu	r4,r2,b928 <__umoddi3+0xe4>
    b924:	24c9883a 	add	r4,r4,r19
    b928:	20a3c83a 	sub	r17,r4,r2
    b92c:	8809883a 	mov	r4,r17
    b930:	b00b883a 	mov	r5,r22
    b934:	0003d780 	call	3d78 <__umodsi3>
    b938:	8809883a 	mov	r4,r17
    b93c:	b00b883a 	mov	r5,r22
    b940:	1021883a 	mov	r16,r2
    b944:	0003d700 	call	3d70 <__udivsi3>
    b948:	8006943a 	slli	r3,r16,16
    b94c:	1545383a 	mul	r2,r2,r21
    b950:	a13fffcc 	andi	r4,r20,65535
    b954:	1906b03a 	or	r3,r3,r4
    b958:	1880532e 	bgeu	r3,r2,baa8 <__umoddi3+0x264>
    b95c:	00004e06 	br	ba98 <__umoddi3+0x254>
    b960:	29c05536 	bltu	r5,r7,bab8 <__umoddi3+0x274>
    b964:	00bfffd4 	movui	r2,65535
    b968:	11c0612e 	bgeu	r2,r7,baf0 <__umoddi3+0x2ac>
    b96c:	00804034 	movhi	r2,256
    b970:	10bfffc4 	addi	r2,r2,-1
    b974:	11c0f82e 	bgeu	r2,r7,bd58 <__umoddi3+0x514>
    b978:	01400604 	movi	r5,24
    b97c:	282b883a 	mov	r21,r5
    b980:	394ad83a 	srl	r5,r7,r5
    b984:	00c00374 	movhi	r3,13
    b988:	18efda04 	addi	r3,r3,-16536
    b98c:	194b883a 	add	r5,r3,r5
    b990:	28800003 	ldbu	r2,0(r5)
    b994:	00c00804 	movi	r3,32
    b998:	156b883a 	add	r21,r2,r21
    b99c:	1d69c83a 	sub	r20,r3,r21
    b9a0:	a000631e 	bne	r20,zero,bb30 <__umoddi3+0x2ec>
    b9a4:	3c400136 	bltu	r7,r17,b9ac <__umoddi3+0x168>
    b9a8:	81810436 	bltu	r16,r6,bdbc <__umoddi3+0x578>
    b9ac:	8185c83a 	sub	r2,r16,r6
    b9b0:	89e3c83a 	sub	r17,r17,r7
    b9b4:	8087803a 	cmpltu	r3,r16,r2
    b9b8:	88efc83a 	sub	r23,r17,r3
    b9bc:	b807883a 	mov	r3,r23
    b9c0:	00003f06 	br	bac0 <__umoddi3+0x27c>
    b9c4:	3000041e 	bne	r6,zero,b9d8 <__umoddi3+0x194>
    b9c8:	01000044 	movi	r4,1
    b9cc:	000b883a 	mov	r5,zero
    b9d0:	0003d700 	call	3d70 <__udivsi3>
    b9d4:	1027883a 	mov	r19,r2
    b9d8:	00bfffd4 	movui	r2,65535
    b9dc:	14c04f2e 	bgeu	r2,r19,bb1c <__umoddi3+0x2d8>
    b9e0:	00804034 	movhi	r2,256
    b9e4:	10bfffc4 	addi	r2,r2,-1
    b9e8:	14c0e42e 	bgeu	r2,r19,bd7c <__umoddi3+0x538>
    b9ec:	00800604 	movi	r2,24
    b9f0:	1007883a 	mov	r3,r2
    b9f4:	9884d83a 	srl	r2,r19,r2
    b9f8:	01000374 	movhi	r4,13
    b9fc:	212fda04 	addi	r4,r4,-16536
    ba00:	2085883a 	add	r2,r4,r2
    ba04:	11000003 	ldbu	r4,0(r2)
    ba08:	00800804 	movi	r2,32
    ba0c:	20c7883a 	add	r3,r4,r3
    ba10:	10c5c83a 	sub	r2,r2,r3
    ba14:	10009a1e 	bne	r2,zero,bc80 <__umoddi3+0x43c>
    ba18:	982cd43a 	srli	r22,r19,16
    ba1c:	8ce3c83a 	sub	r17,r17,r19
    ba20:	9c3fffcc 	andi	r16,r19,65535
    ba24:	0025883a 	mov	r18,zero
    ba28:	8809883a 	mov	r4,r17
    ba2c:	b00b883a 	mov	r5,r22
    ba30:	0003d780 	call	3d78 <__umodsi3>
    ba34:	8809883a 	mov	r4,r17
    ba38:	b00b883a 	mov	r5,r22
    ba3c:	102b883a 	mov	r21,r2
    ba40:	0003d700 	call	3d70 <__udivsi3>
    ba44:	a806943a 	slli	r3,r21,16
    ba48:	a008d43a 	srli	r4,r20,16
    ba4c:	1405383a 	mul	r2,r2,r16
    ba50:	190cb03a 	or	r6,r3,r4
    ba54:	3080032e 	bgeu	r6,r2,ba64 <__umoddi3+0x220>
    ba58:	34cd883a 	add	r6,r6,r19
    ba5c:	34c00136 	bltu	r6,r19,ba64 <__umoddi3+0x220>
    ba60:	3080d436 	bltu	r6,r2,bdb4 <__umoddi3+0x570>
    ba64:	30abc83a 	sub	r21,r6,r2
    ba68:	a809883a 	mov	r4,r21
    ba6c:	b00b883a 	mov	r5,r22
    ba70:	0003d780 	call	3d78 <__umodsi3>
    ba74:	1023883a 	mov	r17,r2
    ba78:	a809883a 	mov	r4,r21
    ba7c:	b00b883a 	mov	r5,r22
    ba80:	0003d700 	call	3d70 <__udivsi3>
    ba84:	8822943a 	slli	r17,r17,16
    ba88:	1405383a 	mul	r2,r2,r16
    ba8c:	a13fffcc 	andi	r4,r20,65535
    ba90:	8906b03a 	or	r3,r17,r4
    ba94:	1880042e 	bgeu	r3,r2,baa8 <__umoddi3+0x264>
    ba98:	1cc7883a 	add	r3,r3,r19
    ba9c:	1cc00236 	bltu	r3,r19,baa8 <__umoddi3+0x264>
    baa0:	1880012e 	bgeu	r3,r2,baa8 <__umoddi3+0x264>
    baa4:	1cc7883a 	add	r3,r3,r19
    baa8:	1887c83a 	sub	r3,r3,r2
    baac:	1c84d83a 	srl	r2,r3,r18
    bab0:	0007883a 	mov	r3,zero
    bab4:	00000206 	br	bac0 <__umoddi3+0x27c>
    bab8:	2005883a 	mov	r2,r4
    babc:	2807883a 	mov	r3,r5
    bac0:	dfc00b17 	ldw	ra,44(sp)
    bac4:	df000a17 	ldw	fp,40(sp)
    bac8:	ddc00917 	ldw	r23,36(sp)
    bacc:	dd800817 	ldw	r22,32(sp)
    bad0:	dd400717 	ldw	r21,28(sp)
    bad4:	dd000617 	ldw	r20,24(sp)
    bad8:	dcc00517 	ldw	r19,20(sp)
    badc:	dc800417 	ldw	r18,16(sp)
    bae0:	dc400317 	ldw	r17,12(sp)
    bae4:	dc000217 	ldw	r16,8(sp)
    bae8:	dec00c04 	addi	sp,sp,48
    baec:	f800283a 	ret
    baf0:	00803fc4 	movi	r2,255
    baf4:	11c0952e 	bgeu	r2,r7,bd4c <__umoddi3+0x508>
    baf8:	01400204 	movi	r5,8
    bafc:	282b883a 	mov	r21,r5
    bb00:	003f9f06 	br	b980 <__alt_data_end+0xf800b980>
    bb04:	00804034 	movhi	r2,256
    bb08:	10bfffc4 	addi	r2,r2,-1
    bb0c:	1180952e 	bgeu	r2,r6,bd64 <__umoddi3+0x520>
    bb10:	01400604 	movi	r5,24
    bb14:	2805883a 	mov	r2,r5
    bb18:	003f6206 	br	b8a4 <__alt_data_end+0xf800b8a4>
    bb1c:	00803fc4 	movi	r2,255
    bb20:	14c0932e 	bgeu	r2,r19,bd70 <__umoddi3+0x52c>
    bb24:	00800204 	movi	r2,8
    bb28:	1007883a 	mov	r3,r2
    bb2c:	003fb106 	br	b9f4 <__alt_data_end+0xf800b9f4>
    bb30:	3548d83a 	srl	r4,r6,r21
    bb34:	3d0e983a 	sll	r7,r7,r20
    bb38:	8d10983a 	sll	r8,r17,r20
    bb3c:	8d6cd83a 	srl	r22,r17,r21
    bb40:	3922b03a 	or	r17,r7,r4
    bb44:	882ed43a 	srli	r23,r17,16
    bb48:	8564d83a 	srl	r18,r16,r21
    bb4c:	b009883a 	mov	r4,r22
    bb50:	b80b883a 	mov	r5,r23
    bb54:	44a4b03a 	or	r18,r8,r18
    bb58:	3526983a 	sll	r19,r6,r20
    bb5c:	0003d780 	call	3d78 <__umodsi3>
    bb60:	b009883a 	mov	r4,r22
    bb64:	b80b883a 	mov	r5,r23
    bb68:	1039883a 	mov	fp,r2
    bb6c:	0003d700 	call	3d70 <__udivsi3>
    bb70:	102d883a 	mov	r22,r2
    bb74:	8a3fffcc 	andi	r8,r17,65535
    bb78:	e004943a 	slli	r2,fp,16
    bb7c:	900cd43a 	srli	r6,r18,16
    bb80:	b239383a 	mul	fp,r22,r8
    bb84:	8520983a 	sll	r16,r16,r20
    bb88:	118ab03a 	or	r5,r2,r6
    bb8c:	2f00042e 	bgeu	r5,fp,bba0 <__umoddi3+0x35c>
    bb90:	2c4b883a 	add	r5,r5,r17
    bb94:	b0bfffc4 	addi	r2,r22,-1
    bb98:	2c40822e 	bgeu	r5,r17,bda4 <__umoddi3+0x560>
    bb9c:	102d883a 	mov	r22,r2
    bba0:	2f39c83a 	sub	fp,r5,fp
    bba4:	e009883a 	mov	r4,fp
    bba8:	b80b883a 	mov	r5,r23
    bbac:	da000115 	stw	r8,4(sp)
    bbb0:	0003d780 	call	3d78 <__umodsi3>
    bbb4:	e009883a 	mov	r4,fp
    bbb8:	b80b883a 	mov	r5,r23
    bbbc:	d8800015 	stw	r2,0(sp)
    bbc0:	0003d700 	call	3d70 <__udivsi3>
    bbc4:	d9800017 	ldw	r6,0(sp)
    bbc8:	da000117 	ldw	r8,4(sp)
    bbcc:	94bfffcc 	andi	r18,r18,65535
    bbd0:	300c943a 	slli	r6,r6,16
    bbd4:	1209383a 	mul	r4,r2,r8
    bbd8:	3490b03a 	or	r8,r6,r18
    bbdc:	4100042e 	bgeu	r8,r4,bbf0 <__umoddi3+0x3ac>
    bbe0:	4451883a 	add	r8,r8,r17
    bbe4:	10ffffc4 	addi	r3,r2,-1
    bbe8:	44406a2e 	bgeu	r8,r17,bd94 <__umoddi3+0x550>
    bbec:	1805883a 	mov	r2,r3
    bbf0:	b012943a 	slli	r9,r22,16
    bbf4:	9abfffcc 	andi	r10,r19,65535
    bbf8:	980ed43a 	srli	r7,r19,16
    bbfc:	124ab03a 	or	r5,r2,r9
    bc00:	2a7fffcc 	andi	r9,r5,65535
    bc04:	280ad43a 	srli	r5,r5,16
    bc08:	4a8d383a 	mul	r6,r9,r10
    bc0c:	49d3383a 	mul	r9,r9,r7
    bc10:	2a95383a 	mul	r10,r5,r10
    bc14:	3004d43a 	srli	r2,r6,16
    bc18:	4111c83a 	sub	r8,r8,r4
    bc1c:	5253883a 	add	r9,r10,r9
    bc20:	4893883a 	add	r9,r9,r2
    bc24:	29cb383a 	mul	r5,r5,r7
    bc28:	4a80022e 	bgeu	r9,r10,bc34 <__umoddi3+0x3f0>
    bc2c:	00800074 	movhi	r2,1
    bc30:	288b883a 	add	r5,r5,r2
    bc34:	4808d43a 	srli	r4,r9,16
    bc38:	4812943a 	slli	r9,r9,16
    bc3c:	31bfffcc 	andi	r6,r6,65535
    bc40:	290b883a 	add	r5,r5,r4
    bc44:	498d883a 	add	r6,r9,r6
    bc48:	41403a36 	bltu	r8,r5,bd34 <__umoddi3+0x4f0>
    bc4c:	41405d26 	beq	r8,r5,bdc4 <__umoddi3+0x580>
    bc50:	4149c83a 	sub	r4,r8,r5
    bc54:	300f883a 	mov	r7,r6
    bc58:	81cfc83a 	sub	r7,r16,r7
    bc5c:	81c7803a 	cmpltu	r3,r16,r7
    bc60:	20c7c83a 	sub	r3,r4,r3
    bc64:	1d44983a 	sll	r2,r3,r21
    bc68:	3d0ed83a 	srl	r7,r7,r20
    bc6c:	1d06d83a 	srl	r3,r3,r20
    bc70:	11c4b03a 	or	r2,r2,r7
    bc74:	003f9206 	br	bac0 <__alt_data_end+0xf800bac0>
    bc78:	0025883a 	mov	r18,zero
    bc7c:	003f1806 	br	b8e0 <__alt_data_end+0xf800b8e0>
    bc80:	98a6983a 	sll	r19,r19,r2
    bc84:	88e8d83a 	srl	r20,r17,r3
    bc88:	80c6d83a 	srl	r3,r16,r3
    bc8c:	982cd43a 	srli	r22,r19,16
    bc90:	88a2983a 	sll	r17,r17,r2
    bc94:	a009883a 	mov	r4,r20
    bc98:	b00b883a 	mov	r5,r22
    bc9c:	88eab03a 	or	r21,r17,r3
    bca0:	1025883a 	mov	r18,r2
    bca4:	0003d780 	call	3d78 <__umodsi3>
    bca8:	a009883a 	mov	r4,r20
    bcac:	b00b883a 	mov	r5,r22
    bcb0:	1023883a 	mov	r17,r2
    bcb4:	0003d700 	call	3d70 <__udivsi3>
    bcb8:	9f3fffcc 	andi	fp,r19,65535
    bcbc:	8822943a 	slli	r17,r17,16
    bcc0:	a80ad43a 	srli	r5,r21,16
    bcc4:	1705383a 	mul	r2,r2,fp
    bcc8:	84a8983a 	sll	r20,r16,r18
    bccc:	8948b03a 	or	r4,r17,r5
    bcd0:	2080042e 	bgeu	r4,r2,bce4 <__umoddi3+0x4a0>
    bcd4:	24c9883a 	add	r4,r4,r19
    bcd8:	24c00236 	bltu	r4,r19,bce4 <__umoddi3+0x4a0>
    bcdc:	2080012e 	bgeu	r4,r2,bce4 <__umoddi3+0x4a0>
    bce0:	24c9883a 	add	r4,r4,r19
    bce4:	20afc83a 	sub	r23,r4,r2
    bce8:	b809883a 	mov	r4,r23
    bcec:	b00b883a 	mov	r5,r22
    bcf0:	0003d780 	call	3d78 <__umodsi3>
    bcf4:	1023883a 	mov	r17,r2
    bcf8:	b809883a 	mov	r4,r23
    bcfc:	b00b883a 	mov	r5,r22
    bd00:	0003d700 	call	3d70 <__udivsi3>
    bd04:	8822943a 	slli	r17,r17,16
    bd08:	1705383a 	mul	r2,r2,fp
    bd0c:	a93fffcc 	andi	r4,r21,65535
    bd10:	8908b03a 	or	r4,r17,r4
    bd14:	2080042e 	bgeu	r4,r2,bd28 <__umoddi3+0x4e4>
    bd18:	24c9883a 	add	r4,r4,r19
    bd1c:	24c00236 	bltu	r4,r19,bd28 <__umoddi3+0x4e4>
    bd20:	2080012e 	bgeu	r4,r2,bd28 <__umoddi3+0x4e4>
    bd24:	24c9883a 	add	r4,r4,r19
    bd28:	20a3c83a 	sub	r17,r4,r2
    bd2c:	e021883a 	mov	r16,fp
    bd30:	003f3d06 	br	ba28 <__alt_data_end+0xf800ba28>
    bd34:	34cfc83a 	sub	r7,r6,r19
    bd38:	2c4bc83a 	sub	r5,r5,r17
    bd3c:	31cd803a 	cmpltu	r6,r6,r7
    bd40:	298dc83a 	sub	r6,r5,r6
    bd44:	4189c83a 	sub	r4,r8,r6
    bd48:	003fc306 	br	bc58 <__alt_data_end+0xf800bc58>
    bd4c:	000b883a 	mov	r5,zero
    bd50:	002b883a 	mov	r21,zero
    bd54:	003f0a06 	br	b980 <__alt_data_end+0xf800b980>
    bd58:	01400404 	movi	r5,16
    bd5c:	282b883a 	mov	r21,r5
    bd60:	003f0706 	br	b980 <__alt_data_end+0xf800b980>
    bd64:	01400404 	movi	r5,16
    bd68:	2805883a 	mov	r2,r5
    bd6c:	003ecd06 	br	b8a4 <__alt_data_end+0xf800b8a4>
    bd70:	0005883a 	mov	r2,zero
    bd74:	0007883a 	mov	r3,zero
    bd78:	003f1e06 	br	b9f4 <__alt_data_end+0xf800b9f4>
    bd7c:	00800404 	movi	r2,16
    bd80:	1007883a 	mov	r3,r2
    bd84:	003f1b06 	br	b9f4 <__alt_data_end+0xf800b9f4>
    bd88:	000b883a 	mov	r5,zero
    bd8c:	0005883a 	mov	r2,zero
    bd90:	003ec406 	br	b8a4 <__alt_data_end+0xf800b8a4>
    bd94:	413f952e 	bgeu	r8,r4,bbec <__alt_data_end+0xf800bbec>
    bd98:	10bfff84 	addi	r2,r2,-2
    bd9c:	4451883a 	add	r8,r8,r17
    bda0:	003f9306 	br	bbf0 <__alt_data_end+0xf800bbf0>
    bda4:	2f3f7d2e 	bgeu	r5,fp,bb9c <__alt_data_end+0xf800bb9c>
    bda8:	b5bfff84 	addi	r22,r22,-2
    bdac:	2c4b883a 	add	r5,r5,r17
    bdb0:	003f7b06 	br	bba0 <__alt_data_end+0xf800bba0>
    bdb4:	34cd883a 	add	r6,r6,r19
    bdb8:	003f2a06 	br	ba64 <__alt_data_end+0xf800ba64>
    bdbc:	8005883a 	mov	r2,r16
    bdc0:	003efe06 	br	b9bc <__alt_data_end+0xf800b9bc>
    bdc4:	81bfdb36 	bltu	r16,r6,bd34 <__alt_data_end+0xf800bd34>
    bdc8:	300f883a 	mov	r7,r6
    bdcc:	0009883a 	mov	r4,zero
    bdd0:	003fa106 	br	bc58 <__alt_data_end+0xf800bc58>

0000bdd4 <__adddf3>:
    bdd4:	02000434 	movhi	r8,16
    bdd8:	423fffc4 	addi	r8,r8,-1
    bddc:	defffb04 	addi	sp,sp,-20
    bde0:	2a12703a 	and	r9,r5,r8
    bde4:	2806d7fa 	srli	r3,r5,31
    bde8:	3a10703a 	and	r8,r7,r8
    bdec:	3804d53a 	srli	r2,r7,20
    bdf0:	3014d77a 	srli	r10,r6,29
    bdf4:	dc000015 	stw	r16,0(sp)
    bdf8:	481290fa 	slli	r9,r9,3
    bdfc:	2820d53a 	srli	r16,r5,20
    be00:	401090fa 	slli	r8,r8,3
    be04:	200ad77a 	srli	r5,r4,29
    be08:	380ed7fa 	srli	r7,r7,31
    be0c:	dc800215 	stw	r18,8(sp)
    be10:	dc400115 	stw	r17,4(sp)
    be14:	dfc00415 	stw	ra,16(sp)
    be18:	dcc00315 	stw	r19,12(sp)
    be1c:	1c803fcc 	andi	r18,r3,255
    be20:	8401ffcc 	andi	r16,r16,2047
    be24:	494ab03a 	or	r5,r9,r5
    be28:	202290fa 	slli	r17,r4,3
    be2c:	1081ffcc 	andi	r2,r2,2047
    be30:	4290b03a 	or	r8,r8,r10
    be34:	300c90fa 	slli	r6,r6,3
    be38:	91c07026 	beq	r18,r7,bffc <__adddf3+0x228>
    be3c:	8087c83a 	sub	r3,r16,r2
    be40:	00c0b30e 	bge	zero,r3,c110 <__adddf3+0x33c>
    be44:	10002a1e 	bne	r2,zero,bef0 <__adddf3+0x11c>
    be48:	4184b03a 	or	r2,r8,r6
    be4c:	1000991e 	bne	r2,zero,c0b4 <__adddf3+0x2e0>
    be50:	888001cc 	andi	r2,r17,7
    be54:	10005b26 	beq	r2,zero,bfc4 <__adddf3+0x1f0>
    be58:	88c003cc 	andi	r3,r17,15
    be5c:	00800104 	movi	r2,4
    be60:	18805826 	beq	r3,r2,bfc4 <__adddf3+0x1f0>
    be64:	89800104 	addi	r6,r17,4
    be68:	3463803a 	cmpltu	r17,r6,r17
    be6c:	2c4b883a 	add	r5,r5,r17
    be70:	2880202c 	andhi	r2,r5,128
    be74:	9007883a 	mov	r3,r18
    be78:	3023883a 	mov	r17,r6
    be7c:	10005426 	beq	r2,zero,bfd0 <__adddf3+0x1fc>
    be80:	84000044 	addi	r16,r16,1
    be84:	0081ffc4 	movi	r2,2047
    be88:	8080c126 	beq	r16,r2,c190 <__adddf3+0x3bc>
    be8c:	013fe034 	movhi	r4,65408
    be90:	213fffc4 	addi	r4,r4,-1
    be94:	290a703a 	and	r5,r5,r4
    be98:	2804977a 	slli	r2,r5,29
    be9c:	280a927a 	slli	r5,r5,9
    bea0:	8822d0fa 	srli	r17,r17,3
    bea4:	8401ffcc 	andi	r16,r16,2047
    bea8:	2808d33a 	srli	r4,r5,12
    beac:	1444b03a 	or	r2,r2,r17
    beb0:	8401ffcc 	andi	r16,r16,2047
    beb4:	800a953a 	slli	r5,r16,20
    beb8:	18c03fcc 	andi	r3,r3,255
    bebc:	04000434 	movhi	r16,16
    bec0:	180697fa 	slli	r3,r3,31
    bec4:	843fffc4 	addi	r16,r16,-1
    bec8:	2420703a 	and	r16,r4,r16
    becc:	8160b03a 	or	r16,r16,r5
    bed0:	80c6b03a 	or	r3,r16,r3
    bed4:	dfc00417 	ldw	ra,16(sp)
    bed8:	dcc00317 	ldw	r19,12(sp)
    bedc:	dc800217 	ldw	r18,8(sp)
    bee0:	dc400117 	ldw	r17,4(sp)
    bee4:	dc000017 	ldw	r16,0(sp)
    bee8:	dec00504 	addi	sp,sp,20
    beec:	f800283a 	ret
    bef0:	0081ffc4 	movi	r2,2047
    bef4:	80bfd626 	beq	r16,r2,be50 <__alt_data_end+0xf800be50>
    bef8:	42002034 	orhi	r8,r8,128
    befc:	00800e04 	movi	r2,56
    bf00:	10c0a616 	blt	r2,r3,c19c <__adddf3+0x3c8>
    bf04:	008007c4 	movi	r2,31
    bf08:	10c0c916 	blt	r2,r3,c230 <__adddf3+0x45c>
    bf0c:	00800804 	movi	r2,32
    bf10:	10c5c83a 	sub	r2,r2,r3
    bf14:	408e983a 	sll	r7,r8,r2
    bf18:	30c8d83a 	srl	r4,r6,r3
    bf1c:	3084983a 	sll	r2,r6,r2
    bf20:	40c6d83a 	srl	r3,r8,r3
    bf24:	390cb03a 	or	r6,r7,r4
    bf28:	1004c03a 	cmpne	r2,r2,zero
    bf2c:	308cb03a 	or	r6,r6,r2
    bf30:	898dc83a 	sub	r6,r17,r6
    bf34:	89a3803a 	cmpltu	r17,r17,r6
    bf38:	28cbc83a 	sub	r5,r5,r3
    bf3c:	2c4bc83a 	sub	r5,r5,r17
    bf40:	3023883a 	mov	r17,r6
    bf44:	2880202c 	andhi	r2,r5,128
    bf48:	10006d26 	beq	r2,zero,c100 <__adddf3+0x32c>
    bf4c:	04c02034 	movhi	r19,128
    bf50:	9cffffc4 	addi	r19,r19,-1
    bf54:	2ce6703a 	and	r19,r5,r19
    bf58:	98007e26 	beq	r19,zero,c154 <__adddf3+0x380>
    bf5c:	9809883a 	mov	r4,r19
    bf60:	000e3700 	call	e370 <__clzsi2>
    bf64:	10fffe04 	addi	r3,r2,-8
    bf68:	010007c4 	movi	r4,31
    bf6c:	20c07f16 	blt	r4,r3,c16c <__adddf3+0x398>
    bf70:	01400a04 	movi	r5,40
    bf74:	2885c83a 	sub	r2,r5,r2
    bf78:	888ad83a 	srl	r5,r17,r2
    bf7c:	98e6983a 	sll	r19,r19,r3
    bf80:	88e2983a 	sll	r17,r17,r3
    bf84:	2ce6b03a 	or	r19,r5,r19
    bf88:	1c007c16 	blt	r3,r16,c17c <__adddf3+0x3a8>
    bf8c:	1c21c83a 	sub	r16,r3,r16
    bf90:	81400044 	addi	r5,r16,1
    bf94:	00c007c4 	movi	r3,31
    bf98:	19409816 	blt	r3,r5,c1fc <__adddf3+0x428>
    bf9c:	1c21c83a 	sub	r16,r3,r16
    bfa0:	8c08983a 	sll	r4,r17,r16
    bfa4:	8946d83a 	srl	r3,r17,r5
    bfa8:	9c20983a 	sll	r16,r19,r16
    bfac:	2008c03a 	cmpne	r4,r4,zero
    bfb0:	994ad83a 	srl	r5,r19,r5
    bfb4:	1c06b03a 	or	r3,r3,r16
    bfb8:	1922b03a 	or	r17,r3,r4
    bfbc:	0021883a 	mov	r16,zero
    bfc0:	003fa306 	br	be50 <__alt_data_end+0xf800be50>
    bfc4:	2880202c 	andhi	r2,r5,128
    bfc8:	9007883a 	mov	r3,r18
    bfcc:	103fac1e 	bne	r2,zero,be80 <__alt_data_end+0xf800be80>
    bfd0:	2804977a 	slli	r2,r5,29
    bfd4:	8822d0fa 	srli	r17,r17,3
    bfd8:	0101ffc4 	movi	r4,2047
    bfdc:	280ad0fa 	srli	r5,r5,3
    bfe0:	1444b03a 	or	r2,r2,r17
    bfe4:	81002c26 	beq	r16,r4,c098 <__adddf3+0x2c4>
    bfe8:	8120703a 	and	r16,r16,r4
    bfec:	01000434 	movhi	r4,16
    bff0:	213fffc4 	addi	r4,r4,-1
    bff4:	2908703a 	and	r4,r5,r4
    bff8:	003fad06 	br	beb0 <__alt_data_end+0xf800beb0>
    bffc:	8089c83a 	sub	r4,r16,r2
    c000:	01006a0e 	bge	zero,r4,c1ac <__adddf3+0x3d8>
    c004:	10003326 	beq	r2,zero,c0d4 <__adddf3+0x300>
    c008:	0081ffc4 	movi	r2,2047
    c00c:	80bf9026 	beq	r16,r2,be50 <__alt_data_end+0xf800be50>
    c010:	42002034 	orhi	r8,r8,128
    c014:	00800e04 	movi	r2,56
    c018:	1100b116 	blt	r2,r4,c2e0 <__adddf3+0x50c>
    c01c:	008007c4 	movi	r2,31
    c020:	1100e216 	blt	r2,r4,c3ac <__adddf3+0x5d8>
    c024:	00800804 	movi	r2,32
    c028:	1105c83a 	sub	r2,r2,r4
    c02c:	4092983a 	sll	r9,r8,r2
    c030:	310ed83a 	srl	r7,r6,r4
    c034:	3084983a 	sll	r2,r6,r2
    c038:	4110d83a 	srl	r8,r8,r4
    c03c:	49ccb03a 	or	r6,r9,r7
    c040:	1004c03a 	cmpne	r2,r2,zero
    c044:	308cb03a 	or	r6,r6,r2
    c048:	344d883a 	add	r6,r6,r17
    c04c:	3463803a 	cmpltu	r17,r6,r17
    c050:	414b883a 	add	r5,r8,r5
    c054:	2c4b883a 	add	r5,r5,r17
    c058:	3023883a 	mov	r17,r6
    c05c:	2880202c 	andhi	r2,r5,128
    c060:	10002726 	beq	r2,zero,c100 <__adddf3+0x32c>
    c064:	84000044 	addi	r16,r16,1
    c068:	0081ffc4 	movi	r2,2047
    c06c:	8080ae26 	beq	r16,r2,c328 <__adddf3+0x554>
    c070:	00bfe034 	movhi	r2,65408
    c074:	10bfffc4 	addi	r2,r2,-1
    c078:	288a703a 	and	r5,r5,r2
    c07c:	880cd07a 	srli	r6,r17,1
    c080:	280897fa 	slli	r4,r5,31
    c084:	88c0004c 	andi	r3,r17,1
    c088:	30e2b03a 	or	r17,r6,r3
    c08c:	280ad07a 	srli	r5,r5,1
    c090:	8922b03a 	or	r17,r17,r4
    c094:	003f6e06 	br	be50 <__alt_data_end+0xf800be50>
    c098:	1148b03a 	or	r4,r2,r5
    c09c:	20003c26 	beq	r4,zero,c190 <__adddf3+0x3bc>
    c0a0:	29000234 	orhi	r4,r5,8
    c0a4:	01400434 	movhi	r5,16
    c0a8:	297fffc4 	addi	r5,r5,-1
    c0ac:	2148703a 	and	r4,r4,r5
    c0b0:	003f7f06 	br	beb0 <__alt_data_end+0xf800beb0>
    c0b4:	18ffffc4 	addi	r3,r3,-1
    c0b8:	18004d1e 	bne	r3,zero,c1f0 <__adddf3+0x41c>
    c0bc:	898dc83a 	sub	r6,r17,r6
    c0c0:	89a3803a 	cmpltu	r17,r17,r6
    c0c4:	2a0bc83a 	sub	r5,r5,r8
    c0c8:	2c4bc83a 	sub	r5,r5,r17
    c0cc:	3023883a 	mov	r17,r6
    c0d0:	003f9c06 	br	bf44 <__alt_data_end+0xf800bf44>
    c0d4:	4184b03a 	or	r2,r8,r6
    c0d8:	103f5d26 	beq	r2,zero,be50 <__alt_data_end+0xf800be50>
    c0dc:	213fffc4 	addi	r4,r4,-1
    c0e0:	203fd926 	beq	r4,zero,c048 <__alt_data_end+0xf800c048>
    c0e4:	0081ffc4 	movi	r2,2047
    c0e8:	80bfca1e 	bne	r16,r2,c014 <__alt_data_end+0xf800c014>
    c0ec:	003f5806 	br	be50 <__alt_data_end+0xf800be50>
    c0f0:	10c8b03a 	or	r4,r2,r3
    c0f4:	20008b26 	beq	r4,zero,c324 <__adddf3+0x550>
    c0f8:	100b883a 	mov	r5,r2
    c0fc:	1823883a 	mov	r17,r3
    c100:	888001cc 	andi	r2,r17,7
    c104:	103f541e 	bne	r2,zero,be58 <__alt_data_end+0xf800be58>
    c108:	9007883a 	mov	r3,r18
    c10c:	003fb006 	br	bfd0 <__alt_data_end+0xf800bfd0>
    c110:	1800531e 	bne	r3,zero,c260 <__adddf3+0x48c>
    c114:	80800044 	addi	r2,r16,1
    c118:	1081ffcc 	andi	r2,r2,2047
    c11c:	00c00044 	movi	r3,1
    c120:	1880990e 	bge	r3,r2,c388 <__adddf3+0x5b4>
    c124:	8985c83a 	sub	r2,r17,r6
    c128:	8887803a 	cmpltu	r3,r17,r2
    c12c:	2a27c83a 	sub	r19,r5,r8
    c130:	98e7c83a 	sub	r19,r19,r3
    c134:	98c0202c 	andhi	r3,r19,128
    c138:	18006226 	beq	r3,zero,c2c4 <__adddf3+0x4f0>
    c13c:	3463c83a 	sub	r17,r6,r17
    c140:	4151c83a 	sub	r8,r8,r5
    c144:	344d803a 	cmpltu	r6,r6,r17
    c148:	41a7c83a 	sub	r19,r8,r6
    c14c:	3825883a 	mov	r18,r7
    c150:	983f821e 	bne	r19,zero,bf5c <__alt_data_end+0xf800bf5c>
    c154:	8809883a 	mov	r4,r17
    c158:	000e3700 	call	e370 <__clzsi2>
    c15c:	10800804 	addi	r2,r2,32
    c160:	10fffe04 	addi	r3,r2,-8
    c164:	010007c4 	movi	r4,31
    c168:	20ff810e 	bge	r4,r3,bf70 <__alt_data_end+0xf800bf70>
    c16c:	14fff604 	addi	r19,r2,-40
    c170:	8ce6983a 	sll	r19,r17,r19
    c174:	0023883a 	mov	r17,zero
    c178:	1c3f840e 	bge	r3,r16,bf8c <__alt_data_end+0xf800bf8c>
    c17c:	017fe034 	movhi	r5,65408
    c180:	297fffc4 	addi	r5,r5,-1
    c184:	80e1c83a 	sub	r16,r16,r3
    c188:	994a703a 	and	r5,r19,r5
    c18c:	003f3006 	br	be50 <__alt_data_end+0xf800be50>
    c190:	0009883a 	mov	r4,zero
    c194:	0005883a 	mov	r2,zero
    c198:	003f4506 	br	beb0 <__alt_data_end+0xf800beb0>
    c19c:	418cb03a 	or	r6,r8,r6
    c1a0:	300cc03a 	cmpne	r6,r6,zero
    c1a4:	0007883a 	mov	r3,zero
    c1a8:	003f6106 	br	bf30 <__alt_data_end+0xf800bf30>
    c1ac:	2000921e 	bne	r4,zero,c3f8 <__adddf3+0x624>
    c1b0:	80800044 	addi	r2,r16,1
    c1b4:	11c1ffcc 	andi	r7,r2,2047
    c1b8:	01000044 	movi	r4,1
    c1bc:	21c0610e 	bge	r4,r7,c344 <__adddf3+0x570>
    c1c0:	0101ffc4 	movi	r4,2047
    c1c4:	1100a326 	beq	r2,r4,c454 <__adddf3+0x680>
    c1c8:	344d883a 	add	r6,r6,r17
    c1cc:	3463803a 	cmpltu	r17,r6,r17
    c1d0:	414b883a 	add	r5,r8,r5
    c1d4:	2c4b883a 	add	r5,r5,r17
    c1d8:	282297fa 	slli	r17,r5,31
    c1dc:	300cd07a 	srli	r6,r6,1
    c1e0:	280ad07a 	srli	r5,r5,1
    c1e4:	1021883a 	mov	r16,r2
    c1e8:	89a2b03a 	or	r17,r17,r6
    c1ec:	003f1806 	br	be50 <__alt_data_end+0xf800be50>
    c1f0:	0081ffc4 	movi	r2,2047
    c1f4:	80bf411e 	bne	r16,r2,befc <__alt_data_end+0xf800befc>
    c1f8:	003f1506 	br	be50 <__alt_data_end+0xf800be50>
    c1fc:	80bff844 	addi	r2,r16,-31
    c200:	00c00804 	movi	r3,32
    c204:	9884d83a 	srl	r2,r19,r2
    c208:	28c04a26 	beq	r5,r3,c334 <__adddf3+0x560>
    c20c:	00c00fc4 	movi	r3,63
    c210:	1c21c83a 	sub	r16,r3,r16
    c214:	9c26983a 	sll	r19,r19,r16
    c218:	9c62b03a 	or	r17,r19,r17
    c21c:	8822c03a 	cmpne	r17,r17,zero
    c220:	88a2b03a 	or	r17,r17,r2
    c224:	000b883a 	mov	r5,zero
    c228:	0021883a 	mov	r16,zero
    c22c:	003fb406 	br	c100 <__alt_data_end+0xf800c100>
    c230:	18bff804 	addi	r2,r3,-32
    c234:	01000804 	movi	r4,32
    c238:	4084d83a 	srl	r2,r8,r2
    c23c:	19003f26 	beq	r3,r4,c33c <__adddf3+0x568>
    c240:	01001004 	movi	r4,64
    c244:	20c7c83a 	sub	r3,r4,r3
    c248:	40d0983a 	sll	r8,r8,r3
    c24c:	418cb03a 	or	r6,r8,r6
    c250:	300cc03a 	cmpne	r6,r6,zero
    c254:	308cb03a 	or	r6,r6,r2
    c258:	0007883a 	mov	r3,zero
    c25c:	003f3406 	br	bf30 <__alt_data_end+0xf800bf30>
    c260:	80002326 	beq	r16,zero,c2f0 <__adddf3+0x51c>
    c264:	0101ffc4 	movi	r4,2047
    c268:	11005e26 	beq	r2,r4,c3e4 <__adddf3+0x610>
    c26c:	00c7c83a 	sub	r3,zero,r3
    c270:	29402034 	orhi	r5,r5,128
    c274:	01000e04 	movi	r4,56
    c278:	20c07216 	blt	r4,r3,c444 <__adddf3+0x670>
    c27c:	010007c4 	movi	r4,31
    c280:	20c0ce16 	blt	r4,r3,c5bc <__adddf3+0x7e8>
    c284:	01000804 	movi	r4,32
    c288:	20c9c83a 	sub	r4,r4,r3
    c28c:	2914983a 	sll	r10,r5,r4
    c290:	88d2d83a 	srl	r9,r17,r3
    c294:	8908983a 	sll	r4,r17,r4
    c298:	28c6d83a 	srl	r3,r5,r3
    c29c:	5262b03a 	or	r17,r10,r9
    c2a0:	2008c03a 	cmpne	r4,r4,zero
    c2a4:	8922b03a 	or	r17,r17,r4
    c2a8:	3463c83a 	sub	r17,r6,r17
    c2ac:	40c7c83a 	sub	r3,r8,r3
    c2b0:	344d803a 	cmpltu	r6,r6,r17
    c2b4:	198bc83a 	sub	r5,r3,r6
    c2b8:	1021883a 	mov	r16,r2
    c2bc:	3825883a 	mov	r18,r7
    c2c0:	003f2006 	br	bf44 <__alt_data_end+0xf800bf44>
    c2c4:	9886b03a 	or	r3,r19,r2
    c2c8:	1800141e 	bne	r3,zero,c31c <__adddf3+0x548>
    c2cc:	0007883a 	mov	r3,zero
    c2d0:	000b883a 	mov	r5,zero
    c2d4:	0023883a 	mov	r17,zero
    c2d8:	0021883a 	mov	r16,zero
    c2dc:	003f3c06 	br	bfd0 <__alt_data_end+0xf800bfd0>
    c2e0:	418cb03a 	or	r6,r8,r6
    c2e4:	300cc03a 	cmpne	r6,r6,zero
    c2e8:	0011883a 	mov	r8,zero
    c2ec:	003f5606 	br	c048 <__alt_data_end+0xf800c048>
    c2f0:	2c48b03a 	or	r4,r5,r17
    c2f4:	20003b26 	beq	r4,zero,c3e4 <__adddf3+0x610>
    c2f8:	00c6303a 	nor	r3,zero,r3
    c2fc:	1800371e 	bne	r3,zero,c3dc <__adddf3+0x608>
    c300:	3463c83a 	sub	r17,r6,r17
    c304:	414bc83a 	sub	r5,r8,r5
    c308:	344d803a 	cmpltu	r6,r6,r17
    c30c:	298bc83a 	sub	r5,r5,r6
    c310:	1021883a 	mov	r16,r2
    c314:	3825883a 	mov	r18,r7
    c318:	003f0a06 	br	bf44 <__alt_data_end+0xf800bf44>
    c31c:	1023883a 	mov	r17,r2
    c320:	003f0d06 	br	bf58 <__alt_data_end+0xf800bf58>
    c324:	0007883a 	mov	r3,zero
    c328:	000b883a 	mov	r5,zero
    c32c:	0023883a 	mov	r17,zero
    c330:	003f2706 	br	bfd0 <__alt_data_end+0xf800bfd0>
    c334:	0027883a 	mov	r19,zero
    c338:	003fb706 	br	c218 <__alt_data_end+0xf800c218>
    c33c:	0011883a 	mov	r8,zero
    c340:	003fc206 	br	c24c <__alt_data_end+0xf800c24c>
    c344:	2c44b03a 	or	r2,r5,r17
    c348:	8000871e 	bne	r16,zero,c568 <__adddf3+0x794>
    c34c:	1000b126 	beq	r2,zero,c614 <__adddf3+0x840>
    c350:	4184b03a 	or	r2,r8,r6
    c354:	103ebe26 	beq	r2,zero,be50 <__alt_data_end+0xf800be50>
    c358:	3445883a 	add	r2,r6,r17
    c35c:	1463803a 	cmpltu	r17,r2,r17
    c360:	414b883a 	add	r5,r8,r5
    c364:	2c4b883a 	add	r5,r5,r17
    c368:	28c0202c 	andhi	r3,r5,128
    c36c:	1023883a 	mov	r17,r2
    c370:	183f6326 	beq	r3,zero,c100 <__alt_data_end+0xf800c100>
    c374:	00bfe034 	movhi	r2,65408
    c378:	10bfffc4 	addi	r2,r2,-1
    c37c:	2021883a 	mov	r16,r4
    c380:	288a703a 	and	r5,r5,r2
    c384:	003eb206 	br	be50 <__alt_data_end+0xf800be50>
    c388:	2c44b03a 	or	r2,r5,r17
    c38c:	8000251e 	bne	r16,zero,c424 <__adddf3+0x650>
    c390:	10004b1e 	bne	r2,zero,c4c0 <__adddf3+0x6ec>
    c394:	4184b03a 	or	r2,r8,r6
    c398:	103fe226 	beq	r2,zero,c324 <__alt_data_end+0xf800c324>
    c39c:	400b883a 	mov	r5,r8
    c3a0:	3023883a 	mov	r17,r6
    c3a4:	3825883a 	mov	r18,r7
    c3a8:	003ea906 	br	be50 <__alt_data_end+0xf800be50>
    c3ac:	20bff804 	addi	r2,r4,-32
    c3b0:	01c00804 	movi	r7,32
    c3b4:	4084d83a 	srl	r2,r8,r2
    c3b8:	21c07e26 	beq	r4,r7,c5b4 <__adddf3+0x7e0>
    c3bc:	01c01004 	movi	r7,64
    c3c0:	3909c83a 	sub	r4,r7,r4
    c3c4:	4110983a 	sll	r8,r8,r4
    c3c8:	418cb03a 	or	r6,r8,r6
    c3cc:	300cc03a 	cmpne	r6,r6,zero
    c3d0:	308cb03a 	or	r6,r6,r2
    c3d4:	0011883a 	mov	r8,zero
    c3d8:	003f1b06 	br	c048 <__alt_data_end+0xf800c048>
    c3dc:	0101ffc4 	movi	r4,2047
    c3e0:	113fa41e 	bne	r2,r4,c274 <__alt_data_end+0xf800c274>
    c3e4:	400b883a 	mov	r5,r8
    c3e8:	3023883a 	mov	r17,r6
    c3ec:	1021883a 	mov	r16,r2
    c3f0:	3825883a 	mov	r18,r7
    c3f4:	003e9606 	br	be50 <__alt_data_end+0xf800be50>
    c3f8:	80001a1e 	bne	r16,zero,c464 <__adddf3+0x690>
    c3fc:	2c4eb03a 	or	r7,r5,r17
    c400:	38005526 	beq	r7,zero,c558 <__adddf3+0x784>
    c404:	0108303a 	nor	r4,zero,r4
    c408:	2000511e 	bne	r4,zero,c550 <__adddf3+0x77c>
    c40c:	89a3883a 	add	r17,r17,r6
    c410:	414b883a 	add	r5,r8,r5
    c414:	898d803a 	cmpltu	r6,r17,r6
    c418:	298b883a 	add	r5,r5,r6
    c41c:	1021883a 	mov	r16,r2
    c420:	003f0e06 	br	c05c <__alt_data_end+0xf800c05c>
    c424:	1000341e 	bne	r2,zero,c4f8 <__adddf3+0x724>
    c428:	4184b03a 	or	r2,r8,r6
    c42c:	10006f26 	beq	r2,zero,c5ec <__adddf3+0x818>
    c430:	400b883a 	mov	r5,r8
    c434:	3023883a 	mov	r17,r6
    c438:	3825883a 	mov	r18,r7
    c43c:	0401ffc4 	movi	r16,2047
    c440:	003e8306 	br	be50 <__alt_data_end+0xf800be50>
    c444:	2c62b03a 	or	r17,r5,r17
    c448:	8822c03a 	cmpne	r17,r17,zero
    c44c:	0007883a 	mov	r3,zero
    c450:	003f9506 	br	c2a8 <__alt_data_end+0xf800c2a8>
    c454:	1021883a 	mov	r16,r2
    c458:	000b883a 	mov	r5,zero
    c45c:	0023883a 	mov	r17,zero
    c460:	003edb06 	br	bfd0 <__alt_data_end+0xf800bfd0>
    c464:	01c1ffc4 	movi	r7,2047
    c468:	11c03b26 	beq	r2,r7,c558 <__adddf3+0x784>
    c46c:	0109c83a 	sub	r4,zero,r4
    c470:	29402034 	orhi	r5,r5,128
    c474:	01c00e04 	movi	r7,56
    c478:	39006216 	blt	r7,r4,c604 <__adddf3+0x830>
    c47c:	01c007c4 	movi	r7,31
    c480:	39006b16 	blt	r7,r4,c630 <__adddf3+0x85c>
    c484:	01c00804 	movi	r7,32
    c488:	390fc83a 	sub	r7,r7,r4
    c48c:	29d4983a 	sll	r10,r5,r7
    c490:	8912d83a 	srl	r9,r17,r4
    c494:	89ce983a 	sll	r7,r17,r7
    c498:	2908d83a 	srl	r4,r5,r4
    c49c:	5262b03a 	or	r17,r10,r9
    c4a0:	380ac03a 	cmpne	r5,r7,zero
    c4a4:	8962b03a 	or	r17,r17,r5
    c4a8:	89a3883a 	add	r17,r17,r6
    c4ac:	2211883a 	add	r8,r4,r8
    c4b0:	898d803a 	cmpltu	r6,r17,r6
    c4b4:	418b883a 	add	r5,r8,r6
    c4b8:	1021883a 	mov	r16,r2
    c4bc:	003ee706 	br	c05c <__alt_data_end+0xf800c05c>
    c4c0:	4184b03a 	or	r2,r8,r6
    c4c4:	103e6226 	beq	r2,zero,be50 <__alt_data_end+0xf800be50>
    c4c8:	8987c83a 	sub	r3,r17,r6
    c4cc:	88c9803a 	cmpltu	r4,r17,r3
    c4d0:	2a05c83a 	sub	r2,r5,r8
    c4d4:	1105c83a 	sub	r2,r2,r4
    c4d8:	1100202c 	andhi	r4,r2,128
    c4dc:	203f0426 	beq	r4,zero,c0f0 <__alt_data_end+0xf800c0f0>
    c4e0:	3463c83a 	sub	r17,r6,r17
    c4e4:	414bc83a 	sub	r5,r8,r5
    c4e8:	344d803a 	cmpltu	r6,r6,r17
    c4ec:	298bc83a 	sub	r5,r5,r6
    c4f0:	3825883a 	mov	r18,r7
    c4f4:	003e5606 	br	be50 <__alt_data_end+0xf800be50>
    c4f8:	4184b03a 	or	r2,r8,r6
    c4fc:	10002b26 	beq	r2,zero,c5ac <__adddf3+0x7d8>
    c500:	2804d0fa 	srli	r2,r5,3
    c504:	8822d0fa 	srli	r17,r17,3
    c508:	280a977a 	slli	r5,r5,29
    c50c:	10c0022c 	andhi	r3,r2,8
    c510:	2c62b03a 	or	r17,r5,r17
    c514:	18000826 	beq	r3,zero,c538 <__adddf3+0x764>
    c518:	4008d0fa 	srli	r4,r8,3
    c51c:	20c0022c 	andhi	r3,r4,8
    c520:	1800051e 	bne	r3,zero,c538 <__adddf3+0x764>
    c524:	300cd0fa 	srli	r6,r6,3
    c528:	4010977a 	slli	r8,r8,29
    c52c:	2005883a 	mov	r2,r4
    c530:	3825883a 	mov	r18,r7
    c534:	41a2b03a 	or	r17,r8,r6
    c538:	880ad77a 	srli	r5,r17,29
    c53c:	100490fa 	slli	r2,r2,3
    c540:	882290fa 	slli	r17,r17,3
    c544:	0401ffc4 	movi	r16,2047
    c548:	288ab03a 	or	r5,r5,r2
    c54c:	003e4006 	br	be50 <__alt_data_end+0xf800be50>
    c550:	01c1ffc4 	movi	r7,2047
    c554:	11ffc71e 	bne	r2,r7,c474 <__alt_data_end+0xf800c474>
    c558:	400b883a 	mov	r5,r8
    c55c:	3023883a 	mov	r17,r6
    c560:	1021883a 	mov	r16,r2
    c564:	003e3a06 	br	be50 <__alt_data_end+0xf800be50>
    c568:	10002d26 	beq	r2,zero,c620 <__adddf3+0x84c>
    c56c:	4184b03a 	or	r2,r8,r6
    c570:	10000e26 	beq	r2,zero,c5ac <__adddf3+0x7d8>
    c574:	2804d0fa 	srli	r2,r5,3
    c578:	8822d0fa 	srli	r17,r17,3
    c57c:	280a977a 	slli	r5,r5,29
    c580:	10c0022c 	andhi	r3,r2,8
    c584:	2c62b03a 	or	r17,r5,r17
    c588:	183feb26 	beq	r3,zero,c538 <__alt_data_end+0xf800c538>
    c58c:	4008d0fa 	srli	r4,r8,3
    c590:	20c0022c 	andhi	r3,r4,8
    c594:	183fe81e 	bne	r3,zero,c538 <__alt_data_end+0xf800c538>
    c598:	300cd0fa 	srli	r6,r6,3
    c59c:	4010977a 	slli	r8,r8,29
    c5a0:	2005883a 	mov	r2,r4
    c5a4:	41a2b03a 	or	r17,r8,r6
    c5a8:	003fe306 	br	c538 <__alt_data_end+0xf800c538>
    c5ac:	0401ffc4 	movi	r16,2047
    c5b0:	003e2706 	br	be50 <__alt_data_end+0xf800be50>
    c5b4:	0011883a 	mov	r8,zero
    c5b8:	003f8306 	br	c3c8 <__alt_data_end+0xf800c3c8>
    c5bc:	193ff804 	addi	r4,r3,-32
    c5c0:	02400804 	movi	r9,32
    c5c4:	2908d83a 	srl	r4,r5,r4
    c5c8:	1a402526 	beq	r3,r9,c660 <__adddf3+0x88c>
    c5cc:	02401004 	movi	r9,64
    c5d0:	48c7c83a 	sub	r3,r9,r3
    c5d4:	28ca983a 	sll	r5,r5,r3
    c5d8:	2c62b03a 	or	r17,r5,r17
    c5dc:	8822c03a 	cmpne	r17,r17,zero
    c5e0:	8922b03a 	or	r17,r17,r4
    c5e4:	0007883a 	mov	r3,zero
    c5e8:	003f2f06 	br	c2a8 <__alt_data_end+0xf800c2a8>
    c5ec:	01402034 	movhi	r5,128
    c5f0:	0007883a 	mov	r3,zero
    c5f4:	297fffc4 	addi	r5,r5,-1
    c5f8:	047ffe04 	movi	r17,-8
    c5fc:	0401ffc4 	movi	r16,2047
    c600:	003e7306 	br	bfd0 <__alt_data_end+0xf800bfd0>
    c604:	2c62b03a 	or	r17,r5,r17
    c608:	8822c03a 	cmpne	r17,r17,zero
    c60c:	0009883a 	mov	r4,zero
    c610:	003fa506 	br	c4a8 <__alt_data_end+0xf800c4a8>
    c614:	400b883a 	mov	r5,r8
    c618:	3023883a 	mov	r17,r6
    c61c:	003e0c06 	br	be50 <__alt_data_end+0xf800be50>
    c620:	400b883a 	mov	r5,r8
    c624:	3023883a 	mov	r17,r6
    c628:	0401ffc4 	movi	r16,2047
    c62c:	003e0806 	br	be50 <__alt_data_end+0xf800be50>
    c630:	21fff804 	addi	r7,r4,-32
    c634:	02400804 	movi	r9,32
    c638:	29ced83a 	srl	r7,r5,r7
    c63c:	22400a26 	beq	r4,r9,c668 <__adddf3+0x894>
    c640:	02401004 	movi	r9,64
    c644:	4909c83a 	sub	r4,r9,r4
    c648:	290a983a 	sll	r5,r5,r4
    c64c:	2c62b03a 	or	r17,r5,r17
    c650:	8822c03a 	cmpne	r17,r17,zero
    c654:	89e2b03a 	or	r17,r17,r7
    c658:	0009883a 	mov	r4,zero
    c65c:	003f9206 	br	c4a8 <__alt_data_end+0xf800c4a8>
    c660:	000b883a 	mov	r5,zero
    c664:	003fdc06 	br	c5d8 <__alt_data_end+0xf800c5d8>
    c668:	000b883a 	mov	r5,zero
    c66c:	003ff706 	br	c64c <__alt_data_end+0xf800c64c>

0000c670 <__divdf3>:
    c670:	defff204 	addi	sp,sp,-56
    c674:	dd000815 	stw	r20,32(sp)
    c678:	2828d53a 	srli	r20,r5,20
    c67c:	dd800a15 	stw	r22,40(sp)
    c680:	282cd7fa 	srli	r22,r5,31
    c684:	dc000415 	stw	r16,16(sp)
    c688:	04000434 	movhi	r16,16
    c68c:	df000c15 	stw	fp,48(sp)
    c690:	dcc00715 	stw	r19,28(sp)
    c694:	dc800615 	stw	r18,24(sp)
    c698:	dc400515 	stw	r17,20(sp)
    c69c:	843fffc4 	addi	r16,r16,-1
    c6a0:	dfc00d15 	stw	ra,52(sp)
    c6a4:	ddc00b15 	stw	r23,44(sp)
    c6a8:	dd400915 	stw	r21,36(sp)
    c6ac:	a501ffcc 	andi	r20,r20,2047
    c6b0:	2025883a 	mov	r18,r4
    c6b4:	2027883a 	mov	r19,r4
    c6b8:	2c22703a 	and	r17,r5,r16
    c6bc:	b7003fcc 	andi	fp,r22,255
    c6c0:	a0005e26 	beq	r20,zero,c83c <__divdf3+0x1cc>
    c6c4:	0081ffc4 	movi	r2,2047
    c6c8:	a0803526 	beq	r20,r2,c7a0 <__divdf3+0x130>
    c6cc:	8c000434 	orhi	r16,r17,16
    c6d0:	2004d77a 	srli	r2,r4,29
    c6d4:	802090fa 	slli	r16,r16,3
    c6d8:	202690fa 	slli	r19,r4,3
    c6dc:	a53f0044 	addi	r20,r20,-1023
    c6e0:	80a2b03a 	or	r17,r16,r2
    c6e4:	0025883a 	mov	r18,zero
    c6e8:	0011883a 	mov	r8,zero
    c6ec:	380ad53a 	srli	r5,r7,20
    c6f0:	382ed7fa 	srli	r23,r7,31
    c6f4:	04000434 	movhi	r16,16
    c6f8:	843fffc4 	addi	r16,r16,-1
    c6fc:	2941ffcc 	andi	r5,r5,2047
    c700:	302b883a 	mov	r21,r6
    c704:	3c20703a 	and	r16,r7,r16
    c708:	ba403fcc 	andi	r9,r23,255
    c70c:	28006726 	beq	r5,zero,c8ac <__divdf3+0x23c>
    c710:	0081ffc4 	movi	r2,2047
    c714:	28805f26 	beq	r5,r2,c894 <__divdf3+0x224>
    c718:	84000434 	orhi	r16,r16,16
    c71c:	3004d77a 	srli	r2,r6,29
    c720:	802090fa 	slli	r16,r16,3
    c724:	302a90fa 	slli	r21,r6,3
    c728:	297f0044 	addi	r5,r5,-1023
    c72c:	80a0b03a 	or	r16,r16,r2
    c730:	000f883a 	mov	r7,zero
    c734:	3c86b03a 	or	r3,r7,r18
    c738:	180690ba 	slli	r3,r3,2
    c73c:	00800074 	movhi	r2,1
    c740:	10b1d804 	addi	r2,r2,-14496
    c744:	1887883a 	add	r3,r3,r2
    c748:	18c00017 	ldw	r3,0(r3)
    c74c:	b5c8f03a 	xor	r4,r22,r23
    c750:	200d883a 	mov	r6,r4
    c754:	24803fcc 	andi	r18,r4,255
    c758:	a169c83a 	sub	r20,r20,r5
    c75c:	1800683a 	jmp	r3
    c760:	0000c9a8 	cmpgeui	zero,zero,806
    c764:	0000c7d8 	cmpnei	zero,zero,799
    c768:	0000c96c 	andhi	zero,zero,805
    c76c:	0000c7bc 	xorhi	zero,zero,798
    c770:	0000c96c 	andhi	zero,zero,805
    c774:	0000c940 	call	c94 <setDefaultProgressBar+0x224>
    c778:	0000c96c 	andhi	zero,zero,805
    c77c:	0000c7bc 	xorhi	zero,zero,798
    c780:	0000c7d8 	cmpnei	zero,zero,799
    c784:	0000c7d8 	cmpnei	zero,zero,799
    c788:	0000c940 	call	c94 <setDefaultProgressBar+0x224>
    c78c:	0000c7bc 	xorhi	zero,zero,798
    c790:	0000c7cc 	andi	zero,zero,799
    c794:	0000c7cc 	andi	zero,zero,799
    c798:	0000c7cc 	andi	zero,zero,799
    c79c:	0000c97c 	xorhi	zero,zero,805
    c7a0:	8904b03a 	or	r2,r17,r4
    c7a4:	1000631e 	bne	r2,zero,c934 <__divdf3+0x2c4>
    c7a8:	04800204 	movi	r18,8
    c7ac:	0023883a 	mov	r17,zero
    c7b0:	0027883a 	mov	r19,zero
    c7b4:	02000084 	movi	r8,2
    c7b8:	003fcc06 	br	c6ec <__alt_data_end+0xf800c6ec>
    c7bc:	8023883a 	mov	r17,r16
    c7c0:	a827883a 	mov	r19,r21
    c7c4:	4839883a 	mov	fp,r9
    c7c8:	3811883a 	mov	r8,r7
    c7cc:	00800084 	movi	r2,2
    c7d0:	40812a1e 	bne	r8,r2,cc7c <__divdf3+0x60c>
    c7d4:	e025883a 	mov	r18,fp
    c7d8:	9180004c 	andi	r6,r18,1
    c7dc:	0101ffc4 	movi	r4,2047
    c7e0:	000b883a 	mov	r5,zero
    c7e4:	0027883a 	mov	r19,zero
    c7e8:	2008953a 	slli	r4,r4,20
    c7ec:	30c03fcc 	andi	r3,r6,255
    c7f0:	04000434 	movhi	r16,16
    c7f4:	180697fa 	slli	r3,r3,31
    c7f8:	843fffc4 	addi	r16,r16,-1
    c7fc:	2c20703a 	and	r16,r5,r16
    c800:	8120b03a 	or	r16,r16,r4
    c804:	80c6b03a 	or	r3,r16,r3
    c808:	9805883a 	mov	r2,r19
    c80c:	dfc00d17 	ldw	ra,52(sp)
    c810:	df000c17 	ldw	fp,48(sp)
    c814:	ddc00b17 	ldw	r23,44(sp)
    c818:	dd800a17 	ldw	r22,40(sp)
    c81c:	dd400917 	ldw	r21,36(sp)
    c820:	dd000817 	ldw	r20,32(sp)
    c824:	dcc00717 	ldw	r19,28(sp)
    c828:	dc800617 	ldw	r18,24(sp)
    c82c:	dc400517 	ldw	r17,20(sp)
    c830:	dc000417 	ldw	r16,16(sp)
    c834:	dec00e04 	addi	sp,sp,56
    c838:	f800283a 	ret
    c83c:	8904b03a 	or	r2,r17,r4
    c840:	10003726 	beq	r2,zero,c920 <__divdf3+0x2b0>
    c844:	88011c26 	beq	r17,zero,ccb8 <__divdf3+0x648>
    c848:	8809883a 	mov	r4,r17
    c84c:	d9800315 	stw	r6,12(sp)
    c850:	d9c00115 	stw	r7,4(sp)
    c854:	000e3700 	call	e370 <__clzsi2>
    c858:	d9800317 	ldw	r6,12(sp)
    c85c:	d9c00117 	ldw	r7,4(sp)
    c860:	1007883a 	mov	r3,r2
    c864:	01000a04 	movi	r4,40
    c868:	1cfffe04 	addi	r19,r3,-8
    c86c:	20c9c83a 	sub	r4,r4,r3
    c870:	8cca983a 	sll	r5,r17,r19
    c874:	9108d83a 	srl	r4,r18,r4
    c878:	94e6983a 	sll	r19,r18,r19
    c87c:	2162b03a 	or	r17,r4,r5
    c880:	053f0344 	movi	r20,-1011
    c884:	a0e9c83a 	sub	r20,r20,r3
    c888:	0025883a 	mov	r18,zero
    c88c:	0011883a 	mov	r8,zero
    c890:	003f9606 	br	c6ec <__alt_data_end+0xf800c6ec>
    c894:	8184b03a 	or	r2,r16,r6
    c898:	10001f1e 	bne	r2,zero,c918 <__divdf3+0x2a8>
    c89c:	0021883a 	mov	r16,zero
    c8a0:	002b883a 	mov	r21,zero
    c8a4:	01c00084 	movi	r7,2
    c8a8:	003fa206 	br	c734 <__alt_data_end+0xf800c734>
    c8ac:	8184b03a 	or	r2,r16,r6
    c8b0:	10001526 	beq	r2,zero,c908 <__divdf3+0x298>
    c8b4:	80010c26 	beq	r16,zero,cce8 <__divdf3+0x678>
    c8b8:	8009883a 	mov	r4,r16
    c8bc:	d9800315 	stw	r6,12(sp)
    c8c0:	da000215 	stw	r8,8(sp)
    c8c4:	da400015 	stw	r9,0(sp)
    c8c8:	000e3700 	call	e370 <__clzsi2>
    c8cc:	d9800317 	ldw	r6,12(sp)
    c8d0:	da000217 	ldw	r8,8(sp)
    c8d4:	da400017 	ldw	r9,0(sp)
    c8d8:	1007883a 	mov	r3,r2
    c8dc:	01000a04 	movi	r4,40
    c8e0:	1d7ffe04 	addi	r21,r3,-8
    c8e4:	20c9c83a 	sub	r4,r4,r3
    c8e8:	8560983a 	sll	r16,r16,r21
    c8ec:	3108d83a 	srl	r4,r6,r4
    c8f0:	356a983a 	sll	r21,r6,r21
    c8f4:	2420b03a 	or	r16,r4,r16
    c8f8:	017f0344 	movi	r5,-1011
    c8fc:	28cbc83a 	sub	r5,r5,r3
    c900:	000f883a 	mov	r7,zero
    c904:	003f8b06 	br	c734 <__alt_data_end+0xf800c734>
    c908:	0021883a 	mov	r16,zero
    c90c:	002b883a 	mov	r21,zero
    c910:	01c00044 	movi	r7,1
    c914:	003f8706 	br	c734 <__alt_data_end+0xf800c734>
    c918:	01c000c4 	movi	r7,3
    c91c:	003f8506 	br	c734 <__alt_data_end+0xf800c734>
    c920:	04800104 	movi	r18,4
    c924:	0023883a 	mov	r17,zero
    c928:	0027883a 	mov	r19,zero
    c92c:	02000044 	movi	r8,1
    c930:	003f6e06 	br	c6ec <__alt_data_end+0xf800c6ec>
    c934:	04800304 	movi	r18,12
    c938:	020000c4 	movi	r8,3
    c93c:	003f6b06 	br	c6ec <__alt_data_end+0xf800c6ec>
    c940:	01400434 	movhi	r5,16
    c944:	000d883a 	mov	r6,zero
    c948:	297fffc4 	addi	r5,r5,-1
    c94c:	04ffffc4 	movi	r19,-1
    c950:	0101ffc4 	movi	r4,2047
    c954:	003fa406 	br	c7e8 <__alt_data_end+0xf800c7e8>
    c958:	043f0084 	movi	r16,-1022
    c95c:	8521c83a 	sub	r16,r16,r20
    c960:	00800e04 	movi	r2,56
    c964:	1401200e 	bge	r2,r16,cde8 <__divdf3+0x778>
    c968:	9180004c 	andi	r6,r18,1
    c96c:	0009883a 	mov	r4,zero
    c970:	000b883a 	mov	r5,zero
    c974:	0027883a 	mov	r19,zero
    c978:	003f9b06 	br	c7e8 <__alt_data_end+0xf800c7e8>
    c97c:	8880022c 	andhi	r2,r17,8
    c980:	1000c726 	beq	r2,zero,cca0 <__divdf3+0x630>
    c984:	8080022c 	andhi	r2,r16,8
    c988:	1000c51e 	bne	r2,zero,cca0 <__divdf3+0x630>
    c98c:	00800434 	movhi	r2,16
    c990:	81400234 	orhi	r5,r16,8
    c994:	10bfffc4 	addi	r2,r2,-1
    c998:	b80d883a 	mov	r6,r23
    c99c:	288a703a 	and	r5,r5,r2
    c9a0:	a827883a 	mov	r19,r21
    c9a4:	003fea06 	br	c950 <__alt_data_end+0xf800c950>
    c9a8:	8440ea36 	bltu	r16,r17,cd54 <__divdf3+0x6e4>
    c9ac:	8c00e826 	beq	r17,r16,cd50 <__divdf3+0x6e0>
    c9b0:	a53fffc4 	addi	r20,r20,-1
    c9b4:	882d883a 	mov	r22,r17
    c9b8:	000d883a 	mov	r6,zero
    c9bc:	a804d63a 	srli	r2,r21,24
    c9c0:	8020923a 	slli	r16,r16,8
    c9c4:	b009883a 	mov	r4,r22
    c9c8:	d9800315 	stw	r6,12(sp)
    c9cc:	1420b03a 	or	r16,r2,r16
    c9d0:	802ed43a 	srli	r23,r16,16
    c9d4:	873fffcc 	andi	fp,r16,65535
    c9d8:	a82a923a 	slli	r21,r21,8
    c9dc:	b80b883a 	mov	r5,r23
    c9e0:	0003d700 	call	3d70 <__udivsi3>
    c9e4:	b009883a 	mov	r4,r22
    c9e8:	b80b883a 	mov	r5,r23
    c9ec:	1023883a 	mov	r17,r2
    c9f0:	0003d780 	call	3d78 <__umodsi3>
    c9f4:	1004943a 	slli	r2,r2,16
    c9f8:	9808d43a 	srli	r4,r19,16
    c9fc:	8f2d383a 	mul	r22,r17,fp
    ca00:	d9800317 	ldw	r6,12(sp)
    ca04:	1106b03a 	or	r3,r2,r4
    ca08:	1d80062e 	bgeu	r3,r22,ca24 <__divdf3+0x3b4>
    ca0c:	1c07883a 	add	r3,r3,r16
    ca10:	88bfffc4 	addi	r2,r17,-1
    ca14:	1c00dc36 	bltu	r3,r16,cd88 <__divdf3+0x718>
    ca18:	1d80db2e 	bgeu	r3,r22,cd88 <__divdf3+0x718>
    ca1c:	8c7fff84 	addi	r17,r17,-2
    ca20:	1c07883a 	add	r3,r3,r16
    ca24:	1dadc83a 	sub	r22,r3,r22
    ca28:	b009883a 	mov	r4,r22
    ca2c:	b80b883a 	mov	r5,r23
    ca30:	d9800315 	stw	r6,12(sp)
    ca34:	0003d700 	call	3d70 <__udivsi3>
    ca38:	b009883a 	mov	r4,r22
    ca3c:	b80b883a 	mov	r5,r23
    ca40:	d8800015 	stw	r2,0(sp)
    ca44:	0003d780 	call	3d78 <__umodsi3>
    ca48:	da400017 	ldw	r9,0(sp)
    ca4c:	1004943a 	slli	r2,r2,16
    ca50:	9cffffcc 	andi	r19,r19,65535
    ca54:	4f07383a 	mul	r3,r9,fp
    ca58:	14c8b03a 	or	r4,r2,r19
    ca5c:	d9800317 	ldw	r6,12(sp)
    ca60:	20c0062e 	bgeu	r4,r3,ca7c <__divdf3+0x40c>
    ca64:	2409883a 	add	r4,r4,r16
    ca68:	48bfffc4 	addi	r2,r9,-1
    ca6c:	2400c436 	bltu	r4,r16,cd80 <__divdf3+0x710>
    ca70:	20c0c32e 	bgeu	r4,r3,cd80 <__divdf3+0x710>
    ca74:	4a7fff84 	addi	r9,r9,-2
    ca78:	2409883a 	add	r4,r4,r16
    ca7c:	8822943a 	slli	r17,r17,16
    ca80:	a80ed43a 	srli	r7,r21,16
    ca84:	aa3fffcc 	andi	r8,r21,65535
    ca88:	4c62b03a 	or	r17,r9,r17
    ca8c:	8816d43a 	srli	r11,r17,16
    ca90:	897fffcc 	andi	r5,r17,65535
    ca94:	2a15383a 	mul	r10,r5,r8
    ca98:	5a19383a 	mul	r12,r11,r8
    ca9c:	29cb383a 	mul	r5,r5,r7
    caa0:	5012d43a 	srli	r9,r10,16
    caa4:	20c5c83a 	sub	r2,r4,r3
    caa8:	614b883a 	add	r5,r12,r5
    caac:	2a4b883a 	add	r5,r5,r9
    cab0:	59c7383a 	mul	r3,r11,r7
    cab4:	2b00022e 	bgeu	r5,r12,cac0 <__divdf3+0x450>
    cab8:	01000074 	movhi	r4,1
    cabc:	1907883a 	add	r3,r3,r4
    cac0:	2808d43a 	srli	r4,r5,16
    cac4:	280a943a 	slli	r5,r5,16
    cac8:	54ffffcc 	andi	r19,r10,65535
    cacc:	1907883a 	add	r3,r3,r4
    cad0:	2ccb883a 	add	r5,r5,r19
    cad4:	10c09336 	bltu	r2,r3,cd24 <__divdf3+0x6b4>
    cad8:	10c0ad26 	beq	r2,r3,cd90 <__divdf3+0x720>
    cadc:	10c7c83a 	sub	r3,r2,r3
    cae0:	3167c83a 	sub	r19,r6,r5
    cae4:	34ed803a 	cmpltu	r22,r6,r19
    cae8:	1dadc83a 	sub	r22,r3,r22
    caec:	b400b226 	beq	r22,r16,cdb8 <__divdf3+0x748>
    caf0:	b009883a 	mov	r4,r22
    caf4:	b80b883a 	mov	r5,r23
    caf8:	d9c00115 	stw	r7,4(sp)
    cafc:	da000215 	stw	r8,8(sp)
    cb00:	0003d700 	call	3d70 <__udivsi3>
    cb04:	b009883a 	mov	r4,r22
    cb08:	b80b883a 	mov	r5,r23
    cb0c:	d8800315 	stw	r2,12(sp)
    cb10:	0003d780 	call	3d78 <__umodsi3>
    cb14:	d9800317 	ldw	r6,12(sp)
    cb18:	1004943a 	slli	r2,r2,16
    cb1c:	9808d43a 	srli	r4,r19,16
    cb20:	372d383a 	mul	r22,r6,fp
    cb24:	d9c00117 	ldw	r7,4(sp)
    cb28:	1106b03a 	or	r3,r2,r4
    cb2c:	da000217 	ldw	r8,8(sp)
    cb30:	1d80062e 	bgeu	r3,r22,cb4c <__divdf3+0x4dc>
    cb34:	1c07883a 	add	r3,r3,r16
    cb38:	30bfffc4 	addi	r2,r6,-1
    cb3c:	1c00a036 	bltu	r3,r16,cdc0 <__divdf3+0x750>
    cb40:	1d809f2e 	bgeu	r3,r22,cdc0 <__divdf3+0x750>
    cb44:	31bfff84 	addi	r6,r6,-2
    cb48:	1c07883a 	add	r3,r3,r16
    cb4c:	1dadc83a 	sub	r22,r3,r22
    cb50:	b009883a 	mov	r4,r22
    cb54:	b80b883a 	mov	r5,r23
    cb58:	d9800315 	stw	r6,12(sp)
    cb5c:	d9c00115 	stw	r7,4(sp)
    cb60:	da000215 	stw	r8,8(sp)
    cb64:	0003d700 	call	3d70 <__udivsi3>
    cb68:	b009883a 	mov	r4,r22
    cb6c:	b80b883a 	mov	r5,r23
    cb70:	d8800015 	stw	r2,0(sp)
    cb74:	0003d780 	call	3d78 <__umodsi3>
    cb78:	da400017 	ldw	r9,0(sp)
    cb7c:	1004943a 	slli	r2,r2,16
    cb80:	993fffcc 	andi	r4,r19,65535
    cb84:	4f39383a 	mul	fp,r9,fp
    cb88:	1106b03a 	or	r3,r2,r4
    cb8c:	d9800317 	ldw	r6,12(sp)
    cb90:	d9c00117 	ldw	r7,4(sp)
    cb94:	da000217 	ldw	r8,8(sp)
    cb98:	1f00062e 	bgeu	r3,fp,cbb4 <__divdf3+0x544>
    cb9c:	1c07883a 	add	r3,r3,r16
    cba0:	48bfffc4 	addi	r2,r9,-1
    cba4:	1c008836 	bltu	r3,r16,cdc8 <__divdf3+0x758>
    cba8:	1f00872e 	bgeu	r3,fp,cdc8 <__divdf3+0x758>
    cbac:	4a7fff84 	addi	r9,r9,-2
    cbb0:	1c07883a 	add	r3,r3,r16
    cbb4:	3008943a 	slli	r4,r6,16
    cbb8:	1f07c83a 	sub	r3,r3,fp
    cbbc:	4926b03a 	or	r19,r9,r4
    cbc0:	993fffcc 	andi	r4,r19,65535
    cbc4:	980cd43a 	srli	r6,r19,16
    cbc8:	220b383a 	mul	r5,r4,r8
    cbcc:	21c5383a 	mul	r2,r4,r7
    cbd0:	3211383a 	mul	r8,r6,r8
    cbd4:	2808d43a 	srli	r4,r5,16
    cbd8:	31cf383a 	mul	r7,r6,r7
    cbdc:	4085883a 	add	r2,r8,r2
    cbe0:	1105883a 	add	r2,r2,r4
    cbe4:	1200022e 	bgeu	r2,r8,cbf0 <__divdf3+0x580>
    cbe8:	01000074 	movhi	r4,1
    cbec:	390f883a 	add	r7,r7,r4
    cbf0:	1008d43a 	srli	r4,r2,16
    cbf4:	1004943a 	slli	r2,r2,16
    cbf8:	297fffcc 	andi	r5,r5,65535
    cbfc:	390f883a 	add	r7,r7,r4
    cc00:	1145883a 	add	r2,r2,r5
    cc04:	19c06536 	bltu	r3,r7,cd9c <__divdf3+0x72c>
    cc08:	19c09f26 	beq	r3,r7,ce88 <__divdf3+0x818>
    cc0c:	9cc00054 	ori	r19,r19,1
    cc10:	a100ffc4 	addi	r4,r20,1023
    cc14:	013f500e 	bge	zero,r4,c958 <__alt_data_end+0xf800c958>
    cc18:	988001cc 	andi	r2,r19,7
    cc1c:	10000726 	beq	r2,zero,cc3c <__divdf3+0x5cc>
    cc20:	98c003cc 	andi	r3,r19,15
    cc24:	00800104 	movi	r2,4
    cc28:	18800426 	beq	r3,r2,cc3c <__divdf3+0x5cc>
    cc2c:	9885883a 	add	r2,r19,r2
    cc30:	14e1803a 	cmpltu	r16,r2,r19
    cc34:	8c23883a 	add	r17,r17,r16
    cc38:	1027883a 	mov	r19,r2
    cc3c:	8880402c 	andhi	r2,r17,256
    cc40:	10000426 	beq	r2,zero,cc54 <__divdf3+0x5e4>
    cc44:	00bfc034 	movhi	r2,65280
    cc48:	10bfffc4 	addi	r2,r2,-1
    cc4c:	a1010004 	addi	r4,r20,1024
    cc50:	88a2703a 	and	r17,r17,r2
    cc54:	0081ff84 	movi	r2,2046
    cc58:	113edf16 	blt	r2,r4,c7d8 <__alt_data_end+0xf800c7d8>
    cc5c:	9826d0fa 	srli	r19,r19,3
    cc60:	8804977a 	slli	r2,r17,29
    cc64:	8820927a 	slli	r16,r17,9
    cc68:	2101ffcc 	andi	r4,r4,2047
    cc6c:	14e6b03a 	or	r19,r2,r19
    cc70:	800ad33a 	srli	r5,r16,12
    cc74:	9180004c 	andi	r6,r18,1
    cc78:	003edb06 	br	c7e8 <__alt_data_end+0xf800c7e8>
    cc7c:	008000c4 	movi	r2,3
    cc80:	4080a826 	beq	r8,r2,cf24 <__divdf3+0x8b4>
    cc84:	00800044 	movi	r2,1
    cc88:	4080551e 	bne	r8,r2,cde0 <__divdf3+0x770>
    cc8c:	e00d883a 	mov	r6,fp
    cc90:	0009883a 	mov	r4,zero
    cc94:	000b883a 	mov	r5,zero
    cc98:	0027883a 	mov	r19,zero
    cc9c:	003ed206 	br	c7e8 <__alt_data_end+0xf800c7e8>
    cca0:	00800434 	movhi	r2,16
    cca4:	89400234 	orhi	r5,r17,8
    cca8:	10bfffc4 	addi	r2,r2,-1
    ccac:	b00d883a 	mov	r6,r22
    ccb0:	288a703a 	and	r5,r5,r2
    ccb4:	003f2606 	br	c950 <__alt_data_end+0xf800c950>
    ccb8:	d9800315 	stw	r6,12(sp)
    ccbc:	d9c00115 	stw	r7,4(sp)
    ccc0:	000e3700 	call	e370 <__clzsi2>
    ccc4:	10c00804 	addi	r3,r2,32
    ccc8:	010009c4 	movi	r4,39
    cccc:	d9800317 	ldw	r6,12(sp)
    ccd0:	d9c00117 	ldw	r7,4(sp)
    ccd4:	20fee30e 	bge	r4,r3,c864 <__alt_data_end+0xf800c864>
    ccd8:	117ffe04 	addi	r5,r2,-8
    ccdc:	9162983a 	sll	r17,r18,r5
    cce0:	0027883a 	mov	r19,zero
    cce4:	003ee606 	br	c880 <__alt_data_end+0xf800c880>
    cce8:	3009883a 	mov	r4,r6
    ccec:	d9800315 	stw	r6,12(sp)
    ccf0:	da000215 	stw	r8,8(sp)
    ccf4:	da400015 	stw	r9,0(sp)
    ccf8:	000e3700 	call	e370 <__clzsi2>
    ccfc:	10c00804 	addi	r3,r2,32
    cd00:	010009c4 	movi	r4,39
    cd04:	d9800317 	ldw	r6,12(sp)
    cd08:	da000217 	ldw	r8,8(sp)
    cd0c:	da400017 	ldw	r9,0(sp)
    cd10:	20fef20e 	bge	r4,r3,c8dc <__alt_data_end+0xf800c8dc>
    cd14:	10bffe04 	addi	r2,r2,-8
    cd18:	a8a0983a 	sll	r16,r21,r2
    cd1c:	002b883a 	mov	r21,zero
    cd20:	003ef506 	br	c8f8 <__alt_data_end+0xf800c8f8>
    cd24:	354d883a 	add	r6,r6,r21
    cd28:	3549803a 	cmpltu	r4,r6,r21
    cd2c:	2409883a 	add	r4,r4,r16
    cd30:	2089883a 	add	r4,r4,r2
    cd34:	88bfffc4 	addi	r2,r17,-1
    cd38:	81000c2e 	bgeu	r16,r4,cd6c <__divdf3+0x6fc>
    cd3c:	20c04436 	bltu	r4,r3,ce50 <__divdf3+0x7e0>
    cd40:	19006f26 	beq	r3,r4,cf00 <__divdf3+0x890>
    cd44:	20c7c83a 	sub	r3,r4,r3
    cd48:	1023883a 	mov	r17,r2
    cd4c:	003f6406 	br	cae0 <__alt_data_end+0xf800cae0>
    cd50:	9d7f1736 	bltu	r19,r21,c9b0 <__alt_data_end+0xf800c9b0>
    cd54:	9806d07a 	srli	r3,r19,1
    cd58:	880497fa 	slli	r2,r17,31
    cd5c:	980c97fa 	slli	r6,r19,31
    cd60:	882cd07a 	srli	r22,r17,1
    cd64:	18a6b03a 	or	r19,r3,r2
    cd68:	003f1406 	br	c9bc <__alt_data_end+0xf800c9bc>
    cd6c:	243ff51e 	bne	r4,r16,cd44 <__alt_data_end+0xf800cd44>
    cd70:	357ff22e 	bgeu	r6,r21,cd3c <__alt_data_end+0xf800cd3c>
    cd74:	80c7c83a 	sub	r3,r16,r3
    cd78:	1023883a 	mov	r17,r2
    cd7c:	003f5806 	br	cae0 <__alt_data_end+0xf800cae0>
    cd80:	1013883a 	mov	r9,r2
    cd84:	003f3d06 	br	ca7c <__alt_data_end+0xf800ca7c>
    cd88:	1023883a 	mov	r17,r2
    cd8c:	003f2506 	br	ca24 <__alt_data_end+0xf800ca24>
    cd90:	317fe436 	bltu	r6,r5,cd24 <__alt_data_end+0xf800cd24>
    cd94:	0007883a 	mov	r3,zero
    cd98:	003f5106 	br	cae0 <__alt_data_end+0xf800cae0>
    cd9c:	1c07883a 	add	r3,r3,r16
    cda0:	993fffc4 	addi	r4,r19,-1
    cda4:	1c000a2e 	bgeu	r3,r16,cdd0 <__divdf3+0x760>
    cda8:	2027883a 	mov	r19,r4
    cdac:	19ff971e 	bne	r3,r7,cc0c <__alt_data_end+0xf800cc0c>
    cdb0:	a8bf961e 	bne	r21,r2,cc0c <__alt_data_end+0xf800cc0c>
    cdb4:	003f9606 	br	cc10 <__alt_data_end+0xf800cc10>
    cdb8:	04ffffc4 	movi	r19,-1
    cdbc:	003f9406 	br	cc10 <__alt_data_end+0xf800cc10>
    cdc0:	100d883a 	mov	r6,r2
    cdc4:	003f6106 	br	cb4c <__alt_data_end+0xf800cb4c>
    cdc8:	1013883a 	mov	r9,r2
    cdcc:	003f7906 	br	cbb4 <__alt_data_end+0xf800cbb4>
    cdd0:	19c02636 	bltu	r3,r7,ce6c <__divdf3+0x7fc>
    cdd4:	38c04d26 	beq	r7,r3,cf0c <__divdf3+0x89c>
    cdd8:	2027883a 	mov	r19,r4
    cddc:	003f8b06 	br	cc0c <__alt_data_end+0xf800cc0c>
    cde0:	e025883a 	mov	r18,fp
    cde4:	003f8a06 	br	cc10 <__alt_data_end+0xf800cc10>
    cde8:	008007c4 	movi	r2,31
    cdec:	14002a16 	blt	r2,r16,ce98 <__divdf3+0x828>
    cdf0:	a5010784 	addi	r20,r20,1054
    cdf4:	8d04983a 	sll	r2,r17,r20
    cdf8:	9c06d83a 	srl	r3,r19,r16
    cdfc:	9d28983a 	sll	r20,r19,r20
    ce00:	8c20d83a 	srl	r16,r17,r16
    ce04:	1886b03a 	or	r3,r3,r2
    ce08:	a004c03a 	cmpne	r2,r20,zero
    ce0c:	1884b03a 	or	r2,r3,r2
    ce10:	10c001cc 	andi	r3,r2,7
    ce14:	18000726 	beq	r3,zero,ce34 <__divdf3+0x7c4>
    ce18:	110003cc 	andi	r4,r2,15
    ce1c:	00c00104 	movi	r3,4
    ce20:	20c00426 	beq	r4,r3,ce34 <__divdf3+0x7c4>
    ce24:	10c00104 	addi	r3,r2,4
    ce28:	1885803a 	cmpltu	r2,r3,r2
    ce2c:	80a1883a 	add	r16,r16,r2
    ce30:	1805883a 	mov	r2,r3
    ce34:	80c0202c 	andhi	r3,r16,128
    ce38:	18002d26 	beq	r3,zero,cef0 <__divdf3+0x880>
    ce3c:	9180004c 	andi	r6,r18,1
    ce40:	01000044 	movi	r4,1
    ce44:	000b883a 	mov	r5,zero
    ce48:	0027883a 	mov	r19,zero
    ce4c:	003e6606 	br	c7e8 <__alt_data_end+0xf800c7e8>
    ce50:	354d883a 	add	r6,r6,r21
    ce54:	356d803a 	cmpltu	r22,r6,r21
    ce58:	b42d883a 	add	r22,r22,r16
    ce5c:	b12d883a 	add	r22,r22,r4
    ce60:	8c7fff84 	addi	r17,r17,-2
    ce64:	b0c7c83a 	sub	r3,r22,r3
    ce68:	003f1d06 	br	cae0 <__alt_data_end+0xf800cae0>
    ce6c:	ad4b883a 	add	r5,r21,r21
    ce70:	2d6b803a 	cmpltu	r21,r5,r21
    ce74:	ac2b883a 	add	r21,r21,r16
    ce78:	1d47883a 	add	r3,r3,r21
    ce7c:	993fff84 	addi	r4,r19,-2
    ce80:	282b883a 	mov	r21,r5
    ce84:	003fc806 	br	cda8 <__alt_data_end+0xf800cda8>
    ce88:	103fc41e 	bne	r2,zero,cd9c <__alt_data_end+0xf800cd9c>
    ce8c:	002b883a 	mov	r21,zero
    ce90:	a8bf5e1e 	bne	r21,r2,cc0c <__alt_data_end+0xf800cc0c>
    ce94:	003f5e06 	br	cc10 <__alt_data_end+0xf800cc10>
    ce98:	00bef884 	movi	r2,-1054
    ce9c:	1505c83a 	sub	r2,r2,r20
    cea0:	00c00804 	movi	r3,32
    cea4:	8884d83a 	srl	r2,r17,r2
    cea8:	80c01c26 	beq	r16,r3,cf1c <__divdf3+0x8ac>
    ceac:	a0c10f84 	addi	r3,r20,1086
    ceb0:	88c6983a 	sll	r3,r17,r3
    ceb4:	1cc6b03a 	or	r3,r3,r19
    ceb8:	1806c03a 	cmpne	r3,r3,zero
    cebc:	1884b03a 	or	r2,r3,r2
    cec0:	140001cc 	andi	r16,r2,7
    cec4:	8000061e 	bne	r16,zero,cee0 <__divdf3+0x870>
    cec8:	000b883a 	mov	r5,zero
    cecc:	1004d0fa 	srli	r2,r2,3
    ced0:	9180004c 	andi	r6,r18,1
    ced4:	0009883a 	mov	r4,zero
    ced8:	1426b03a 	or	r19,r2,r16
    cedc:	003e4206 	br	c7e8 <__alt_data_end+0xf800c7e8>
    cee0:	110003cc 	andi	r4,r2,15
    cee4:	00c00104 	movi	r3,4
    cee8:	0021883a 	mov	r16,zero
    ceec:	20ffcd1e 	bne	r4,r3,ce24 <__alt_data_end+0xf800ce24>
    cef0:	800a927a 	slli	r5,r16,9
    cef4:	8020977a 	slli	r16,r16,29
    cef8:	280ad33a 	srli	r5,r5,12
    cefc:	003ff306 	br	cecc <__alt_data_end+0xf800cecc>
    cf00:	317fd336 	bltu	r6,r5,ce50 <__alt_data_end+0xf800ce50>
    cf04:	1023883a 	mov	r17,r2
    cf08:	003fa206 	br	cd94 <__alt_data_end+0xf800cd94>
    cf0c:	a8bfd736 	bltu	r21,r2,ce6c <__alt_data_end+0xf800ce6c>
    cf10:	2027883a 	mov	r19,r4
    cf14:	a8bf3d1e 	bne	r21,r2,cc0c <__alt_data_end+0xf800cc0c>
    cf18:	003f3d06 	br	cc10 <__alt_data_end+0xf800cc10>
    cf1c:	0007883a 	mov	r3,zero
    cf20:	003fe406 	br	ceb4 <__alt_data_end+0xf800ceb4>
    cf24:	00800434 	movhi	r2,16
    cf28:	89400234 	orhi	r5,r17,8
    cf2c:	10bfffc4 	addi	r2,r2,-1
    cf30:	e00d883a 	mov	r6,fp
    cf34:	288a703a 	and	r5,r5,r2
    cf38:	003e8506 	br	c950 <__alt_data_end+0xf800c950>

0000cf3c <__eqdf2>:
    cf3c:	2804d53a 	srli	r2,r5,20
    cf40:	3806d53a 	srli	r3,r7,20
    cf44:	02000434 	movhi	r8,16
    cf48:	423fffc4 	addi	r8,r8,-1
    cf4c:	1081ffcc 	andi	r2,r2,2047
    cf50:	0241ffc4 	movi	r9,2047
    cf54:	2a14703a 	and	r10,r5,r8
    cf58:	18c1ffcc 	andi	r3,r3,2047
    cf5c:	3a10703a 	and	r8,r7,r8
    cf60:	280ad7fa 	srli	r5,r5,31
    cf64:	380ed7fa 	srli	r7,r7,31
    cf68:	12400f26 	beq	r2,r9,cfa8 <__eqdf2+0x6c>
    cf6c:	0241ffc4 	movi	r9,2047
    cf70:	1a400326 	beq	r3,r9,cf80 <__eqdf2+0x44>
    cf74:	10c00526 	beq	r2,r3,cf8c <__eqdf2+0x50>
    cf78:	00800044 	movi	r2,1
    cf7c:	f800283a 	ret
    cf80:	4192b03a 	or	r9,r8,r6
    cf84:	483ffc1e 	bne	r9,zero,cf78 <__alt_data_end+0xf800cf78>
    cf88:	10fffb1e 	bne	r2,r3,cf78 <__alt_data_end+0xf800cf78>
    cf8c:	523ffa1e 	bne	r10,r8,cf78 <__alt_data_end+0xf800cf78>
    cf90:	21bff91e 	bne	r4,r6,cf78 <__alt_data_end+0xf800cf78>
    cf94:	29c00826 	beq	r5,r7,cfb8 <__eqdf2+0x7c>
    cf98:	103ff71e 	bne	r2,zero,cf78 <__alt_data_end+0xf800cf78>
    cf9c:	5104b03a 	or	r2,r10,r4
    cfa0:	1004c03a 	cmpne	r2,r2,zero
    cfa4:	f800283a 	ret
    cfa8:	5112b03a 	or	r9,r10,r4
    cfac:	483fef26 	beq	r9,zero,cf6c <__alt_data_end+0xf800cf6c>
    cfb0:	00800044 	movi	r2,1
    cfb4:	f800283a 	ret
    cfb8:	0005883a 	mov	r2,zero
    cfbc:	f800283a 	ret

0000cfc0 <__gedf2>:
    cfc0:	2804d53a 	srli	r2,r5,20
    cfc4:	3806d53a 	srli	r3,r7,20
    cfc8:	02000434 	movhi	r8,16
    cfcc:	423fffc4 	addi	r8,r8,-1
    cfd0:	0241ffc4 	movi	r9,2047
    cfd4:	1081ffcc 	andi	r2,r2,2047
    cfd8:	2a14703a 	and	r10,r5,r8
    cfdc:	1a46703a 	and	r3,r3,r9
    cfe0:	3a10703a 	and	r8,r7,r8
    cfe4:	280ad7fa 	srli	r5,r5,31
    cfe8:	380ed7fa 	srli	r7,r7,31
    cfec:	12400b26 	beq	r2,r9,d01c <__gedf2+0x5c>
    cff0:	1a401626 	beq	r3,r9,d04c <__gedf2+0x8c>
    cff4:	10000c1e 	bne	r2,zero,d028 <__gedf2+0x68>
    cff8:	5112b03a 	or	r9,r10,r4
    cffc:	4813003a 	cmpeq	r9,r9,zero
    d000:	4817883a 	mov	r11,r9
    d004:	18000c1e 	bne	r3,zero,d038 <__gedf2+0x78>
    d008:	4198b03a 	or	r12,r8,r6
    d00c:	60000a1e 	bne	r12,zero,d038 <__gedf2+0x78>
    d010:	48001326 	beq	r9,zero,d060 <__gedf2+0xa0>
    d014:	0005883a 	mov	r2,zero
    d018:	f800283a 	ret
    d01c:	5112b03a 	or	r9,r10,r4
    d020:	4800191e 	bne	r9,zero,d088 <__gedf2+0xc8>
    d024:	18800926 	beq	r3,r2,d04c <__gedf2+0x8c>
    d028:	18000b1e 	bne	r3,zero,d058 <__gedf2+0x98>
    d02c:	4192b03a 	or	r9,r8,r6
    d030:	0017883a 	mov	r11,zero
    d034:	48000a26 	beq	r9,zero,d060 <__gedf2+0xa0>
    d038:	39c03fcc 	andi	r7,r7,255
    d03c:	58000726 	beq	r11,zero,d05c <__gedf2+0x9c>
    d040:	3800081e 	bne	r7,zero,d064 <__gedf2+0xa4>
    d044:	00bfffc4 	movi	r2,-1
    d048:	f800283a 	ret
    d04c:	4192b03a 	or	r9,r8,r6
    d050:	48000d1e 	bne	r9,zero,d088 <__gedf2+0xc8>
    d054:	103fe826 	beq	r2,zero,cff8 <__alt_data_end+0xf800cff8>
    d058:	39c03fcc 	andi	r7,r7,255
    d05c:	29c00326 	beq	r5,r7,d06c <__gedf2+0xac>
    d060:	283ff81e 	bne	r5,zero,d044 <__alt_data_end+0xf800d044>
    d064:	00800044 	movi	r2,1
    d068:	f800283a 	ret
    d06c:	18bffc16 	blt	r3,r2,d060 <__alt_data_end+0xf800d060>
    d070:	10c00316 	blt	r2,r3,d080 <__gedf2+0xc0>
    d074:	42bffa36 	bltu	r8,r10,d060 <__alt_data_end+0xf800d060>
    d078:	52000526 	beq	r10,r8,d090 <__gedf2+0xd0>
    d07c:	523fe52e 	bgeu	r10,r8,d014 <__alt_data_end+0xf800d014>
    d080:	283ff026 	beq	r5,zero,d044 <__alt_data_end+0xf800d044>
    d084:	003ff706 	br	d064 <__alt_data_end+0xf800d064>
    d088:	00bfff84 	movi	r2,-2
    d08c:	f800283a 	ret
    d090:	313ff336 	bltu	r6,r4,d060 <__alt_data_end+0xf800d060>
    d094:	21bfdf2e 	bgeu	r4,r6,d014 <__alt_data_end+0xf800d014>
    d098:	283fea26 	beq	r5,zero,d044 <__alt_data_end+0xf800d044>
    d09c:	003ff106 	br	d064 <__alt_data_end+0xf800d064>

0000d0a0 <__ledf2>:
    d0a0:	2804d53a 	srli	r2,r5,20
    d0a4:	3810d53a 	srli	r8,r7,20
    d0a8:	00c00434 	movhi	r3,16
    d0ac:	18ffffc4 	addi	r3,r3,-1
    d0b0:	0241ffc4 	movi	r9,2047
    d0b4:	1081ffcc 	andi	r2,r2,2047
    d0b8:	28d4703a 	and	r10,r5,r3
    d0bc:	4250703a 	and	r8,r8,r9
    d0c0:	38c6703a 	and	r3,r7,r3
    d0c4:	280ad7fa 	srli	r5,r5,31
    d0c8:	380ed7fa 	srli	r7,r7,31
    d0cc:	12400b26 	beq	r2,r9,d0fc <__ledf2+0x5c>
    d0d0:	42401926 	beq	r8,r9,d138 <__ledf2+0x98>
    d0d4:	10000c1e 	bne	r2,zero,d108 <__ledf2+0x68>
    d0d8:	5112b03a 	or	r9,r10,r4
    d0dc:	4813003a 	cmpeq	r9,r9,zero
    d0e0:	4817883a 	mov	r11,r9
    d0e4:	40000f26 	beq	r8,zero,d124 <__ledf2+0x84>
    d0e8:	39c03fcc 	andi	r7,r7,255
    d0ec:	58001826 	beq	r11,zero,d150 <__ledf2+0xb0>
    d0f0:	38000a1e 	bne	r7,zero,d11c <__ledf2+0x7c>
    d0f4:	00bfffc4 	movi	r2,-1
    d0f8:	f800283a 	ret
    d0fc:	5112b03a 	or	r9,r10,r4
    d100:	48000f1e 	bne	r9,zero,d140 <__ledf2+0xa0>
    d104:	40800c26 	beq	r8,r2,d138 <__ledf2+0x98>
    d108:	4000101e 	bne	r8,zero,d14c <__ledf2+0xac>
    d10c:	1992b03a 	or	r9,r3,r6
    d110:	0017883a 	mov	r11,zero
    d114:	483ff41e 	bne	r9,zero,d0e8 <__alt_data_end+0xf800d0e8>
    d118:	283ff61e 	bne	r5,zero,d0f4 <__alt_data_end+0xf800d0f4>
    d11c:	00800044 	movi	r2,1
    d120:	f800283a 	ret
    d124:	1998b03a 	or	r12,r3,r6
    d128:	603fef1e 	bne	r12,zero,d0e8 <__alt_data_end+0xf800d0e8>
    d12c:	483ffa26 	beq	r9,zero,d118 <__alt_data_end+0xf800d118>
    d130:	0005883a 	mov	r2,zero
    d134:	f800283a 	ret
    d138:	1992b03a 	or	r9,r3,r6
    d13c:	48000226 	beq	r9,zero,d148 <__ledf2+0xa8>
    d140:	00800084 	movi	r2,2
    d144:	f800283a 	ret
    d148:	103fe326 	beq	r2,zero,d0d8 <__alt_data_end+0xf800d0d8>
    d14c:	39c03fcc 	andi	r7,r7,255
    d150:	29fff11e 	bne	r5,r7,d118 <__alt_data_end+0xf800d118>
    d154:	40bff016 	blt	r8,r2,d118 <__alt_data_end+0xf800d118>
    d158:	12000316 	blt	r2,r8,d168 <__ledf2+0xc8>
    d15c:	1abfee36 	bltu	r3,r10,d118 <__alt_data_end+0xf800d118>
    d160:	50c00326 	beq	r10,r3,d170 <__ledf2+0xd0>
    d164:	50fff22e 	bgeu	r10,r3,d130 <__alt_data_end+0xf800d130>
    d168:	283fe226 	beq	r5,zero,d0f4 <__alt_data_end+0xf800d0f4>
    d16c:	003feb06 	br	d11c <__alt_data_end+0xf800d11c>
    d170:	313fe936 	bltu	r6,r4,d118 <__alt_data_end+0xf800d118>
    d174:	21bfee2e 	bgeu	r4,r6,d130 <__alt_data_end+0xf800d130>
    d178:	283fde26 	beq	r5,zero,d0f4 <__alt_data_end+0xf800d0f4>
    d17c:	003fe706 	br	d11c <__alt_data_end+0xf800d11c>

0000d180 <__muldf3>:
    d180:	defff204 	addi	sp,sp,-56
    d184:	2804d53a 	srli	r2,r5,20
    d188:	dd800a15 	stw	r22,40(sp)
    d18c:	282cd7fa 	srli	r22,r5,31
    d190:	dc000415 	stw	r16,16(sp)
    d194:	04000434 	movhi	r16,16
    d198:	df000c15 	stw	fp,48(sp)
    d19c:	dd000815 	stw	r20,32(sp)
    d1a0:	dcc00715 	stw	r19,28(sp)
    d1a4:	dc800615 	stw	r18,24(sp)
    d1a8:	dc400515 	stw	r17,20(sp)
    d1ac:	843fffc4 	addi	r16,r16,-1
    d1b0:	dfc00d15 	stw	ra,52(sp)
    d1b4:	ddc00b15 	stw	r23,44(sp)
    d1b8:	dd400915 	stw	r21,36(sp)
    d1bc:	1501ffcc 	andi	r20,r2,2047
    d1c0:	2023883a 	mov	r17,r4
    d1c4:	2025883a 	mov	r18,r4
    d1c8:	2c20703a 	and	r16,r5,r16
    d1cc:	b027883a 	mov	r19,r22
    d1d0:	b7003fcc 	andi	fp,r22,255
    d1d4:	a0005926 	beq	r20,zero,d33c <__muldf3+0x1bc>
    d1d8:	0081ffc4 	movi	r2,2047
    d1dc:	a0803426 	beq	r20,r2,d2b0 <__muldf3+0x130>
    d1e0:	84000434 	orhi	r16,r16,16
    d1e4:	2004d77a 	srli	r2,r4,29
    d1e8:	802090fa 	slli	r16,r16,3
    d1ec:	202490fa 	slli	r18,r4,3
    d1f0:	a53f0044 	addi	r20,r20,-1023
    d1f4:	80a0b03a 	or	r16,r16,r2
    d1f8:	002b883a 	mov	r21,zero
    d1fc:	0015883a 	mov	r10,zero
    d200:	3812d53a 	srli	r9,r7,20
    d204:	3806d7fa 	srli	r3,r7,31
    d208:	02000434 	movhi	r8,16
    d20c:	423fffc4 	addi	r8,r8,-1
    d210:	4941ffcc 	andi	r5,r9,2047
    d214:	302f883a 	mov	r23,r6
    d218:	3a22703a 	and	r17,r7,r8
    d21c:	1ac03fcc 	andi	r11,r3,255
    d220:	28006226 	beq	r5,zero,d3ac <__muldf3+0x22c>
    d224:	0081ffc4 	movi	r2,2047
    d228:	28805a26 	beq	r5,r2,d394 <__muldf3+0x214>
    d22c:	8a000434 	orhi	r8,r17,16
    d230:	3004d77a 	srli	r2,r6,29
    d234:	401090fa 	slli	r8,r8,3
    d238:	302e90fa 	slli	r23,r6,3
    d23c:	297f0044 	addi	r5,r5,-1023
    d240:	40a2b03a 	or	r17,r8,r2
    d244:	0013883a 	mov	r9,zero
    d248:	4d4cb03a 	or	r6,r9,r21
    d24c:	300c90ba 	slli	r6,r6,2
    d250:	02000074 	movhi	r8,1
    d254:	42349c04 	addi	r8,r8,-11664
    d258:	320d883a 	add	r6,r6,r8
    d25c:	31800017 	ldw	r6,0(r6)
    d260:	a14b883a 	add	r5,r20,r5
    d264:	1dacf03a 	xor	r22,r3,r22
    d268:	2b000044 	addi	r12,r5,1
    d26c:	3000683a 	jmp	r6
    d270:	0000d4ac 	andhi	zero,zero,850
    d274:	0000d498 	cmpnei	zero,zero,850
    d278:	0000d498 	cmpnei	zero,zero,850
    d27c:	0000d484 	movi	zero,850
    d280:	0000d2cc 	andi	zero,zero,843
    d284:	0000d2cc 	andi	zero,zero,843
    d288:	0000d46c 	andhi	zero,zero,849
    d28c:	0000d484 	movi	zero,850
    d290:	0000d2cc 	andi	zero,zero,843
    d294:	0000d46c 	andhi	zero,zero,849
    d298:	0000d2cc 	andi	zero,zero,843
    d29c:	0000d484 	movi	zero,850
    d2a0:	0000d2d0 	cmplti	zero,zero,843
    d2a4:	0000d2d0 	cmplti	zero,zero,843
    d2a8:	0000d2d0 	cmplti	zero,zero,843
    d2ac:	0000d6a8 	cmpgeui	zero,zero,858
    d2b0:	8104b03a 	or	r2,r16,r4
    d2b4:	10006a1e 	bne	r2,zero,d460 <__muldf3+0x2e0>
    d2b8:	05400204 	movi	r21,8
    d2bc:	0021883a 	mov	r16,zero
    d2c0:	0025883a 	mov	r18,zero
    d2c4:	02800084 	movi	r10,2
    d2c8:	003fcd06 	br	d200 <__alt_data_end+0xf800d200>
    d2cc:	b039883a 	mov	fp,r22
    d2d0:	00800084 	movi	r2,2
    d2d4:	50804e1e 	bne	r10,r2,d410 <__muldf3+0x290>
    d2d8:	e4c0004c 	andi	r19,fp,1
    d2dc:	0101ffc4 	movi	r4,2047
    d2e0:	0021883a 	mov	r16,zero
    d2e4:	0025883a 	mov	r18,zero
    d2e8:	2008953a 	slli	r4,r4,20
    d2ec:	98c03fcc 	andi	r3,r19,255
    d2f0:	01400434 	movhi	r5,16
    d2f4:	297fffc4 	addi	r5,r5,-1
    d2f8:	180697fa 	slli	r3,r3,31
    d2fc:	8160703a 	and	r16,r16,r5
    d300:	8120b03a 	or	r16,r16,r4
    d304:	80c6b03a 	or	r3,r16,r3
    d308:	9005883a 	mov	r2,r18
    d30c:	dfc00d17 	ldw	ra,52(sp)
    d310:	df000c17 	ldw	fp,48(sp)
    d314:	ddc00b17 	ldw	r23,44(sp)
    d318:	dd800a17 	ldw	r22,40(sp)
    d31c:	dd400917 	ldw	r21,36(sp)
    d320:	dd000817 	ldw	r20,32(sp)
    d324:	dcc00717 	ldw	r19,28(sp)
    d328:	dc800617 	ldw	r18,24(sp)
    d32c:	dc400517 	ldw	r17,20(sp)
    d330:	dc000417 	ldw	r16,16(sp)
    d334:	dec00e04 	addi	sp,sp,56
    d338:	f800283a 	ret
    d33c:	8104b03a 	or	r2,r16,r4
    d340:	10004226 	beq	r2,zero,d44c <__muldf3+0x2cc>
    d344:	8000f926 	beq	r16,zero,d72c <__muldf3+0x5ac>
    d348:	8009883a 	mov	r4,r16
    d34c:	d9800315 	stw	r6,12(sp)
    d350:	d9c00015 	stw	r7,0(sp)
    d354:	000e3700 	call	e370 <__clzsi2>
    d358:	d9800317 	ldw	r6,12(sp)
    d35c:	d9c00017 	ldw	r7,0(sp)
    d360:	1007883a 	mov	r3,r2
    d364:	01000a04 	movi	r4,40
    d368:	18bffe04 	addi	r2,r3,-8
    d36c:	20c9c83a 	sub	r4,r4,r3
    d370:	80a0983a 	sll	r16,r16,r2
    d374:	8908d83a 	srl	r4,r17,r4
    d378:	88a4983a 	sll	r18,r17,r2
    d37c:	2420b03a 	or	r16,r4,r16
    d380:	017f0344 	movi	r5,-1011
    d384:	28e9c83a 	sub	r20,r5,r3
    d388:	002b883a 	mov	r21,zero
    d38c:	0015883a 	mov	r10,zero
    d390:	003f9b06 	br	d200 <__alt_data_end+0xf800d200>
    d394:	8984b03a 	or	r2,r17,r6
    d398:	10002a1e 	bne	r2,zero,d444 <__muldf3+0x2c4>
    d39c:	0023883a 	mov	r17,zero
    d3a0:	002f883a 	mov	r23,zero
    d3a4:	02400084 	movi	r9,2
    d3a8:	003fa706 	br	d248 <__alt_data_end+0xf800d248>
    d3ac:	8984b03a 	or	r2,r17,r6
    d3b0:	10002026 	beq	r2,zero,d434 <__muldf3+0x2b4>
    d3b4:	8800cc26 	beq	r17,zero,d6e8 <__muldf3+0x568>
    d3b8:	8809883a 	mov	r4,r17
    d3bc:	d8c00215 	stw	r3,8(sp)
    d3c0:	d9800315 	stw	r6,12(sp)
    d3c4:	da800015 	stw	r10,0(sp)
    d3c8:	dac00115 	stw	r11,4(sp)
    d3cc:	000e3700 	call	e370 <__clzsi2>
    d3d0:	d8c00217 	ldw	r3,8(sp)
    d3d4:	d9800317 	ldw	r6,12(sp)
    d3d8:	da800017 	ldw	r10,0(sp)
    d3dc:	dac00117 	ldw	r11,4(sp)
    d3e0:	1009883a 	mov	r4,r2
    d3e4:	01400a04 	movi	r5,40
    d3e8:	25fffe04 	addi	r23,r4,-8
    d3ec:	290bc83a 	sub	r5,r5,r4
    d3f0:	8dd0983a 	sll	r8,r17,r23
    d3f4:	314ad83a 	srl	r5,r6,r5
    d3f8:	35ee983a 	sll	r23,r6,r23
    d3fc:	2a22b03a 	or	r17,r5,r8
    d400:	017f0344 	movi	r5,-1011
    d404:	290bc83a 	sub	r5,r5,r4
    d408:	0013883a 	mov	r9,zero
    d40c:	003f8e06 	br	d248 <__alt_data_end+0xf800d248>
    d410:	008000c4 	movi	r2,3
    d414:	50811d26 	beq	r10,r2,d88c <__muldf3+0x70c>
    d418:	00800044 	movi	r2,1
    d41c:	5080e01e 	bne	r10,r2,d7a0 <__muldf3+0x620>
    d420:	e0a6703a 	and	r19,fp,r2
    d424:	0009883a 	mov	r4,zero
    d428:	0021883a 	mov	r16,zero
    d42c:	0025883a 	mov	r18,zero
    d430:	003fad06 	br	d2e8 <__alt_data_end+0xf800d2e8>
    d434:	0023883a 	mov	r17,zero
    d438:	002f883a 	mov	r23,zero
    d43c:	02400044 	movi	r9,1
    d440:	003f8106 	br	d248 <__alt_data_end+0xf800d248>
    d444:	024000c4 	movi	r9,3
    d448:	003f7f06 	br	d248 <__alt_data_end+0xf800d248>
    d44c:	05400104 	movi	r21,4
    d450:	0021883a 	mov	r16,zero
    d454:	0025883a 	mov	r18,zero
    d458:	02800044 	movi	r10,1
    d45c:	003f6806 	br	d200 <__alt_data_end+0xf800d200>
    d460:	05400304 	movi	r21,12
    d464:	028000c4 	movi	r10,3
    d468:	003f6506 	br	d200 <__alt_data_end+0xf800d200>
    d46c:	04000434 	movhi	r16,16
    d470:	0027883a 	mov	r19,zero
    d474:	843fffc4 	addi	r16,r16,-1
    d478:	04bfffc4 	movi	r18,-1
    d47c:	0101ffc4 	movi	r4,2047
    d480:	003f9906 	br	d2e8 <__alt_data_end+0xf800d2e8>
    d484:	8821883a 	mov	r16,r17
    d488:	b825883a 	mov	r18,r23
    d48c:	5839883a 	mov	fp,r11
    d490:	4815883a 	mov	r10,r9
    d494:	003f8e06 	br	d2d0 <__alt_data_end+0xf800d2d0>
    d498:	8821883a 	mov	r16,r17
    d49c:	b825883a 	mov	r18,r23
    d4a0:	b039883a 	mov	fp,r22
    d4a4:	4815883a 	mov	r10,r9
    d4a8:	003f8906 	br	d2d0 <__alt_data_end+0xf800d2d0>
    d4ac:	b80cd43a 	srli	r6,r23,16
    d4b0:	9006d43a 	srli	r3,r18,16
    d4b4:	90bfffcc 	andi	r2,r18,65535
    d4b8:	bdffffcc 	andi	r23,r23,65535
    d4bc:	b891383a 	mul	r8,r23,r2
    d4c0:	b8c9383a 	mul	r4,r23,r3
    d4c4:	309b383a 	mul	r13,r6,r2
    d4c8:	400ed43a 	srli	r7,r8,16
    d4cc:	30df383a 	mul	r15,r6,r3
    d4d0:	235b883a 	add	r13,r4,r13
    d4d4:	69db883a 	add	r13,r13,r7
    d4d8:	6900022e 	bgeu	r13,r4,d4e4 <__muldf3+0x364>
    d4dc:	01000074 	movhi	r4,1
    d4e0:	791f883a 	add	r15,r15,r4
    d4e4:	8828d43a 	srli	r20,r17,16
    d4e8:	8c7fffcc 	andi	r17,r17,65535
    d4ec:	888f383a 	mul	r7,r17,r2
    d4f0:	88d3383a 	mul	r9,r17,r3
    d4f4:	a0a5383a 	mul	r18,r20,r2
    d4f8:	3816d43a 	srli	r11,r7,16
    d4fc:	6814943a 	slli	r10,r13,16
    d500:	4ca5883a 	add	r18,r9,r18
    d504:	423fffcc 	andi	r8,r8,65535
    d508:	92e5883a 	add	r18,r18,r11
    d50c:	6808d43a 	srli	r4,r13,16
    d510:	5215883a 	add	r10,r10,r8
    d514:	a0c7383a 	mul	r3,r20,r3
    d518:	9240022e 	bgeu	r18,r9,d524 <__muldf3+0x3a4>
    d51c:	00800074 	movhi	r2,1
    d520:	1887883a 	add	r3,r3,r2
    d524:	802ad43a 	srli	r21,r16,16
    d528:	80bfffcc 	andi	r2,r16,65535
    d52c:	b893383a 	mul	r9,r23,r2
    d530:	3091383a 	mul	r8,r6,r2
    d534:	bd6f383a 	mul	r23,r23,r21
    d538:	9026943a 	slli	r19,r18,16
    d53c:	481ad43a 	srli	r13,r9,16
    d540:	9024d43a 	srli	r18,r18,16
    d544:	39ffffcc 	andi	r7,r7,65535
    d548:	ba11883a 	add	r8,r23,r8
    d54c:	99e7883a 	add	r19,r19,r7
    d550:	4351883a 	add	r8,r8,r13
    d554:	1c97883a 	add	r11,r3,r18
    d558:	354d383a 	mul	r6,r6,r21
    d55c:	9925883a 	add	r18,r19,r4
    d560:	45c0022e 	bgeu	r8,r23,d56c <__muldf3+0x3ec>
    d564:	00c00074 	movhi	r3,1
    d568:	30cd883a 	add	r6,r6,r3
    d56c:	8889383a 	mul	r4,r17,r2
    d570:	8d63383a 	mul	r17,r17,r21
    d574:	a085383a 	mul	r2,r20,r2
    d578:	200ed43a 	srli	r7,r4,16
    d57c:	401cd43a 	srli	r14,r8,16
    d580:	401a943a 	slli	r13,r8,16
    d584:	8885883a 	add	r2,r17,r2
    d588:	4a3fffcc 	andi	r8,r9,65535
    d58c:	11c5883a 	add	r2,r2,r7
    d590:	339d883a 	add	r14,r6,r14
    d594:	6a11883a 	add	r8,r13,r8
    d598:	a561383a 	mul	r16,r20,r21
    d59c:	1440022e 	bgeu	r2,r17,d5a8 <__muldf3+0x428>
    d5a0:	00c00074 	movhi	r3,1
    d5a4:	80e1883a 	add	r16,r16,r3
    d5a8:	1006943a 	slli	r3,r2,16
    d5ac:	213fffcc 	andi	r4,r4,65535
    d5b0:	93db883a 	add	r13,r18,r15
    d5b4:	1909883a 	add	r4,r3,r4
    d5b8:	22c7883a 	add	r3,r4,r11
    d5bc:	6cd3803a 	cmpltu	r9,r13,r19
    d5c0:	6a09883a 	add	r4,r13,r8
    d5c4:	1a5b883a 	add	r13,r3,r9
    d5c8:	2211803a 	cmpltu	r8,r4,r8
    d5cc:	734d883a 	add	r6,r14,r13
    d5d0:	100ed43a 	srli	r7,r2,16
    d5d4:	6a53803a 	cmpltu	r9,r13,r9
    d5d8:	3205883a 	add	r2,r6,r8
    d5dc:	1ac7803a 	cmpltu	r3,r3,r11
    d5e0:	1211803a 	cmpltu	r8,r2,r8
    d5e4:	48c6b03a 	or	r3,r9,r3
    d5e8:	338d803a 	cmpltu	r6,r6,r14
    d5ec:	19c7883a 	add	r3,r3,r7
    d5f0:	418cb03a 	or	r6,r8,r6
    d5f4:	1987883a 	add	r3,r3,r6
    d5f8:	2024927a 	slli	r18,r4,9
    d5fc:	1c07883a 	add	r3,r3,r16
    d600:	1806927a 	slli	r3,r3,9
    d604:	1020d5fa 	srli	r16,r2,23
    d608:	2008d5fa 	srli	r4,r4,23
    d60c:	9294b03a 	or	r10,r18,r10
    d610:	1004927a 	slli	r2,r2,9
    d614:	5024c03a 	cmpne	r18,r10,zero
    d618:	1c20b03a 	or	r16,r3,r16
    d61c:	9108b03a 	or	r4,r18,r4
    d620:	80c0402c 	andhi	r3,r16,256
    d624:	20a4b03a 	or	r18,r4,r2
    d628:	18000726 	beq	r3,zero,d648 <__muldf3+0x4c8>
    d62c:	9006d07a 	srli	r3,r18,1
    d630:	800897fa 	slli	r4,r16,31
    d634:	9080004c 	andi	r2,r18,1
    d638:	8020d07a 	srli	r16,r16,1
    d63c:	10c4b03a 	or	r2,r2,r3
    d640:	1124b03a 	or	r18,r2,r4
    d644:	600b883a 	mov	r5,r12
    d648:	2900ffc4 	addi	r4,r5,1023
    d64c:	01004b0e 	bge	zero,r4,d77c <__muldf3+0x5fc>
    d650:	908001cc 	andi	r2,r18,7
    d654:	10000726 	beq	r2,zero,d674 <__muldf3+0x4f4>
    d658:	90c003cc 	andi	r3,r18,15
    d65c:	00800104 	movi	r2,4
    d660:	18800426 	beq	r3,r2,d674 <__muldf3+0x4f4>
    d664:	9087883a 	add	r3,r18,r2
    d668:	1c85803a 	cmpltu	r2,r3,r18
    d66c:	80a1883a 	add	r16,r16,r2
    d670:	1825883a 	mov	r18,r3
    d674:	8080402c 	andhi	r2,r16,256
    d678:	10000426 	beq	r2,zero,d68c <__muldf3+0x50c>
    d67c:	00bfc034 	movhi	r2,65280
    d680:	10bfffc4 	addi	r2,r2,-1
    d684:	29010004 	addi	r4,r5,1024
    d688:	80a0703a 	and	r16,r16,r2
    d68c:	0081ff84 	movi	r2,2046
    d690:	1100320e 	bge	r2,r4,d75c <__muldf3+0x5dc>
    d694:	b4c0004c 	andi	r19,r22,1
    d698:	0101ffc4 	movi	r4,2047
    d69c:	0021883a 	mov	r16,zero
    d6a0:	0025883a 	mov	r18,zero
    d6a4:	003f1006 	br	d2e8 <__alt_data_end+0xf800d2e8>
    d6a8:	8080022c 	andhi	r2,r16,8
    d6ac:	10000926 	beq	r2,zero,d6d4 <__muldf3+0x554>
    d6b0:	8880022c 	andhi	r2,r17,8
    d6b4:	1000071e 	bne	r2,zero,d6d4 <__muldf3+0x554>
    d6b8:	00800434 	movhi	r2,16
    d6bc:	8c000234 	orhi	r16,r17,8
    d6c0:	10bfffc4 	addi	r2,r2,-1
    d6c4:	1827883a 	mov	r19,r3
    d6c8:	80a0703a 	and	r16,r16,r2
    d6cc:	b825883a 	mov	r18,r23
    d6d0:	003f6a06 	br	d47c <__alt_data_end+0xf800d47c>
    d6d4:	00800434 	movhi	r2,16
    d6d8:	84000234 	orhi	r16,r16,8
    d6dc:	10bfffc4 	addi	r2,r2,-1
    d6e0:	80a0703a 	and	r16,r16,r2
    d6e4:	003f6506 	br	d47c <__alt_data_end+0xf800d47c>
    d6e8:	3009883a 	mov	r4,r6
    d6ec:	d8c00215 	stw	r3,8(sp)
    d6f0:	d9800315 	stw	r6,12(sp)
    d6f4:	da800015 	stw	r10,0(sp)
    d6f8:	dac00115 	stw	r11,4(sp)
    d6fc:	000e3700 	call	e370 <__clzsi2>
    d700:	11000804 	addi	r4,r2,32
    d704:	014009c4 	movi	r5,39
    d708:	d8c00217 	ldw	r3,8(sp)
    d70c:	d9800317 	ldw	r6,12(sp)
    d710:	da800017 	ldw	r10,0(sp)
    d714:	dac00117 	ldw	r11,4(sp)
    d718:	293f320e 	bge	r5,r4,d3e4 <__alt_data_end+0xf800d3e4>
    d71c:	10bffe04 	addi	r2,r2,-8
    d720:	b8a2983a 	sll	r17,r23,r2
    d724:	002f883a 	mov	r23,zero
    d728:	003f3506 	br	d400 <__alt_data_end+0xf800d400>
    d72c:	d9800315 	stw	r6,12(sp)
    d730:	d9c00015 	stw	r7,0(sp)
    d734:	000e3700 	call	e370 <__clzsi2>
    d738:	10c00804 	addi	r3,r2,32
    d73c:	010009c4 	movi	r4,39
    d740:	d9800317 	ldw	r6,12(sp)
    d744:	d9c00017 	ldw	r7,0(sp)
    d748:	20ff060e 	bge	r4,r3,d364 <__alt_data_end+0xf800d364>
    d74c:	10bffe04 	addi	r2,r2,-8
    d750:	88a0983a 	sll	r16,r17,r2
    d754:	0025883a 	mov	r18,zero
    d758:	003f0906 	br	d380 <__alt_data_end+0xf800d380>
    d75c:	9004d0fa 	srli	r2,r18,3
    d760:	8024977a 	slli	r18,r16,29
    d764:	8020927a 	slli	r16,r16,9
    d768:	2101ffcc 	andi	r4,r4,2047
    d76c:	90a4b03a 	or	r18,r18,r2
    d770:	8020d33a 	srli	r16,r16,12
    d774:	b4c0004c 	andi	r19,r22,1
    d778:	003edb06 	br	d2e8 <__alt_data_end+0xf800d2e8>
    d77c:	00ff0084 	movi	r3,-1022
    d780:	1947c83a 	sub	r3,r3,r5
    d784:	00800e04 	movi	r2,56
    d788:	10c0080e 	bge	r2,r3,d7ac <__muldf3+0x62c>
    d78c:	b4c0004c 	andi	r19,r22,1
    d790:	0009883a 	mov	r4,zero
    d794:	0021883a 	mov	r16,zero
    d798:	0025883a 	mov	r18,zero
    d79c:	003ed206 	br	d2e8 <__alt_data_end+0xf800d2e8>
    d7a0:	600b883a 	mov	r5,r12
    d7a4:	e02d883a 	mov	r22,fp
    d7a8:	003fa706 	br	d648 <__alt_data_end+0xf800d648>
    d7ac:	008007c4 	movi	r2,31
    d7b0:	10c01816 	blt	r2,r3,d814 <__muldf3+0x694>
    d7b4:	29410784 	addi	r5,r5,1054
    d7b8:	8144983a 	sll	r2,r16,r5
    d7bc:	90c8d83a 	srl	r4,r18,r3
    d7c0:	914a983a 	sll	r5,r18,r5
    d7c4:	80c6d83a 	srl	r3,r16,r3
    d7c8:	2088b03a 	or	r4,r4,r2
    d7cc:	2804c03a 	cmpne	r2,r5,zero
    d7d0:	2084b03a 	or	r2,r4,r2
    d7d4:	110001cc 	andi	r4,r2,7
    d7d8:	20000726 	beq	r4,zero,d7f8 <__muldf3+0x678>
    d7dc:	114003cc 	andi	r5,r2,15
    d7e0:	01000104 	movi	r4,4
    d7e4:	29000426 	beq	r5,r4,d7f8 <__muldf3+0x678>
    d7e8:	11000104 	addi	r4,r2,4
    d7ec:	2085803a 	cmpltu	r2,r4,r2
    d7f0:	1887883a 	add	r3,r3,r2
    d7f4:	2005883a 	mov	r2,r4
    d7f8:	1900202c 	andhi	r4,r3,128
    d7fc:	20001826 	beq	r4,zero,d860 <__muldf3+0x6e0>
    d800:	b4c0004c 	andi	r19,r22,1
    d804:	01000044 	movi	r4,1
    d808:	0021883a 	mov	r16,zero
    d80c:	0025883a 	mov	r18,zero
    d810:	003eb506 	br	d2e8 <__alt_data_end+0xf800d2e8>
    d814:	00bef884 	movi	r2,-1054
    d818:	1145c83a 	sub	r2,r2,r5
    d81c:	8088d83a 	srl	r4,r16,r2
    d820:	00800804 	movi	r2,32
    d824:	18801726 	beq	r3,r2,d884 <__muldf3+0x704>
    d828:	28810f84 	addi	r2,r5,1086
    d82c:	8084983a 	sll	r2,r16,r2
    d830:	1484b03a 	or	r2,r2,r18
    d834:	1004c03a 	cmpne	r2,r2,zero
    d838:	1104b03a 	or	r2,r2,r4
    d83c:	10c001cc 	andi	r3,r2,7
    d840:	18000b1e 	bne	r3,zero,d870 <__muldf3+0x6f0>
    d844:	0021883a 	mov	r16,zero
    d848:	1004d0fa 	srli	r2,r2,3
    d84c:	b4c0004c 	andi	r19,r22,1
    d850:	0009883a 	mov	r4,zero
    d854:	10e4b03a 	or	r18,r2,r3
    d858:	003ea306 	br	d2e8 <__alt_data_end+0xf800d2e8>
    d85c:	0007883a 	mov	r3,zero
    d860:	1820927a 	slli	r16,r3,9
    d864:	1806977a 	slli	r3,r3,29
    d868:	8020d33a 	srli	r16,r16,12
    d86c:	003ff606 	br	d848 <__alt_data_end+0xf800d848>
    d870:	110003cc 	andi	r4,r2,15
    d874:	00c00104 	movi	r3,4
    d878:	20fff826 	beq	r4,r3,d85c <__alt_data_end+0xf800d85c>
    d87c:	0007883a 	mov	r3,zero
    d880:	003fd906 	br	d7e8 <__alt_data_end+0xf800d7e8>
    d884:	0005883a 	mov	r2,zero
    d888:	003fe906 	br	d830 <__alt_data_end+0xf800d830>
    d88c:	00800434 	movhi	r2,16
    d890:	84000234 	orhi	r16,r16,8
    d894:	10bfffc4 	addi	r2,r2,-1
    d898:	e4c0004c 	andi	r19,fp,1
    d89c:	80a0703a 	and	r16,r16,r2
    d8a0:	003ef606 	br	d47c <__alt_data_end+0xf800d47c>

0000d8a4 <__subdf3>:
    d8a4:	00c00434 	movhi	r3,16
    d8a8:	18ffffc4 	addi	r3,r3,-1
    d8ac:	defffb04 	addi	sp,sp,-20
    d8b0:	28d2703a 	and	r9,r5,r3
    d8b4:	3814d53a 	srli	r10,r7,20
    d8b8:	38c6703a 	and	r3,r7,r3
    d8bc:	3004d77a 	srli	r2,r6,29
    d8c0:	dc800215 	stw	r18,8(sp)
    d8c4:	dc000015 	stw	r16,0(sp)
    d8c8:	2824d7fa 	srli	r18,r5,31
    d8cc:	2820d53a 	srli	r16,r5,20
    d8d0:	481290fa 	slli	r9,r9,3
    d8d4:	200ad77a 	srli	r5,r4,29
    d8d8:	180690fa 	slli	r3,r3,3
    d8dc:	dc400115 	stw	r17,4(sp)
    d8e0:	dfc00415 	stw	ra,16(sp)
    d8e4:	202290fa 	slli	r17,r4,3
    d8e8:	dcc00315 	stw	r19,12(sp)
    d8ec:	5281ffcc 	andi	r10,r10,2047
    d8f0:	0101ffc4 	movi	r4,2047
    d8f4:	9011883a 	mov	r8,r18
    d8f8:	8401ffcc 	andi	r16,r16,2047
    d8fc:	94803fcc 	andi	r18,r18,255
    d900:	494ab03a 	or	r5,r9,r5
    d904:	380ed7fa 	srli	r7,r7,31
    d908:	1886b03a 	or	r3,r3,r2
    d90c:	300c90fa 	slli	r6,r6,3
    d910:	51009026 	beq	r10,r4,db54 <__subdf3+0x2b0>
    d914:	39c0005c 	xori	r7,r7,1
    d918:	8285c83a 	sub	r2,r16,r10
    d91c:	91c06f26 	beq	r18,r7,dadc <__subdf3+0x238>
    d920:	0080b10e 	bge	zero,r2,dbe8 <__subdf3+0x344>
    d924:	50002a1e 	bne	r10,zero,d9d0 <__subdf3+0x12c>
    d928:	1988b03a 	or	r4,r3,r6
    d92c:	2000941e 	bne	r4,zero,db80 <__subdf3+0x2dc>
    d930:	888001cc 	andi	r2,r17,7
    d934:	10005b26 	beq	r2,zero,daa4 <__subdf3+0x200>
    d938:	88c003cc 	andi	r3,r17,15
    d93c:	00800104 	movi	r2,4
    d940:	18805826 	beq	r3,r2,daa4 <__subdf3+0x200>
    d944:	88c00104 	addi	r3,r17,4
    d948:	1c63803a 	cmpltu	r17,r3,r17
    d94c:	2c4b883a 	add	r5,r5,r17
    d950:	2880202c 	andhi	r2,r5,128
    d954:	9200004c 	andi	r8,r18,1
    d958:	1823883a 	mov	r17,r3
    d95c:	10005426 	beq	r2,zero,dab0 <__subdf3+0x20c>
    d960:	84000044 	addi	r16,r16,1
    d964:	0081ffc4 	movi	r2,2047
    d968:	8080bf26 	beq	r16,r2,dc68 <__subdf3+0x3c4>
    d96c:	013fe034 	movhi	r4,65408
    d970:	213fffc4 	addi	r4,r4,-1
    d974:	290a703a 	and	r5,r5,r4
    d978:	2804977a 	slli	r2,r5,29
    d97c:	280a927a 	slli	r5,r5,9
    d980:	8822d0fa 	srli	r17,r17,3
    d984:	8401ffcc 	andi	r16,r16,2047
    d988:	2808d33a 	srli	r4,r5,12
    d98c:	1444b03a 	or	r2,r2,r17
    d990:	8401ffcc 	andi	r16,r16,2047
    d994:	800a953a 	slli	r5,r16,20
    d998:	40c03fcc 	andi	r3,r8,255
    d99c:	04000434 	movhi	r16,16
    d9a0:	180697fa 	slli	r3,r3,31
    d9a4:	843fffc4 	addi	r16,r16,-1
    d9a8:	2420703a 	and	r16,r4,r16
    d9ac:	8160b03a 	or	r16,r16,r5
    d9b0:	80c6b03a 	or	r3,r16,r3
    d9b4:	dfc00417 	ldw	ra,16(sp)
    d9b8:	dcc00317 	ldw	r19,12(sp)
    d9bc:	dc800217 	ldw	r18,8(sp)
    d9c0:	dc400117 	ldw	r17,4(sp)
    d9c4:	dc000017 	ldw	r16,0(sp)
    d9c8:	dec00504 	addi	sp,sp,20
    d9cc:	f800283a 	ret
    d9d0:	0101ffc4 	movi	r4,2047
    d9d4:	813fd626 	beq	r16,r4,d930 <__alt_data_end+0xf800d930>
    d9d8:	18c02034 	orhi	r3,r3,128
    d9dc:	01000e04 	movi	r4,56
    d9e0:	2080a416 	blt	r4,r2,dc74 <__subdf3+0x3d0>
    d9e4:	010007c4 	movi	r4,31
    d9e8:	2080c716 	blt	r4,r2,dd08 <__subdf3+0x464>
    d9ec:	01000804 	movi	r4,32
    d9f0:	2089c83a 	sub	r4,r4,r2
    d9f4:	1910983a 	sll	r8,r3,r4
    d9f8:	308ed83a 	srl	r7,r6,r2
    d9fc:	3108983a 	sll	r4,r6,r4
    da00:	1884d83a 	srl	r2,r3,r2
    da04:	41ccb03a 	or	r6,r8,r7
    da08:	2008c03a 	cmpne	r4,r4,zero
    da0c:	310cb03a 	or	r6,r6,r4
    da10:	898dc83a 	sub	r6,r17,r6
    da14:	89a3803a 	cmpltu	r17,r17,r6
    da18:	288bc83a 	sub	r5,r5,r2
    da1c:	2c4bc83a 	sub	r5,r5,r17
    da20:	3023883a 	mov	r17,r6
    da24:	2880202c 	andhi	r2,r5,128
    da28:	10006b26 	beq	r2,zero,dbd8 <__subdf3+0x334>
    da2c:	04c02034 	movhi	r19,128
    da30:	9cffffc4 	addi	r19,r19,-1
    da34:	2ce6703a 	and	r19,r5,r19
    da38:	98007c26 	beq	r19,zero,dc2c <__subdf3+0x388>
    da3c:	9809883a 	mov	r4,r19
    da40:	000e3700 	call	e370 <__clzsi2>
    da44:	10fffe04 	addi	r3,r2,-8
    da48:	010007c4 	movi	r4,31
    da4c:	20c07d16 	blt	r4,r3,dc44 <__subdf3+0x3a0>
    da50:	01400a04 	movi	r5,40
    da54:	2885c83a 	sub	r2,r5,r2
    da58:	888ad83a 	srl	r5,r17,r2
    da5c:	98e6983a 	sll	r19,r19,r3
    da60:	88e2983a 	sll	r17,r17,r3
    da64:	2ce6b03a 	or	r19,r5,r19
    da68:	1c007a16 	blt	r3,r16,dc54 <__subdf3+0x3b0>
    da6c:	1c21c83a 	sub	r16,r3,r16
    da70:	81400044 	addi	r5,r16,1
    da74:	00c007c4 	movi	r3,31
    da78:	19409616 	blt	r3,r5,dcd4 <__subdf3+0x430>
    da7c:	1c21c83a 	sub	r16,r3,r16
    da80:	8c08983a 	sll	r4,r17,r16
    da84:	8946d83a 	srl	r3,r17,r5
    da88:	9c20983a 	sll	r16,r19,r16
    da8c:	2008c03a 	cmpne	r4,r4,zero
    da90:	994ad83a 	srl	r5,r19,r5
    da94:	1c06b03a 	or	r3,r3,r16
    da98:	1922b03a 	or	r17,r3,r4
    da9c:	0021883a 	mov	r16,zero
    daa0:	003fa306 	br	d930 <__alt_data_end+0xf800d930>
    daa4:	2880202c 	andhi	r2,r5,128
    daa8:	9200004c 	andi	r8,r18,1
    daac:	103fac1e 	bne	r2,zero,d960 <__alt_data_end+0xf800d960>
    dab0:	2804977a 	slli	r2,r5,29
    dab4:	8822d0fa 	srli	r17,r17,3
    dab8:	00c1ffc4 	movi	r3,2047
    dabc:	280ad0fa 	srli	r5,r5,3
    dac0:	1444b03a 	or	r2,r2,r17
    dac4:	80c02726 	beq	r16,r3,db64 <__subdf3+0x2c0>
    dac8:	01000434 	movhi	r4,16
    dacc:	213fffc4 	addi	r4,r4,-1
    dad0:	80e0703a 	and	r16,r16,r3
    dad4:	2908703a 	and	r4,r5,r4
    dad8:	003fad06 	br	d990 <__alt_data_end+0xf800d990>
    dadc:	0080690e 	bge	zero,r2,dc84 <__subdf3+0x3e0>
    dae0:	50002f26 	beq	r10,zero,dba0 <__subdf3+0x2fc>
    dae4:	0101ffc4 	movi	r4,2047
    dae8:	813f9126 	beq	r16,r4,d930 <__alt_data_end+0xf800d930>
    daec:	18c02034 	orhi	r3,r3,128
    daf0:	01000e04 	movi	r4,56
    daf4:	2080b00e 	bge	r4,r2,ddb8 <__subdf3+0x514>
    daf8:	198cb03a 	or	r6,r3,r6
    dafc:	300ec03a 	cmpne	r7,r6,zero
    db00:	0005883a 	mov	r2,zero
    db04:	3c4f883a 	add	r7,r7,r17
    db08:	3c63803a 	cmpltu	r17,r7,r17
    db0c:	114b883a 	add	r5,r2,r5
    db10:	2c4b883a 	add	r5,r5,r17
    db14:	3823883a 	mov	r17,r7
    db18:	2880202c 	andhi	r2,r5,128
    db1c:	10002e26 	beq	r2,zero,dbd8 <__subdf3+0x334>
    db20:	84000044 	addi	r16,r16,1
    db24:	0081ffc4 	movi	r2,2047
    db28:	8080de26 	beq	r16,r2,dea4 <__subdf3+0x600>
    db2c:	00bfe034 	movhi	r2,65408
    db30:	10bfffc4 	addi	r2,r2,-1
    db34:	288a703a 	and	r5,r5,r2
    db38:	880cd07a 	srli	r6,r17,1
    db3c:	280897fa 	slli	r4,r5,31
    db40:	88c0004c 	andi	r3,r17,1
    db44:	30e2b03a 	or	r17,r6,r3
    db48:	280ad07a 	srli	r5,r5,1
    db4c:	8922b03a 	or	r17,r17,r4
    db50:	003f7706 	br	d930 <__alt_data_end+0xf800d930>
    db54:	1984b03a 	or	r2,r3,r6
    db58:	103f6e26 	beq	r2,zero,d914 <__alt_data_end+0xf800d914>
    db5c:	39c03fcc 	andi	r7,r7,255
    db60:	003f6d06 	br	d918 <__alt_data_end+0xf800d918>
    db64:	1146b03a 	or	r3,r2,r5
    db68:	18003f26 	beq	r3,zero,dc68 <__subdf3+0x3c4>
    db6c:	00c00434 	movhi	r3,16
    db70:	29000234 	orhi	r4,r5,8
    db74:	18ffffc4 	addi	r3,r3,-1
    db78:	20c8703a 	and	r4,r4,r3
    db7c:	003f8406 	br	d990 <__alt_data_end+0xf800d990>
    db80:	10bfffc4 	addi	r2,r2,-1
    db84:	1000501e 	bne	r2,zero,dcc8 <__subdf3+0x424>
    db88:	898fc83a 	sub	r7,r17,r6
    db8c:	89e3803a 	cmpltu	r17,r17,r7
    db90:	28cbc83a 	sub	r5,r5,r3
    db94:	2c4bc83a 	sub	r5,r5,r17
    db98:	3823883a 	mov	r17,r7
    db9c:	003fa106 	br	da24 <__alt_data_end+0xf800da24>
    dba0:	1988b03a 	or	r4,r3,r6
    dba4:	203f6226 	beq	r4,zero,d930 <__alt_data_end+0xf800d930>
    dba8:	10bfffc4 	addi	r2,r2,-1
    dbac:	10009b1e 	bne	r2,zero,de1c <__subdf3+0x578>
    dbb0:	344d883a 	add	r6,r6,r17
    dbb4:	3463803a 	cmpltu	r17,r6,r17
    dbb8:	194b883a 	add	r5,r3,r5
    dbbc:	2c4b883a 	add	r5,r5,r17
    dbc0:	3023883a 	mov	r17,r6
    dbc4:	003fd406 	br	db18 <__alt_data_end+0xf800db18>
    dbc8:	1106b03a 	or	r3,r2,r4
    dbcc:	1800b426 	beq	r3,zero,dea0 <__subdf3+0x5fc>
    dbd0:	100b883a 	mov	r5,r2
    dbd4:	2023883a 	mov	r17,r4
    dbd8:	888001cc 	andi	r2,r17,7
    dbdc:	103f561e 	bne	r2,zero,d938 <__alt_data_end+0xf800d938>
    dbe0:	9200004c 	andi	r8,r18,1
    dbe4:	003fb206 	br	dab0 <__alt_data_end+0xf800dab0>
    dbe8:	1000531e 	bne	r2,zero,dd38 <__subdf3+0x494>
    dbec:	80800044 	addi	r2,r16,1
    dbf0:	1081ffcc 	andi	r2,r2,2047
    dbf4:	01000044 	movi	r4,1
    dbf8:	2080a00e 	bge	r4,r2,de7c <__subdf3+0x5d8>
    dbfc:	8985c83a 	sub	r2,r17,r6
    dc00:	8889803a 	cmpltu	r4,r17,r2
    dc04:	28e7c83a 	sub	r19,r5,r3
    dc08:	9927c83a 	sub	r19,r19,r4
    dc0c:	9900202c 	andhi	r4,r19,128
    dc10:	20006226 	beq	r4,zero,dd9c <__subdf3+0x4f8>
    dc14:	3463c83a 	sub	r17,r6,r17
    dc18:	194bc83a 	sub	r5,r3,r5
    dc1c:	344d803a 	cmpltu	r6,r6,r17
    dc20:	29a7c83a 	sub	r19,r5,r6
    dc24:	3825883a 	mov	r18,r7
    dc28:	983f841e 	bne	r19,zero,da3c <__alt_data_end+0xf800da3c>
    dc2c:	8809883a 	mov	r4,r17
    dc30:	000e3700 	call	e370 <__clzsi2>
    dc34:	10800804 	addi	r2,r2,32
    dc38:	10fffe04 	addi	r3,r2,-8
    dc3c:	010007c4 	movi	r4,31
    dc40:	20ff830e 	bge	r4,r3,da50 <__alt_data_end+0xf800da50>
    dc44:	14fff604 	addi	r19,r2,-40
    dc48:	8ce6983a 	sll	r19,r17,r19
    dc4c:	0023883a 	mov	r17,zero
    dc50:	1c3f860e 	bge	r3,r16,da6c <__alt_data_end+0xf800da6c>
    dc54:	017fe034 	movhi	r5,65408
    dc58:	297fffc4 	addi	r5,r5,-1
    dc5c:	80e1c83a 	sub	r16,r16,r3
    dc60:	994a703a 	and	r5,r19,r5
    dc64:	003f3206 	br	d930 <__alt_data_end+0xf800d930>
    dc68:	0009883a 	mov	r4,zero
    dc6c:	0005883a 	mov	r2,zero
    dc70:	003f4706 	br	d990 <__alt_data_end+0xf800d990>
    dc74:	198cb03a 	or	r6,r3,r6
    dc78:	300cc03a 	cmpne	r6,r6,zero
    dc7c:	0005883a 	mov	r2,zero
    dc80:	003f6306 	br	da10 <__alt_data_end+0xf800da10>
    dc84:	10009d1e 	bne	r2,zero,defc <__subdf3+0x658>
    dc88:	81c00044 	addi	r7,r16,1
    dc8c:	3881ffcc 	andi	r2,r7,2047
    dc90:	02400044 	movi	r9,1
    dc94:	4880680e 	bge	r9,r2,de38 <__subdf3+0x594>
    dc98:	0081ffc4 	movi	r2,2047
    dc9c:	3880ae26 	beq	r7,r2,df58 <__subdf3+0x6b4>
    dca0:	344d883a 	add	r6,r6,r17
    dca4:	3463803a 	cmpltu	r17,r6,r17
    dca8:	194b883a 	add	r5,r3,r5
    dcac:	2c4b883a 	add	r5,r5,r17
    dcb0:	282297fa 	slli	r17,r5,31
    dcb4:	300cd07a 	srli	r6,r6,1
    dcb8:	280ad07a 	srli	r5,r5,1
    dcbc:	3821883a 	mov	r16,r7
    dcc0:	89a2b03a 	or	r17,r17,r6
    dcc4:	003f1a06 	br	d930 <__alt_data_end+0xf800d930>
    dcc8:	0101ffc4 	movi	r4,2047
    dccc:	813f431e 	bne	r16,r4,d9dc <__alt_data_end+0xf800d9dc>
    dcd0:	003f1706 	br	d930 <__alt_data_end+0xf800d930>
    dcd4:	80bff844 	addi	r2,r16,-31
    dcd8:	00c00804 	movi	r3,32
    dcdc:	9884d83a 	srl	r2,r19,r2
    dce0:	28c05126 	beq	r5,r3,de28 <__subdf3+0x584>
    dce4:	00c00fc4 	movi	r3,63
    dce8:	1c21c83a 	sub	r16,r3,r16
    dcec:	9c26983a 	sll	r19,r19,r16
    dcf0:	9c62b03a 	or	r17,r19,r17
    dcf4:	8822c03a 	cmpne	r17,r17,zero
    dcf8:	88a2b03a 	or	r17,r17,r2
    dcfc:	000b883a 	mov	r5,zero
    dd00:	0021883a 	mov	r16,zero
    dd04:	003fb406 	br	dbd8 <__alt_data_end+0xf800dbd8>
    dd08:	113ff804 	addi	r4,r2,-32
    dd0c:	01c00804 	movi	r7,32
    dd10:	1908d83a 	srl	r4,r3,r4
    dd14:	11c04626 	beq	r2,r7,de30 <__subdf3+0x58c>
    dd18:	01c01004 	movi	r7,64
    dd1c:	3885c83a 	sub	r2,r7,r2
    dd20:	1884983a 	sll	r2,r3,r2
    dd24:	118cb03a 	or	r6,r2,r6
    dd28:	300cc03a 	cmpne	r6,r6,zero
    dd2c:	310cb03a 	or	r6,r6,r4
    dd30:	0005883a 	mov	r2,zero
    dd34:	003f3606 	br	da10 <__alt_data_end+0xf800da10>
    dd38:	80002b26 	beq	r16,zero,dde8 <__subdf3+0x544>
    dd3c:	0101ffc4 	movi	r4,2047
    dd40:	51006926 	beq	r10,r4,dee8 <__subdf3+0x644>
    dd44:	0085c83a 	sub	r2,zero,r2
    dd48:	29402034 	orhi	r5,r5,128
    dd4c:	01000e04 	movi	r4,56
    dd50:	20807d16 	blt	r4,r2,df48 <__subdf3+0x6a4>
    dd54:	010007c4 	movi	r4,31
    dd58:	2080d916 	blt	r4,r2,e0c0 <__subdf3+0x81c>
    dd5c:	01000804 	movi	r4,32
    dd60:	2089c83a 	sub	r4,r4,r2
    dd64:	2912983a 	sll	r9,r5,r4
    dd68:	8890d83a 	srl	r8,r17,r2
    dd6c:	8908983a 	sll	r4,r17,r4
    dd70:	2884d83a 	srl	r2,r5,r2
    dd74:	4a22b03a 	or	r17,r9,r8
    dd78:	2008c03a 	cmpne	r4,r4,zero
    dd7c:	8922b03a 	or	r17,r17,r4
    dd80:	3463c83a 	sub	r17,r6,r17
    dd84:	1885c83a 	sub	r2,r3,r2
    dd88:	344d803a 	cmpltu	r6,r6,r17
    dd8c:	118bc83a 	sub	r5,r2,r6
    dd90:	5021883a 	mov	r16,r10
    dd94:	3825883a 	mov	r18,r7
    dd98:	003f2206 	br	da24 <__alt_data_end+0xf800da24>
    dd9c:	9886b03a 	or	r3,r19,r2
    dda0:	18001c1e 	bne	r3,zero,de14 <__subdf3+0x570>
    dda4:	0011883a 	mov	r8,zero
    dda8:	000b883a 	mov	r5,zero
    ddac:	0023883a 	mov	r17,zero
    ddb0:	0021883a 	mov	r16,zero
    ddb4:	003f3e06 	br	dab0 <__alt_data_end+0xf800dab0>
    ddb8:	010007c4 	movi	r4,31
    ddbc:	20803c16 	blt	r4,r2,deb0 <__subdf3+0x60c>
    ddc0:	01000804 	movi	r4,32
    ddc4:	2089c83a 	sub	r4,r4,r2
    ddc8:	1912983a 	sll	r9,r3,r4
    ddcc:	308ed83a 	srl	r7,r6,r2
    ddd0:	3108983a 	sll	r4,r6,r4
    ddd4:	1884d83a 	srl	r2,r3,r2
    ddd8:	49ceb03a 	or	r7,r9,r7
    dddc:	2008c03a 	cmpne	r4,r4,zero
    dde0:	390eb03a 	or	r7,r7,r4
    dde4:	003f4706 	br	db04 <__alt_data_end+0xf800db04>
    dde8:	2c48b03a 	or	r4,r5,r17
    ddec:	20003e26 	beq	r4,zero,dee8 <__subdf3+0x644>
    ddf0:	0084303a 	nor	r2,zero,r2
    ddf4:	10003a1e 	bne	r2,zero,dee0 <__subdf3+0x63c>
    ddf8:	3463c83a 	sub	r17,r6,r17
    ddfc:	194bc83a 	sub	r5,r3,r5
    de00:	344d803a 	cmpltu	r6,r6,r17
    de04:	298bc83a 	sub	r5,r5,r6
    de08:	5021883a 	mov	r16,r10
    de0c:	3825883a 	mov	r18,r7
    de10:	003f0406 	br	da24 <__alt_data_end+0xf800da24>
    de14:	1023883a 	mov	r17,r2
    de18:	003f0706 	br	da38 <__alt_data_end+0xf800da38>
    de1c:	0101ffc4 	movi	r4,2047
    de20:	813f331e 	bne	r16,r4,daf0 <__alt_data_end+0xf800daf0>
    de24:	003ec206 	br	d930 <__alt_data_end+0xf800d930>
    de28:	0027883a 	mov	r19,zero
    de2c:	003fb006 	br	dcf0 <__alt_data_end+0xf800dcf0>
    de30:	0005883a 	mov	r2,zero
    de34:	003fbb06 	br	dd24 <__alt_data_end+0xf800dd24>
    de38:	2c44b03a 	or	r2,r5,r17
    de3c:	80008b1e 	bne	r16,zero,e06c <__subdf3+0x7c8>
    de40:	1000b526 	beq	r2,zero,e118 <__subdf3+0x874>
    de44:	1984b03a 	or	r2,r3,r6
    de48:	103eb926 	beq	r2,zero,d930 <__alt_data_end+0xf800d930>
    de4c:	3449883a 	add	r4,r6,r17
    de50:	2463803a 	cmpltu	r17,r4,r17
    de54:	194b883a 	add	r5,r3,r5
    de58:	2c4b883a 	add	r5,r5,r17
    de5c:	2880202c 	andhi	r2,r5,128
    de60:	2023883a 	mov	r17,r4
    de64:	103f5c26 	beq	r2,zero,dbd8 <__alt_data_end+0xf800dbd8>
    de68:	00bfe034 	movhi	r2,65408
    de6c:	10bfffc4 	addi	r2,r2,-1
    de70:	4821883a 	mov	r16,r9
    de74:	288a703a 	and	r5,r5,r2
    de78:	003ead06 	br	d930 <__alt_data_end+0xf800d930>
    de7c:	2c44b03a 	or	r2,r5,r17
    de80:	8000291e 	bne	r16,zero,df28 <__subdf3+0x684>
    de84:	10004f1e 	bne	r2,zero,dfc4 <__subdf3+0x720>
    de88:	1984b03a 	or	r2,r3,r6
    de8c:	10000426 	beq	r2,zero,dea0 <__subdf3+0x5fc>
    de90:	180b883a 	mov	r5,r3
    de94:	3023883a 	mov	r17,r6
    de98:	3825883a 	mov	r18,r7
    de9c:	003ea406 	br	d930 <__alt_data_end+0xf800d930>
    dea0:	0011883a 	mov	r8,zero
    dea4:	000b883a 	mov	r5,zero
    dea8:	0023883a 	mov	r17,zero
    deac:	003f0006 	br	dab0 <__alt_data_end+0xf800dab0>
    deb0:	11fff804 	addi	r7,r2,-32
    deb4:	19c8d83a 	srl	r4,r3,r7
    deb8:	01c00804 	movi	r7,32
    debc:	11c07e26 	beq	r2,r7,e0b8 <__subdf3+0x814>
    dec0:	01c01004 	movi	r7,64
    dec4:	3885c83a 	sub	r2,r7,r2
    dec8:	1884983a 	sll	r2,r3,r2
    decc:	118cb03a 	or	r6,r2,r6
    ded0:	300ec03a 	cmpne	r7,r6,zero
    ded4:	390eb03a 	or	r7,r7,r4
    ded8:	0005883a 	mov	r2,zero
    dedc:	003f0906 	br	db04 <__alt_data_end+0xf800db04>
    dee0:	0101ffc4 	movi	r4,2047
    dee4:	513f991e 	bne	r10,r4,dd4c <__alt_data_end+0xf800dd4c>
    dee8:	180b883a 	mov	r5,r3
    deec:	3023883a 	mov	r17,r6
    def0:	5021883a 	mov	r16,r10
    def4:	3825883a 	mov	r18,r7
    def8:	003e8d06 	br	d930 <__alt_data_end+0xf800d930>
    defc:	80001a1e 	bne	r16,zero,df68 <__subdf3+0x6c4>
    df00:	2c48b03a 	or	r4,r5,r17
    df04:	20005526 	beq	r4,zero,e05c <__subdf3+0x7b8>
    df08:	0084303a 	nor	r2,zero,r2
    df0c:	1000511e 	bne	r2,zero,e054 <__subdf3+0x7b0>
    df10:	89a3883a 	add	r17,r17,r6
    df14:	194b883a 	add	r5,r3,r5
    df18:	898d803a 	cmpltu	r6,r17,r6
    df1c:	298b883a 	add	r5,r5,r6
    df20:	5021883a 	mov	r16,r10
    df24:	003efc06 	br	db18 <__alt_data_end+0xf800db18>
    df28:	1000341e 	bne	r2,zero,dffc <__subdf3+0x758>
    df2c:	1984b03a 	or	r2,r3,r6
    df30:	10006f26 	beq	r2,zero,e0f0 <__subdf3+0x84c>
    df34:	180b883a 	mov	r5,r3
    df38:	3023883a 	mov	r17,r6
    df3c:	3825883a 	mov	r18,r7
    df40:	0401ffc4 	movi	r16,2047
    df44:	003e7a06 	br	d930 <__alt_data_end+0xf800d930>
    df48:	2c62b03a 	or	r17,r5,r17
    df4c:	8822c03a 	cmpne	r17,r17,zero
    df50:	0005883a 	mov	r2,zero
    df54:	003f8a06 	br	dd80 <__alt_data_end+0xf800dd80>
    df58:	3821883a 	mov	r16,r7
    df5c:	000b883a 	mov	r5,zero
    df60:	0023883a 	mov	r17,zero
    df64:	003ed206 	br	dab0 <__alt_data_end+0xf800dab0>
    df68:	0101ffc4 	movi	r4,2047
    df6c:	51003b26 	beq	r10,r4,e05c <__subdf3+0x7b8>
    df70:	0085c83a 	sub	r2,zero,r2
    df74:	29402034 	orhi	r5,r5,128
    df78:	01000e04 	movi	r4,56
    df7c:	20806216 	blt	r4,r2,e108 <__subdf3+0x864>
    df80:	010007c4 	movi	r4,31
    df84:	20806b16 	blt	r4,r2,e134 <__subdf3+0x890>
    df88:	01000804 	movi	r4,32
    df8c:	2089c83a 	sub	r4,r4,r2
    df90:	2912983a 	sll	r9,r5,r4
    df94:	888ed83a 	srl	r7,r17,r2
    df98:	8908983a 	sll	r4,r17,r4
    df9c:	2884d83a 	srl	r2,r5,r2
    dfa0:	49e2b03a 	or	r17,r9,r7
    dfa4:	2008c03a 	cmpne	r4,r4,zero
    dfa8:	8922b03a 	or	r17,r17,r4
    dfac:	89a3883a 	add	r17,r17,r6
    dfb0:	10c5883a 	add	r2,r2,r3
    dfb4:	898d803a 	cmpltu	r6,r17,r6
    dfb8:	118b883a 	add	r5,r2,r6
    dfbc:	5021883a 	mov	r16,r10
    dfc0:	003ed506 	br	db18 <__alt_data_end+0xf800db18>
    dfc4:	1984b03a 	or	r2,r3,r6
    dfc8:	103e5926 	beq	r2,zero,d930 <__alt_data_end+0xf800d930>
    dfcc:	8989c83a 	sub	r4,r17,r6
    dfd0:	8911803a 	cmpltu	r8,r17,r4
    dfd4:	28c5c83a 	sub	r2,r5,r3
    dfd8:	1205c83a 	sub	r2,r2,r8
    dfdc:	1200202c 	andhi	r8,r2,128
    dfe0:	403ef926 	beq	r8,zero,dbc8 <__alt_data_end+0xf800dbc8>
    dfe4:	3463c83a 	sub	r17,r6,r17
    dfe8:	194bc83a 	sub	r5,r3,r5
    dfec:	344d803a 	cmpltu	r6,r6,r17
    dff0:	298bc83a 	sub	r5,r5,r6
    dff4:	3825883a 	mov	r18,r7
    dff8:	003e4d06 	br	d930 <__alt_data_end+0xf800d930>
    dffc:	1984b03a 	or	r2,r3,r6
    e000:	10002b26 	beq	r2,zero,e0b0 <__subdf3+0x80c>
    e004:	2808d0fa 	srli	r4,r5,3
    e008:	8822d0fa 	srli	r17,r17,3
    e00c:	280a977a 	slli	r5,r5,29
    e010:	2080022c 	andhi	r2,r4,8
    e014:	2c62b03a 	or	r17,r5,r17
    e018:	10000826 	beq	r2,zero,e03c <__subdf3+0x798>
    e01c:	1810d0fa 	srli	r8,r3,3
    e020:	4080022c 	andhi	r2,r8,8
    e024:	1000051e 	bne	r2,zero,e03c <__subdf3+0x798>
    e028:	300cd0fa 	srli	r6,r6,3
    e02c:	1804977a 	slli	r2,r3,29
    e030:	4009883a 	mov	r4,r8
    e034:	3825883a 	mov	r18,r7
    e038:	11a2b03a 	or	r17,r2,r6
    e03c:	880ad77a 	srli	r5,r17,29
    e040:	200890fa 	slli	r4,r4,3
    e044:	882290fa 	slli	r17,r17,3
    e048:	0401ffc4 	movi	r16,2047
    e04c:	290ab03a 	or	r5,r5,r4
    e050:	003e3706 	br	d930 <__alt_data_end+0xf800d930>
    e054:	0101ffc4 	movi	r4,2047
    e058:	513fc71e 	bne	r10,r4,df78 <__alt_data_end+0xf800df78>
    e05c:	180b883a 	mov	r5,r3
    e060:	3023883a 	mov	r17,r6
    e064:	5021883a 	mov	r16,r10
    e068:	003e3106 	br	d930 <__alt_data_end+0xf800d930>
    e06c:	10002d26 	beq	r2,zero,e124 <__subdf3+0x880>
    e070:	1984b03a 	or	r2,r3,r6
    e074:	10000e26 	beq	r2,zero,e0b0 <__subdf3+0x80c>
    e078:	2808d0fa 	srli	r4,r5,3
    e07c:	8822d0fa 	srli	r17,r17,3
    e080:	280a977a 	slli	r5,r5,29
    e084:	2080022c 	andhi	r2,r4,8
    e088:	2c62b03a 	or	r17,r5,r17
    e08c:	103feb26 	beq	r2,zero,e03c <__alt_data_end+0xf800e03c>
    e090:	180ed0fa 	srli	r7,r3,3
    e094:	3880022c 	andhi	r2,r7,8
    e098:	103fe81e 	bne	r2,zero,e03c <__alt_data_end+0xf800e03c>
    e09c:	300cd0fa 	srli	r6,r6,3
    e0a0:	1804977a 	slli	r2,r3,29
    e0a4:	3809883a 	mov	r4,r7
    e0a8:	11a2b03a 	or	r17,r2,r6
    e0ac:	003fe306 	br	e03c <__alt_data_end+0xf800e03c>
    e0b0:	0401ffc4 	movi	r16,2047
    e0b4:	003e1e06 	br	d930 <__alt_data_end+0xf800d930>
    e0b8:	0005883a 	mov	r2,zero
    e0bc:	003f8306 	br	decc <__alt_data_end+0xf800decc>
    e0c0:	113ff804 	addi	r4,r2,-32
    e0c4:	02000804 	movi	r8,32
    e0c8:	2908d83a 	srl	r4,r5,r4
    e0cc:	12002526 	beq	r2,r8,e164 <__subdf3+0x8c0>
    e0d0:	02001004 	movi	r8,64
    e0d4:	4085c83a 	sub	r2,r8,r2
    e0d8:	288a983a 	sll	r5,r5,r2
    e0dc:	2c62b03a 	or	r17,r5,r17
    e0e0:	8822c03a 	cmpne	r17,r17,zero
    e0e4:	8922b03a 	or	r17,r17,r4
    e0e8:	0005883a 	mov	r2,zero
    e0ec:	003f2406 	br	dd80 <__alt_data_end+0xf800dd80>
    e0f0:	01402034 	movhi	r5,128
    e0f4:	0011883a 	mov	r8,zero
    e0f8:	297fffc4 	addi	r5,r5,-1
    e0fc:	047ffe04 	movi	r17,-8
    e100:	0401ffc4 	movi	r16,2047
    e104:	003e6a06 	br	dab0 <__alt_data_end+0xf800dab0>
    e108:	2c62b03a 	or	r17,r5,r17
    e10c:	8822c03a 	cmpne	r17,r17,zero
    e110:	0005883a 	mov	r2,zero
    e114:	003fa506 	br	dfac <__alt_data_end+0xf800dfac>
    e118:	180b883a 	mov	r5,r3
    e11c:	3023883a 	mov	r17,r6
    e120:	003e0306 	br	d930 <__alt_data_end+0xf800d930>
    e124:	180b883a 	mov	r5,r3
    e128:	3023883a 	mov	r17,r6
    e12c:	0401ffc4 	movi	r16,2047
    e130:	003dff06 	br	d930 <__alt_data_end+0xf800d930>
    e134:	113ff804 	addi	r4,r2,-32
    e138:	01c00804 	movi	r7,32
    e13c:	2908d83a 	srl	r4,r5,r4
    e140:	11c00a26 	beq	r2,r7,e16c <__subdf3+0x8c8>
    e144:	01c01004 	movi	r7,64
    e148:	3885c83a 	sub	r2,r7,r2
    e14c:	288a983a 	sll	r5,r5,r2
    e150:	2c62b03a 	or	r17,r5,r17
    e154:	8822c03a 	cmpne	r17,r17,zero
    e158:	8922b03a 	or	r17,r17,r4
    e15c:	0005883a 	mov	r2,zero
    e160:	003f9206 	br	dfac <__alt_data_end+0xf800dfac>
    e164:	000b883a 	mov	r5,zero
    e168:	003fdc06 	br	e0dc <__alt_data_end+0xf800e0dc>
    e16c:	000b883a 	mov	r5,zero
    e170:	003ff706 	br	e150 <__alt_data_end+0xf800e150>

0000e174 <__fixdfsi>:
    e174:	2806d53a 	srli	r3,r5,20
    e178:	00800434 	movhi	r2,16
    e17c:	10bfffc4 	addi	r2,r2,-1
    e180:	18c1ffcc 	andi	r3,r3,2047
    e184:	0180ff84 	movi	r6,1022
    e188:	2884703a 	and	r2,r5,r2
    e18c:	280ad7fa 	srli	r5,r5,31
    e190:	30c0130e 	bge	r6,r3,e1e0 <__fixdfsi+0x6c>
    e194:	01810744 	movi	r6,1053
    e198:	30c00d16 	blt	r6,r3,e1d0 <__fixdfsi+0x5c>
    e19c:	01810cc4 	movi	r6,1075
    e1a0:	30cdc83a 	sub	r6,r6,r3
    e1a4:	01c007c4 	movi	r7,31
    e1a8:	10800434 	orhi	r2,r2,16
    e1ac:	39800e0e 	bge	r7,r6,e1e8 <__fixdfsi+0x74>
    e1b0:	010104c4 	movi	r4,1043
    e1b4:	20c7c83a 	sub	r3,r4,r3
    e1b8:	10c6d83a 	srl	r3,r2,r3
    e1bc:	29403fcc 	andi	r5,r5,255
    e1c0:	0145c83a 	sub	r2,zero,r5
    e1c4:	1884f03a 	xor	r2,r3,r2
    e1c8:	1145883a 	add	r2,r2,r5
    e1cc:	f800283a 	ret
    e1d0:	00a00034 	movhi	r2,32768
    e1d4:	10bfffc4 	addi	r2,r2,-1
    e1d8:	2885883a 	add	r2,r5,r2
    e1dc:	f800283a 	ret
    e1e0:	0005883a 	mov	r2,zero
    e1e4:	f800283a 	ret
    e1e8:	18fefb44 	addi	r3,r3,-1043
    e1ec:	2188d83a 	srl	r4,r4,r6
    e1f0:	10c6983a 	sll	r3,r2,r3
    e1f4:	20c6b03a 	or	r3,r4,r3
    e1f8:	003ff006 	br	e1bc <__alt_data_end+0xf800e1bc>

0000e1fc <__floatsidf>:
    e1fc:	defffd04 	addi	sp,sp,-12
    e200:	dc400115 	stw	r17,4(sp)
    e204:	dfc00215 	stw	ra,8(sp)
    e208:	dc000015 	stw	r16,0(sp)
    e20c:	2023883a 	mov	r17,r4
    e210:	20001426 	beq	r4,zero,e264 <__floatsidf+0x68>
    e214:	2020d7fa 	srli	r16,r4,31
    e218:	80000126 	beq	r16,zero,e220 <__floatsidf+0x24>
    e21c:	0123c83a 	sub	r17,zero,r4
    e220:	8809883a 	mov	r4,r17
    e224:	000e3700 	call	e370 <__clzsi2>
    e228:	01410784 	movi	r5,1054
    e22c:	00c00284 	movi	r3,10
    e230:	288bc83a 	sub	r5,r5,r2
    e234:	18801c16 	blt	r3,r2,e2a8 <__floatsidf+0xac>
    e238:	00c002c4 	movi	r3,11
    e23c:	1887c83a 	sub	r3,r3,r2
    e240:	88c8d83a 	srl	r4,r17,r3
    e244:	00c00434 	movhi	r3,16
    e248:	18ffffc4 	addi	r3,r3,-1
    e24c:	10800544 	addi	r2,r2,21
    e250:	20c8703a 	and	r4,r4,r3
    e254:	8884983a 	sll	r2,r17,r2
    e258:	28c1ffcc 	andi	r3,r5,2047
    e25c:	800d883a 	mov	r6,r16
    e260:	00000406 	br	e274 <__floatsidf+0x78>
    e264:	000d883a 	mov	r6,zero
    e268:	0007883a 	mov	r3,zero
    e26c:	0009883a 	mov	r4,zero
    e270:	0005883a 	mov	r2,zero
    e274:	180a953a 	slli	r5,r3,20
    e278:	31803fcc 	andi	r6,r6,255
    e27c:	00c00434 	movhi	r3,16
    e280:	300c97fa 	slli	r6,r6,31
    e284:	18ffffc4 	addi	r3,r3,-1
    e288:	20c6703a 	and	r3,r4,r3
    e28c:	1946b03a 	or	r3,r3,r5
    e290:	1986b03a 	or	r3,r3,r6
    e294:	dfc00217 	ldw	ra,8(sp)
    e298:	dc400117 	ldw	r17,4(sp)
    e29c:	dc000017 	ldw	r16,0(sp)
    e2a0:	dec00304 	addi	sp,sp,12
    e2a4:	f800283a 	ret
    e2a8:	10fffd44 	addi	r3,r2,-11
    e2ac:	88c8983a 	sll	r4,r17,r3
    e2b0:	00800434 	movhi	r2,16
    e2b4:	10bfffc4 	addi	r2,r2,-1
    e2b8:	2088703a 	and	r4,r4,r2
    e2bc:	28c1ffcc 	andi	r3,r5,2047
    e2c0:	800d883a 	mov	r6,r16
    e2c4:	0005883a 	mov	r2,zero
    e2c8:	003fea06 	br	e274 <__alt_data_end+0xf800e274>

0000e2cc <__floatunsidf>:
    e2cc:	defffe04 	addi	sp,sp,-8
    e2d0:	dc000015 	stw	r16,0(sp)
    e2d4:	dfc00115 	stw	ra,4(sp)
    e2d8:	2021883a 	mov	r16,r4
    e2dc:	20001026 	beq	r4,zero,e320 <__floatunsidf+0x54>
    e2e0:	000e3700 	call	e370 <__clzsi2>
    e2e4:	01410784 	movi	r5,1054
    e2e8:	100d883a 	mov	r6,r2
    e2ec:	288bc83a 	sub	r5,r5,r2
    e2f0:	00800284 	movi	r2,10
    e2f4:	11801616 	blt	r2,r6,e350 <__floatunsidf+0x84>
    e2f8:	008002c4 	movi	r2,11
    e2fc:	1185c83a 	sub	r2,r2,r6
    e300:	8084d83a 	srl	r2,r16,r2
    e304:	00c00434 	movhi	r3,16
    e308:	31c00544 	addi	r7,r6,21
    e30c:	18ffffc4 	addi	r3,r3,-1
    e310:	81e0983a 	sll	r16,r16,r7
    e314:	10cc703a 	and	r6,r2,r3
    e318:	2941ffcc 	andi	r5,r5,2047
    e31c:	00000206 	br	e328 <__floatunsidf+0x5c>
    e320:	000b883a 	mov	r5,zero
    e324:	000d883a 	mov	r6,zero
    e328:	280a953a 	slli	r5,r5,20
    e32c:	00c00434 	movhi	r3,16
    e330:	18ffffc4 	addi	r3,r3,-1
    e334:	30c6703a 	and	r3,r6,r3
    e338:	8005883a 	mov	r2,r16
    e33c:	1946b03a 	or	r3,r3,r5
    e340:	dfc00117 	ldw	ra,4(sp)
    e344:	dc000017 	ldw	r16,0(sp)
    e348:	dec00204 	addi	sp,sp,8
    e34c:	f800283a 	ret
    e350:	31bffd44 	addi	r6,r6,-11
    e354:	818c983a 	sll	r6,r16,r6
    e358:	00800434 	movhi	r2,16
    e35c:	10bfffc4 	addi	r2,r2,-1
    e360:	2941ffcc 	andi	r5,r5,2047
    e364:	0021883a 	mov	r16,zero
    e368:	308c703a 	and	r6,r6,r2
    e36c:	003fee06 	br	e328 <__alt_data_end+0xf800e328>

0000e370 <__clzsi2>:
    e370:	00bfffd4 	movui	r2,65535
    e374:	11000b36 	bltu	r2,r4,e3a4 <__clzsi2+0x34>
    e378:	00803fc4 	movi	r2,255
    e37c:	1100122e 	bgeu	r2,r4,e3c8 <__clzsi2+0x58>
    e380:	00c00204 	movi	r3,8
    e384:	01400604 	movi	r5,24
    e388:	20c8d83a 	srl	r4,r4,r3
    e38c:	00800374 	movhi	r2,13
    e390:	10afda04 	addi	r2,r2,-16536
    e394:	1109883a 	add	r4,r2,r4
    e398:	20800003 	ldbu	r2,0(r4)
    e39c:	2885c83a 	sub	r2,r5,r2
    e3a0:	f800283a 	ret
    e3a4:	00804034 	movhi	r2,256
    e3a8:	10bfffc4 	addi	r2,r2,-1
    e3ac:	11000336 	bltu	r2,r4,e3bc <__clzsi2+0x4c>
    e3b0:	00c00404 	movi	r3,16
    e3b4:	180b883a 	mov	r5,r3
    e3b8:	003ff306 	br	e388 <__alt_data_end+0xf800e388>
    e3bc:	00c00604 	movi	r3,24
    e3c0:	01400204 	movi	r5,8
    e3c4:	003ff006 	br	e388 <__alt_data_end+0xf800e388>
    e3c8:	0007883a 	mov	r3,zero
    e3cc:	01400804 	movi	r5,32
    e3d0:	003fed06 	br	e388 <__alt_data_end+0xf800e388>

0000e3d4 <alt_load_section>:
 */

static void ALT_INLINE alt_load_section (alt_u32* from, 
                                         alt_u32* to, 
                                         alt_u32* end)
{
    e3d4:	defffc04 	addi	sp,sp,-16
    e3d8:	df000315 	stw	fp,12(sp)
    e3dc:	df000304 	addi	fp,sp,12
    e3e0:	e13ffd15 	stw	r4,-12(fp)
    e3e4:	e17ffe15 	stw	r5,-8(fp)
    e3e8:	e1bfff15 	stw	r6,-4(fp)
  if (to != from)
    e3ec:	e0fffe17 	ldw	r3,-8(fp)
    e3f0:	e0bffd17 	ldw	r2,-12(fp)
    e3f4:	18800c26 	beq	r3,r2,e428 <alt_load_section+0x54>
  {
    while( to != end )
    e3f8:	00000806 	br	e41c <alt_load_section+0x48>
    {
      *to++ = *from++;
    e3fc:	e0bffe17 	ldw	r2,-8(fp)
    e400:	10c00104 	addi	r3,r2,4
    e404:	e0fffe15 	stw	r3,-8(fp)
    e408:	e0fffd17 	ldw	r3,-12(fp)
    e40c:	19000104 	addi	r4,r3,4
    e410:	e13ffd15 	stw	r4,-12(fp)
    e414:	18c00017 	ldw	r3,0(r3)
    e418:	10c00015 	stw	r3,0(r2)
                                         alt_u32* to, 
                                         alt_u32* end)
{
  if (to != from)
  {
    while( to != end )
    e41c:	e0fffe17 	ldw	r3,-8(fp)
    e420:	e0bfff17 	ldw	r2,-4(fp)
    e424:	18bff51e 	bne	r3,r2,e3fc <__alt_data_end+0xf800e3fc>
    {
      *to++ = *from++;
    }
  }
}
    e428:	e037883a 	mov	sp,fp
    e42c:	df000017 	ldw	fp,0(sp)
    e430:	dec00104 	addi	sp,sp,4
    e434:	f800283a 	ret

0000e438 <alt_load>:
 * there is no bootloader, so this application is responsible for loading to
 * RAM any sections that are required.
 */  

void alt_load (void)
{
    e438:	defffe04 	addi	sp,sp,-8
    e43c:	dfc00115 	stw	ra,4(sp)
    e440:	df000015 	stw	fp,0(sp)
    e444:	d839883a 	mov	fp,sp
  /* 
   * Copy the .rwdata section. 
   */

  alt_load_section (&__flash_rwdata_start, 
    e448:	01000374 	movhi	r4,13
    e44c:	21375404 	addi	r4,r4,-8880
    e450:	01400374 	movhi	r5,13
    e454:	29704a04 	addi	r5,r5,-16088
    e458:	01800374 	movhi	r6,13
    e45c:	31b75404 	addi	r6,r6,-8880
    e460:	000e3d40 	call	e3d4 <alt_load_section>

  /*
   * Copy the exception handler.
   */

  alt_load_section (&__flash_exceptions_start, 
    e464:	01000034 	movhi	r4,0
    e468:	21000804 	addi	r4,r4,32
    e46c:	01400034 	movhi	r5,0
    e470:	29400804 	addi	r5,r5,32
    e474:	01800034 	movhi	r6,0
    e478:	31809104 	addi	r6,r6,580
    e47c:	000e3d40 	call	e3d4 <alt_load_section>

  /*
   * Copy the .rodata section.
   */

  alt_load_section (&__flash_rodata_start, 
    e480:	01000074 	movhi	r4,1
    e484:	21012d04 	addi	r4,r4,1204
    e488:	01400074 	movhi	r5,1
    e48c:	29412d04 	addi	r5,r5,1204
    e490:	01800374 	movhi	r6,13
    e494:	31b04a04 	addi	r6,r6,-16088
    e498:	000e3d40 	call	e3d4 <alt_load_section>
  
  /*
   * Now ensure that the caches are in synch.
   */
  
  alt_dcache_flush_all();
    e49c:	000f3cc0 	call	f3cc <alt_dcache_flush_all>
  alt_icache_flush_all();
    e4a0:	000f5e80 	call	f5e8 <alt_icache_flush_all>
}
    e4a4:	e037883a 	mov	sp,fp
    e4a8:	dfc00117 	ldw	ra,4(sp)
    e4ac:	df000017 	ldw	fp,0(sp)
    e4b0:	dec00204 	addi	sp,sp,8
    e4b4:	f800283a 	ret

0000e4b8 <alt_main>:
 * devices/filesystems/components in the system; and call the entry point for
 * the users application, i.e. main().
 */

void alt_main (void)
{
    e4b8:	defffd04 	addi	sp,sp,-12
    e4bc:	dfc00215 	stw	ra,8(sp)
    e4c0:	df000115 	stw	fp,4(sp)
    e4c4:	df000104 	addi	fp,sp,4
#endif

  /* ALT LOG - please see HAL/sys/alt_log_printf.h for details */
  ALT_LOG_PRINT_BOOT("[alt_main.c] Entering alt_main, calling alt_irq_init.\r\n");
  /* Initialize the interrupt controller. */
  alt_irq_init (NULL);
    e4c8:	0009883a 	mov	r4,zero
    e4cc:	000e6580 	call	e658 <alt_irq_init>

  /* Initialize the operating system */
  ALT_LOG_PRINT_BOOT("[alt_main.c] Done alt_irq_init, calling alt_os_init.\r\n");
  ALT_OS_INIT();
    e4d0:	0001883a 	nop
  ALT_LOG_PRINT_BOOT("[alt_main.c] Done OS Init, calling alt_sem_create.\r\n");
  ALT_SEM_CREATE (&alt_fd_list_lock, 1);

  /* Initialize the device drivers/software components. */
  ALT_LOG_PRINT_BOOT("[alt_main.c] Calling alt_sys_init.\r\n");
  alt_sys_init();
    e4d4:	000e68c0 	call	e68c <alt_sys_init>
   * devices be present (not equal to /dev/null) and if direct drivers
   * aren't being used.
   */

    ALT_LOG_PRINT_BOOT("[alt_main.c] Redirecting IO.\r\n");
    alt_io_redirect(ALT_STDOUT, ALT_STDIN, ALT_STDERR);
    e4d8:	01000374 	movhi	r4,13
    e4dc:	21301a04 	addi	r4,r4,-16280
    e4e0:	01400374 	movhi	r5,13
    e4e4:	29701a04 	addi	r5,r5,-16280
    e4e8:	01800374 	movhi	r6,13
    e4ec:	31b01a04 	addi	r6,r6,-16280
    e4f0:	000f6d80 	call	f6d8 <alt_io_redirect>
  /* 
   * Call the C++ constructors 
   */

  ALT_LOG_PRINT_BOOT("[alt_main.c] Calling C++ constructors.\r\n");
  _do_ctors ();
    e4f4:	000f5300 	call	f530 <_do_ctors>
   * redefined as _exit()). This is in the interest of reducing code footprint,
   * in that the atexit() overhead is removed when it's not needed.
   */

  ALT_LOG_PRINT_BOOT("[alt_main.c] Calling atexit.\r\n");
  atexit (_do_dtors);
    e4f8:	01000074 	movhi	r4,1
    e4fc:	213d6304 	addi	r4,r4,-2676
    e500:	00101100 	call	10110 <atexit>
  ALT_LOG_PRINT_BOOT("[alt_main.c] Calling main.\r\n");

#ifdef ALT_NO_EXIT
  main (alt_argc, alt_argv, alt_envp);
#else
  result = main (alt_argc, alt_argv, alt_envp);
    e504:	d1272717 	ldw	r4,-25444(gp)
    e508:	d0e72817 	ldw	r3,-25440(gp)
    e50c:	d0a72917 	ldw	r2,-25436(gp)
    e510:	180b883a 	mov	r5,r3
    e514:	100d883a 	mov	r6,r2
    e518:	00003bc0 	call	3bc <main>
    e51c:	e0bfff15 	stw	r2,-4(fp)
  close(STDOUT_FILENO);
    e520:	01000044 	movi	r4,1
    e524:	000f2fc0 	call	f2fc <close>
  exit (result);
    e528:	e13fff17 	ldw	r4,-4(fp)
    e52c:	00101240 	call	10124 <exit>

0000e530 <__malloc_lock>:
 * configuration is single threaded, so there is nothing to do here. Note that 
 * this requires that malloc is never called by an interrupt service routine.
 */

void __malloc_lock ( struct _reent *_r )
{
    e530:	defffe04 	addi	sp,sp,-8
    e534:	df000115 	stw	fp,4(sp)
    e538:	df000104 	addi	fp,sp,4
    e53c:	e13fff15 	stw	r4,-4(fp)
}
    e540:	e037883a 	mov	sp,fp
    e544:	df000017 	ldw	fp,0(sp)
    e548:	dec00104 	addi	sp,sp,4
    e54c:	f800283a 	ret

0000e550 <__malloc_unlock>:
/*
 *
 */

void __malloc_unlock ( struct _reent *_r )
{
    e550:	defffe04 	addi	sp,sp,-8
    e554:	df000115 	stw	fp,4(sp)
    e558:	df000104 	addi	fp,sp,4
    e55c:	e13fff15 	stw	r4,-4(fp)
}
    e560:	e037883a 	mov	sp,fp
    e564:	df000017 	ldw	fp,0(sp)
    e568:	dec00104 	addi	sp,sp,4
    e56c:	f800283a 	ret

0000e570 <sbrk>:
#endif
 
caddr_t ALT_SBRK (int incr) __attribute__ ((no_instrument_function ));

caddr_t ALT_SBRK (int incr)
{ 
    e570:	defff904 	addi	sp,sp,-28
    e574:	df000615 	stw	fp,24(sp)
    e578:	df000604 	addi	fp,sp,24
    e57c:	e13fff15 	stw	r4,-4(fp)
static ALT_INLINE alt_irq_context ALT_ALWAYS_INLINE 
       alt_irq_disable_all (void)
{
  alt_irq_context context;

  NIOS2_READ_STATUS (context);
    e580:	0005303a 	rdctl	r2,status
    e584:	e0bffc15 	stw	r2,-16(fp)

  NIOS2_WRITE_STATUS (context & ~NIOS2_STATUS_PIE_MSK);
    e588:	e0fffc17 	ldw	r3,-16(fp)
    e58c:	00bfff84 	movi	r2,-2
    e590:	1884703a 	and	r2,r3,r2
    e594:	1001703a 	wrctl	status,r2
  
  return context;
    e598:	e0bffc17 	ldw	r2,-16(fp)
  alt_irq_context context;
  char *prev_heap_end; 

  context = alt_irq_disable_all();
    e59c:	e0bffa15 	stw	r2,-24(fp)

  /* Always return data aligned on a word boundary */
  heap_end = (char *)(((unsigned int)heap_end + 3) & ~3);
    e5a0:	d0a00817 	ldw	r2,-32736(gp)
    e5a4:	10c000c4 	addi	r3,r2,3
    e5a8:	00bfff04 	movi	r2,-4
    e5ac:	1884703a 	and	r2,r3,r2
    e5b0:	d0a00815 	stw	r2,-32736(gp)
  if (((heap_end + incr) - __alt_heap_start) > ALT_MAX_HEAP_BYTES) {
    alt_irq_enable_all(context);
    return (caddr_t)-1;
  }
#else
  if ((heap_end + incr) > __alt_heap_limit) {
    e5b4:	d0e00817 	ldw	r3,-32736(gp)
    e5b8:	e0bfff17 	ldw	r2,-4(fp)
    e5bc:	1887883a 	add	r3,r3,r2
    e5c0:	00820034 	movhi	r2,2048
    e5c4:	10800004 	addi	r2,r2,0
    e5c8:	10c0062e 	bgeu	r2,r3,e5e4 <sbrk+0x74>
    e5cc:	e0bffa17 	ldw	r2,-24(fp)
    e5d0:	e0bffd15 	stw	r2,-12(fp)
  status &= ~NIOS2_STATUS_PIE_MSK;
  status |= (context & NIOS2_STATUS_PIE_MSK);
  
  NIOS2_WRITE_STATUS (status);
#else
  NIOS2_WRITE_STATUS (context);
    e5d4:	e0bffd17 	ldw	r2,-12(fp)
    e5d8:	1001703a 	wrctl	status,r2
    alt_irq_enable_all(context);
    return (caddr_t)-1;
    e5dc:	00bfffc4 	movi	r2,-1
    e5e0:	00000b06 	br	e610 <sbrk+0xa0>
  }
#endif

  prev_heap_end = heap_end; 
    e5e4:	d0a00817 	ldw	r2,-32736(gp)
    e5e8:	e0bffb15 	stw	r2,-20(fp)
  heap_end += incr; 
    e5ec:	d0e00817 	ldw	r3,-32736(gp)
    e5f0:	e0bfff17 	ldw	r2,-4(fp)
    e5f4:	1885883a 	add	r2,r3,r2
    e5f8:	d0a00815 	stw	r2,-32736(gp)
    e5fc:	e0bffa17 	ldw	r2,-24(fp)
    e600:	e0bffe15 	stw	r2,-8(fp)
    e604:	e0bffe17 	ldw	r2,-8(fp)
    e608:	1001703a 	wrctl	status,r2

#endif

  alt_irq_enable_all(context);

  return (caddr_t) prev_heap_end; 
    e60c:	e0bffb17 	ldw	r2,-20(fp)
} 
    e610:	e037883a 	mov	sp,fp
    e614:	df000017 	ldw	fp,0(sp)
    e618:	dec00104 	addi	sp,sp,4
    e61c:	f800283a 	ret

0000e620 <alt_dev_reg>:
 */

extern int alt_fs_reg  (alt_dev* dev); 

static ALT_INLINE int alt_dev_reg (alt_dev* dev)
{
    e620:	defffd04 	addi	sp,sp,-12
    e624:	dfc00215 	stw	ra,8(sp)
    e628:	df000115 	stw	fp,4(sp)
    e62c:	df000104 	addi	fp,sp,4
    e630:	e13fff15 	stw	r4,-4(fp)
  extern alt_llist alt_dev_list;

  return alt_dev_llist_insert ((alt_dev_llist*) dev, &alt_dev_list);
    e634:	e13fff17 	ldw	r4,-4(fp)
    e638:	01400374 	movhi	r5,13
    e63c:	29774d04 	addi	r5,r5,-8908
    e640:	000f48c0 	call	f48c <alt_dev_llist_insert>
}
    e644:	e037883a 	mov	sp,fp
    e648:	dfc00117 	ldw	ra,4(sp)
    e64c:	df000017 	ldw	fp,0(sp)
    e650:	dec00204 	addi	sp,sp,8
    e654:	f800283a 	ret

0000e658 <alt_irq_init>:
 * The "base" parameter is ignored and only
 * present for backwards-compatibility.
 */

void alt_irq_init ( const void* base )
{
    e658:	defffd04 	addi	sp,sp,-12
    e65c:	dfc00215 	stw	ra,8(sp)
    e660:	df000115 	stw	fp,4(sp)
    e664:	df000104 	addi	fp,sp,4
    e668:	e13fff15 	stw	r4,-4(fp)
    ALTERA_NIOS2_GEN2_IRQ_INIT ( CPU, cpu);
    e66c:	000fd700 	call	fd70 <altera_nios2_gen2_irq_init>
 * alt_irq_cpu_enable_interrupts() enables the CPU to start taking interrupts.
 */
static ALT_INLINE void ALT_ALWAYS_INLINE 
       alt_irq_cpu_enable_interrupts (void)
{
    NIOS2_WRITE_STATUS(NIOS2_STATUS_PIE_MSK
    e670:	00800044 	movi	r2,1
    e674:	1001703a 	wrctl	status,r2
    alt_irq_cpu_enable_interrupts();
}
    e678:	e037883a 	mov	sp,fp
    e67c:	dfc00117 	ldw	ra,4(sp)
    e680:	df000017 	ldw	fp,0(sp)
    e684:	dec00204 	addi	sp,sp,8
    e688:	f800283a 	ret

0000e68c <alt_sys_init>:
 * Initialize the non-interrupt controller devices.
 * Called after alt_irq_init().
 */

void alt_sys_init( void )
{
    e68c:	defffe04 	addi	sp,sp,-8
    e690:	dfc00115 	stw	ra,4(sp)
    e694:	df000015 	stw	fp,0(sp)
    e698:	d839883a 	mov	fp,sp
    ALTERA_AVALON_JTAG_UART_INIT ( JTAG_UART, jtag_uart);
    e69c:	01000374 	movhi	r4,13
    e6a0:	21327d04 	addi	r4,r4,-13836
    e6a4:	000b883a 	mov	r5,zero
    e6a8:	000d883a 	mov	r6,zero
    e6ac:	000e88c0 	call	e88c <altera_avalon_jtag_uart_init>
    e6b0:	01000374 	movhi	r4,13
    e6b4:	21327304 	addi	r4,r4,-13876
    e6b8:	000e6200 	call	e620 <alt_dev_reg>
    ALTERA_AVALON_SYSID_QSYS_INIT ( SYSID0, sysid0);
    e6bc:	0001883a 	nop
    ALTERA_UP_AVALON_PARALLEL_PORT_INIT ( LED_GREEN, led_green);
    e6c0:	01000374 	movhi	r4,13
    e6c4:	21368b04 	addi	r4,r4,-9684
    e6c8:	000e6200 	call	e620 <alt_dev_reg>
    ALTERA_UP_AVALON_PARALLEL_PORT_INIT ( LED_RED, led_red);
    e6cc:	01000374 	movhi	r4,13
    e6d0:	21369604 	addi	r4,r4,-9640
    e6d4:	000e6200 	call	e620 <alt_dev_reg>
    ALTERA_UP_AVALON_PARALLEL_PORT_INIT ( PUSH_BUTTONS, push_buttons);
    e6d8:	01000374 	movhi	r4,13
    e6dc:	2136a104 	addi	r4,r4,-9596
    e6e0:	000e6200 	call	e620 <alt_dev_reg>
    ALTERA_UP_AVALON_PARALLEL_PORT_INIT ( SEG7_0TO3, seg7_0to3);
    e6e4:	01000374 	movhi	r4,13
    e6e8:	2136ac04 	addi	r4,r4,-9552
    e6ec:	000e6200 	call	e620 <alt_dev_reg>
    ALTERA_UP_AVALON_PARALLEL_PORT_INIT ( SEG7_4TO7, seg7_4to7);
    e6f0:	01000374 	movhi	r4,13
    e6f4:	2136b704 	addi	r4,r4,-9508
    e6f8:	000e6200 	call	e620 <alt_dev_reg>
    ALTERA_UP_AVALON_PARALLEL_PORT_INIT ( SLIDER_SWITCH, slider_switch);
    e6fc:	01000374 	movhi	r4,13
    e700:	2136c204 	addi	r4,r4,-9464
    e704:	000e6200 	call	e620 <alt_dev_reg>
    ALTERA_UP_SD_CARD_AVALON_INTERFACE_INIT ( ALTERA_UP_SD_CARD_AVALON_INTERFACE_0, Altera_UP_SD_Card_Avalon_Interface_0);
    e708:	01000374 	movhi	r4,13
    e70c:	2136cd04 	addi	r4,r4,-9420
    e710:	000e6200 	call	e620 <alt_dev_reg>
}
    e714:	e037883a 	mov	sp,fp
    e718:	dfc00117 	ldw	ra,4(sp)
    e71c:	df000017 	ldw	fp,0(sp)
    e720:	dec00204 	addi	sp,sp,8
    e724:	f800283a 	ret

0000e728 <altera_avalon_jtag_uart_read_fd>:
 *
 */

int 
altera_avalon_jtag_uart_read_fd(alt_fd* fd, char* buffer, int space)
{
    e728:	defffa04 	addi	sp,sp,-24
    e72c:	dfc00515 	stw	ra,20(sp)
    e730:	df000415 	stw	fp,16(sp)
    e734:	df000404 	addi	fp,sp,16
    e738:	e13ffd15 	stw	r4,-12(fp)
    e73c:	e17ffe15 	stw	r5,-8(fp)
    e740:	e1bfff15 	stw	r6,-4(fp)
    altera_avalon_jtag_uart_dev* dev = (altera_avalon_jtag_uart_dev*) fd->dev; 
    e744:	e0bffd17 	ldw	r2,-12(fp)
    e748:	10800017 	ldw	r2,0(r2)
    e74c:	e0bffc15 	stw	r2,-16(fp)

    return altera_avalon_jtag_uart_read(&dev->state, buffer, space,
    e750:	e0bffc17 	ldw	r2,-16(fp)
    e754:	10c00a04 	addi	r3,r2,40
    e758:	e0bffd17 	ldw	r2,-12(fp)
    e75c:	10800217 	ldw	r2,8(r2)
    e760:	1809883a 	mov	r4,r3
    e764:	e17ffe17 	ldw	r5,-8(fp)
    e768:	e1bfff17 	ldw	r6,-4(fp)
    e76c:	100f883a 	mov	r7,r2
    e770:	000ed480 	call	ed48 <altera_avalon_jtag_uart_read>
      fd->fd_flags);
}
    e774:	e037883a 	mov	sp,fp
    e778:	dfc00117 	ldw	ra,4(sp)
    e77c:	df000017 	ldw	fp,0(sp)
    e780:	dec00204 	addi	sp,sp,8
    e784:	f800283a 	ret

0000e788 <altera_avalon_jtag_uart_write_fd>:

int 
altera_avalon_jtag_uart_write_fd(alt_fd* fd, const char* buffer, int space)
{
    e788:	defffa04 	addi	sp,sp,-24
    e78c:	dfc00515 	stw	ra,20(sp)
    e790:	df000415 	stw	fp,16(sp)
    e794:	df000404 	addi	fp,sp,16
    e798:	e13ffd15 	stw	r4,-12(fp)
    e79c:	e17ffe15 	stw	r5,-8(fp)
    e7a0:	e1bfff15 	stw	r6,-4(fp)
    altera_avalon_jtag_uart_dev* dev = (altera_avalon_jtag_uart_dev*) fd->dev; 
    e7a4:	e0bffd17 	ldw	r2,-12(fp)
    e7a8:	10800017 	ldw	r2,0(r2)
    e7ac:	e0bffc15 	stw	r2,-16(fp)

    return altera_avalon_jtag_uart_write(&dev->state, buffer, space,
    e7b0:	e0bffc17 	ldw	r2,-16(fp)
    e7b4:	10c00a04 	addi	r3,r2,40
    e7b8:	e0bffd17 	ldw	r2,-12(fp)
    e7bc:	10800217 	ldw	r2,8(r2)
    e7c0:	1809883a 	mov	r4,r3
    e7c4:	e17ffe17 	ldw	r5,-8(fp)
    e7c8:	e1bfff17 	ldw	r6,-4(fp)
    e7cc:	100f883a 	mov	r7,r2
    e7d0:	000ef540 	call	ef54 <altera_avalon_jtag_uart_write>
      fd->fd_flags);
}
    e7d4:	e037883a 	mov	sp,fp
    e7d8:	dfc00117 	ldw	ra,4(sp)
    e7dc:	df000017 	ldw	fp,0(sp)
    e7e0:	dec00204 	addi	sp,sp,8
    e7e4:	f800283a 	ret

0000e7e8 <altera_avalon_jtag_uart_close_fd>:

#ifndef ALTERA_AVALON_JTAG_UART_SMALL

int 
altera_avalon_jtag_uart_close_fd(alt_fd* fd)
{
    e7e8:	defffc04 	addi	sp,sp,-16
    e7ec:	dfc00315 	stw	ra,12(sp)
    e7f0:	df000215 	stw	fp,8(sp)
    e7f4:	df000204 	addi	fp,sp,8
    e7f8:	e13fff15 	stw	r4,-4(fp)
    altera_avalon_jtag_uart_dev* dev = (altera_avalon_jtag_uart_dev*) fd->dev; 
    e7fc:	e0bfff17 	ldw	r2,-4(fp)
    e800:	10800017 	ldw	r2,0(r2)
    e804:	e0bffe15 	stw	r2,-8(fp)

    return altera_avalon_jtag_uart_close(&dev->state, fd->fd_flags);
    e808:	e0bffe17 	ldw	r2,-8(fp)
    e80c:	10c00a04 	addi	r3,r2,40
    e810:	e0bfff17 	ldw	r2,-4(fp)
    e814:	10800217 	ldw	r2,8(r2)
    e818:	1809883a 	mov	r4,r3
    e81c:	100b883a 	mov	r5,r2
    e820:	000ebf40 	call	ebf4 <altera_avalon_jtag_uart_close>
}
    e824:	e037883a 	mov	sp,fp
    e828:	dfc00117 	ldw	ra,4(sp)
    e82c:	df000017 	ldw	fp,0(sp)
    e830:	dec00204 	addi	sp,sp,8
    e834:	f800283a 	ret

0000e838 <altera_avalon_jtag_uart_ioctl_fd>:

int 
altera_avalon_jtag_uart_ioctl_fd(alt_fd* fd, int req, void* arg)
{
    e838:	defffa04 	addi	sp,sp,-24
    e83c:	dfc00515 	stw	ra,20(sp)
    e840:	df000415 	stw	fp,16(sp)
    e844:	df000404 	addi	fp,sp,16
    e848:	e13ffd15 	stw	r4,-12(fp)
    e84c:	e17ffe15 	stw	r5,-8(fp)
    e850:	e1bfff15 	stw	r6,-4(fp)
    altera_avalon_jtag_uart_dev* dev = (altera_avalon_jtag_uart_dev*) fd->dev;
    e854:	e0bffd17 	ldw	r2,-12(fp)
    e858:	10800017 	ldw	r2,0(r2)
    e85c:	e0bffc15 	stw	r2,-16(fp)

    return altera_avalon_jtag_uart_ioctl(&dev->state, req, arg);
    e860:	e0bffc17 	ldw	r2,-16(fp)
    e864:	10800a04 	addi	r2,r2,40
    e868:	1009883a 	mov	r4,r2
    e86c:	e17ffe17 	ldw	r5,-8(fp)
    e870:	e1bfff17 	ldw	r6,-4(fp)
    e874:	000ec5c0 	call	ec5c <altera_avalon_jtag_uart_ioctl>
}
    e878:	e037883a 	mov	sp,fp
    e87c:	dfc00117 	ldw	ra,4(sp)
    e880:	df000017 	ldw	fp,0(sp)
    e884:	dec00204 	addi	sp,sp,8
    e888:	f800283a 	ret

0000e88c <altera_avalon_jtag_uart_init>:
 * Return 1 on sucessful IRQ register and 0 on failure.
 */

void altera_avalon_jtag_uart_init(altera_avalon_jtag_uart_state* sp, 
                                  int irq_controller_id, int irq)
{
    e88c:	defffb04 	addi	sp,sp,-20
    e890:	dfc00415 	stw	ra,16(sp)
    e894:	df000315 	stw	fp,12(sp)
    e898:	df000304 	addi	fp,sp,12
    e89c:	e13ffd15 	stw	r4,-12(fp)
    e8a0:	e17ffe15 	stw	r5,-8(fp)
    e8a4:	e1bfff15 	stw	r6,-4(fp)
  ALT_FLAG_CREATE(&sp->events, 0);
  ALT_SEM_CREATE(&sp->read_lock, 1);
  ALT_SEM_CREATE(&sp->write_lock, 1);

  /* enable read interrupts at the device */
  sp->irq_enable = ALTERA_AVALON_JTAG_UART_CONTROL_RE_MSK;
    e8a8:	e0bffd17 	ldw	r2,-12(fp)
    e8ac:	00c00044 	movi	r3,1
    e8b0:	10c00815 	stw	r3,32(r2)

  IOWR_ALTERA_AVALON_JTAG_UART_CONTROL(sp->base, sp->irq_enable); 
    e8b4:	e0bffd17 	ldw	r2,-12(fp)
    e8b8:	10800017 	ldw	r2,0(r2)
    e8bc:	10800104 	addi	r2,r2,4
    e8c0:	1007883a 	mov	r3,r2
    e8c4:	e0bffd17 	ldw	r2,-12(fp)
    e8c8:	10800817 	ldw	r2,32(r2)
    e8cc:	18800035 	stwio	r2,0(r3)
  /* register the interrupt handler */
#ifdef ALT_ENHANCED_INTERRUPT_API_PRESENT
  alt_ic_isr_register(irq_controller_id, irq, altera_avalon_jtag_uart_irq, 
                      sp, NULL);
#else
  alt_irq_register(irq, sp, altera_avalon_jtag_uart_irq);
    e8d0:	e0bfff17 	ldw	r2,-4(fp)
    e8d4:	1009883a 	mov	r4,r2
    e8d8:	e17ffd17 	ldw	r5,-12(fp)
    e8dc:	01800074 	movhi	r6,1
    e8e0:	31ba5104 	addi	r6,r6,-5820
    e8e4:	000f7500 	call	f750 <alt_irq_register>
#endif  

  /* Register an alarm to go off every second to check for presence of host */
  sp->host_inactive = 0;
    e8e8:	e0bffd17 	ldw	r2,-12(fp)
    e8ec:	10000915 	stw	zero,36(r2)

  if (alt_alarm_start(&sp->alarm, alt_ticks_per_second(), 
    e8f0:	e0bffd17 	ldw	r2,-12(fp)
    e8f4:	10c00204 	addi	r3,r2,8
 * Obtain the system clock rate in ticks/s. 
 */

static ALT_INLINE alt_u32 ALT_ALWAYS_INLINE alt_ticks_per_second (void)
{
  return _alt_tick_rate;
    e8f8:	00800374 	movhi	r2,13
    e8fc:	10be6d04 	addi	r2,r2,-1612
    e900:	10800017 	ldw	r2,0(r2)
    e904:	1809883a 	mov	r4,r3
    e908:	100b883a 	mov	r5,r2
    e90c:	01800074 	movhi	r6,1
    e910:	31bad304 	addi	r6,r6,-5300
    e914:	e1fffd17 	ldw	r7,-12(fp)
    e918:	000f16c0 	call	f16c <alt_alarm_start>
    e91c:	1000040e 	bge	r2,zero,e930 <altera_avalon_jtag_uart_init+0xa4>
    &altera_avalon_jtag_uart_timeout, sp) < 0)
  {
    /* If we can't set the alarm then record "don't know if host present" 
     * and behave as though the host is present.
     */
    sp->timeout = INT_MAX;
    e920:	e0fffd17 	ldw	r3,-12(fp)
    e924:	00a00034 	movhi	r2,32768
    e928:	10bfffc4 	addi	r2,r2,-1
    e92c:	18800115 	stw	r2,4(r3)
  }

  /* ALT_LOG - see altera_hal/HAL/inc/sys/alt_log_printf.h */ 
  ALT_LOG_JTAG_UART_ALARM_REGISTER(sp, sp->base);
}
    e930:	e037883a 	mov	sp,fp
    e934:	dfc00117 	ldw	ra,4(sp)
    e938:	df000017 	ldw	fp,0(sp)
    e93c:	dec00204 	addi	sp,sp,8
    e940:	f800283a 	ret

0000e944 <altera_avalon_jtag_uart_irq>:
#ifdef ALT_ENHANCED_INTERRUPT_API_PRESENT
static void altera_avalon_jtag_uart_irq(void* context)
#else
static void altera_avalon_jtag_uart_irq(void* context, alt_u32 id)
#endif
{
    e944:	defff704 	addi	sp,sp,-36
    e948:	df000815 	stw	fp,32(sp)
    e94c:	df000804 	addi	fp,sp,32
    e950:	e13ffe15 	stw	r4,-8(fp)
    e954:	e17fff15 	stw	r5,-4(fp)
  altera_avalon_jtag_uart_state* sp = (altera_avalon_jtag_uart_state*) context;
    e958:	e0bffe17 	ldw	r2,-8(fp)
    e95c:	e0bffa15 	stw	r2,-24(fp)
  unsigned int base = sp->base;
    e960:	e0bffa17 	ldw	r2,-24(fp)
    e964:	10800017 	ldw	r2,0(r2)
    e968:	e0bffb15 	stw	r2,-20(fp)
  /* ALT_LOG - see altera_hal/HAL/inc/sys/alt_log_printf.h */ 
  ALT_LOG_JTAG_UART_ISR_FUNCTION(base, sp);

  for ( ; ; )
  {
    unsigned int control = IORD_ALTERA_AVALON_JTAG_UART_CONTROL(base);
    e96c:	e0bffb17 	ldw	r2,-20(fp)
    e970:	10800104 	addi	r2,r2,4
    e974:	10800037 	ldwio	r2,0(r2)
    e978:	e0bffc15 	stw	r2,-16(fp)

    /* Return once nothing more to do */
    if ((control & (ALTERA_AVALON_JTAG_UART_CONTROL_RI_MSK | ALTERA_AVALON_JTAG_UART_CONTROL_WI_MSK)) == 0)
    e97c:	e0bffc17 	ldw	r2,-16(fp)
    e980:	1080c00c 	andi	r2,r2,768
    e984:	1000011e 	bne	r2,zero,e98c <altera_avalon_jtag_uart_irq+0x48>
      break;
    e988:	00006c06 	br	eb3c <altera_avalon_jtag_uart_irq+0x1f8>

    if (control & ALTERA_AVALON_JTAG_UART_CONTROL_RI_MSK)
    e98c:	e0bffc17 	ldw	r2,-16(fp)
    e990:	1080400c 	andi	r2,r2,256
    e994:	10003426 	beq	r2,zero,ea68 <altera_avalon_jtag_uart_irq+0x124>
    {
      /* process a read irq.  Start by assuming that there is data in the
       * receive FIFO (otherwise why would we have been interrupted?)
       */
      unsigned int data = 1 << ALTERA_AVALON_JTAG_UART_DATA_RAVAIL_OFST;
    e998:	00800074 	movhi	r2,1
    e99c:	e0bff815 	stw	r2,-32(fp)
      for ( ; ; )
      {
        /* Check whether there is space in the buffer.  If not then we must not
         * read any characters from the buffer as they will be lost.
         */
        unsigned int next = (sp->rx_in + 1) % ALTERA_AVALON_JTAG_UART_BUF_LEN;
    e9a0:	e0bffa17 	ldw	r2,-24(fp)
    e9a4:	10800a17 	ldw	r2,40(r2)
    e9a8:	10800044 	addi	r2,r2,1
    e9ac:	1081ffcc 	andi	r2,r2,2047
    e9b0:	e0bffd15 	stw	r2,-12(fp)
        if (next == sp->rx_out)
    e9b4:	e0bffa17 	ldw	r2,-24(fp)
    e9b8:	10c00b17 	ldw	r3,44(r2)
    e9bc:	e0bffd17 	ldw	r2,-12(fp)
    e9c0:	1880011e 	bne	r3,r2,e9c8 <altera_avalon_jtag_uart_irq+0x84>
          break;
    e9c4:	00001606 	br	ea20 <altera_avalon_jtag_uart_irq+0xdc>

        /* Try to remove a character from the FIFO and find out whether there
         * are any more characters remaining.
         */
        data = IORD_ALTERA_AVALON_JTAG_UART_DATA(base);
    e9c8:	e0bffb17 	ldw	r2,-20(fp)
    e9cc:	10800037 	ldwio	r2,0(r2)
    e9d0:	e0bff815 	stw	r2,-32(fp)
        
        if ((data & ALTERA_AVALON_JTAG_UART_DATA_RVALID_MSK) == 0)
    e9d4:	e0bff817 	ldw	r2,-32(fp)
    e9d8:	10a0000c 	andi	r2,r2,32768
    e9dc:	1000011e 	bne	r2,zero,e9e4 <altera_avalon_jtag_uart_irq+0xa0>
          break;
    e9e0:	00000f06 	br	ea20 <altera_avalon_jtag_uart_irq+0xdc>

        sp->rx_buf[sp->rx_in] = (data & ALTERA_AVALON_JTAG_UART_DATA_DATA_MSK) >> ALTERA_AVALON_JTAG_UART_DATA_DATA_OFST;
    e9e4:	e0bffa17 	ldw	r2,-24(fp)
    e9e8:	10800a17 	ldw	r2,40(r2)
    e9ec:	e0fff817 	ldw	r3,-32(fp)
    e9f0:	1809883a 	mov	r4,r3
    e9f4:	e0fffa17 	ldw	r3,-24(fp)
    e9f8:	1885883a 	add	r2,r3,r2
    e9fc:	10800e04 	addi	r2,r2,56
    ea00:	11000005 	stb	r4,0(r2)
        sp->rx_in = (sp->rx_in + 1) % ALTERA_AVALON_JTAG_UART_BUF_LEN;
    ea04:	e0bffa17 	ldw	r2,-24(fp)
    ea08:	10800a17 	ldw	r2,40(r2)
    ea0c:	10800044 	addi	r2,r2,1
    ea10:	10c1ffcc 	andi	r3,r2,2047
    ea14:	e0bffa17 	ldw	r2,-24(fp)
    ea18:	10c00a15 	stw	r3,40(r2)

        /* Post an event to notify jtag_uart_read that a character has been read */
        ALT_FLAG_POST (sp->events, ALT_JTAG_UART_READ_RDY, OS_FLAG_SET);
      }
    ea1c:	003fe006 	br	e9a0 <__alt_data_end+0xf800e9a0>

      if (data & ALTERA_AVALON_JTAG_UART_DATA_RAVAIL_MSK)
    ea20:	e0bff817 	ldw	r2,-32(fp)
    ea24:	10bfffec 	andhi	r2,r2,65535
    ea28:	10000f26 	beq	r2,zero,ea68 <altera_avalon_jtag_uart_irq+0x124>
      {
        /* If there is still data available here then the buffer is full 
         * so turn off receive interrupts until some space becomes available.
         */
        sp->irq_enable &= ~ALTERA_AVALON_JTAG_UART_CONTROL_RE_MSK;
    ea2c:	e0bffa17 	ldw	r2,-24(fp)
    ea30:	10c00817 	ldw	r3,32(r2)
    ea34:	00bfff84 	movi	r2,-2
    ea38:	1886703a 	and	r3,r3,r2
    ea3c:	e0bffa17 	ldw	r2,-24(fp)
    ea40:	10c00815 	stw	r3,32(r2)
        IOWR_ALTERA_AVALON_JTAG_UART_CONTROL(base, sp->irq_enable);
    ea44:	e0bffb17 	ldw	r2,-20(fp)
    ea48:	10800104 	addi	r2,r2,4
    ea4c:	1007883a 	mov	r3,r2
    ea50:	e0bffa17 	ldw	r2,-24(fp)
    ea54:	10800817 	ldw	r2,32(r2)
    ea58:	18800035 	stwio	r2,0(r3)
        
        /* Dummy read to ensure IRQ is cleared prior to ISR completion */
        IORD_ALTERA_AVALON_JTAG_UART_CONTROL(base);
    ea5c:	e0bffb17 	ldw	r2,-20(fp)
    ea60:	10800104 	addi	r2,r2,4
    ea64:	10800037 	ldwio	r2,0(r2)
      }
    }

    if (control & ALTERA_AVALON_JTAG_UART_CONTROL_WI_MSK)
    ea68:	e0bffc17 	ldw	r2,-16(fp)
    ea6c:	1080800c 	andi	r2,r2,512
    ea70:	10003126 	beq	r2,zero,eb38 <altera_avalon_jtag_uart_irq+0x1f4>
    {
      /* process a write irq */
      unsigned int space = (control & ALTERA_AVALON_JTAG_UART_CONTROL_WSPACE_MSK) >> ALTERA_AVALON_JTAG_UART_CONTROL_WSPACE_OFST;
    ea74:	e0bffc17 	ldw	r2,-16(fp)
    ea78:	1004d43a 	srli	r2,r2,16
    ea7c:	e0bff915 	stw	r2,-28(fp)

      while (space > 0 && sp->tx_out != sp->tx_in)
    ea80:	00001406 	br	ead4 <altera_avalon_jtag_uart_irq+0x190>
      {
        IOWR_ALTERA_AVALON_JTAG_UART_DATA(base, sp->tx_buf[sp->tx_out]);
    ea84:	e0bffb17 	ldw	r2,-20(fp)
    ea88:	e0fffa17 	ldw	r3,-24(fp)
    ea8c:	18c00d17 	ldw	r3,52(r3)
    ea90:	e13ffa17 	ldw	r4,-24(fp)
    ea94:	20c7883a 	add	r3,r4,r3
    ea98:	18c20e04 	addi	r3,r3,2104
    ea9c:	18c00003 	ldbu	r3,0(r3)
    eaa0:	18c03fcc 	andi	r3,r3,255
    eaa4:	18c0201c 	xori	r3,r3,128
    eaa8:	18ffe004 	addi	r3,r3,-128
    eaac:	10c00035 	stwio	r3,0(r2)

        sp->tx_out = (sp->tx_out + 1) % ALTERA_AVALON_JTAG_UART_BUF_LEN;
    eab0:	e0bffa17 	ldw	r2,-24(fp)
    eab4:	10800d17 	ldw	r2,52(r2)
    eab8:	10800044 	addi	r2,r2,1
    eabc:	10c1ffcc 	andi	r3,r2,2047
    eac0:	e0bffa17 	ldw	r2,-24(fp)
    eac4:	10c00d15 	stw	r3,52(r2)

        /* Post an event to notify jtag_uart_write that a character has been written */
        ALT_FLAG_POST (sp->events, ALT_JTAG_UART_WRITE_RDY, OS_FLAG_SET);

        space--;
    eac8:	e0bff917 	ldw	r2,-28(fp)
    eacc:	10bfffc4 	addi	r2,r2,-1
    ead0:	e0bff915 	stw	r2,-28(fp)
    if (control & ALTERA_AVALON_JTAG_UART_CONTROL_WI_MSK)
    {
      /* process a write irq */
      unsigned int space = (control & ALTERA_AVALON_JTAG_UART_CONTROL_WSPACE_MSK) >> ALTERA_AVALON_JTAG_UART_CONTROL_WSPACE_OFST;

      while (space > 0 && sp->tx_out != sp->tx_in)
    ead4:	e0bff917 	ldw	r2,-28(fp)
    ead8:	10000526 	beq	r2,zero,eaf0 <altera_avalon_jtag_uart_irq+0x1ac>
    eadc:	e0bffa17 	ldw	r2,-24(fp)
    eae0:	10c00d17 	ldw	r3,52(r2)
    eae4:	e0bffa17 	ldw	r2,-24(fp)
    eae8:	10800c17 	ldw	r2,48(r2)
    eaec:	18bfe51e 	bne	r3,r2,ea84 <__alt_data_end+0xf800ea84>
        ALT_FLAG_POST (sp->events, ALT_JTAG_UART_WRITE_RDY, OS_FLAG_SET);

        space--;
      }

      if (space > 0)
    eaf0:	e0bff917 	ldw	r2,-28(fp)
    eaf4:	10001026 	beq	r2,zero,eb38 <altera_avalon_jtag_uart_irq+0x1f4>
      {
        /* If we don't have any more data available then turn off the TX interrupt */
        sp->irq_enable &= ~ALTERA_AVALON_JTAG_UART_CONTROL_WE_MSK;
    eaf8:	e0bffa17 	ldw	r2,-24(fp)
    eafc:	10c00817 	ldw	r3,32(r2)
    eb00:	00bfff44 	movi	r2,-3
    eb04:	1886703a 	and	r3,r3,r2
    eb08:	e0bffa17 	ldw	r2,-24(fp)
    eb0c:	10c00815 	stw	r3,32(r2)
        IOWR_ALTERA_AVALON_JTAG_UART_CONTROL(sp->base, sp->irq_enable);
    eb10:	e0bffa17 	ldw	r2,-24(fp)
    eb14:	10800017 	ldw	r2,0(r2)
    eb18:	10800104 	addi	r2,r2,4
    eb1c:	1007883a 	mov	r3,r2
    eb20:	e0bffa17 	ldw	r2,-24(fp)
    eb24:	10800817 	ldw	r2,32(r2)
    eb28:	18800035 	stwio	r2,0(r3)
        
        /* Dummy read to ensure IRQ is cleared prior to ISR completion */
        IORD_ALTERA_AVALON_JTAG_UART_CONTROL(base);
    eb2c:	e0bffb17 	ldw	r2,-20(fp)
    eb30:	10800104 	addi	r2,r2,4
    eb34:	10800037 	ldwio	r2,0(r2)
      }
    }
  }
    eb38:	003f8c06 	br	e96c <__alt_data_end+0xf800e96c>
}
    eb3c:	e037883a 	mov	sp,fp
    eb40:	df000017 	ldw	fp,0(sp)
    eb44:	dec00104 	addi	sp,sp,4
    eb48:	f800283a 	ret

0000eb4c <altera_avalon_jtag_uart_timeout>:
 * Timeout routine is called every second
 */

static alt_u32 
altera_avalon_jtag_uart_timeout(void* context) 
{
    eb4c:	defff804 	addi	sp,sp,-32
    eb50:	df000715 	stw	fp,28(sp)
    eb54:	df000704 	addi	fp,sp,28
    eb58:	e13ffb15 	stw	r4,-20(fp)
  altera_avalon_jtag_uart_state* sp = (altera_avalon_jtag_uart_state *) context;
    eb5c:	e0bffb17 	ldw	r2,-20(fp)
    eb60:	e0bff915 	stw	r2,-28(fp)

  unsigned int control = IORD_ALTERA_AVALON_JTAG_UART_CONTROL(sp->base);
    eb64:	e0bff917 	ldw	r2,-28(fp)
    eb68:	10800017 	ldw	r2,0(r2)
    eb6c:	10800104 	addi	r2,r2,4
    eb70:	10800037 	ldwio	r2,0(r2)
    eb74:	e0bffa15 	stw	r2,-24(fp)

  if (control & ALTERA_AVALON_JTAG_UART_CONTROL_AC_MSK)
    eb78:	e0bffa17 	ldw	r2,-24(fp)
    eb7c:	1081000c 	andi	r2,r2,1024
    eb80:	10000b26 	beq	r2,zero,ebb0 <altera_avalon_jtag_uart_timeout+0x64>
  {
    IOWR_ALTERA_AVALON_JTAG_UART_CONTROL(sp->base, sp->irq_enable | ALTERA_AVALON_JTAG_UART_CONTROL_AC_MSK);
    eb84:	e0bff917 	ldw	r2,-28(fp)
    eb88:	10800017 	ldw	r2,0(r2)
    eb8c:	10800104 	addi	r2,r2,4
    eb90:	1007883a 	mov	r3,r2
    eb94:	e0bff917 	ldw	r2,-28(fp)
    eb98:	10800817 	ldw	r2,32(r2)
    eb9c:	10810014 	ori	r2,r2,1024
    eba0:	18800035 	stwio	r2,0(r3)
    sp->host_inactive = 0;
    eba4:	e0bff917 	ldw	r2,-28(fp)
    eba8:	10000915 	stw	zero,36(r2)
    ebac:	00000a06 	br	ebd8 <altera_avalon_jtag_uart_timeout+0x8c>
  }
  else if (sp->host_inactive < INT_MAX - 2) {
    ebb0:	e0bff917 	ldw	r2,-28(fp)
    ebb4:	10c00917 	ldw	r3,36(r2)
    ebb8:	00a00034 	movhi	r2,32768
    ebbc:	10bfff04 	addi	r2,r2,-4
    ebc0:	10c00536 	bltu	r2,r3,ebd8 <altera_avalon_jtag_uart_timeout+0x8c>
    sp->host_inactive++;
    ebc4:	e0bff917 	ldw	r2,-28(fp)
    ebc8:	10800917 	ldw	r2,36(r2)
    ebcc:	10c00044 	addi	r3,r2,1
    ebd0:	e0bff917 	ldw	r2,-28(fp)
    ebd4:	10c00915 	stw	r3,36(r2)
    ebd8:	00800374 	movhi	r2,13
    ebdc:	10be6d04 	addi	r2,r2,-1612
    ebe0:	10800017 	ldw	r2,0(r2)
      ALT_FLAG_POST (sp->events, ALT_JTAG_UART_TIMEOUT, OS_FLAG_SET);
    }
  }

  return alt_ticks_per_second();
}
    ebe4:	e037883a 	mov	sp,fp
    ebe8:	df000017 	ldw	fp,0(sp)
    ebec:	dec00104 	addi	sp,sp,4
    ebf0:	f800283a 	ret

0000ebf4 <altera_avalon_jtag_uart_close>:
 * The close routine is not implemented for the small driver; instead it will
 * map to null. This is because the small driver simply waits while characters
 * are transmitted; there is no interrupt-serviced buffer to empty 
 */
int altera_avalon_jtag_uart_close(altera_avalon_jtag_uart_state* sp, int flags)
{
    ebf4:	defffd04 	addi	sp,sp,-12
    ebf8:	df000215 	stw	fp,8(sp)
    ebfc:	df000204 	addi	fp,sp,8
    ec00:	e13ffe15 	stw	r4,-8(fp)
    ec04:	e17fff15 	stw	r5,-4(fp)
  /* 
   * Wait for all transmit data to be emptied by the JTAG UART ISR, or
   * for a host-inactivity timeout, in which case transmit data will be lost
   */
  while ( (sp->tx_out != sp->tx_in) && (sp->host_inactive < sp->timeout) ) {
    ec08:	00000506 	br	ec20 <altera_avalon_jtag_uart_close+0x2c>
    if (flags & O_NONBLOCK) {
    ec0c:	e0bfff17 	ldw	r2,-4(fp)
    ec10:	1090000c 	andi	r2,r2,16384
    ec14:	10000226 	beq	r2,zero,ec20 <altera_avalon_jtag_uart_close+0x2c>
      return -EWOULDBLOCK; 
    ec18:	00bffd44 	movi	r2,-11
    ec1c:	00000b06 	br	ec4c <altera_avalon_jtag_uart_close+0x58>
{
  /* 
   * Wait for all transmit data to be emptied by the JTAG UART ISR, or
   * for a host-inactivity timeout, in which case transmit data will be lost
   */
  while ( (sp->tx_out != sp->tx_in) && (sp->host_inactive < sp->timeout) ) {
    ec20:	e0bffe17 	ldw	r2,-8(fp)
    ec24:	10c00d17 	ldw	r3,52(r2)
    ec28:	e0bffe17 	ldw	r2,-8(fp)
    ec2c:	10800c17 	ldw	r2,48(r2)
    ec30:	18800526 	beq	r3,r2,ec48 <altera_avalon_jtag_uart_close+0x54>
    ec34:	e0bffe17 	ldw	r2,-8(fp)
    ec38:	10c00917 	ldw	r3,36(r2)
    ec3c:	e0bffe17 	ldw	r2,-8(fp)
    ec40:	10800117 	ldw	r2,4(r2)
    ec44:	18bff136 	bltu	r3,r2,ec0c <__alt_data_end+0xf800ec0c>
    if (flags & O_NONBLOCK) {
      return -EWOULDBLOCK; 
    }
  }

  return 0;
    ec48:	0005883a 	mov	r2,zero
}
    ec4c:	e037883a 	mov	sp,fp
    ec50:	df000017 	ldw	fp,0(sp)
    ec54:	dec00104 	addi	sp,sp,4
    ec58:	f800283a 	ret

0000ec5c <altera_avalon_jtag_uart_ioctl>:
/* ----------------------------------------------------------- */

int 
altera_avalon_jtag_uart_ioctl(altera_avalon_jtag_uart_state* sp, int req,
  void* arg)
{
    ec5c:	defffa04 	addi	sp,sp,-24
    ec60:	df000515 	stw	fp,20(sp)
    ec64:	df000504 	addi	fp,sp,20
    ec68:	e13ffd15 	stw	r4,-12(fp)
    ec6c:	e17ffe15 	stw	r5,-8(fp)
    ec70:	e1bfff15 	stw	r6,-4(fp)
  int rc = -ENOTTY;
    ec74:	00bff9c4 	movi	r2,-25
    ec78:	e0bffb15 	stw	r2,-20(fp)

  switch (req)
    ec7c:	e0bffe17 	ldw	r2,-8(fp)
    ec80:	10da8060 	cmpeqi	r3,r2,27137
    ec84:	1800031e 	bne	r3,zero,ec94 <altera_avalon_jtag_uart_ioctl+0x38>
    ec88:	109a80a0 	cmpeqi	r2,r2,27138
    ec8c:	1000191e 	bne	r2,zero,ecf4 <altera_avalon_jtag_uart_ioctl+0x98>
      rc = 0;
    }
    break;

  default:
    break;
    ec90:	00002806 	br	ed34 <altera_avalon_jtag_uart_ioctl+0xd8>

  switch (req)
  {
  case TIOCSTIMEOUT:
    /* Set the time to wait until assuming host is not connected */
    if (sp->timeout != INT_MAX)
    ec94:	e0bffd17 	ldw	r2,-12(fp)
    ec98:	10c00117 	ldw	r3,4(r2)
    ec9c:	00a00034 	movhi	r2,32768
    eca0:	10bfffc4 	addi	r2,r2,-1
    eca4:	18801226 	beq	r3,r2,ecf0 <altera_avalon_jtag_uart_ioctl+0x94>
    {
      int timeout = *((int *)arg);
    eca8:	e0bfff17 	ldw	r2,-4(fp)
    ecac:	10800017 	ldw	r2,0(r2)
    ecb0:	e0bffc15 	stw	r2,-16(fp)
      sp->timeout = (timeout >= 2 && timeout < INT_MAX) ? timeout : INT_MAX - 1;
    ecb4:	e0bffc17 	ldw	r2,-16(fp)
    ecb8:	10800090 	cmplti	r2,r2,2
    ecbc:	1000061e 	bne	r2,zero,ecd8 <altera_avalon_jtag_uart_ioctl+0x7c>
    ecc0:	e0fffc17 	ldw	r3,-16(fp)
    ecc4:	00a00034 	movhi	r2,32768
    ecc8:	10bfffc4 	addi	r2,r2,-1
    eccc:	18800226 	beq	r3,r2,ecd8 <altera_avalon_jtag_uart_ioctl+0x7c>
    ecd0:	e0bffc17 	ldw	r2,-16(fp)
    ecd4:	00000206 	br	ece0 <altera_avalon_jtag_uart_ioctl+0x84>
    ecd8:	00a00034 	movhi	r2,32768
    ecdc:	10bfff84 	addi	r2,r2,-2
    ece0:	e0fffd17 	ldw	r3,-12(fp)
    ece4:	18800115 	stw	r2,4(r3)
      rc = 0;
    ece8:	e03ffb15 	stw	zero,-20(fp)
    }
    break;
    ecec:	00001106 	br	ed34 <altera_avalon_jtag_uart_ioctl+0xd8>
    ecf0:	00001006 	br	ed34 <altera_avalon_jtag_uart_ioctl+0xd8>

  case TIOCGCONNECTED:
    /* Find out whether host is connected */
    if (sp->timeout != INT_MAX)
    ecf4:	e0bffd17 	ldw	r2,-12(fp)
    ecf8:	10c00117 	ldw	r3,4(r2)
    ecfc:	00a00034 	movhi	r2,32768
    ed00:	10bfffc4 	addi	r2,r2,-1
    ed04:	18800a26 	beq	r3,r2,ed30 <altera_avalon_jtag_uart_ioctl+0xd4>
    {
      *((int *)arg) = (sp->host_inactive < sp->timeout) ? 1 : 0;
    ed08:	e0bffd17 	ldw	r2,-12(fp)
    ed0c:	10c00917 	ldw	r3,36(r2)
    ed10:	e0bffd17 	ldw	r2,-12(fp)
    ed14:	10800117 	ldw	r2,4(r2)
    ed18:	1885803a 	cmpltu	r2,r3,r2
    ed1c:	10c03fcc 	andi	r3,r2,255
    ed20:	e0bfff17 	ldw	r2,-4(fp)
    ed24:	10c00015 	stw	r3,0(r2)
      rc = 0;
    ed28:	e03ffb15 	stw	zero,-20(fp)
    }
    break;
    ed2c:	00000006 	br	ed30 <altera_avalon_jtag_uart_ioctl+0xd4>
    ed30:	0001883a 	nop

  default:
    break;
  }

  return rc;
    ed34:	e0bffb17 	ldw	r2,-20(fp)
}
    ed38:	e037883a 	mov	sp,fp
    ed3c:	df000017 	ldw	fp,0(sp)
    ed40:	dec00104 	addi	sp,sp,4
    ed44:	f800283a 	ret

0000ed48 <altera_avalon_jtag_uart_read>:
/* ----------------------------------------------------------- */

int 
altera_avalon_jtag_uart_read(altera_avalon_jtag_uart_state* sp, 
  char * buffer, int space, int flags)
{
    ed48:	defff304 	addi	sp,sp,-52
    ed4c:	dfc00c15 	stw	ra,48(sp)
    ed50:	df000b15 	stw	fp,44(sp)
    ed54:	df000b04 	addi	fp,sp,44
    ed58:	e13ffc15 	stw	r4,-16(fp)
    ed5c:	e17ffd15 	stw	r5,-12(fp)
    ed60:	e1bffe15 	stw	r6,-8(fp)
    ed64:	e1ffff15 	stw	r7,-4(fp)
  char * ptr = buffer;
    ed68:	e0bffd17 	ldw	r2,-12(fp)
    ed6c:	e0bff515 	stw	r2,-44(fp)
   * When running in a multi threaded environment, obtain the "read_lock"
   * semaphore. This ensures that reading from the device is thread-safe.
   */
  ALT_SEM_PEND (sp->read_lock, 0);

  while (space > 0)
    ed70:	00004906 	br	ee98 <altera_avalon_jtag_uart_read+0x150>
    unsigned int in, out;

    /* Read as much data as possible */
    do
    {
      in  = sp->rx_in;
    ed74:	e0bffc17 	ldw	r2,-16(fp)
    ed78:	10800a17 	ldw	r2,40(r2)
    ed7c:	e0bff715 	stw	r2,-36(fp)
      out = sp->rx_out;
    ed80:	e0bffc17 	ldw	r2,-16(fp)
    ed84:	10800b17 	ldw	r2,44(r2)
    ed88:	e0bff815 	stw	r2,-32(fp)

      if (in >= out)
    ed8c:	e0fff717 	ldw	r3,-36(fp)
    ed90:	e0bff817 	ldw	r2,-32(fp)
    ed94:	18800536 	bltu	r3,r2,edac <altera_avalon_jtag_uart_read+0x64>
        n = in - out;
    ed98:	e0fff717 	ldw	r3,-36(fp)
    ed9c:	e0bff817 	ldw	r2,-32(fp)
    eda0:	1885c83a 	sub	r2,r3,r2
    eda4:	e0bff615 	stw	r2,-40(fp)
    eda8:	00000406 	br	edbc <altera_avalon_jtag_uart_read+0x74>
      else
        n = ALTERA_AVALON_JTAG_UART_BUF_LEN - out;
    edac:	00c20004 	movi	r3,2048
    edb0:	e0bff817 	ldw	r2,-32(fp)
    edb4:	1885c83a 	sub	r2,r3,r2
    edb8:	e0bff615 	stw	r2,-40(fp)

      if (n == 0)
    edbc:	e0bff617 	ldw	r2,-40(fp)
    edc0:	1000011e 	bne	r2,zero,edc8 <altera_avalon_jtag_uart_read+0x80>
        break; /* No more data available */
    edc4:	00001d06 	br	ee3c <altera_avalon_jtag_uart_read+0xf4>

      if (n > space)
    edc8:	e0fffe17 	ldw	r3,-8(fp)
    edcc:	e0bff617 	ldw	r2,-40(fp)
    edd0:	1880022e 	bgeu	r3,r2,eddc <altera_avalon_jtag_uart_read+0x94>
        n = space;
    edd4:	e0bffe17 	ldw	r2,-8(fp)
    edd8:	e0bff615 	stw	r2,-40(fp)

      memcpy(ptr, sp->rx_buf + out, n);
    eddc:	e0bff817 	ldw	r2,-32(fp)
    ede0:	10800e04 	addi	r2,r2,56
    ede4:	e0fffc17 	ldw	r3,-16(fp)
    ede8:	1885883a 	add	r2,r3,r2
    edec:	e13ff517 	ldw	r4,-44(fp)
    edf0:	100b883a 	mov	r5,r2
    edf4:	e1bff617 	ldw	r6,-40(fp)
    edf8:	00085940 	call	8594 <memcpy>
      ptr   += n;
    edfc:	e0fff517 	ldw	r3,-44(fp)
    ee00:	e0bff617 	ldw	r2,-40(fp)
    ee04:	1885883a 	add	r2,r3,r2
    ee08:	e0bff515 	stw	r2,-44(fp)
      space -= n;
    ee0c:	e0fffe17 	ldw	r3,-8(fp)
    ee10:	e0bff617 	ldw	r2,-40(fp)
    ee14:	1885c83a 	sub	r2,r3,r2
    ee18:	e0bffe15 	stw	r2,-8(fp)

      sp->rx_out = (out + n) % ALTERA_AVALON_JTAG_UART_BUF_LEN;
    ee1c:	e0fff817 	ldw	r3,-32(fp)
    ee20:	e0bff617 	ldw	r2,-40(fp)
    ee24:	1885883a 	add	r2,r3,r2
    ee28:	10c1ffcc 	andi	r3,r2,2047
    ee2c:	e0bffc17 	ldw	r2,-16(fp)
    ee30:	10c00b15 	stw	r3,44(r2)
    }
    while (space > 0);
    ee34:	e0bffe17 	ldw	r2,-8(fp)
    ee38:	00bfce16 	blt	zero,r2,ed74 <__alt_data_end+0xf800ed74>

    /* If we read any data then return it */
    if (ptr != buffer)
    ee3c:	e0fff517 	ldw	r3,-44(fp)
    ee40:	e0bffd17 	ldw	r2,-12(fp)
    ee44:	18800126 	beq	r3,r2,ee4c <altera_avalon_jtag_uart_read+0x104>
      break;
    ee48:	00001506 	br	eea0 <altera_avalon_jtag_uart_read+0x158>

    /* If in non-blocking mode then return error */
    if (flags & O_NONBLOCK)
    ee4c:	e0bfff17 	ldw	r2,-4(fp)
    ee50:	1090000c 	andi	r2,r2,16384
    ee54:	10000126 	beq	r2,zero,ee5c <altera_avalon_jtag_uart_read+0x114>
      break;
    ee58:	00001106 	br	eea0 <altera_avalon_jtag_uart_read+0x158>
      while (in == sp->rx_in && sp->host_inactive < sp->timeout)
        ;
    }
#else
    /* No OS: Always spin */
    while (in == sp->rx_in && sp->host_inactive < sp->timeout)
    ee5c:	0001883a 	nop
    ee60:	e0bffc17 	ldw	r2,-16(fp)
    ee64:	10c00a17 	ldw	r3,40(r2)
    ee68:	e0bff717 	ldw	r2,-36(fp)
    ee6c:	1880051e 	bne	r3,r2,ee84 <altera_avalon_jtag_uart_read+0x13c>
    ee70:	e0bffc17 	ldw	r2,-16(fp)
    ee74:	10c00917 	ldw	r3,36(r2)
    ee78:	e0bffc17 	ldw	r2,-16(fp)
    ee7c:	10800117 	ldw	r2,4(r2)
    ee80:	18bff736 	bltu	r3,r2,ee60 <__alt_data_end+0xf800ee60>
      ;
#endif /* __ucosii__ */

    if (in == sp->rx_in)
    ee84:	e0bffc17 	ldw	r2,-16(fp)
    ee88:	10c00a17 	ldw	r3,40(r2)
    ee8c:	e0bff717 	ldw	r2,-36(fp)
    ee90:	1880011e 	bne	r3,r2,ee98 <altera_avalon_jtag_uart_read+0x150>
      break;
    ee94:	00000206 	br	eea0 <altera_avalon_jtag_uart_read+0x158>
   * When running in a multi threaded environment, obtain the "read_lock"
   * semaphore. This ensures that reading from the device is thread-safe.
   */
  ALT_SEM_PEND (sp->read_lock, 0);

  while (space > 0)
    ee98:	e0bffe17 	ldw	r2,-8(fp)
    ee9c:	00bfb516 	blt	zero,r2,ed74 <__alt_data_end+0xf800ed74>
   * semaphore so that other threads can access the buffer.
   */

  ALT_SEM_POST (sp->read_lock);

  if (ptr != buffer)
    eea0:	e0fff517 	ldw	r3,-44(fp)
    eea4:	e0bffd17 	ldw	r2,-12(fp)
    eea8:	18801826 	beq	r3,r2,ef0c <altera_avalon_jtag_uart_read+0x1c4>
static ALT_INLINE alt_irq_context ALT_ALWAYS_INLINE 
       alt_irq_disable_all (void)
{
  alt_irq_context context;

  NIOS2_READ_STATUS (context);
    eeac:	0005303a 	rdctl	r2,status
    eeb0:	e0bffa15 	stw	r2,-24(fp)

  NIOS2_WRITE_STATUS (context & ~NIOS2_STATUS_PIE_MSK);
    eeb4:	e0fffa17 	ldw	r3,-24(fp)
    eeb8:	00bfff84 	movi	r2,-2
    eebc:	1884703a 	and	r2,r3,r2
    eec0:	1001703a 	wrctl	status,r2
  
  return context;
    eec4:	e0bffa17 	ldw	r2,-24(fp)
  {
    /* If we read any data then there is space in the buffer so enable interrupts */
    context = alt_irq_disable_all();
    eec8:	e0bff915 	stw	r2,-28(fp)
    sp->irq_enable |= ALTERA_AVALON_JTAG_UART_CONTROL_RE_MSK;
    eecc:	e0bffc17 	ldw	r2,-16(fp)
    eed0:	10800817 	ldw	r2,32(r2)
    eed4:	10c00054 	ori	r3,r2,1
    eed8:	e0bffc17 	ldw	r2,-16(fp)
    eedc:	10c00815 	stw	r3,32(r2)
    IOWR_ALTERA_AVALON_JTAG_UART_CONTROL(sp->base, sp->irq_enable);
    eee0:	e0bffc17 	ldw	r2,-16(fp)
    eee4:	10800017 	ldw	r2,0(r2)
    eee8:	10800104 	addi	r2,r2,4
    eeec:	1007883a 	mov	r3,r2
    eef0:	e0bffc17 	ldw	r2,-16(fp)
    eef4:	10800817 	ldw	r2,32(r2)
    eef8:	18800035 	stwio	r2,0(r3)
    eefc:	e0bff917 	ldw	r2,-28(fp)
    ef00:	e0bffb15 	stw	r2,-20(fp)
  status &= ~NIOS2_STATUS_PIE_MSK;
  status |= (context & NIOS2_STATUS_PIE_MSK);
  
  NIOS2_WRITE_STATUS (status);
#else
  NIOS2_WRITE_STATUS (context);
    ef04:	e0bffb17 	ldw	r2,-20(fp)
    ef08:	1001703a 	wrctl	status,r2
    alt_irq_enable_all(context);
  }

  if (ptr != buffer)
    ef0c:	e0fff517 	ldw	r3,-44(fp)
    ef10:	e0bffd17 	ldw	r2,-12(fp)
    ef14:	18800426 	beq	r3,r2,ef28 <altera_avalon_jtag_uart_read+0x1e0>
    return ptr - buffer;
    ef18:	e0fff517 	ldw	r3,-44(fp)
    ef1c:	e0bffd17 	ldw	r2,-12(fp)
    ef20:	1885c83a 	sub	r2,r3,r2
    ef24:	00000606 	br	ef40 <altera_avalon_jtag_uart_read+0x1f8>
  else if (flags & O_NONBLOCK)
    ef28:	e0bfff17 	ldw	r2,-4(fp)
    ef2c:	1090000c 	andi	r2,r2,16384
    ef30:	10000226 	beq	r2,zero,ef3c <altera_avalon_jtag_uart_read+0x1f4>
    return -EWOULDBLOCK;
    ef34:	00bffd44 	movi	r2,-11
    ef38:	00000106 	br	ef40 <altera_avalon_jtag_uart_read+0x1f8>
  else
    return -EIO;
    ef3c:	00bffec4 	movi	r2,-5
}
    ef40:	e037883a 	mov	sp,fp
    ef44:	dfc00117 	ldw	ra,4(sp)
    ef48:	df000017 	ldw	fp,0(sp)
    ef4c:	dec00204 	addi	sp,sp,8
    ef50:	f800283a 	ret

0000ef54 <altera_avalon_jtag_uart_write>:
/* ----------------------------------------------------------- */

int 
altera_avalon_jtag_uart_write(altera_avalon_jtag_uart_state* sp, 
  const char * ptr, int count, int flags)
{
    ef54:	defff304 	addi	sp,sp,-52
    ef58:	dfc00c15 	stw	ra,48(sp)
    ef5c:	df000b15 	stw	fp,44(sp)
    ef60:	df000b04 	addi	fp,sp,44
    ef64:	e13ffc15 	stw	r4,-16(fp)
    ef68:	e17ffd15 	stw	r5,-12(fp)
    ef6c:	e1bffe15 	stw	r6,-8(fp)
    ef70:	e1ffff15 	stw	r7,-4(fp)
  /* Remove warning at optimisation level 03 by seting out to 0 */
  unsigned int in, out=0;
    ef74:	e03ff515 	stw	zero,-44(fp)
  unsigned int n;
  alt_irq_context context;

  const char * start = ptr;
    ef78:	e0bffd17 	ldw	r2,-12(fp)
    ef7c:	e0bff715 	stw	r2,-36(fp)
  ALT_SEM_PEND (sp->write_lock, 0);

  do
  {
    /* Copy as much as we can into the transmit buffer */
    while (count > 0)
    ef80:	00003806 	br	f064 <altera_avalon_jtag_uart_write+0x110>
    {
      /* We need a stable value of the out pointer to calculate the space available */
      in  = sp->tx_in;
    ef84:	e0bffc17 	ldw	r2,-16(fp)
    ef88:	10800c17 	ldw	r2,48(r2)
    ef8c:	e0bff815 	stw	r2,-32(fp)
      out = sp->tx_out;
    ef90:	e0bffc17 	ldw	r2,-16(fp)
    ef94:	10800d17 	ldw	r2,52(r2)
    ef98:	e0bff515 	stw	r2,-44(fp)

      if (in < out)
    ef9c:	e0fff817 	ldw	r3,-32(fp)
    efa0:	e0bff517 	ldw	r2,-44(fp)
    efa4:	1880062e 	bgeu	r3,r2,efc0 <altera_avalon_jtag_uart_write+0x6c>
        n = out - 1 - in;
    efa8:	e0fff517 	ldw	r3,-44(fp)
    efac:	e0bff817 	ldw	r2,-32(fp)
    efb0:	1885c83a 	sub	r2,r3,r2
    efb4:	10bfffc4 	addi	r2,r2,-1
    efb8:	e0bff615 	stw	r2,-40(fp)
    efbc:	00000b06 	br	efec <altera_avalon_jtag_uart_write+0x98>
      else if (out > 0)
    efc0:	e0bff517 	ldw	r2,-44(fp)
    efc4:	10000526 	beq	r2,zero,efdc <altera_avalon_jtag_uart_write+0x88>
        n = ALTERA_AVALON_JTAG_UART_BUF_LEN - in;
    efc8:	00c20004 	movi	r3,2048
    efcc:	e0bff817 	ldw	r2,-32(fp)
    efd0:	1885c83a 	sub	r2,r3,r2
    efd4:	e0bff615 	stw	r2,-40(fp)
    efd8:	00000406 	br	efec <altera_avalon_jtag_uart_write+0x98>
      else
        n = ALTERA_AVALON_JTAG_UART_BUF_LEN - 1 - in;
    efdc:	00c1ffc4 	movi	r3,2047
    efe0:	e0bff817 	ldw	r2,-32(fp)
    efe4:	1885c83a 	sub	r2,r3,r2
    efe8:	e0bff615 	stw	r2,-40(fp)

      if (n == 0)
    efec:	e0bff617 	ldw	r2,-40(fp)
    eff0:	1000011e 	bne	r2,zero,eff8 <altera_avalon_jtag_uart_write+0xa4>
        break;
    eff4:	00001d06 	br	f06c <altera_avalon_jtag_uart_write+0x118>

      if (n > count)
    eff8:	e0fffe17 	ldw	r3,-8(fp)
    effc:	e0bff617 	ldw	r2,-40(fp)
    f000:	1880022e 	bgeu	r3,r2,f00c <altera_avalon_jtag_uart_write+0xb8>
        n = count;
    f004:	e0bffe17 	ldw	r2,-8(fp)
    f008:	e0bff615 	stw	r2,-40(fp)

      memcpy(sp->tx_buf + in, ptr, n);
    f00c:	e0bff817 	ldw	r2,-32(fp)
    f010:	10820e04 	addi	r2,r2,2104
    f014:	e0fffc17 	ldw	r3,-16(fp)
    f018:	1885883a 	add	r2,r3,r2
    f01c:	1009883a 	mov	r4,r2
    f020:	e17ffd17 	ldw	r5,-12(fp)
    f024:	e1bff617 	ldw	r6,-40(fp)
    f028:	00085940 	call	8594 <memcpy>
      ptr   += n;
    f02c:	e0fffd17 	ldw	r3,-12(fp)
    f030:	e0bff617 	ldw	r2,-40(fp)
    f034:	1885883a 	add	r2,r3,r2
    f038:	e0bffd15 	stw	r2,-12(fp)
      count -= n;
    f03c:	e0fffe17 	ldw	r3,-8(fp)
    f040:	e0bff617 	ldw	r2,-40(fp)
    f044:	1885c83a 	sub	r2,r3,r2
    f048:	e0bffe15 	stw	r2,-8(fp)

      sp->tx_in = (in + n) % ALTERA_AVALON_JTAG_UART_BUF_LEN;
    f04c:	e0fff817 	ldw	r3,-32(fp)
    f050:	e0bff617 	ldw	r2,-40(fp)
    f054:	1885883a 	add	r2,r3,r2
    f058:	10c1ffcc 	andi	r3,r2,2047
    f05c:	e0bffc17 	ldw	r2,-16(fp)
    f060:	10c00c15 	stw	r3,48(r2)
  ALT_SEM_PEND (sp->write_lock, 0);

  do
  {
    /* Copy as much as we can into the transmit buffer */
    while (count > 0)
    f064:	e0bffe17 	ldw	r2,-8(fp)
    f068:	00bfc616 	blt	zero,r2,ef84 <__alt_data_end+0xf800ef84>
static ALT_INLINE alt_irq_context ALT_ALWAYS_INLINE 
       alt_irq_disable_all (void)
{
  alt_irq_context context;

  NIOS2_READ_STATUS (context);
    f06c:	0005303a 	rdctl	r2,status
    f070:	e0bffa15 	stw	r2,-24(fp)

  NIOS2_WRITE_STATUS (context & ~NIOS2_STATUS_PIE_MSK);
    f074:	e0fffa17 	ldw	r3,-24(fp)
    f078:	00bfff84 	movi	r2,-2
    f07c:	1884703a 	and	r2,r3,r2
    f080:	1001703a 	wrctl	status,r2
  
  return context;
    f084:	e0bffa17 	ldw	r2,-24(fp)
     * to enable interrupts if there is no space left in the FIFO
     *
     * For now kick the interrupt routine every time to make it transmit 
     * the data 
     */
    context = alt_irq_disable_all();
    f088:	e0bff915 	stw	r2,-28(fp)
    sp->irq_enable |= ALTERA_AVALON_JTAG_UART_CONTROL_WE_MSK;
    f08c:	e0bffc17 	ldw	r2,-16(fp)
    f090:	10800817 	ldw	r2,32(r2)
    f094:	10c00094 	ori	r3,r2,2
    f098:	e0bffc17 	ldw	r2,-16(fp)
    f09c:	10c00815 	stw	r3,32(r2)
    IOWR_ALTERA_AVALON_JTAG_UART_CONTROL(sp->base, sp->irq_enable);
    f0a0:	e0bffc17 	ldw	r2,-16(fp)
    f0a4:	10800017 	ldw	r2,0(r2)
    f0a8:	10800104 	addi	r2,r2,4
    f0ac:	1007883a 	mov	r3,r2
    f0b0:	e0bffc17 	ldw	r2,-16(fp)
    f0b4:	10800817 	ldw	r2,32(r2)
    f0b8:	18800035 	stwio	r2,0(r3)
    f0bc:	e0bff917 	ldw	r2,-28(fp)
    f0c0:	e0bffb15 	stw	r2,-20(fp)
  status &= ~NIOS2_STATUS_PIE_MSK;
  status |= (context & NIOS2_STATUS_PIE_MSK);
  
  NIOS2_WRITE_STATUS (status);
#else
  NIOS2_WRITE_STATUS (context);
    f0c4:	e0bffb17 	ldw	r2,-20(fp)
    f0c8:	1001703a 	wrctl	status,r2
    /* 
     * If there is any data left then either return now or block until 
     * some has been sent 
     */
    /* consider: test whether there is anything there while doing this and delay for at most 2s. */
    if (count > 0)
    f0cc:	e0bffe17 	ldw	r2,-8(fp)
    f0d0:	0080120e 	bge	zero,r2,f11c <altera_avalon_jtag_uart_write+0x1c8>
    {
      if (flags & O_NONBLOCK)
    f0d4:	e0bfff17 	ldw	r2,-4(fp)
    f0d8:	1090000c 	andi	r2,r2,16384
    f0dc:	10000126 	beq	r2,zero,f0e4 <altera_avalon_jtag_uart_write+0x190>
        break;
    f0e0:	00001006 	br	f124 <altera_avalon_jtag_uart_write+0x1d0>
      /*
       * No OS present: Always wait for data to be removed from buffer.  Once
       * the interrupt routine has removed some data then we will be able to
       * insert some more.
       */
      while (out == sp->tx_out && sp->host_inactive < sp->timeout)
    f0e4:	0001883a 	nop
    f0e8:	e0bffc17 	ldw	r2,-16(fp)
    f0ec:	10c00d17 	ldw	r3,52(r2)
    f0f0:	e0bff517 	ldw	r2,-44(fp)
    f0f4:	1880051e 	bne	r3,r2,f10c <altera_avalon_jtag_uart_write+0x1b8>
    f0f8:	e0bffc17 	ldw	r2,-16(fp)
    f0fc:	10c00917 	ldw	r3,36(r2)
    f100:	e0bffc17 	ldw	r2,-16(fp)
    f104:	10800117 	ldw	r2,4(r2)
    f108:	18bff736 	bltu	r3,r2,f0e8 <__alt_data_end+0xf800f0e8>
        ;
#endif /* __ucosii__ */

      if  (sp->host_inactive)
    f10c:	e0bffc17 	ldw	r2,-16(fp)
    f110:	10800917 	ldw	r2,36(r2)
    f114:	10000126 	beq	r2,zero,f11c <altera_avalon_jtag_uart_write+0x1c8>
         break;
    f118:	00000206 	br	f124 <altera_avalon_jtag_uart_write+0x1d0>
    }
  }
  while (count > 0);
    f11c:	e0bffe17 	ldw	r2,-8(fp)
    f120:	00bf9716 	blt	zero,r2,ef80 <__alt_data_end+0xf800ef80>
   * Now that access to the circular buffer is complete, release the write
   * semaphore so that other threads can access the buffer.
   */
  ALT_SEM_POST (sp->write_lock);

  if (ptr != start)
    f124:	e0fffd17 	ldw	r3,-12(fp)
    f128:	e0bff717 	ldw	r2,-36(fp)
    f12c:	18800426 	beq	r3,r2,f140 <altera_avalon_jtag_uart_write+0x1ec>
    return ptr - start;
    f130:	e0fffd17 	ldw	r3,-12(fp)
    f134:	e0bff717 	ldw	r2,-36(fp)
    f138:	1885c83a 	sub	r2,r3,r2
    f13c:	00000606 	br	f158 <altera_avalon_jtag_uart_write+0x204>
  else if (flags & O_NONBLOCK)
    f140:	e0bfff17 	ldw	r2,-4(fp)
    f144:	1090000c 	andi	r2,r2,16384
    f148:	10000226 	beq	r2,zero,f154 <altera_avalon_jtag_uart_write+0x200>
    return -EWOULDBLOCK;
    f14c:	00bffd44 	movi	r2,-11
    f150:	00000106 	br	f158 <altera_avalon_jtag_uart_write+0x204>
    sp->tx_out = sp->tx_in = 0;
    return ptr - start + count;
  }
#endif
  else
    return -EIO; /* Host not connected */
    f154:	00bffec4 	movi	r2,-5
}
    f158:	e037883a 	mov	sp,fp
    f15c:	dfc00117 	ldw	ra,4(sp)
    f160:	df000017 	ldw	fp,0(sp)
    f164:	dec00204 	addi	sp,sp,8
    f168:	f800283a 	ret

0000f16c <alt_alarm_start>:
 */ 

int alt_alarm_start (alt_alarm* alarm, alt_u32 nticks,
                     alt_u32 (*callback) (void* context),
                     void* context)
{
    f16c:	defff504 	addi	sp,sp,-44
    f170:	df000a15 	stw	fp,40(sp)
    f174:	df000a04 	addi	fp,sp,40
    f178:	e13ffc15 	stw	r4,-16(fp)
    f17c:	e17ffd15 	stw	r5,-12(fp)
    f180:	e1bffe15 	stw	r6,-8(fp)
    f184:	e1ffff15 	stw	r7,-4(fp)
  alt_irq_context irq_context;
  alt_u32 current_nticks = 0;
    f188:	e03ff615 	stw	zero,-40(fp)
    f18c:	00800374 	movhi	r2,13
    f190:	10be6d04 	addi	r2,r2,-1612
    f194:	10800017 	ldw	r2,0(r2)
  
  if (alt_ticks_per_second ())
    f198:	10003f26 	beq	r2,zero,f298 <alt_alarm_start+0x12c>
  {
    if (alarm)
    f19c:	e0bffc17 	ldw	r2,-16(fp)
    f1a0:	10003b26 	beq	r2,zero,f290 <alt_alarm_start+0x124>
    {
      alarm->callback = callback;
    f1a4:	e0bffc17 	ldw	r2,-16(fp)
    f1a8:	e0fffe17 	ldw	r3,-8(fp)
    f1ac:	10c00315 	stw	r3,12(r2)
      alarm->context  = context;
    f1b0:	e0bffc17 	ldw	r2,-16(fp)
    f1b4:	e0ffff17 	ldw	r3,-4(fp)
    f1b8:	10c00515 	stw	r3,20(r2)
static ALT_INLINE alt_irq_context ALT_ALWAYS_INLINE 
       alt_irq_disable_all (void)
{
  alt_irq_context context;

  NIOS2_READ_STATUS (context);
    f1bc:	0005303a 	rdctl	r2,status
    f1c0:	e0bff815 	stw	r2,-32(fp)

  NIOS2_WRITE_STATUS (context & ~NIOS2_STATUS_PIE_MSK);
    f1c4:	e0fff817 	ldw	r3,-32(fp)
    f1c8:	00bfff84 	movi	r2,-2
    f1cc:	1884703a 	and	r2,r3,r2
    f1d0:	1001703a 	wrctl	status,r2
  
  return context;
    f1d4:	e0bff817 	ldw	r2,-32(fp)
 
      irq_context = alt_irq_disable_all ();
    f1d8:	e0bff715 	stw	r2,-36(fp)
 * alt_nticks() returns the elapsed number of system clock ticks since reset.
 */

static ALT_INLINE alt_u32 ALT_ALWAYS_INLINE alt_nticks (void)
{
  return _alt_nticks;
    f1dc:	00800374 	movhi	r2,13
    f1e0:	10be6e04 	addi	r2,r2,-1608
    f1e4:	10800017 	ldw	r2,0(r2)
      
      current_nticks = alt_nticks();
    f1e8:	e0bff615 	stw	r2,-40(fp)
      
      alarm->time = nticks + current_nticks + 1; 
    f1ec:	e0fffd17 	ldw	r3,-12(fp)
    f1f0:	e0bff617 	ldw	r2,-40(fp)
    f1f4:	1885883a 	add	r2,r3,r2
    f1f8:	10c00044 	addi	r3,r2,1
    f1fc:	e0bffc17 	ldw	r2,-16(fp)
    f200:	10c00215 	stw	r3,8(r2)
      /* 
       * If the desired alarm time causes a roll-over, set the rollover
       * flag. This will prevent the subsequent tick event from causing
       * an alarm too early.
       */
      if(alarm->time < current_nticks)
    f204:	e0bffc17 	ldw	r2,-16(fp)
    f208:	10c00217 	ldw	r3,8(r2)
    f20c:	e0bff617 	ldw	r2,-40(fp)
    f210:	1880042e 	bgeu	r3,r2,f224 <alt_alarm_start+0xb8>
      {
        alarm->rollover = 1;
    f214:	e0bffc17 	ldw	r2,-16(fp)
    f218:	00c00044 	movi	r3,1
    f21c:	10c00405 	stb	r3,16(r2)
    f220:	00000206 	br	f22c <alt_alarm_start+0xc0>
      }
      else
      {
        alarm->rollover = 0;
    f224:	e0bffc17 	ldw	r2,-16(fp)
    f228:	10000405 	stb	zero,16(r2)
      }
    
      alt_llist_insert (&alt_alarm_list, &alarm->llist);
    f22c:	e0fffc17 	ldw	r3,-16(fp)
    f230:	00800374 	movhi	r2,13
    f234:	10b75204 	addi	r2,r2,-8888
    f238:	e0bff915 	stw	r2,-28(fp)
    f23c:	e0fffa15 	stw	r3,-24(fp)
 */

static ALT_INLINE void ALT_ALWAYS_INLINE alt_llist_insert(alt_llist* list, 
                alt_llist* entry)
{
  entry->previous = list;
    f240:	e0bffa17 	ldw	r2,-24(fp)
    f244:	e0fff917 	ldw	r3,-28(fp)
    f248:	10c00115 	stw	r3,4(r2)
  entry->next     = list->next;
    f24c:	e0bff917 	ldw	r2,-28(fp)
    f250:	10c00017 	ldw	r3,0(r2)
    f254:	e0bffa17 	ldw	r2,-24(fp)
    f258:	10c00015 	stw	r3,0(r2)

  list->next->previous = entry;
    f25c:	e0bff917 	ldw	r2,-28(fp)
    f260:	10800017 	ldw	r2,0(r2)
    f264:	e0fffa17 	ldw	r3,-24(fp)
    f268:	10c00115 	stw	r3,4(r2)
  list->next           = entry;
    f26c:	e0bff917 	ldw	r2,-28(fp)
    f270:	e0fffa17 	ldw	r3,-24(fp)
    f274:	10c00015 	stw	r3,0(r2)
    f278:	e0bff717 	ldw	r2,-36(fp)
    f27c:	e0bffb15 	stw	r2,-20(fp)
  status &= ~NIOS2_STATUS_PIE_MSK;
  status |= (context & NIOS2_STATUS_PIE_MSK);
  
  NIOS2_WRITE_STATUS (status);
#else
  NIOS2_WRITE_STATUS (context);
    f280:	e0bffb17 	ldw	r2,-20(fp)
    f284:	1001703a 	wrctl	status,r2
      alt_irq_enable_all (irq_context);

      return 0;
    f288:	0005883a 	mov	r2,zero
    f28c:	00000306 	br	f29c <alt_alarm_start+0x130>
    }
    else
    {
      return -EINVAL;
    f290:	00bffa84 	movi	r2,-22
    f294:	00000106 	br	f29c <alt_alarm_start+0x130>
    }
  }
  else
  {
    return -ENOTSUP;
    f298:	00bfde84 	movi	r2,-134
  }
}
    f29c:	e037883a 	mov	sp,fp
    f2a0:	df000017 	ldw	fp,0(sp)
    f2a4:	dec00104 	addi	sp,sp,4
    f2a8:	f800283a 	ret

0000f2ac <alt_get_errno>:
#undef errno

extern int errno;

static ALT_INLINE int* alt_get_errno(void)
{
    f2ac:	defffe04 	addi	sp,sp,-8
    f2b0:	dfc00115 	stw	ra,4(sp)
    f2b4:	df000015 	stw	fp,0(sp)
    f2b8:	d839883a 	mov	fp,sp
  return ((alt_errno) ? alt_errno() : &errno);
    f2bc:	00800374 	movhi	r2,13
    f2c0:	10b75004 	addi	r2,r2,-8896
    f2c4:	10800017 	ldw	r2,0(r2)
    f2c8:	10000526 	beq	r2,zero,f2e0 <alt_get_errno+0x34>
    f2cc:	00800374 	movhi	r2,13
    f2d0:	10b75004 	addi	r2,r2,-8896
    f2d4:	10800017 	ldw	r2,0(r2)
    f2d8:	103ee83a 	callr	r2
    f2dc:	00000206 	br	f2e8 <alt_get_errno+0x3c>
    f2e0:	00800374 	movhi	r2,13
    f2e4:	10be6504 	addi	r2,r2,-1644
}
    f2e8:	e037883a 	mov	sp,fp
    f2ec:	dfc00117 	ldw	ra,4(sp)
    f2f0:	df000017 	ldw	fp,0(sp)
    f2f4:	dec00204 	addi	sp,sp,8
    f2f8:	f800283a 	ret

0000f2fc <close>:
 *
 * ALT_CLOSE is mapped onto the close() system call in alt_syscall.h
 */
 
int ALT_CLOSE (int fildes)
{
    f2fc:	defffb04 	addi	sp,sp,-20
    f300:	dfc00415 	stw	ra,16(sp)
    f304:	df000315 	stw	fp,12(sp)
    f308:	df000304 	addi	fp,sp,12
    f30c:	e13fff15 	stw	r4,-4(fp)
   * A common error case is that when the file descriptor was created, the call
   * to open() failed resulting in a negative file descriptor. This is trapped
   * below so that we don't try and process an invalid file descriptor.
   */

  fd = (fildes < 0) ? NULL : &alt_fd_list[fildes];
    f310:	e0bfff17 	ldw	r2,-4(fp)
    f314:	10000616 	blt	r2,zero,f330 <close+0x34>
    f318:	e0bfff17 	ldw	r2,-4(fp)
    f31c:	10c00324 	muli	r3,r2,12
    f320:	00800374 	movhi	r2,13
    f324:	10b6e204 	addi	r2,r2,-9336
    f328:	1885883a 	add	r2,r3,r2
    f32c:	00000106 	br	f334 <close+0x38>
    f330:	0005883a 	mov	r2,zero
    f334:	e0bffd15 	stw	r2,-12(fp)

  if (fd)
    f338:	e0bffd17 	ldw	r2,-12(fp)
    f33c:	10001926 	beq	r2,zero,f3a4 <close+0xa8>
    /*
     * If the associated file system/device has a close function, call it so 
     * that any necessary cleanup code can run.
     */

    rval = (fd->dev->close) ? fd->dev->close(fd) : 0;
    f340:	e0bffd17 	ldw	r2,-12(fp)
    f344:	10800017 	ldw	r2,0(r2)
    f348:	10800417 	ldw	r2,16(r2)
    f34c:	10000626 	beq	r2,zero,f368 <close+0x6c>
    f350:	e0bffd17 	ldw	r2,-12(fp)
    f354:	10800017 	ldw	r2,0(r2)
    f358:	10800417 	ldw	r2,16(r2)
    f35c:	e13ffd17 	ldw	r4,-12(fp)
    f360:	103ee83a 	callr	r2
    f364:	00000106 	br	f36c <close+0x70>
    f368:	0005883a 	mov	r2,zero
    f36c:	e0bffe15 	stw	r2,-8(fp)

    /* Free the file descriptor structure and return. */

    alt_release_fd (fildes);
    f370:	e13fff17 	ldw	r4,-4(fp)
    f374:	000fb740 	call	fb74 <alt_release_fd>
    if (rval < 0)
    f378:	e0bffe17 	ldw	r2,-8(fp)
    f37c:	1000070e 	bge	r2,zero,f39c <close+0xa0>
    {
      ALT_ERRNO = -rval;
    f380:	000f2ac0 	call	f2ac <alt_get_errno>
    f384:	1007883a 	mov	r3,r2
    f388:	e0bffe17 	ldw	r2,-8(fp)
    f38c:	0085c83a 	sub	r2,zero,r2
    f390:	18800015 	stw	r2,0(r3)
      return -1;
    f394:	00bfffc4 	movi	r2,-1
    f398:	00000706 	br	f3b8 <close+0xbc>
    }
    return 0;
    f39c:	0005883a 	mov	r2,zero
    f3a0:	00000506 	br	f3b8 <close+0xbc>
  }
  else
  {
    ALT_ERRNO = EBADFD;
    f3a4:	000f2ac0 	call	f2ac <alt_get_errno>
    f3a8:	1007883a 	mov	r3,r2
    f3ac:	00801444 	movi	r2,81
    f3b0:	18800015 	stw	r2,0(r3)
    return -1;
    f3b4:	00bfffc4 	movi	r2,-1
  }
}
    f3b8:	e037883a 	mov	sp,fp
    f3bc:	dfc00117 	ldw	ra,4(sp)
    f3c0:	df000017 	ldw	fp,0(sp)
    f3c4:	dec00204 	addi	sp,sp,8
    f3c8:	f800283a 	ret

0000f3cc <alt_dcache_flush_all>:
/*
 * alt_dcache_flush_all() is called to flush the entire data cache.
 */

void alt_dcache_flush_all (void)
{
    f3cc:	defffe04 	addi	sp,sp,-8
    f3d0:	df000115 	stw	fp,4(sp)
    f3d4:	df000104 	addi	fp,sp,4
#if NIOS2_DCACHE_SIZE > 0
  char* i;
  
  for (i = (char*) 0; i < (char*) NIOS2_DCACHE_SIZE; i+= NIOS2_DCACHE_LINE_SIZE)
    f3d8:	e03fff15 	stw	zero,-4(fp)
    f3dc:	00000506 	br	f3f4 <alt_dcache_flush_all+0x28>
  { 
    __asm__ volatile ("flushd (%0)" :: "r" (i));
    f3e0:	e0bfff17 	ldw	r2,-4(fp)
    f3e4:	1000003b 	flushd	0(r2)
void alt_dcache_flush_all (void)
{
#if NIOS2_DCACHE_SIZE > 0
  char* i;
  
  for (i = (char*) 0; i < (char*) NIOS2_DCACHE_SIZE; i+= NIOS2_DCACHE_LINE_SIZE)
    f3e8:	e0bfff17 	ldw	r2,-4(fp)
    f3ec:	10800804 	addi	r2,r2,32
    f3f0:	e0bfff15 	stw	r2,-4(fp)
    f3f4:	e0bfff17 	ldw	r2,-4(fp)
    f3f8:	10820030 	cmpltui	r2,r2,2048
    f3fc:	103ff81e 	bne	r2,zero,f3e0 <__alt_data_end+0xf800f3e0>
  { 
    __asm__ volatile ("flushd (%0)" :: "r" (i));
  }
#endif /* NIOS2_DCACHE_SIZE > 0 */
}
    f400:	e037883a 	mov	sp,fp
    f404:	df000017 	ldw	fp,0(sp)
    f408:	dec00104 	addi	sp,sp,4
    f40c:	f800283a 	ret

0000f410 <alt_dev_null_write>:
 * by the alt_dev_null device. It simple discards all data passed to it, and
 * indicates that the data has been successfully transmitted.
 */

static int alt_dev_null_write (alt_fd* fd, const char* ptr, int len)
{
    f410:	defffc04 	addi	sp,sp,-16
    f414:	df000315 	stw	fp,12(sp)
    f418:	df000304 	addi	fp,sp,12
    f41c:	e13ffd15 	stw	r4,-12(fp)
    f420:	e17ffe15 	stw	r5,-8(fp)
    f424:	e1bfff15 	stw	r6,-4(fp)
  return len;
    f428:	e0bfff17 	ldw	r2,-4(fp)
}
    f42c:	e037883a 	mov	sp,fp
    f430:	df000017 	ldw	fp,0(sp)
    f434:	dec00104 	addi	sp,sp,4
    f438:	f800283a 	ret

0000f43c <alt_get_errno>:
#undef errno

extern int errno;

static ALT_INLINE int* alt_get_errno(void)
{
    f43c:	defffe04 	addi	sp,sp,-8
    f440:	dfc00115 	stw	ra,4(sp)
    f444:	df000015 	stw	fp,0(sp)
    f448:	d839883a 	mov	fp,sp
  return ((alt_errno) ? alt_errno() : &errno);
    f44c:	00800374 	movhi	r2,13
    f450:	10b75004 	addi	r2,r2,-8896
    f454:	10800017 	ldw	r2,0(r2)
    f458:	10000526 	beq	r2,zero,f470 <alt_get_errno+0x34>
    f45c:	00800374 	movhi	r2,13
    f460:	10b75004 	addi	r2,r2,-8896
    f464:	10800017 	ldw	r2,0(r2)
    f468:	103ee83a 	callr	r2
    f46c:	00000206 	br	f478 <alt_get_errno+0x3c>
    f470:	00800374 	movhi	r2,13
    f474:	10be6504 	addi	r2,r2,-1644
}
    f478:	e037883a 	mov	sp,fp
    f47c:	dfc00117 	ldw	ra,4(sp)
    f480:	df000017 	ldw	fp,0(sp)
    f484:	dec00204 	addi	sp,sp,8
    f488:	f800283a 	ret

0000f48c <alt_dev_llist_insert>:
/*
 *
 */

int alt_dev_llist_insert (alt_dev_llist* dev, alt_llist* list)
{
    f48c:	defffa04 	addi	sp,sp,-24
    f490:	dfc00515 	stw	ra,20(sp)
    f494:	df000415 	stw	fp,16(sp)
    f498:	df000404 	addi	fp,sp,16
    f49c:	e13ffe15 	stw	r4,-8(fp)
    f4a0:	e17fff15 	stw	r5,-4(fp)
  /*
   * check that the device exists, and that it has a valid name.
   */

  if (!dev || !dev->name)
    f4a4:	e0bffe17 	ldw	r2,-8(fp)
    f4a8:	10000326 	beq	r2,zero,f4b8 <alt_dev_llist_insert+0x2c>
    f4ac:	e0bffe17 	ldw	r2,-8(fp)
    f4b0:	10800217 	ldw	r2,8(r2)
    f4b4:	1000061e 	bne	r2,zero,f4d0 <alt_dev_llist_insert+0x44>
  {
    ALT_ERRNO = EINVAL;
    f4b8:	000f43c0 	call	f43c <alt_get_errno>
    f4bc:	1007883a 	mov	r3,r2
    f4c0:	00800584 	movi	r2,22
    f4c4:	18800015 	stw	r2,0(r3)
    return -EINVAL;
    f4c8:	00bffa84 	movi	r2,-22
    f4cc:	00001306 	br	f51c <alt_dev_llist_insert+0x90>
  
  /*
   * register the device.
   */
  
  alt_llist_insert(list, &dev->llist);
    f4d0:	e0bffe17 	ldw	r2,-8(fp)
    f4d4:	e0ffff17 	ldw	r3,-4(fp)
    f4d8:	e0fffc15 	stw	r3,-16(fp)
    f4dc:	e0bffd15 	stw	r2,-12(fp)
 */

static ALT_INLINE void ALT_ALWAYS_INLINE alt_llist_insert(alt_llist* list, 
                alt_llist* entry)
{
  entry->previous = list;
    f4e0:	e0bffd17 	ldw	r2,-12(fp)
    f4e4:	e0fffc17 	ldw	r3,-16(fp)
    f4e8:	10c00115 	stw	r3,4(r2)
  entry->next     = list->next;
    f4ec:	e0bffc17 	ldw	r2,-16(fp)
    f4f0:	10c00017 	ldw	r3,0(r2)
    f4f4:	e0bffd17 	ldw	r2,-12(fp)
    f4f8:	10c00015 	stw	r3,0(r2)

  list->next->previous = entry;
    f4fc:	e0bffc17 	ldw	r2,-16(fp)
    f500:	10800017 	ldw	r2,0(r2)
    f504:	e0fffd17 	ldw	r3,-12(fp)
    f508:	10c00115 	stw	r3,4(r2)
  list->next           = entry;
    f50c:	e0bffc17 	ldw	r2,-16(fp)
    f510:	e0fffd17 	ldw	r3,-12(fp)
    f514:	10c00015 	stw	r3,0(r2)

  return 0;  
    f518:	0005883a 	mov	r2,zero
}
    f51c:	e037883a 	mov	sp,fp
    f520:	dfc00117 	ldw	ra,4(sp)
    f524:	df000017 	ldw	fp,0(sp)
    f528:	dec00204 	addi	sp,sp,8
    f52c:	f800283a 	ret

0000f530 <_do_ctors>:
/*
 * Run the C++ static constructors.
 */

void _do_ctors(void)
{
    f530:	defffd04 	addi	sp,sp,-12
    f534:	dfc00215 	stw	ra,8(sp)
    f538:	df000115 	stw	fp,4(sp)
    f53c:	df000104 	addi	fp,sp,4
  constructor* ctor;

  for (ctor = &__CTOR_END__[-1]; ctor >= __CTOR_LIST__; ctor--)
    f540:	00800074 	movhi	r2,1
    f544:	10812c04 	addi	r2,r2,1200
    f548:	e0bfff15 	stw	r2,-4(fp)
    f54c:	00000606 	br	f568 <_do_ctors+0x38>
        (*ctor) (); 
    f550:	e0bfff17 	ldw	r2,-4(fp)
    f554:	10800017 	ldw	r2,0(r2)
    f558:	103ee83a 	callr	r2

void _do_ctors(void)
{
  constructor* ctor;

  for (ctor = &__CTOR_END__[-1]; ctor >= __CTOR_LIST__; ctor--)
    f55c:	e0bfff17 	ldw	r2,-4(fp)
    f560:	10bfff04 	addi	r2,r2,-4
    f564:	e0bfff15 	stw	r2,-4(fp)
    f568:	e0ffff17 	ldw	r3,-4(fp)
    f56c:	00800074 	movhi	r2,1
    f570:	10812d04 	addi	r2,r2,1204
    f574:	18bff62e 	bgeu	r3,r2,f550 <__alt_data_end+0xf800f550>
        (*ctor) (); 
}
    f578:	e037883a 	mov	sp,fp
    f57c:	dfc00117 	ldw	ra,4(sp)
    f580:	df000017 	ldw	fp,0(sp)
    f584:	dec00204 	addi	sp,sp,8
    f588:	f800283a 	ret

0000f58c <_do_dtors>:
/*
 * Run the C++ static destructors.
 */

void _do_dtors(void)
{
    f58c:	defffd04 	addi	sp,sp,-12
    f590:	dfc00215 	stw	ra,8(sp)
    f594:	df000115 	stw	fp,4(sp)
    f598:	df000104 	addi	fp,sp,4
  destructor* dtor;

  for (dtor = &__DTOR_END__[-1]; dtor >= __DTOR_LIST__; dtor--)
    f59c:	00800074 	movhi	r2,1
    f5a0:	10812c04 	addi	r2,r2,1200
    f5a4:	e0bfff15 	stw	r2,-4(fp)
    f5a8:	00000606 	br	f5c4 <_do_dtors+0x38>
        (*dtor) (); 
    f5ac:	e0bfff17 	ldw	r2,-4(fp)
    f5b0:	10800017 	ldw	r2,0(r2)
    f5b4:	103ee83a 	callr	r2

void _do_dtors(void)
{
  destructor* dtor;

  for (dtor = &__DTOR_END__[-1]; dtor >= __DTOR_LIST__; dtor--)
    f5b8:	e0bfff17 	ldw	r2,-4(fp)
    f5bc:	10bfff04 	addi	r2,r2,-4
    f5c0:	e0bfff15 	stw	r2,-4(fp)
    f5c4:	e0ffff17 	ldw	r3,-4(fp)
    f5c8:	00800074 	movhi	r2,1
    f5cc:	10812d04 	addi	r2,r2,1204
    f5d0:	18bff62e 	bgeu	r3,r2,f5ac <__alt_data_end+0xf800f5ac>
        (*dtor) (); 
}
    f5d4:	e037883a 	mov	sp,fp
    f5d8:	dfc00117 	ldw	ra,4(sp)
    f5dc:	df000017 	ldw	fp,0(sp)
    f5e0:	dec00204 	addi	sp,sp,8
    f5e4:	f800283a 	ret

0000f5e8 <alt_icache_flush_all>:
/*
 * alt_icache_flush_all() is called to flush the entire instruction cache.
 */

void alt_icache_flush_all (void)
{
    f5e8:	defffe04 	addi	sp,sp,-8
    f5ec:	dfc00115 	stw	ra,4(sp)
    f5f0:	df000015 	stw	fp,0(sp)
    f5f4:	d839883a 	mov	fp,sp
#if NIOS2_ICACHE_SIZE > 0
  alt_icache_flush (0, NIOS2_ICACHE_SIZE);
    f5f8:	0009883a 	mov	r4,zero
    f5fc:	01440004 	movi	r5,4096
    f600:	000ffe80 	call	ffe8 <alt_icache_flush>
#endif
}
    f604:	e037883a 	mov	sp,fp
    f608:	dfc00117 	ldw	ra,4(sp)
    f60c:	df000017 	ldw	fp,0(sp)
    f610:	dec00204 	addi	sp,sp,8
    f614:	f800283a 	ret

0000f618 <alt_open_fd>:
 * If the device can not be succesfully opened, then the input file descriptor
 * remains unchanged.
 */

static void alt_open_fd(alt_fd* fd, const char* name, int flags, int mode)
{
    f618:	defff904 	addi	sp,sp,-28
    f61c:	dfc00615 	stw	ra,24(sp)
    f620:	df000515 	stw	fp,20(sp)
    f624:	df000504 	addi	fp,sp,20
    f628:	e13ffc15 	stw	r4,-16(fp)
    f62c:	e17ffd15 	stw	r5,-12(fp)
    f630:	e1bffe15 	stw	r6,-8(fp)
    f634:	e1ffff15 	stw	r7,-4(fp)
  int old;

  old = open (name, flags, mode);
    f638:	e13ffd17 	ldw	r4,-12(fp)
    f63c:	e17ffe17 	ldw	r5,-8(fp)
    f640:	e1bfff17 	ldw	r6,-4(fp)
    f644:	000fa1c0 	call	fa1c <open>
    f648:	e0bffb15 	stw	r2,-20(fp)

  if (old >= 0)
    f64c:	e0bffb17 	ldw	r2,-20(fp)
    f650:	10001c16 	blt	r2,zero,f6c4 <alt_open_fd+0xac>
  {
    fd->dev      = alt_fd_list[old].dev;
    f654:	00800374 	movhi	r2,13
    f658:	10b6e204 	addi	r2,r2,-9336
    f65c:	e0fffb17 	ldw	r3,-20(fp)
    f660:	18c00324 	muli	r3,r3,12
    f664:	10c5883a 	add	r2,r2,r3
    f668:	10c00017 	ldw	r3,0(r2)
    f66c:	e0bffc17 	ldw	r2,-16(fp)
    f670:	10c00015 	stw	r3,0(r2)
    fd->priv     = alt_fd_list[old].priv;
    f674:	00800374 	movhi	r2,13
    f678:	10b6e204 	addi	r2,r2,-9336
    f67c:	e0fffb17 	ldw	r3,-20(fp)
    f680:	18c00324 	muli	r3,r3,12
    f684:	10c5883a 	add	r2,r2,r3
    f688:	10800104 	addi	r2,r2,4
    f68c:	10c00017 	ldw	r3,0(r2)
    f690:	e0bffc17 	ldw	r2,-16(fp)
    f694:	10c00115 	stw	r3,4(r2)
    fd->fd_flags = alt_fd_list[old].fd_flags;
    f698:	00800374 	movhi	r2,13
    f69c:	10b6e204 	addi	r2,r2,-9336
    f6a0:	e0fffb17 	ldw	r3,-20(fp)
    f6a4:	18c00324 	muli	r3,r3,12
    f6a8:	10c5883a 	add	r2,r2,r3
    f6ac:	10800204 	addi	r2,r2,8
    f6b0:	10c00017 	ldw	r3,0(r2)
    f6b4:	e0bffc17 	ldw	r2,-16(fp)
    f6b8:	10c00215 	stw	r3,8(r2)

    alt_release_fd (old);
    f6bc:	e13ffb17 	ldw	r4,-20(fp)
    f6c0:	000fb740 	call	fb74 <alt_release_fd>
  }
} 
    f6c4:	e037883a 	mov	sp,fp
    f6c8:	dfc00117 	ldw	ra,4(sp)
    f6cc:	df000017 	ldw	fp,0(sp)
    f6d0:	dec00204 	addi	sp,sp,8
    f6d4:	f800283a 	ret

0000f6d8 <alt_io_redirect>:
 */
 
void alt_io_redirect(const char* stdout_dev, 
                     const char* stdin_dev, 
                     const char* stderr_dev)
{
    f6d8:	defffb04 	addi	sp,sp,-20
    f6dc:	dfc00415 	stw	ra,16(sp)
    f6e0:	df000315 	stw	fp,12(sp)
    f6e4:	df000304 	addi	fp,sp,12
    f6e8:	e13ffd15 	stw	r4,-12(fp)
    f6ec:	e17ffe15 	stw	r5,-8(fp)
    f6f0:	e1bfff15 	stw	r6,-4(fp)
  /* Redirect the channels */

  alt_open_fd (&alt_fd_list[STDOUT_FILENO], stdout_dev, O_WRONLY, 0777);
    f6f4:	01000374 	movhi	r4,13
    f6f8:	2136e504 	addi	r4,r4,-9324
    f6fc:	e17ffd17 	ldw	r5,-12(fp)
    f700:	01800044 	movi	r6,1
    f704:	01c07fc4 	movi	r7,511
    f708:	000f6180 	call	f618 <alt_open_fd>
  alt_open_fd (&alt_fd_list[STDIN_FILENO], stdin_dev, O_RDONLY, 0777);
    f70c:	01000374 	movhi	r4,13
    f710:	2136e204 	addi	r4,r4,-9336
    f714:	e17ffe17 	ldw	r5,-8(fp)
    f718:	000d883a 	mov	r6,zero
    f71c:	01c07fc4 	movi	r7,511
    f720:	000f6180 	call	f618 <alt_open_fd>
  alt_open_fd (&alt_fd_list[STDERR_FILENO], stderr_dev, O_WRONLY, 0777);
    f724:	01000374 	movhi	r4,13
    f728:	2136e804 	addi	r4,r4,-9312
    f72c:	e17fff17 	ldw	r5,-4(fp)
    f730:	01800044 	movi	r6,1
    f734:	01c07fc4 	movi	r7,511
    f738:	000f6180 	call	f618 <alt_open_fd>
}  
    f73c:	e037883a 	mov	sp,fp
    f740:	dfc00117 	ldw	ra,4(sp)
    f744:	df000017 	ldw	fp,0(sp)
    f748:	dec00204 	addi	sp,sp,8
    f74c:	f800283a 	ret

0000f750 <alt_irq_register>:
 */
 
int alt_irq_register (alt_u32 id, 
                      void* context, 
                      alt_isr_func handler)
{
    f750:	defff004 	addi	sp,sp,-64
    f754:	df000f15 	stw	fp,60(sp)
    f758:	df000f04 	addi	fp,sp,60
    f75c:	e13ffd15 	stw	r4,-12(fp)
    f760:	e17ffe15 	stw	r5,-8(fp)
    f764:	e1bfff15 	stw	r6,-4(fp)
  int rc = -EINVAL;  
    f768:	00bffa84 	movi	r2,-22
    f76c:	e0bff115 	stw	r2,-60(fp)
  alt_irq_context status;

  if (id < ALT_NIRQ)
    f770:	e0bffd17 	ldw	r2,-12(fp)
    f774:	10800828 	cmpgeui	r2,r2,32
    f778:	10005c1e 	bne	r2,zero,f8ec <alt_irq_register+0x19c>
static ALT_INLINE alt_irq_context ALT_ALWAYS_INLINE 
       alt_irq_disable_all (void)
{
  alt_irq_context context;

  NIOS2_READ_STATUS (context);
    f77c:	0005303a 	rdctl	r2,status
    f780:	e0bff315 	stw	r2,-52(fp)

  NIOS2_WRITE_STATUS (context & ~NIOS2_STATUS_PIE_MSK);
    f784:	e0fff317 	ldw	r3,-52(fp)
    f788:	00bfff84 	movi	r2,-2
    f78c:	1884703a 	and	r2,r3,r2
    f790:	1001703a 	wrctl	status,r2
  
  return context;
    f794:	e0bff317 	ldw	r2,-52(fp)
     * interrupts are disabled while the handler tables are updated to ensure
     * that an interrupt doesn't occur while the tables are in an inconsistant
     * state.
     */

    status = alt_irq_disable_all ();
    f798:	e0bff215 	stw	r2,-56(fp)

    alt_irq[id].handler = handler;
    f79c:	00800374 	movhi	r2,13
    f7a0:	10818c04 	addi	r2,r2,1584
    f7a4:	e0fffd17 	ldw	r3,-12(fp)
    f7a8:	180690fa 	slli	r3,r3,3
    f7ac:	10c5883a 	add	r2,r2,r3
    f7b0:	e0ffff17 	ldw	r3,-4(fp)
    f7b4:	10c00015 	stw	r3,0(r2)
    alt_irq[id].context = context;
    f7b8:	00800374 	movhi	r2,13
    f7bc:	10818c04 	addi	r2,r2,1584
    f7c0:	e0fffd17 	ldw	r3,-12(fp)
    f7c4:	180690fa 	slli	r3,r3,3
    f7c8:	10c5883a 	add	r2,r2,r3
    f7cc:	10800104 	addi	r2,r2,4
    f7d0:	e0fffe17 	ldw	r3,-8(fp)
    f7d4:	10c00015 	stw	r3,0(r2)

    rc = (handler) ? alt_irq_enable (id): alt_irq_disable (id);
    f7d8:	e0bfff17 	ldw	r2,-4(fp)
    f7dc:	10001f26 	beq	r2,zero,f85c <alt_irq_register+0x10c>
    f7e0:	e0bffd17 	ldw	r2,-12(fp)
    f7e4:	e0bff415 	stw	r2,-48(fp)
static ALT_INLINE alt_irq_context ALT_ALWAYS_INLINE 
       alt_irq_disable_all (void)
{
  alt_irq_context context;

  NIOS2_READ_STATUS (context);
    f7e8:	0005303a 	rdctl	r2,status
    f7ec:	e0bff515 	stw	r2,-44(fp)

  NIOS2_WRITE_STATUS (context & ~NIOS2_STATUS_PIE_MSK);
    f7f0:	e0fff517 	ldw	r3,-44(fp)
    f7f4:	00bfff84 	movi	r2,-2
    f7f8:	1884703a 	and	r2,r3,r2
    f7fc:	1001703a 	wrctl	status,r2
  
  return context;
    f800:	e0bff517 	ldw	r2,-44(fp)
static ALT_INLINE int ALT_ALWAYS_INLINE alt_irq_enable (alt_u32 id)
{
  alt_irq_context  status;
  extern volatile alt_u32 alt_irq_active;

  status = alt_irq_disable_all ();
    f804:	e0bff615 	stw	r2,-40(fp)

  alt_irq_active |= (1 << id);
    f808:	e0bff417 	ldw	r2,-48(fp)
    f80c:	00c00044 	movi	r3,1
    f810:	1884983a 	sll	r2,r3,r2
    f814:	1007883a 	mov	r3,r2
    f818:	00800374 	movhi	r2,13
    f81c:	10be6c04 	addi	r2,r2,-1616
    f820:	10800017 	ldw	r2,0(r2)
    f824:	1886b03a 	or	r3,r3,r2
    f828:	00800374 	movhi	r2,13
    f82c:	10be6c04 	addi	r2,r2,-1616
    f830:	10c00015 	stw	r3,0(r2)
  NIOS2_WRITE_IENABLE (alt_irq_active);
    f834:	00800374 	movhi	r2,13
    f838:	10be6c04 	addi	r2,r2,-1616
    f83c:	10800017 	ldw	r2,0(r2)
    f840:	100170fa 	wrctl	ienable,r2
    f844:	e0bff617 	ldw	r2,-40(fp)
    f848:	e0bff715 	stw	r2,-36(fp)
  status &= ~NIOS2_STATUS_PIE_MSK;
  status |= (context & NIOS2_STATUS_PIE_MSK);
  
  NIOS2_WRITE_STATUS (status);
#else
  NIOS2_WRITE_STATUS (context);
    f84c:	e0bff717 	ldw	r2,-36(fp)
    f850:	1001703a 	wrctl	status,r2

  alt_irq_enable_all(status);

  return 0;
    f854:	0005883a 	mov	r2,zero
    f858:	00001f06 	br	f8d8 <alt_irq_register+0x188>
    f85c:	e0bffd17 	ldw	r2,-12(fp)
    f860:	e0bff815 	stw	r2,-32(fp)
static ALT_INLINE alt_irq_context ALT_ALWAYS_INLINE 
       alt_irq_disable_all (void)
{
  alt_irq_context context;

  NIOS2_READ_STATUS (context);
    f864:	0005303a 	rdctl	r2,status
    f868:	e0bff915 	stw	r2,-28(fp)

  NIOS2_WRITE_STATUS (context & ~NIOS2_STATUS_PIE_MSK);
    f86c:	e0fff917 	ldw	r3,-28(fp)
    f870:	00bfff84 	movi	r2,-2
    f874:	1884703a 	and	r2,r3,r2
    f878:	1001703a 	wrctl	status,r2
  
  return context;
    f87c:	e0bff917 	ldw	r2,-28(fp)
static ALT_INLINE int ALT_ALWAYS_INLINE alt_irq_disable (alt_u32 id)
{
  alt_irq_context  status;
  extern volatile alt_u32 alt_irq_active;

  status = alt_irq_disable_all ();
    f880:	e0bffa15 	stw	r2,-24(fp)

  alt_irq_active &= ~(1 << id);
    f884:	e0bff817 	ldw	r2,-32(fp)
    f888:	00c00044 	movi	r3,1
    f88c:	1884983a 	sll	r2,r3,r2
    f890:	0084303a 	nor	r2,zero,r2
    f894:	1007883a 	mov	r3,r2
    f898:	00800374 	movhi	r2,13
    f89c:	10be6c04 	addi	r2,r2,-1616
    f8a0:	10800017 	ldw	r2,0(r2)
    f8a4:	1886703a 	and	r3,r3,r2
    f8a8:	00800374 	movhi	r2,13
    f8ac:	10be6c04 	addi	r2,r2,-1616
    f8b0:	10c00015 	stw	r3,0(r2)
  NIOS2_WRITE_IENABLE (alt_irq_active);
    f8b4:	00800374 	movhi	r2,13
    f8b8:	10be6c04 	addi	r2,r2,-1616
    f8bc:	10800017 	ldw	r2,0(r2)
    f8c0:	100170fa 	wrctl	ienable,r2
    f8c4:	e0bffa17 	ldw	r2,-24(fp)
    f8c8:	e0bffb15 	stw	r2,-20(fp)
  status &= ~NIOS2_STATUS_PIE_MSK;
  status |= (context & NIOS2_STATUS_PIE_MSK);
  
  NIOS2_WRITE_STATUS (status);
#else
  NIOS2_WRITE_STATUS (context);
    f8cc:	e0bffb17 	ldw	r2,-20(fp)
    f8d0:	1001703a 	wrctl	status,r2

  alt_irq_enable_all(status);

  return 0;
    f8d4:	0005883a 	mov	r2,zero
    f8d8:	e0bff115 	stw	r2,-60(fp)
    f8dc:	e0bff217 	ldw	r2,-56(fp)
    f8e0:	e0bffc15 	stw	r2,-16(fp)
    f8e4:	e0bffc17 	ldw	r2,-16(fp)
    f8e8:	1001703a 	wrctl	status,r2

    alt_irq_enable_all(status);
  }
  return rc; 
    f8ec:	e0bff117 	ldw	r2,-60(fp)
}
    f8f0:	e037883a 	mov	sp,fp
    f8f4:	df000017 	ldw	fp,0(sp)
    f8f8:	dec00104 	addi	sp,sp,4
    f8fc:	f800283a 	ret

0000f900 <alt_get_errno>:
#undef errno

extern int errno;

static ALT_INLINE int* alt_get_errno(void)
{
    f900:	defffe04 	addi	sp,sp,-8
    f904:	dfc00115 	stw	ra,4(sp)
    f908:	df000015 	stw	fp,0(sp)
    f90c:	d839883a 	mov	fp,sp
  return ((alt_errno) ? alt_errno() : &errno);
    f910:	00800374 	movhi	r2,13
    f914:	10b75004 	addi	r2,r2,-8896
    f918:	10800017 	ldw	r2,0(r2)
    f91c:	10000526 	beq	r2,zero,f934 <alt_get_errno+0x34>
    f920:	00800374 	movhi	r2,13
    f924:	10b75004 	addi	r2,r2,-8896
    f928:	10800017 	ldw	r2,0(r2)
    f92c:	103ee83a 	callr	r2
    f930:	00000206 	br	f93c <alt_get_errno+0x3c>
    f934:	00800374 	movhi	r2,13
    f938:	10be6504 	addi	r2,r2,-1644
}
    f93c:	e037883a 	mov	sp,fp
    f940:	dfc00117 	ldw	ra,4(sp)
    f944:	df000017 	ldw	fp,0(sp)
    f948:	dec00204 	addi	sp,sp,8
    f94c:	f800283a 	ret

0000f950 <alt_file_locked>:
 * performed for devices. Filesystems are required to handle the ioctl() call
 * themselves, and report the error from the filesystems open() function. 
 */ 

static int alt_file_locked (alt_fd* fd)
{
    f950:	defffd04 	addi	sp,sp,-12
    f954:	df000215 	stw	fp,8(sp)
    f958:	df000204 	addi	fp,sp,8
    f95c:	e13fff15 	stw	r4,-4(fp)

  /*
   * Mark the file descriptor as belonging to a device.
   */

  fd->fd_flags |= ALT_FD_DEV;
    f960:	e0bfff17 	ldw	r2,-4(fp)
    f964:	10800217 	ldw	r2,8(r2)
    f968:	10d00034 	orhi	r3,r2,16384
    f96c:	e0bfff17 	ldw	r2,-4(fp)
    f970:	10c00215 	stw	r3,8(r2)
  /*
   * Loop through all current file descriptors searching for one that's locked
   * for exclusive access. If a match is found, generate an error.
   */

  for (i = 0; i <= alt_max_fd; i++)
    f974:	e03ffe15 	stw	zero,-8(fp)
    f978:	00001d06 	br	f9f0 <alt_file_locked+0xa0>
  {
    if ((alt_fd_list[i].dev == fd->dev) &&
    f97c:	00800374 	movhi	r2,13
    f980:	10b6e204 	addi	r2,r2,-9336
    f984:	e0fffe17 	ldw	r3,-8(fp)
    f988:	18c00324 	muli	r3,r3,12
    f98c:	10c5883a 	add	r2,r2,r3
    f990:	10c00017 	ldw	r3,0(r2)
    f994:	e0bfff17 	ldw	r2,-4(fp)
    f998:	10800017 	ldw	r2,0(r2)
    f99c:	1880111e 	bne	r3,r2,f9e4 <alt_file_locked+0x94>
        (alt_fd_list[i].fd_flags & ALT_FD_EXCL) &&
    f9a0:	00800374 	movhi	r2,13
    f9a4:	10b6e204 	addi	r2,r2,-9336
    f9a8:	e0fffe17 	ldw	r3,-8(fp)
    f9ac:	18c00324 	muli	r3,r3,12
    f9b0:	10c5883a 	add	r2,r2,r3
    f9b4:	10800204 	addi	r2,r2,8
    f9b8:	10800017 	ldw	r2,0(r2)
   * for exclusive access. If a match is found, generate an error.
   */

  for (i = 0; i <= alt_max_fd; i++)
  {
    if ((alt_fd_list[i].dev == fd->dev) &&
    f9bc:	1000090e 	bge	r2,zero,f9e4 <alt_file_locked+0x94>
        (alt_fd_list[i].fd_flags & ALT_FD_EXCL) &&
        (&alt_fd_list[i] != fd))
    f9c0:	e0bffe17 	ldw	r2,-8(fp)
    f9c4:	10c00324 	muli	r3,r2,12
    f9c8:	00800374 	movhi	r2,13
    f9cc:	10b6e204 	addi	r2,r2,-9336
    f9d0:	1887883a 	add	r3,r3,r2
   */

  for (i = 0; i <= alt_max_fd; i++)
  {
    if ((alt_fd_list[i].dev == fd->dev) &&
        (alt_fd_list[i].fd_flags & ALT_FD_EXCL) &&
    f9d4:	e0bfff17 	ldw	r2,-4(fp)
    f9d8:	18800226 	beq	r3,r2,f9e4 <alt_file_locked+0x94>
        (&alt_fd_list[i] != fd))
    {
      return -EACCES;
    f9dc:	00bffcc4 	movi	r2,-13
    f9e0:	00000a06 	br	fa0c <alt_file_locked+0xbc>
  /*
   * Loop through all current file descriptors searching for one that's locked
   * for exclusive access. If a match is found, generate an error.
   */

  for (i = 0; i <= alt_max_fd; i++)
    f9e4:	e0bffe17 	ldw	r2,-8(fp)
    f9e8:	10800044 	addi	r2,r2,1
    f9ec:	e0bffe15 	stw	r2,-8(fp)
    f9f0:	00800374 	movhi	r2,13
    f9f4:	10b74f04 	addi	r2,r2,-8900
    f9f8:	10800017 	ldw	r2,0(r2)
    f9fc:	1007883a 	mov	r3,r2
    fa00:	e0bffe17 	ldw	r2,-8(fp)
    fa04:	18bfdd2e 	bgeu	r3,r2,f97c <__alt_data_end+0xf800f97c>
    }
  }
  
  /* The device is not locked */
 
  return 0;
    fa08:	0005883a 	mov	r2,zero
}
    fa0c:	e037883a 	mov	sp,fp
    fa10:	df000017 	ldw	fp,0(sp)
    fa14:	dec00104 	addi	sp,sp,4
    fa18:	f800283a 	ret

0000fa1c <open>:
 *
 * ALT_OPEN is mapped onto the open() system call in alt_syscall.h
 */
 
int ALT_OPEN (const char* file, int flags, int mode)
{ 
    fa1c:	defff604 	addi	sp,sp,-40
    fa20:	dfc00915 	stw	ra,36(sp)
    fa24:	df000815 	stw	fp,32(sp)
    fa28:	df000804 	addi	fp,sp,32
    fa2c:	e13ffd15 	stw	r4,-12(fp)
    fa30:	e17ffe15 	stw	r5,-8(fp)
    fa34:	e1bfff15 	stw	r6,-4(fp)
  alt_dev* dev;
  alt_fd*  fd;
  int index  = -1;
    fa38:	00bfffc4 	movi	r2,-1
    fa3c:	e0bff915 	stw	r2,-28(fp)
  int status = -ENODEV;
    fa40:	00bffb44 	movi	r2,-19
    fa44:	e0bffa15 	stw	r2,-24(fp)
  int isafs = 0;
    fa48:	e03ffb15 	stw	zero,-20(fp)
  /* 
   * Check the device list, to see if a device with a matching name is 
   * registered.
   */
  
  if (!(dev = alt_find_dev (file, &alt_dev_list)))
    fa4c:	e13ffd17 	ldw	r4,-12(fp)
    fa50:	01400374 	movhi	r5,13
    fa54:	29774d04 	addi	r5,r5,-8908
    fa58:	000fd900 	call	fd90 <alt_find_dev>
    fa5c:	e0bff815 	stw	r2,-32(fp)
    fa60:	e0bff817 	ldw	r2,-32(fp)
    fa64:	1000051e 	bne	r2,zero,fa7c <open+0x60>
  {
    /* No matching device, so try the filesystem list */

    dev   = alt_find_file (file);
    fa68:	e13ffd17 	ldw	r4,-12(fp)
    fa6c:	000fe200 	call	fe20 <alt_find_file>
    fa70:	e0bff815 	stw	r2,-32(fp)
    isafs = 1;
    fa74:	00800044 	movi	r2,1
    fa78:	e0bffb15 	stw	r2,-20(fp)

  /* 
   * If a matching device or filesystem is found, allocate a file descriptor. 
   */

  if (dev)
    fa7c:	e0bff817 	ldw	r2,-32(fp)
    fa80:	10002926 	beq	r2,zero,fb28 <open+0x10c>
  {
    if ((index = alt_get_fd (dev)) < 0)
    fa84:	e13ff817 	ldw	r4,-32(fp)
    fa88:	000ff340 	call	ff34 <alt_get_fd>
    fa8c:	e0bff915 	stw	r2,-28(fp)
    fa90:	e0bff917 	ldw	r2,-28(fp)
    fa94:	1000030e 	bge	r2,zero,faa4 <open+0x88>
    {
      status = index;
    fa98:	e0bff917 	ldw	r2,-28(fp)
    fa9c:	e0bffa15 	stw	r2,-24(fp)
    faa0:	00002306 	br	fb30 <open+0x114>
    }
    else
    {
      fd = &alt_fd_list[index];
    faa4:	e0bff917 	ldw	r2,-28(fp)
    faa8:	10c00324 	muli	r3,r2,12
    faac:	00800374 	movhi	r2,13
    fab0:	10b6e204 	addi	r2,r2,-9336
    fab4:	1885883a 	add	r2,r3,r2
    fab8:	e0bffc15 	stw	r2,-16(fp)
      fd->fd_flags = (flags & ~ALT_FD_FLAGS_MASK);
    fabc:	e0fffe17 	ldw	r3,-8(fp)
    fac0:	00900034 	movhi	r2,16384
    fac4:	10bfffc4 	addi	r2,r2,-1
    fac8:	1886703a 	and	r3,r3,r2
    facc:	e0bffc17 	ldw	r2,-16(fp)
    fad0:	10c00215 	stw	r3,8(r2)
      
      /* If this is a device, ensure it isn't already locked */

      if (isafs || ((status = alt_file_locked (fd)) >= 0))
    fad4:	e0bffb17 	ldw	r2,-20(fp)
    fad8:	1000051e 	bne	r2,zero,faf0 <open+0xd4>
    fadc:	e13ffc17 	ldw	r4,-16(fp)
    fae0:	000f9500 	call	f950 <alt_file_locked>
    fae4:	e0bffa15 	stw	r2,-24(fp)
    fae8:	e0bffa17 	ldw	r2,-24(fp)
    faec:	10001016 	blt	r2,zero,fb30 <open+0x114>
        /* 
         * If the device or filesystem provides an open() callback function,
         * call it now to perform any device/filesystem specific operations.
         */
    
        status = (dev->open) ? dev->open(fd, file, flags, mode): 0;
    faf0:	e0bff817 	ldw	r2,-32(fp)
    faf4:	10800317 	ldw	r2,12(r2)
    faf8:	10000826 	beq	r2,zero,fb1c <open+0x100>
    fafc:	e0bff817 	ldw	r2,-32(fp)
    fb00:	10800317 	ldw	r2,12(r2)
    fb04:	e13ffc17 	ldw	r4,-16(fp)
    fb08:	e17ffd17 	ldw	r5,-12(fp)
    fb0c:	e1bffe17 	ldw	r6,-8(fp)
    fb10:	e1ffff17 	ldw	r7,-4(fp)
    fb14:	103ee83a 	callr	r2
    fb18:	00000106 	br	fb20 <open+0x104>
    fb1c:	0005883a 	mov	r2,zero
    fb20:	e0bffa15 	stw	r2,-24(fp)
    fb24:	00000206 	br	fb30 <open+0x114>
      }
    }
  }
  else
  {
    status = -ENODEV;
    fb28:	00bffb44 	movi	r2,-19
    fb2c:	e0bffa15 	stw	r2,-24(fp)
  }

  /* Allocation failed, so clean up and return an error */ 

  if (status < 0)
    fb30:	e0bffa17 	ldw	r2,-24(fp)
    fb34:	1000090e 	bge	r2,zero,fb5c <open+0x140>
  {
    alt_release_fd (index);  
    fb38:	e13ff917 	ldw	r4,-28(fp)
    fb3c:	000fb740 	call	fb74 <alt_release_fd>
    ALT_ERRNO = -status;
    fb40:	000f9000 	call	f900 <alt_get_errno>
    fb44:	1007883a 	mov	r3,r2
    fb48:	e0bffa17 	ldw	r2,-24(fp)
    fb4c:	0085c83a 	sub	r2,zero,r2
    fb50:	18800015 	stw	r2,0(r3)
    return -1;
    fb54:	00bfffc4 	movi	r2,-1
    fb58:	00000106 	br	fb60 <open+0x144>
  }
  
  /* return the reference upon success */

  return index;
    fb5c:	e0bff917 	ldw	r2,-28(fp)
}
    fb60:	e037883a 	mov	sp,fp
    fb64:	dfc00117 	ldw	ra,4(sp)
    fb68:	df000017 	ldw	fp,0(sp)
    fb6c:	dec00204 	addi	sp,sp,8
    fb70:	f800283a 	ret

0000fb74 <alt_release_fd>:
 * File descriptors correcponding to standard in, standard out and standard 
 * error cannont be released backed to the pool. They are always reserved.
 */

void alt_release_fd (int fd)
{
    fb74:	defffe04 	addi	sp,sp,-8
    fb78:	df000115 	stw	fp,4(sp)
    fb7c:	df000104 	addi	fp,sp,4
    fb80:	e13fff15 	stw	r4,-4(fp)
  if (fd > 2)
    fb84:	e0bfff17 	ldw	r2,-4(fp)
    fb88:	108000d0 	cmplti	r2,r2,3
    fb8c:	10000d1e 	bne	r2,zero,fbc4 <alt_release_fd+0x50>
  {
    alt_fd_list[fd].fd_flags = 0;
    fb90:	00800374 	movhi	r2,13
    fb94:	10b6e204 	addi	r2,r2,-9336
    fb98:	e0ffff17 	ldw	r3,-4(fp)
    fb9c:	18c00324 	muli	r3,r3,12
    fba0:	10c5883a 	add	r2,r2,r3
    fba4:	10800204 	addi	r2,r2,8
    fba8:	10000015 	stw	zero,0(r2)
    alt_fd_list[fd].dev      = 0;
    fbac:	00800374 	movhi	r2,13
    fbb0:	10b6e204 	addi	r2,r2,-9336
    fbb4:	e0ffff17 	ldw	r3,-4(fp)
    fbb8:	18c00324 	muli	r3,r3,12
    fbbc:	10c5883a 	add	r2,r2,r3
    fbc0:	10000015 	stw	zero,0(r2)
  }
}
    fbc4:	e037883a 	mov	sp,fp
    fbc8:	df000017 	ldw	fp,0(sp)
    fbcc:	dec00104 	addi	sp,sp,4
    fbd0:	f800283a 	ret

0000fbd4 <alt_alarm_stop>:
 * alarms. Alternatively an alarm can unregister itself by returning zero when 
 * the alarm executes.
 */

void alt_alarm_stop (alt_alarm* alarm)
{
    fbd4:	defffa04 	addi	sp,sp,-24
    fbd8:	df000515 	stw	fp,20(sp)
    fbdc:	df000504 	addi	fp,sp,20
    fbe0:	e13fff15 	stw	r4,-4(fp)
static ALT_INLINE alt_irq_context ALT_ALWAYS_INLINE 
       alt_irq_disable_all (void)
{
  alt_irq_context context;

  NIOS2_READ_STATUS (context);
    fbe4:	0005303a 	rdctl	r2,status
    fbe8:	e0bffc15 	stw	r2,-16(fp)

  NIOS2_WRITE_STATUS (context & ~NIOS2_STATUS_PIE_MSK);
    fbec:	e0fffc17 	ldw	r3,-16(fp)
    fbf0:	00bfff84 	movi	r2,-2
    fbf4:	1884703a 	and	r2,r3,r2
    fbf8:	1001703a 	wrctl	status,r2
  
  return context;
    fbfc:	e0bffc17 	ldw	r2,-16(fp)
  alt_irq_context irq_context;

  irq_context = alt_irq_disable_all();
    fc00:	e0bffb15 	stw	r2,-20(fp)
  alt_llist_remove (&alarm->llist);
    fc04:	e0bfff17 	ldw	r2,-4(fp)
    fc08:	e0bffd15 	stw	r2,-12(fp)
 * input argument is the element to remove.
 */
     
static ALT_INLINE void ALT_ALWAYS_INLINE alt_llist_remove(alt_llist* entry)
{
  entry->next->previous = entry->previous;
    fc0c:	e0bffd17 	ldw	r2,-12(fp)
    fc10:	10800017 	ldw	r2,0(r2)
    fc14:	e0fffd17 	ldw	r3,-12(fp)
    fc18:	18c00117 	ldw	r3,4(r3)
    fc1c:	10c00115 	stw	r3,4(r2)
  entry->previous->next = entry->next;
    fc20:	e0bffd17 	ldw	r2,-12(fp)
    fc24:	10800117 	ldw	r2,4(r2)
    fc28:	e0fffd17 	ldw	r3,-12(fp)
    fc2c:	18c00017 	ldw	r3,0(r3)
    fc30:	10c00015 	stw	r3,0(r2)
  /* 
   * Set the entry to point to itself, so that any further calls to
   * alt_llist_remove() are harmless.
   */

  entry->previous = entry;
    fc34:	e0bffd17 	ldw	r2,-12(fp)
    fc38:	e0fffd17 	ldw	r3,-12(fp)
    fc3c:	10c00115 	stw	r3,4(r2)
  entry->next     = entry;
    fc40:	e0bffd17 	ldw	r2,-12(fp)
    fc44:	e0fffd17 	ldw	r3,-12(fp)
    fc48:	10c00015 	stw	r3,0(r2)
    fc4c:	e0bffb17 	ldw	r2,-20(fp)
    fc50:	e0bffe15 	stw	r2,-8(fp)
  status &= ~NIOS2_STATUS_PIE_MSK;
  status |= (context & NIOS2_STATUS_PIE_MSK);
  
  NIOS2_WRITE_STATUS (status);
#else
  NIOS2_WRITE_STATUS (context);
    fc54:	e0bffe17 	ldw	r2,-8(fp)
    fc58:	1001703a 	wrctl	status,r2
  alt_irq_enable_all (irq_context);
}
    fc5c:	e037883a 	mov	sp,fp
    fc60:	df000017 	ldw	fp,0(sp)
    fc64:	dec00104 	addi	sp,sp,4
    fc68:	f800283a 	ret

0000fc6c <alt_tick>:
 * 
 * alt_tick() is expected to run at interrupt level.
 */

void alt_tick (void)
{
    fc6c:	defffb04 	addi	sp,sp,-20
    fc70:	dfc00415 	stw	ra,16(sp)
    fc74:	df000315 	stw	fp,12(sp)
    fc78:	df000304 	addi	fp,sp,12
  alt_alarm* next;
  alt_alarm* alarm = (alt_alarm*) alt_alarm_list.next;
    fc7c:	d0a01017 	ldw	r2,-32704(gp)
    fc80:	e0bffd15 	stw	r2,-12(fp)

  alt_u32    next_callback;

  /* update the tick counter */

  _alt_nticks++;
    fc84:	d0a72c17 	ldw	r2,-25424(gp)
    fc88:	10800044 	addi	r2,r2,1
    fc8c:	d0a72c15 	stw	r2,-25424(gp)

  /* process the registered callbacks */

  while (alarm != (alt_alarm*) &alt_alarm_list)
    fc90:	00002e06 	br	fd4c <alt_tick+0xe0>
  {
    next = (alt_alarm*) alarm->llist.next;
    fc94:	e0bffd17 	ldw	r2,-12(fp)
    fc98:	10800017 	ldw	r2,0(r2)
    fc9c:	e0bffe15 	stw	r2,-8(fp)
    /* 
     * Upon the tick-counter rolling over it is safe to clear the 
     * roll-over flag; once the flag is cleared this (or subsequnt)
     * tick events are enabled to generate an alarm event. 
     */
    if ((alarm->rollover) && (_alt_nticks == 0))
    fca0:	e0bffd17 	ldw	r2,-12(fp)
    fca4:	10800403 	ldbu	r2,16(r2)
    fca8:	10803fcc 	andi	r2,r2,255
    fcac:	10000426 	beq	r2,zero,fcc0 <alt_tick+0x54>
    fcb0:	d0a72c17 	ldw	r2,-25424(gp)
    fcb4:	1000021e 	bne	r2,zero,fcc0 <alt_tick+0x54>
    {
      alarm->rollover = 0;
    fcb8:	e0bffd17 	ldw	r2,-12(fp)
    fcbc:	10000405 	stb	zero,16(r2)
    }
    
    /* if the alarm period has expired, make the callback */    
    if ((alarm->time <= _alt_nticks) && (alarm->rollover == 0))
    fcc0:	e0bffd17 	ldw	r2,-12(fp)
    fcc4:	10800217 	ldw	r2,8(r2)
    fcc8:	d0e72c17 	ldw	r3,-25424(gp)
    fccc:	18801d36 	bltu	r3,r2,fd44 <alt_tick+0xd8>
    fcd0:	e0bffd17 	ldw	r2,-12(fp)
    fcd4:	10800403 	ldbu	r2,16(r2)
    fcd8:	10803fcc 	andi	r2,r2,255
    fcdc:	1000191e 	bne	r2,zero,fd44 <alt_tick+0xd8>
    {
      next_callback = alarm->callback (alarm->context);
    fce0:	e0bffd17 	ldw	r2,-12(fp)
    fce4:	10800317 	ldw	r2,12(r2)
    fce8:	e0fffd17 	ldw	r3,-12(fp)
    fcec:	18c00517 	ldw	r3,20(r3)
    fcf0:	1809883a 	mov	r4,r3
    fcf4:	103ee83a 	callr	r2
    fcf8:	e0bfff15 	stw	r2,-4(fp)

      /* deactivate the alarm if the return value is zero */

      if (next_callback == 0)
    fcfc:	e0bfff17 	ldw	r2,-4(fp)
    fd00:	1000031e 	bne	r2,zero,fd10 <alt_tick+0xa4>
      {
        alt_alarm_stop (alarm);
    fd04:	e13ffd17 	ldw	r4,-12(fp)
    fd08:	000fbd40 	call	fbd4 <alt_alarm_stop>
    fd0c:	00000d06 	br	fd44 <alt_tick+0xd8>
      }
      else
      {
        alarm->time += next_callback;
    fd10:	e0bffd17 	ldw	r2,-12(fp)
    fd14:	10c00217 	ldw	r3,8(r2)
    fd18:	e0bfff17 	ldw	r2,-4(fp)
    fd1c:	1887883a 	add	r3,r3,r2
    fd20:	e0bffd17 	ldw	r2,-12(fp)
    fd24:	10c00215 	stw	r3,8(r2)
        /* 
         * If the desired alarm time causes a roll-over, set the rollover
         * flag. This will prevent the subsequent tick event from causing
         * an alarm too early.
         */
        if(alarm->time < _alt_nticks)
    fd28:	e0bffd17 	ldw	r2,-12(fp)
    fd2c:	10c00217 	ldw	r3,8(r2)
    fd30:	d0a72c17 	ldw	r2,-25424(gp)
    fd34:	1880032e 	bgeu	r3,r2,fd44 <alt_tick+0xd8>
        {
          alarm->rollover = 1;
    fd38:	e0bffd17 	ldw	r2,-12(fp)
    fd3c:	00c00044 	movi	r3,1
    fd40:	10c00405 	stb	r3,16(r2)
        }
      }
    }
    alarm = next;
    fd44:	e0bffe17 	ldw	r2,-8(fp)
    fd48:	e0bffd15 	stw	r2,-12(fp)

  _alt_nticks++;

  /* process the registered callbacks */

  while (alarm != (alt_alarm*) &alt_alarm_list)
    fd4c:	e0fffd17 	ldw	r3,-12(fp)
    fd50:	d0a01004 	addi	r2,gp,-32704
    fd54:	18bfcf1e 	bne	r3,r2,fc94 <__alt_data_end+0xf800fc94>

  /* 
   * Update the operating system specific timer facilities.
   */

  ALT_OS_TIME_TICK();
    fd58:	0001883a 	nop
}
    fd5c:	e037883a 	mov	sp,fp
    fd60:	dfc00117 	ldw	ra,4(sp)
    fd64:	df000017 	ldw	fp,0(sp)
    fd68:	dec00204 	addi	sp,sp,8
    fd6c:	f800283a 	ret

0000fd70 <altera_nios2_gen2_irq_init>:
/*
 * To initialize the internal interrupt controller, just clear the IENABLE
 * register so that all possible IRQs are disabled.
 */
void altera_nios2_gen2_irq_init(void) 
{
    fd70:	deffff04 	addi	sp,sp,-4
    fd74:	df000015 	stw	fp,0(sp)
    fd78:	d839883a 	mov	fp,sp
    NIOS2_WRITE_IENABLE(0);
    fd7c:	000170fa 	wrctl	ienable,zero
}
    fd80:	e037883a 	mov	sp,fp
    fd84:	df000017 	ldw	fp,0(sp)
    fd88:	dec00104 	addi	sp,sp,4
    fd8c:	f800283a 	ret

0000fd90 <alt_find_dev>:
 * "name" must be an exact match for the devices registered name for a match to
 * be found.
 */
 
alt_dev* alt_find_dev(const char* name, alt_llist* llist)
{
    fd90:	defffa04 	addi	sp,sp,-24
    fd94:	dfc00515 	stw	ra,20(sp)
    fd98:	df000415 	stw	fp,16(sp)
    fd9c:	df000404 	addi	fp,sp,16
    fda0:	e13ffe15 	stw	r4,-8(fp)
    fda4:	e17fff15 	stw	r5,-4(fp)
  alt_dev* next = (alt_dev*) llist->next;
    fda8:	e0bfff17 	ldw	r2,-4(fp)
    fdac:	10800017 	ldw	r2,0(r2)
    fdb0:	e0bffc15 	stw	r2,-16(fp)
  alt_32 len;

  len  = strlen(name) + 1;
    fdb4:	e13ffe17 	ldw	r4,-8(fp)
    fdb8:	00046680 	call	4668 <strlen>
    fdbc:	10800044 	addi	r2,r2,1
    fdc0:	e0bffd15 	stw	r2,-12(fp)
  /*
   * Check each list entry in turn, until a match is found, or we reach the
   * end of the list (i.e. next winds up pointing back to the list head).
   */ 

  while (next != (alt_dev*) llist)
    fdc4:	00000d06 	br	fdfc <alt_find_dev+0x6c>
    /* 
     * memcmp() is used here rather than strcmp() in order to reduce the size
     * of the executable.
     */

    if (!memcmp (next->name, name, len))
    fdc8:	e0bffc17 	ldw	r2,-16(fp)
    fdcc:	10c00217 	ldw	r3,8(r2)
    fdd0:	e0bffd17 	ldw	r2,-12(fp)
    fdd4:	1809883a 	mov	r4,r3
    fdd8:	e17ffe17 	ldw	r5,-8(fp)
    fddc:	100d883a 	mov	r6,r2
    fde0:	001015c0 	call	1015c <memcmp>
    fde4:	1000021e 	bne	r2,zero,fdf0 <alt_find_dev+0x60>
    {
      /* match found */

      return next;
    fde8:	e0bffc17 	ldw	r2,-16(fp)
    fdec:	00000706 	br	fe0c <alt_find_dev+0x7c>
    }
    next = (alt_dev*) next->llist.next;
    fdf0:	e0bffc17 	ldw	r2,-16(fp)
    fdf4:	10800017 	ldw	r2,0(r2)
    fdf8:	e0bffc15 	stw	r2,-16(fp)
  /*
   * Check each list entry in turn, until a match is found, or we reach the
   * end of the list (i.e. next winds up pointing back to the list head).
   */ 

  while (next != (alt_dev*) llist)
    fdfc:	e0fffc17 	ldw	r3,-16(fp)
    fe00:	e0bfff17 	ldw	r2,-4(fp)
    fe04:	18bff01e 	bne	r3,r2,fdc8 <__alt_data_end+0xf800fdc8>
    next = (alt_dev*) next->llist.next;
  }
  
  /* No match found */
  
  return NULL;
    fe08:	0005883a 	mov	r2,zero
}
    fe0c:	e037883a 	mov	sp,fp
    fe10:	dfc00117 	ldw	ra,4(sp)
    fe14:	df000017 	ldw	fp,0(sp)
    fe18:	dec00204 	addi	sp,sp,8
    fe1c:	f800283a 	ret

0000fe20 <alt_find_file>:
 * either '/' or '\0' is the prefix of the filename. For example the filename:
 * "/myfilesystem/junk.txt" would match: "/myfilesystem", but not: "/myfile". 
 */
 
alt_dev* alt_find_file (const char* name)
{
    fe20:	defffb04 	addi	sp,sp,-20
    fe24:	dfc00415 	stw	ra,16(sp)
    fe28:	df000315 	stw	fp,12(sp)
    fe2c:	df000304 	addi	fp,sp,12
    fe30:	e13fff15 	stw	r4,-4(fp)
  alt_dev* next = (alt_dev*) alt_fs_list.next;   
    fe34:	00800374 	movhi	r2,13
    fe38:	10b74b04 	addi	r2,r2,-8916
    fe3c:	10800017 	ldw	r2,0(r2)
    fe40:	e0bffd15 	stw	r2,-12(fp)
  /*
   * Check each list entry in turn, until a match is found, or we reach the
   * end of the list (i.e. next winds up pointing back to the list head).
   */ 
 
  while (next != (alt_dev*) &alt_fs_list)
    fe44:	00003106 	br	ff0c <alt_find_file+0xec>
  {
    len = strlen(next->name);
    fe48:	e0bffd17 	ldw	r2,-12(fp)
    fe4c:	10800217 	ldw	r2,8(r2)
    fe50:	1009883a 	mov	r4,r2
    fe54:	00046680 	call	4668 <strlen>
    fe58:	e0bffe15 	stw	r2,-8(fp)
    
    if (next->name[len-1] == '/')
    fe5c:	e0bffd17 	ldw	r2,-12(fp)
    fe60:	10c00217 	ldw	r3,8(r2)
    fe64:	e0bffe17 	ldw	r2,-8(fp)
    fe68:	10bfffc4 	addi	r2,r2,-1
    fe6c:	1885883a 	add	r2,r3,r2
    fe70:	10800003 	ldbu	r2,0(r2)
    fe74:	10803fcc 	andi	r2,r2,255
    fe78:	1080201c 	xori	r2,r2,128
    fe7c:	10bfe004 	addi	r2,r2,-128
    fe80:	10800bd8 	cmpnei	r2,r2,47
    fe84:	1000031e 	bne	r2,zero,fe94 <alt_find_file+0x74>
    {
      len -= 1;
    fe88:	e0bffe17 	ldw	r2,-8(fp)
    fe8c:	10bfffc4 	addi	r2,r2,-1
    fe90:	e0bffe15 	stw	r2,-8(fp)
    }

    if (((name[len] == '/') || (name[len] == '\0')) && 
    fe94:	e0bffe17 	ldw	r2,-8(fp)
    fe98:	e0ffff17 	ldw	r3,-4(fp)
    fe9c:	1885883a 	add	r2,r3,r2
    fea0:	10800003 	ldbu	r2,0(r2)
    fea4:	10803fcc 	andi	r2,r2,255
    fea8:	1080201c 	xori	r2,r2,128
    feac:	10bfe004 	addi	r2,r2,-128
    feb0:	10800be0 	cmpeqi	r2,r2,47
    feb4:	1000081e 	bne	r2,zero,fed8 <alt_find_file+0xb8>
    feb8:	e0bffe17 	ldw	r2,-8(fp)
    febc:	e0ffff17 	ldw	r3,-4(fp)
    fec0:	1885883a 	add	r2,r3,r2
    fec4:	10800003 	ldbu	r2,0(r2)
    fec8:	10803fcc 	andi	r2,r2,255
    fecc:	1080201c 	xori	r2,r2,128
    fed0:	10bfe004 	addi	r2,r2,-128
    fed4:	10000a1e 	bne	r2,zero,ff00 <alt_find_file+0xe0>
        !memcmp (next->name, name, len))
    fed8:	e0bffd17 	ldw	r2,-12(fp)
    fedc:	10c00217 	ldw	r3,8(r2)
    fee0:	e0bffe17 	ldw	r2,-8(fp)
    fee4:	1809883a 	mov	r4,r3
    fee8:	e17fff17 	ldw	r5,-4(fp)
    feec:	100d883a 	mov	r6,r2
    fef0:	001015c0 	call	1015c <memcmp>
    if (next->name[len-1] == '/')
    {
      len -= 1;
    }

    if (((name[len] == '/') || (name[len] == '\0')) && 
    fef4:	1000021e 	bne	r2,zero,ff00 <alt_find_file+0xe0>
        !memcmp (next->name, name, len))
    {
      /* match found */

      return next;
    fef8:	e0bffd17 	ldw	r2,-12(fp)
    fefc:	00000806 	br	ff20 <alt_find_file+0x100>
    }
    next = (alt_dev*) next->llist.next;
    ff00:	e0bffd17 	ldw	r2,-12(fp)
    ff04:	10800017 	ldw	r2,0(r2)
    ff08:	e0bffd15 	stw	r2,-12(fp)
  /*
   * Check each list entry in turn, until a match is found, or we reach the
   * end of the list (i.e. next winds up pointing back to the list head).
   */ 
 
  while (next != (alt_dev*) &alt_fs_list)
    ff0c:	e0fffd17 	ldw	r3,-12(fp)
    ff10:	00800374 	movhi	r2,13
    ff14:	10b74b04 	addi	r2,r2,-8916
    ff18:	18bfcb1e 	bne	r3,r2,fe48 <__alt_data_end+0xf800fe48>
    next = (alt_dev*) next->llist.next;
  }
  
  /* No match found */
  
  return NULL;     
    ff1c:	0005883a 	mov	r2,zero
}
    ff20:	e037883a 	mov	sp,fp
    ff24:	dfc00117 	ldw	ra,4(sp)
    ff28:	df000017 	ldw	fp,0(sp)
    ff2c:	dec00204 	addi	sp,sp,8
    ff30:	f800283a 	ret

0000ff34 <alt_get_fd>:
 * the offset of the file descriptor within the file descriptor array). A
 * negative value indicates failure.
 */

int alt_get_fd (alt_dev* dev)
{
    ff34:	defffc04 	addi	sp,sp,-16
    ff38:	df000315 	stw	fp,12(sp)
    ff3c:	df000304 	addi	fp,sp,12
    ff40:	e13fff15 	stw	r4,-4(fp)
  alt_32 i;
  int rc = -EMFILE;
    ff44:	00bffa04 	movi	r2,-24
    ff48:	e0bffe15 	stw	r2,-8(fp)
   * indicates the highest file descriptor ever allocated. This is used to
   * improve efficency when searching the file descriptor list, and 
   * therefore reduce contention on the alt_fd_list_lock semaphore. 
   */

  for (i = 0; i < ALT_MAX_FD; i++)
    ff4c:	e03ffd15 	stw	zero,-12(fp)
    ff50:	00001d06 	br	ffc8 <alt_get_fd+0x94>
  {
    if (!alt_fd_list[i].dev)
    ff54:	00800374 	movhi	r2,13
    ff58:	10b6e204 	addi	r2,r2,-9336
    ff5c:	e0fffd17 	ldw	r3,-12(fp)
    ff60:	18c00324 	muli	r3,r3,12
    ff64:	10c5883a 	add	r2,r2,r3
    ff68:	10800017 	ldw	r2,0(r2)
    ff6c:	1000131e 	bne	r2,zero,ffbc <alt_get_fd+0x88>
    {
      alt_fd_list[i].dev = dev;
    ff70:	00800374 	movhi	r2,13
    ff74:	10b6e204 	addi	r2,r2,-9336
    ff78:	e0fffd17 	ldw	r3,-12(fp)
    ff7c:	18c00324 	muli	r3,r3,12
    ff80:	10c5883a 	add	r2,r2,r3
    ff84:	e0ffff17 	ldw	r3,-4(fp)
    ff88:	10c00015 	stw	r3,0(r2)
      if (i > alt_max_fd)
    ff8c:	00800374 	movhi	r2,13
    ff90:	10b74f04 	addi	r2,r2,-8900
    ff94:	10c00017 	ldw	r3,0(r2)
    ff98:	e0bffd17 	ldw	r2,-12(fp)
    ff9c:	1880040e 	bge	r3,r2,ffb0 <alt_get_fd+0x7c>
      {
        alt_max_fd = i;
    ffa0:	00800374 	movhi	r2,13
    ffa4:	10b74f04 	addi	r2,r2,-8900
    ffa8:	e0fffd17 	ldw	r3,-12(fp)
    ffac:	10c00015 	stw	r3,0(r2)
      }
      rc = i;
    ffb0:	e0bffd17 	ldw	r2,-12(fp)
    ffb4:	e0bffe15 	stw	r2,-8(fp)
      goto alt_get_fd_exit;
    ffb8:	00000606 	br	ffd4 <alt_get_fd+0xa0>
   * indicates the highest file descriptor ever allocated. This is used to
   * improve efficency when searching the file descriptor list, and 
   * therefore reduce contention on the alt_fd_list_lock semaphore. 
   */

  for (i = 0; i < ALT_MAX_FD; i++)
    ffbc:	e0bffd17 	ldw	r2,-12(fp)
    ffc0:	10800044 	addi	r2,r2,1
    ffc4:	e0bffd15 	stw	r2,-12(fp)
    ffc8:	e0bffd17 	ldw	r2,-12(fp)
    ffcc:	10800810 	cmplti	r2,r2,32
    ffd0:	103fe01e 	bne	r2,zero,ff54 <__alt_data_end+0xf800ff54>
   * file descriptor pool.
   */

  ALT_SEM_POST(alt_fd_list_lock);

  return rc;
    ffd4:	e0bffe17 	ldw	r2,-8(fp)
}
    ffd8:	e037883a 	mov	sp,fp
    ffdc:	df000017 	ldw	fp,0(sp)
    ffe0:	dec00104 	addi	sp,sp,4
    ffe4:	f800283a 	ret

0000ffe8 <alt_icache_flush>:
 * alt_icache_flush() is called to flush the instruction cache for a memory
 * region of length "len" bytes, starting at address "start".
 */

void alt_icache_flush (void* start, alt_u32 len)
{
    ffe8:	defffb04 	addi	sp,sp,-20
    ffec:	df000415 	stw	fp,16(sp)
    fff0:	df000404 	addi	fp,sp,16
    fff4:	e13ffe15 	stw	r4,-8(fp)
    fff8:	e17fff15 	stw	r5,-4(fp)

  /*
   * This is the most we would ever need to flush.
   */
 
  if (len > NIOS2_ICACHE_SIZE)
    fffc:	e0bfff17 	ldw	r2,-4(fp)
   10000:	10840070 	cmpltui	r2,r2,4097
   10004:	1000021e 	bne	r2,zero,10010 <alt_icache_flush+0x28>
  {
    len = NIOS2_ICACHE_SIZE;
   10008:	00840004 	movi	r2,4096
   1000c:	e0bfff15 	stw	r2,-4(fp)
  }

  end = ((char*) start) + len;
   10010:	e0fffe17 	ldw	r3,-8(fp)
   10014:	e0bfff17 	ldw	r2,-4(fp)
   10018:	1885883a 	add	r2,r3,r2
   1001c:	e0bffd15 	stw	r2,-12(fp)

  for (i = start; i < end; i+= NIOS2_ICACHE_LINE_SIZE)
   10020:	e0bffe17 	ldw	r2,-8(fp)
   10024:	e0bffc15 	stw	r2,-16(fp)
   10028:	00000506 	br	10040 <alt_icache_flush+0x58>
  { 
    __asm__ volatile ("flushi %0" :: "r" (i)); 
   1002c:	e0bffc17 	ldw	r2,-16(fp)
   10030:	1000603a 	flushi	r2
    len = NIOS2_ICACHE_SIZE;
  }

  end = ((char*) start) + len;

  for (i = start; i < end; i+= NIOS2_ICACHE_LINE_SIZE)
   10034:	e0bffc17 	ldw	r2,-16(fp)
   10038:	10800804 	addi	r2,r2,32
   1003c:	e0bffc15 	stw	r2,-16(fp)
   10040:	e0fffc17 	ldw	r3,-16(fp)
   10044:	e0bffd17 	ldw	r2,-12(fp)
   10048:	18bff836 	bltu	r3,r2,1002c <__alt_data_end+0xf801002c>
   * For an unaligned flush request, we've got one more line left.
   * Note that this is dependent on NIOS2_ICACHE_LINE_SIZE to be a 
   * multiple of 2 (which it always is).
   */

  if (((alt_u32) start) & (NIOS2_ICACHE_LINE_SIZE - 1))
   1004c:	e0bffe17 	ldw	r2,-8(fp)
   10050:	108007cc 	andi	r2,r2,31
   10054:	10000226 	beq	r2,zero,10060 <alt_icache_flush+0x78>
  {
    __asm__ volatile ("flushi %0" :: "r" (i));
   10058:	e0bffc17 	ldw	r2,-16(fp)
   1005c:	1000603a 	flushi	r2
  /* 
   * Having flushed the cache, flush any stale instructions in the 
   * pipeline 
   */

  __asm__ volatile ("flushp");
   10060:	0000203a 	flushp

#endif /* NIOS2_ICACHE_SIZE > 0 */
}
   10064:	e037883a 	mov	sp,fp
   10068:	df000017 	ldw	fp,0(sp)
   1006c:	dec00104 	addi	sp,sp,4
   10070:	f800283a 	ret

00010074 <alt_exception_cause_generated_bad_addr>:
 * Return: 1: BADADDR (bad_addr argument to handler) is valid
 *         0: BADADDR is not valid
 */
int 
alt_exception_cause_generated_bad_addr(alt_exception_cause cause)
{
   10074:	defffe04 	addi	sp,sp,-8
   10078:	df000115 	stw	fp,4(sp)
   1007c:	df000104 	addi	fp,sp,4
   10080:	e13fff15 	stw	r4,-4(fp)
  switch (cause) {
   10084:	e0bfff17 	ldw	r2,-4(fp)
   10088:	10bffe84 	addi	r2,r2,-6
   1008c:	10c00428 	cmpgeui	r3,r2,16
   10090:	18001a1e 	bne	r3,zero,100fc <alt_exception_cause_generated_bad_addr+0x88>
   10094:	100690ba 	slli	r3,r2,2
   10098:	00800074 	movhi	r2,1
   1009c:	10802b04 	addi	r2,r2,172
   100a0:	1885883a 	add	r2,r3,r2
   100a4:	10800017 	ldw	r2,0(r2)
   100a8:	1000683a 	jmp	r2
   100ac:	000100ec 	andhi	zero,zero,1027
   100b0:	000100ec 	andhi	zero,zero,1027
   100b4:	000100fc 	xorhi	zero,zero,1027
   100b8:	000100fc 	xorhi	zero,zero,1027
   100bc:	000100fc 	xorhi	zero,zero,1027
   100c0:	000100ec 	andhi	zero,zero,1027
   100c4:	000100f4 	movhi	zero,1027
   100c8:	000100fc 	xorhi	zero,zero,1027
   100cc:	000100ec 	andhi	zero,zero,1027
   100d0:	000100ec 	andhi	zero,zero,1027
   100d4:	000100fc 	xorhi	zero,zero,1027
   100d8:	000100ec 	andhi	zero,zero,1027
   100dc:	000100f4 	movhi	zero,1027
   100e0:	000100fc 	xorhi	zero,zero,1027
   100e4:	000100fc 	xorhi	zero,zero,1027
   100e8:	000100ec 	andhi	zero,zero,1027
  case NIOS2_EXCEPTION_MISALIGNED_TARGET_PC:
  case NIOS2_EXCEPTION_TLB_READ_PERM_VIOLATION:
  case NIOS2_EXCEPTION_TLB_WRITE_PERM_VIOLATION:
  case NIOS2_EXCEPTION_MPU_DATA_REGION_VIOLATION:
  case NIOS2_EXCEPTION_ECC_DATA_ERR:
    return 1;
   100ec:	00800044 	movi	r2,1
   100f0:	00000306 	br	10100 <alt_exception_cause_generated_bad_addr+0x8c>

  case NIOS2_EXCEPTION_TLB_MISS:
  case NIOS2_EXCEPTION_ECC_TLB_ERR:
    return 0;
   100f4:	0005883a 	mov	r2,zero
   100f8:	00000106 	br	10100 <alt_exception_cause_generated_bad_addr+0x8c>

  default:
    return 0;
   100fc:	0005883a 	mov	r2,zero
  }
}
   10100:	e037883a 	mov	sp,fp
   10104:	df000017 	ldw	fp,0(sp)
   10108:	dec00104 	addi	sp,sp,4
   1010c:	f800283a 	ret

00010110 <atexit>:
   10110:	200b883a 	mov	r5,r4
   10114:	000d883a 	mov	r6,zero
   10118:	0009883a 	mov	r4,zero
   1011c:	000f883a 	mov	r7,zero
   10120:	00101d81 	jmpi	101d8 <__register_exitproc>

00010124 <exit>:
   10124:	defffe04 	addi	sp,sp,-8
   10128:	000b883a 	mov	r5,zero
   1012c:	dc000015 	stw	r16,0(sp)
   10130:	dfc00115 	stw	ra,4(sp)
   10134:	2021883a 	mov	r16,r4
   10138:	00102ec0 	call	102ec <__call_exitprocs>
   1013c:	00800374 	movhi	r2,13
   10140:	10b74704 	addi	r2,r2,-8932
   10144:	11000017 	ldw	r4,0(r2)
   10148:	20800f17 	ldw	r2,60(r4)
   1014c:	10000126 	beq	r2,zero,10154 <exit+0x30>
   10150:	103ee83a 	callr	r2
   10154:	8009883a 	mov	r4,r16
   10158:	00104800 	call	10480 <_exit>

0001015c <memcmp>:
   1015c:	01c000c4 	movi	r7,3
   10160:	3980192e 	bgeu	r7,r6,101c8 <memcmp+0x6c>
   10164:	2144b03a 	or	r2,r4,r5
   10168:	11c4703a 	and	r2,r2,r7
   1016c:	10000f26 	beq	r2,zero,101ac <memcmp+0x50>
   10170:	20800003 	ldbu	r2,0(r4)
   10174:	28c00003 	ldbu	r3,0(r5)
   10178:	10c0151e 	bne	r2,r3,101d0 <memcmp+0x74>
   1017c:	31bfff84 	addi	r6,r6,-2
   10180:	01ffffc4 	movi	r7,-1
   10184:	00000406 	br	10198 <memcmp+0x3c>
   10188:	20800003 	ldbu	r2,0(r4)
   1018c:	28c00003 	ldbu	r3,0(r5)
   10190:	31bfffc4 	addi	r6,r6,-1
   10194:	10c00e1e 	bne	r2,r3,101d0 <memcmp+0x74>
   10198:	21000044 	addi	r4,r4,1
   1019c:	29400044 	addi	r5,r5,1
   101a0:	31fff91e 	bne	r6,r7,10188 <__alt_data_end+0xf8010188>
   101a4:	0005883a 	mov	r2,zero
   101a8:	f800283a 	ret
   101ac:	20c00017 	ldw	r3,0(r4)
   101b0:	28800017 	ldw	r2,0(r5)
   101b4:	1880041e 	bne	r3,r2,101c8 <memcmp+0x6c>
   101b8:	31bfff04 	addi	r6,r6,-4
   101bc:	21000104 	addi	r4,r4,4
   101c0:	29400104 	addi	r5,r5,4
   101c4:	39bff936 	bltu	r7,r6,101ac <__alt_data_end+0xf80101ac>
   101c8:	303fe91e 	bne	r6,zero,10170 <__alt_data_end+0xf8010170>
   101cc:	003ff506 	br	101a4 <__alt_data_end+0xf80101a4>
   101d0:	10c5c83a 	sub	r2,r2,r3
   101d4:	f800283a 	ret

000101d8 <__register_exitproc>:
   101d8:	00800374 	movhi	r2,13
   101dc:	defffa04 	addi	sp,sp,-24
   101e0:	10b74704 	addi	r2,r2,-8932
   101e4:	dc000315 	stw	r16,12(sp)
   101e8:	14000017 	ldw	r16,0(r2)
   101ec:	dc400415 	stw	r17,16(sp)
   101f0:	dfc00515 	stw	ra,20(sp)
   101f4:	80805217 	ldw	r2,328(r16)
   101f8:	2023883a 	mov	r17,r4
   101fc:	10003626 	beq	r2,zero,102d8 <__register_exitproc+0x100>
   10200:	10c00117 	ldw	r3,4(r2)
   10204:	010007c4 	movi	r4,31
   10208:	20c00e16 	blt	r4,r3,10244 <__register_exitproc+0x6c>
   1020c:	1a400044 	addi	r9,r3,1
   10210:	8800211e 	bne	r17,zero,10298 <__register_exitproc+0xc0>
   10214:	18c00084 	addi	r3,r3,2
   10218:	18c7883a 	add	r3,r3,r3
   1021c:	18c7883a 	add	r3,r3,r3
   10220:	12400115 	stw	r9,4(r2)
   10224:	10c7883a 	add	r3,r2,r3
   10228:	19400015 	stw	r5,0(r3)
   1022c:	0005883a 	mov	r2,zero
   10230:	dfc00517 	ldw	ra,20(sp)
   10234:	dc400417 	ldw	r17,16(sp)
   10238:	dc000317 	ldw	r16,12(sp)
   1023c:	dec00604 	addi	sp,sp,24
   10240:	f800283a 	ret
   10244:	00800034 	movhi	r2,0
   10248:	108f6004 	addi	r2,r2,15744
   1024c:	10002526 	beq	r2,zero,102e4 <__register_exitproc+0x10c>
   10250:	01006404 	movi	r4,400
   10254:	d9400015 	stw	r5,0(sp)
   10258:	d9800115 	stw	r6,4(sp)
   1025c:	d9c00215 	stw	r7,8(sp)
   10260:	0003d800 	call	3d80 <malloc>
   10264:	d9400017 	ldw	r5,0(sp)
   10268:	d9800117 	ldw	r6,4(sp)
   1026c:	d9c00217 	ldw	r7,8(sp)
   10270:	10001c26 	beq	r2,zero,102e4 <__register_exitproc+0x10c>
   10274:	80c05217 	ldw	r3,328(r16)
   10278:	10000115 	stw	zero,4(r2)
   1027c:	02400044 	movi	r9,1
   10280:	10c00015 	stw	r3,0(r2)
   10284:	80805215 	stw	r2,328(r16)
   10288:	10006215 	stw	zero,392(r2)
   1028c:	10006315 	stw	zero,396(r2)
   10290:	0007883a 	mov	r3,zero
   10294:	883fdf26 	beq	r17,zero,10214 <__alt_data_end+0xf8010214>
   10298:	18d1883a 	add	r8,r3,r3
   1029c:	4211883a 	add	r8,r8,r8
   102a0:	1211883a 	add	r8,r2,r8
   102a4:	41802215 	stw	r6,136(r8)
   102a8:	01000044 	movi	r4,1
   102ac:	11806217 	ldw	r6,392(r2)
   102b0:	20c8983a 	sll	r4,r4,r3
   102b4:	310cb03a 	or	r6,r6,r4
   102b8:	11806215 	stw	r6,392(r2)
   102bc:	41c04215 	stw	r7,264(r8)
   102c0:	01800084 	movi	r6,2
   102c4:	89bfd31e 	bne	r17,r6,10214 <__alt_data_end+0xf8010214>
   102c8:	11806317 	ldw	r6,396(r2)
   102cc:	3108b03a 	or	r4,r6,r4
   102d0:	11006315 	stw	r4,396(r2)
   102d4:	003fcf06 	br	10214 <__alt_data_end+0xf8010214>
   102d8:	80805304 	addi	r2,r16,332
   102dc:	80805215 	stw	r2,328(r16)
   102e0:	003fc706 	br	10200 <__alt_data_end+0xf8010200>
   102e4:	00bfffc4 	movi	r2,-1
   102e8:	003fd106 	br	10230 <__alt_data_end+0xf8010230>

000102ec <__call_exitprocs>:
   102ec:	00800374 	movhi	r2,13
   102f0:	10b74704 	addi	r2,r2,-8932
   102f4:	10800017 	ldw	r2,0(r2)
   102f8:	defff404 	addi	sp,sp,-48
   102fc:	dd800815 	stw	r22,32(sp)
   10300:	d8800015 	stw	r2,0(sp)
   10304:	10805204 	addi	r2,r2,328
   10308:	dd000615 	stw	r20,24(sp)
   1030c:	dc800415 	stw	r18,16(sp)
   10310:	dfc00b15 	stw	ra,44(sp)
   10314:	df000a15 	stw	fp,40(sp)
   10318:	ddc00915 	stw	r23,36(sp)
   1031c:	dd400715 	stw	r21,28(sp)
   10320:	dcc00515 	stw	r19,20(sp)
   10324:	dc400315 	stw	r17,12(sp)
   10328:	dc000215 	stw	r16,8(sp)
   1032c:	2025883a 	mov	r18,r4
   10330:	2829883a 	mov	r20,r5
   10334:	d8800115 	stw	r2,4(sp)
   10338:	05bfffc4 	movi	r22,-1
   1033c:	d8800017 	ldw	r2,0(sp)
   10340:	14c05217 	ldw	r19,328(r2)
   10344:	98001d26 	beq	r19,zero,103bc <__call_exitprocs+0xd0>
   10348:	dd400117 	ldw	r21,4(sp)
   1034c:	98800117 	ldw	r2,4(r19)
   10350:	173fffc4 	addi	fp,r2,-1
   10354:	e0000d16 	blt	fp,zero,1038c <__call_exitprocs+0xa0>
   10358:	14000044 	addi	r16,r2,1
   1035c:	8421883a 	add	r16,r16,r16
   10360:	8421883a 	add	r16,r16,r16
   10364:	84402004 	addi	r17,r16,128
   10368:	9c63883a 	add	r17,r19,r17
   1036c:	9c21883a 	add	r16,r19,r16
   10370:	a0001e26 	beq	r20,zero,103ec <__call_exitprocs+0x100>
   10374:	80804017 	ldw	r2,256(r16)
   10378:	15001c26 	beq	r2,r20,103ec <__call_exitprocs+0x100>
   1037c:	e73fffc4 	addi	fp,fp,-1
   10380:	843fff04 	addi	r16,r16,-4
   10384:	8c7fff04 	addi	r17,r17,-4
   10388:	e5bff91e 	bne	fp,r22,10370 <__alt_data_end+0xf8010370>
   1038c:	00800034 	movhi	r2,0
   10390:	108f6504 	addi	r2,r2,15764
   10394:	10000926 	beq	r2,zero,103bc <__call_exitprocs+0xd0>
   10398:	98800117 	ldw	r2,4(r19)
   1039c:	1000311e 	bne	r2,zero,10464 <__call_exitprocs+0x178>
   103a0:	98800017 	ldw	r2,0(r19)
   103a4:	10003426 	beq	r2,zero,10478 <__call_exitprocs+0x18c>
   103a8:	9809883a 	mov	r4,r19
   103ac:	a8800015 	stw	r2,0(r21)
   103b0:	0003d940 	call	3d94 <free>
   103b4:	acc00017 	ldw	r19,0(r21)
   103b8:	983fe41e 	bne	r19,zero,1034c <__alt_data_end+0xf801034c>
   103bc:	dfc00b17 	ldw	ra,44(sp)
   103c0:	df000a17 	ldw	fp,40(sp)
   103c4:	ddc00917 	ldw	r23,36(sp)
   103c8:	dd800817 	ldw	r22,32(sp)
   103cc:	dd400717 	ldw	r21,28(sp)
   103d0:	dd000617 	ldw	r20,24(sp)
   103d4:	dcc00517 	ldw	r19,20(sp)
   103d8:	dc800417 	ldw	r18,16(sp)
   103dc:	dc400317 	ldw	r17,12(sp)
   103e0:	dc000217 	ldw	r16,8(sp)
   103e4:	dec00c04 	addi	sp,sp,48
   103e8:	f800283a 	ret
   103ec:	98800117 	ldw	r2,4(r19)
   103f0:	80c00017 	ldw	r3,0(r16)
   103f4:	10bfffc4 	addi	r2,r2,-1
   103f8:	17001526 	beq	r2,fp,10450 <__call_exitprocs+0x164>
   103fc:	80000015 	stw	zero,0(r16)
   10400:	183fde26 	beq	r3,zero,1037c <__alt_data_end+0xf801037c>
   10404:	00800044 	movi	r2,1
   10408:	1708983a 	sll	r4,r2,fp
   1040c:	98806217 	ldw	r2,392(r19)
   10410:	9dc00117 	ldw	r23,4(r19)
   10414:	2084703a 	and	r2,r4,r2
   10418:	1000061e 	bne	r2,zero,10434 <__call_exitprocs+0x148>
   1041c:	183ee83a 	callr	r3
   10420:	98800117 	ldw	r2,4(r19)
   10424:	15ffc51e 	bne	r2,r23,1033c <__alt_data_end+0xf801033c>
   10428:	a8800017 	ldw	r2,0(r21)
   1042c:	14ffd326 	beq	r2,r19,1037c <__alt_data_end+0xf801037c>
   10430:	003fc206 	br	1033c <__alt_data_end+0xf801033c>
   10434:	98806317 	ldw	r2,396(r19)
   10438:	2084703a 	and	r2,r4,r2
   1043c:	1000061e 	bne	r2,zero,10458 <__call_exitprocs+0x16c>
   10440:	89400017 	ldw	r5,0(r17)
   10444:	9009883a 	mov	r4,r18
   10448:	183ee83a 	callr	r3
   1044c:	003ff406 	br	10420 <__alt_data_end+0xf8010420>
   10450:	9f000115 	stw	fp,4(r19)
   10454:	003fea06 	br	10400 <__alt_data_end+0xf8010400>
   10458:	89000017 	ldw	r4,0(r17)
   1045c:	183ee83a 	callr	r3
   10460:	003fef06 	br	10420 <__alt_data_end+0xf8010420>
   10464:	98800017 	ldw	r2,0(r19)
   10468:	982b883a 	mov	r21,r19
   1046c:	1027883a 	mov	r19,r2
   10470:	983fb61e 	bne	r19,zero,1034c <__alt_data_end+0xf801034c>
   10474:	003fd106 	br	103bc <__alt_data_end+0xf80103bc>
   10478:	0005883a 	mov	r2,zero
   1047c:	003ffa06 	br	10468 <__alt_data_end+0xf8010468>

00010480 <_exit>:
 *
 * ALT_EXIT is mapped onto the _exit() system call in alt_syscall.h
 */

void ALT_EXIT (int exit_code)
{
   10480:	defffd04 	addi	sp,sp,-12
   10484:	df000215 	stw	fp,8(sp)
   10488:	df000204 	addi	fp,sp,8
   1048c:	e13fff15 	stw	r4,-4(fp)
  ALT_LOG_PRINT_BOOT("[alt_exit.c] Entering _exit() function.\r\n");
  ALT_LOG_PRINT_BOOT("[alt_exit.c] Exit code from main was %d.\r\n",exit_code);
  /* Stop all other threads */

  ALT_LOG_PRINT_BOOT("[alt_exit.c] Calling ALT_OS_STOP().\r\n");
  ALT_OS_STOP();
   10490:	0001883a 	nop
   10494:	e0bfff17 	ldw	r2,-4(fp)
   10498:	e0bffe15 	stw	r2,-8(fp)
/*
 * Routine called on exit.
 */
static ALT_INLINE ALT_ALWAYS_INLINE void alt_sim_halt(int exit_code)
{
  register int r2 asm ("r2") = exit_code;
   1049c:	e0bffe17 	ldw	r2,-8(fp)
  __asm__ volatile ("\n0:\n\taddi %0,%0, -1\n\tbgt %0,zero,0b" : : "r" (ALT_CPU_FREQ/100) ); /* Delay for >30ms */

  __asm__ volatile ("break 2" : : "r"(r2), "r"(r3) ALT_GMON_DATA );

#else /* !DEBUG_STUB */
  if (r2) {
   104a0:	10000226 	beq	r2,zero,104ac <_exit+0x2c>
    ALT_SIM_FAIL();
   104a4:	002af070 	cmpltui	zero,zero,43969
   104a8:	00000106 	br	104b0 <_exit+0x30>
  } else {
    ALT_SIM_PASS();
   104ac:	002af0b0 	cmpltui	zero,zero,43970
  ALT_SIM_HALT(exit_code);

  /* spin forever, since there's no where to go back to */

  ALT_LOG_PRINT_BOOT("[alt_exit.c] Spinning forever.\r\n");
  while (1);
   104b0:	003fff06 	br	104b0 <__alt_data_end+0xf80104b0>
