
ebook_1.elf:     file format elf32-littlenios2
ebook_1.elf
architecture: nios2:r1, flags 0x00000112:
EXEC_P, HAS_SYMS, D_PAGED
start address 0x00000244

Program Header:
    LOAD off    0x00001000 vaddr 0x00000000 paddr 0x00000000 align 2**12
         filesz 0x00000020 memsz 0x00000020 flags r-x
    LOAD off    0x00001020 vaddr 0x00000020 paddr 0x00000020 align 2**12
         filesz 0x000d0e10 memsz 0x000d0e10 flags r-x
    LOAD off    0x000d1e30 vaddr 0x000d0e30 paddr 0x000d2a68 align 2**12
         filesz 0x00001c38 memsz 0x00001c38 flags rw-
    LOAD off    0x000d46a0 vaddr 0x000d46a0 paddr 0x000d46a0 align 2**12
         filesz 0x00000000 memsz 0x0004bd48 flags rw-

Sections:
Idx Name          Size      VMA       LMA       File off  Algn
  0 .entry        00000020  00000000  00000000  00001000  2**5
                  CONTENTS, ALLOC, LOAD, READONLY, CODE
  1 .exceptions   00000224  00000020  00000020  00001020  2**2
                  CONTENTS, ALLOC, LOAD, READONLY, CODE
  2 .text         00014ee4  00000244  00000244  00001244  2**2
                  CONTENTS, ALLOC, LOAD, READONLY, CODE
  3 .rodata       000bbd08  00015128  00015128  00016128  2**2
                  CONTENTS, ALLOC, LOAD, READONLY, DATA
  4 .rwdata       00001c38  000d0e30  000d2a68  000d1e30  2**2
                  CONTENTS, ALLOC, LOAD, DATA, SMALL_DATA
  5 .bss          0004bff5  000d46a0  000d46a0  000d46a0  2**2
                  ALLOC, SMALL_DATA
  6 .sdram        00000000  001203e8  001203e8  000d3a68  2**0
                  CONTENTS
  7 .sram         00000000  08000000  08000000  000d3a68  2**0
                  CONTENTS
  8 .comment      00000023  00000000  00000000  000d3a68  2**0
                  CONTENTS, READONLY
  9 .debug_aranges 00000b08  00000000  00000000  000d3a90  2**3
                  CONTENTS, READONLY, DEBUGGING
 10 .debug_info   0001a36d  00000000  00000000  000d4598  2**0
                  CONTENTS, READONLY, DEBUGGING
 11 .debug_abbrev 00006777  00000000  00000000  000ee905  2**0
                  CONTENTS, READONLY, DEBUGGING
 12 .debug_line   00009d79  00000000  00000000  000f507c  2**0
                  CONTENTS, READONLY, DEBUGGING
 13 .debug_frame  00001dfc  00000000  00000000  000fedf8  2**2
                  CONTENTS, READONLY, DEBUGGING
 14 .debug_str    00004845  00000000  00000000  00100bf4  2**0
                  CONTENTS, READONLY, DEBUGGING
 15 .debug_loc    00014d7d  00000000  00000000  00105439  2**0
                  CONTENTS, READONLY, DEBUGGING
 16 .debug_alt_sim_info 00000030  00000000  00000000  0011a1b8  2**2
                  CONTENTS, READONLY, DEBUGGING
 17 .debug_ranges 00001190  00000000  00000000  0011a1e8  2**3
                  CONTENTS, READONLY, DEBUGGING
 18 .thread_model 00000003  00000000  00000000  0011e643  2**0
                  CONTENTS, READONLY
 19 .cpu          00000003  00000000  00000000  0011e646  2**0
                  CONTENTS, READONLY
 20 .qsys         00000001  00000000  00000000  0011e649  2**0
                  CONTENTS, READONLY
 21 .simulation_enabled 00000001  00000000  00000000  0011e64a  2**0
                  CONTENTS, READONLY
 22 .sysid_hash   00000004  00000000  00000000  0011e64b  2**0
                  CONTENTS, READONLY
 23 .sysid_base   00000004  00000000  00000000  0011e64f  2**0
                  CONTENTS, READONLY
 24 .sysid_time   00000004  00000000  00000000  0011e653  2**0
                  CONTENTS, READONLY
 25 .stderr_dev   00000009  00000000  00000000  0011e657  2**0
                  CONTENTS, READONLY
 26 .stdin_dev    00000009  00000000  00000000  0011e660  2**0
                  CONTENTS, READONLY
 27 .stdout_dev   00000009  00000000  00000000  0011e669  2**0
                  CONTENTS, READONLY
 28 .sopc_system_name 0000000b  00000000  00000000  0011e672  2**0
                  CONTENTS, READONLY
 29 .quartus_project_dir 0000002f  00000000  00000000  0011e67d  2**0
                  CONTENTS, READONLY
 30 .sopcinfo     00087392  00000000  00000000  0011e6ac  2**0
                  CONTENTS, READONLY
SYMBOL TABLE:
00000000 l    d  .entry	00000000 .entry
00000020 l    d  .exceptions	00000000 .exceptions
00000244 l    d  .text	00000000 .text
00015128 l    d  .rodata	00000000 .rodata
000d0e30 l    d  .rwdata	00000000 .rwdata
000d46a0 l    d  .bss	00000000 .bss
001203e8 l    d  .sdram	00000000 .sdram
08000000 l    d  .sram	00000000 .sram
00000000 l    d  .comment	00000000 .comment
00000000 l    d  .debug_aranges	00000000 .debug_aranges
00000000 l    d  .debug_info	00000000 .debug_info
00000000 l    d  .debug_abbrev	00000000 .debug_abbrev
00000000 l    d  .debug_line	00000000 .debug_line
00000000 l    d  .debug_frame	00000000 .debug_frame
00000000 l    d  .debug_str	00000000 .debug_str
00000000 l    d  .debug_loc	00000000 .debug_loc
00000000 l    d  .debug_alt_sim_info	00000000 .debug_alt_sim_info
00000000 l    d  .debug_ranges	00000000 .debug_ranges
00000000 l    df *ABS*	00000000 ../ebook_1_bsp//obj/HAL/src/crt0.o
0000028c l       .text	00000000 alt_after_alt_main
00000000 l    df *ABS*	00000000 alt_irq_handler.c
00000000 l    df *ABS*	00000000 alt_instruction_exception_entry.c
00000000 l    df *ABS*	00000000 ascii_font.c
00000000 l    df *ABS*	00000000 color.c
00000000 l    df *ABS*	00000000 font_manage.c
00000000 l    df *ABS*	00000000 gbk_font.c
00000000 l    df *ABS*	00000000 icon_pic.c
00000000 l    df *ABS*	00000000 main.c
00000000 l    df *ABS*	00000000 screen.c
00000000 l    df *ABS*	00000000 screen_display.c
00000000 l    df *ABS*	00000000 time_count.c
00000000 l    df *ABS*	00000000 touch_resp.c
00000000 l    df *ABS*	00000000 txt_read.c
00000000 l    df *ABS*	00000000 lib2-divmod.c
000082f8 l     F .text	0000006c udivmodsi4
00000000 l    df *ABS*	00000000 mulsf3.c
00000000 l    df *ABS*	00000000 fixsfsi.c
00000000 l    df *ABS*	00000000 floatsisf.c
00000000 l    df *ABS*	00000000 libgcc2.c
00000000 l    df *ABS*	00000000 libgcc2.c
00000000 l    df *ABS*	00000000 malloc.c
00000000 l    df *ABS*	00000000 mallocr.c
00000000 l    df *ABS*	00000000 sbrkr.c
00000000 l    df *ABS*	00000000 sprintf.c
00000000 l    df *ABS*	00000000 strlen.c
00000000 l    df *ABS*	00000000 vfprintf.c
000d0bea l     O .rodata	00000010 zeroes.4166
000d0bfa l     O .rodata	00000010 blanks.4165
00000000 l    df *ABS*	00000000 dtoa.c
0000b368 l     F .text	00000200 quorem
00000000 l    df *ABS*	00000000 mallocr.c
00000000 l    df *ABS*	00000000 impure.c
000d1238 l     O .rwdata	00000424 impure_data
00000000 l    df *ABS*	00000000 int_errno.c
00000000 l    df *ABS*	00000000 locale.c
000d167c l     O .rwdata	00000020 lc_ctype_charset
000d165c l     O .rwdata	00000020 lc_message_charset
000d169c l     O .rwdata	00000038 lconv
00000000 l    df *ABS*	00000000 memchr.c
00000000 l    df *ABS*	00000000 memcpy.c
00000000 l    df *ABS*	00000000 mprec.c
000d0c2c l     O .rodata	0000000c p05.2678
00000000 l    df *ABS*	00000000 s_fpclassify.c
00000000 l    df *ABS*	00000000 strcmp.c
00000000 l    df *ABS*	00000000 vfprintf.c
000d0d50 l     O .rodata	00000010 zeroes.4110
000d0d60 l     O .rodata	00000010 blanks.4109
00000000 l    df *ABS*	00000000 mallocr.c
00000000 l    df *ABS*	00000000 memmove.c
00000000 l    df *ABS*	00000000 memset.c
00000000 l    df *ABS*	00000000 mallocr.c
00000000 l    df *ABS*	00000000 libgcc2.c
00000000 l    df *ABS*	00000000 libgcc2.c
00000000 l    df *ABS*	00000000 adddf3.c
00000000 l    df *ABS*	00000000 divdf3.c
00000000 l    df *ABS*	00000000 eqdf2.c
00000000 l    df *ABS*	00000000 gedf2.c
00000000 l    df *ABS*	00000000 ledf2.c
00000000 l    df *ABS*	00000000 muldf3.c
00000000 l    df *ABS*	00000000 subdf3.c
00000000 l    df *ABS*	00000000 fixdfsi.c
00000000 l    df *ABS*	00000000 floatsidf.c
00000000 l    df *ABS*	00000000 floatunsidf.c
00000000 l    df *ABS*	00000000 alt_load.c
00013048 l     F .text	00000064 alt_load_section
00000000 l    df *ABS*	00000000 alt_main.c
00000000 l    df *ABS*	00000000 alt_malloc_lock.c
00000000 l    df *ABS*	00000000 alt_sbrk.c
000d2a40 l     O .rwdata	00000004 heap_end
00000000 l    df *ABS*	00000000 alt_sys_init.c
00013294 l     F .text	00000038 alt_dev_reg
000d16d4 l     O .rwdata	00001060 jtag_uart
000d2734 l     O .rwdata	0000002c led_green
000d2760 l     O .rwdata	0000002c led_red
000d278c l     O .rwdata	0000002c push_buttons
000d27b8 l     O .rwdata	0000002c seg7_0to3
000d27e4 l     O .rwdata	0000002c seg7_4to7
000d2810 l     O .rwdata	0000002c slider_switch
000d283c l     O .rwdata	0000002c Altera_UP_SD_Card_Avalon_Interface_0
00000000 l    df *ABS*	00000000 altera_avalon_jtag_uart_fd.c
00000000 l    df *ABS*	00000000 altera_avalon_jtag_uart_init.c
000135b8 l     F .text	00000208 altera_avalon_jtag_uart_irq
000137c0 l     F .text	000000a8 altera_avalon_jtag_uart_timeout
00000000 l    df *ABS*	00000000 altera_avalon_jtag_uart_ioctl.c
00000000 l    df *ABS*	00000000 altera_avalon_jtag_uart_read.c
00000000 l    df *ABS*	00000000 altera_avalon_jtag_uart_write.c
00000000 l    df *ABS*	00000000 alt_alarm_start.c
00000000 l    df *ABS*	00000000 alt_close.c
00013f20 l     F .text	00000050 alt_get_errno
00000000 l    df *ABS*	00000000 alt_dcache_flush_all.c
00000000 l    df *ABS*	00000000 alt_dev.c
00014084 l     F .text	0000002c alt_dev_null_write
00000000 l    df *ABS*	00000000 alt_dev_llist_insert.c
000140b0 l     F .text	00000050 alt_get_errno
00000000 l    df *ABS*	00000000 alt_do_ctors.c
00000000 l    df *ABS*	00000000 alt_do_dtors.c
00000000 l    df *ABS*	00000000 alt_errno.c
00000000 l    df *ABS*	00000000 alt_icache_flush_all.c
00000000 l    df *ABS*	00000000 alt_io_redirect.c
0001428c l     F .text	000000c0 alt_open_fd
00000000 l    df *ABS*	00000000 alt_irq_register.c
00000000 l    df *ABS*	00000000 alt_irq_vars.c
00000000 l    df *ABS*	00000000 alt_open.c
00014574 l     F .text	00000050 alt_get_errno
000145c4 l     F .text	000000cc alt_file_locked
00000000 l    df *ABS*	00000000 alt_release_fd.c
00000000 l    df *ABS*	00000000 alt_tick.c
00000000 l    df *ABS*	00000000 altera_nios2_gen2_irq.c
00000000 l    df *ABS*	00000000 alt_find_dev.c
00000000 l    df *ABS*	00000000 alt_find_file.c
00000000 l    df *ABS*	00000000 alt_get_fd.c
00000000 l    df *ABS*	00000000 alt_icache_flush.c
00000000 l    df *ABS*	00000000 atexit.c
00000000 l    df *ABS*	00000000 exit.c
00000000 l    df *ABS*	00000000 memcmp.c
00000000 l    df *ABS*	00000000 __atexit.c
00000000 l    df *ABS*	00000000 __call_atexit.c
00000000 l    df *ABS*	00000000 alt_exit.c
000d46d4 g     O .bss	00000004 alt_instruction_exception_handler
000043e8 g     F .text	00000128 screenMainColorPickerInit
0000e1b8 g     F .text	00000074 _mprec_log10
0000e2a4 g     F .text	0000008c __any_on
000d0c38 g     O .rodata	00000028 __mprec_tinytens
0001312c g     F .text	00000078 alt_main
001202e8 g     O .bss	00000100 alt_irq
00006c20 g     F .text	0000020c showScreenPageInfo
000d2a68 g       *ABS*	00000000 __flash_rwdata_start
00011c14 g     F .text	00000084 .hidden __eqdf2
001203e8 g       *ABS*	00000000 __alt_heap_start
08000000 g       *ABS*	00000000 __alt_mem_sram
0000d0a4 g     F .text	0000007c _setlocale_r
00002d7c g     F .text	000002f8 setDefaultTagList
000131c4 g     F .text	00000020 __malloc_unlock
0000f73c g     F .text	0000015c memmove
0000d3a4 g     F .text	000000a8 _Balloc
00008848 g     F .text	00000078 .hidden __fixsfsi
00011c98 g     F .text	000000e0 .hidden __gtdf2
000149e4 g     F .text	00000020 altera_nios2_gen2_irq_init
00000000  w      *UND*	00000000 __errno
00000000 g     F .entry	0000001c __reset
000063c8 g     F .text	00000290 showTagIconGroup
00000020 g       *ABS*	00000000 __flash_exceptions_start
000d46ac g     O .bss	00000004 errno
00004b24 g     F .text	000003c0 showBkgAndBorder
0000e610 g     F .text	00001068 ___svfiprintf_internal_r
00004648 g     F .text	00000218 getXVaildRange
000d46c0 g     O .bss	00000004 alt_argv
000daa10 g       *ABS*	00000000 _gp
00006240 g     F .text	00000188 showTagGroup
000d2890 g     O .rwdata	00000180 alt_fd_list
00003520 g     F .text	000003ec ScreenMainPageInfoInit
000080a0 g     F .text	00000258 showScreen
00014a04 g     F .text	00000090 alt_find_dev
0000d26c g     F .text	00000138 memcpy
00012ed4 g     F .text	000000d0 .hidden __floatsidf
0001434c g     F .text	00000078 alt_io_redirect
00011d78 g     F .text	000000e0 .hidden __ltdf2
00007698 g     F .text	00000234 showScreenMainHome
00015128 g       *ABS*	00000000 __DTOR_END__
00014ce8 g     F .text	0000009c alt_exception_cause_generated_bad_addr
000017a8 g     F .text	00000204 setDefaultTagGroup
0000e330 g     F .text	00000074 __fpclassifyd
0000e114 g     F .text	000000a4 __ratio
00004ee4 g     F .text	00000234 showTextOrIcon
000139bc g     F .text	0000020c altera_avalon_jtag_uart_read
00008a58 g     F .text	00000014 malloc
00008414 g     F .text	00000008 .hidden __udivsi3
000d0c88 g     O .rodata	000000c8 __mprec_tens
00004860 g     F .text	000002c4 showBorder
0000d120 g     F .text	0000000c __locale_charset
00014c5c g     F .text	0000008c alt_icache_flush
000d46a8 g     O .bss	00000004 __malloc_top_pad
000d2a3c g     O .rwdata	00000004 __mb_cur_max
0000d150 g     F .text	0000000c _localeconv_r
000078cc g     F .text	00000250 showScreenMainBook
0011ffc8 g     O .bss	0000000c txtFilesInfoSpace
000d4900 g     O .bss	000006c8 tftlcdScreenInst
0000d7a4 g     F .text	0000003c __i2b
00009228 g     F .text	00000054 _sbrk_r
000057e8 g     F .text	000008d8 showTagWithYOffset
000d2a54 g     O .rwdata	00000004 alt_max_fd
000d46a4 g     O .bss	00000004 __malloc_max_sbrked_mem
000143c4 g     F .text	000001b0 alt_irq_register
00010aac g     F .text	0000089c .hidden __adddf3
0000debc g     F .text	0000011c __b2d
0001051c g     F .text	00000590 .hidden __umoddi3
000d2a34 g     O .rwdata	00000004 _global_impure_ptr
0000f9bc g     F .text	000005a0 _realloc_r
001203e8 g       *ABS*	00000000 __bss_end
00001370 g     F .text	000000dc setDefaultIconBlock
000148e0 g     F .text	00000104 alt_tick
000009c4 g     F .text	0000011c setDefaultTagBlock
0000ff5c g     F .text	000005c0 .hidden __udivdi3
0000044c g     F .text	00000090 setAreaRange
000d0c60 g     O .rodata	00000028 __mprec_bigtens
0000d588 g     F .text	00000104 __s2b
00012fa4 g     F .text	000000a4 .hidden __floatunsidf
0000dc64 g     F .text	00000060 __mcmp
00014848 g     F .text	00000098 alt_alarm_stop
000d46c8 g     O .bss	00000004 alt_irq_active
0011ffd4 g     O .bss	000002df txtBookSpace
000000fc g     F .exceptions	000000d4 alt_irq_handler
000d2868 g     O .rwdata	00000028 alt_dev_null
00007fbc g     F .text	000000e4 showScreenMainColorPicker
000d2a18 g     O .rwdata	00000008 icon_minus
000023c0 g     F .text	0000034c screenFooterInit
00014040 g     F .text	00000044 alt_dcache_flush_all
0000d68c g     F .text	00000068 __hi0bits
00012e4c g     F .text	00000088 .hidden __fixdfsi
000014ec g     F .text	00000128 getWordLetterArrange
000d2a68 g       *ABS*	00000000 __ram_rwdata_end
000d2a4c g     O .rwdata	00000008 alt_dev_list
000d0e30 g       *ABS*	00000000 __ram_rodata_end
00011d78 g     F .text	000000e0 .hidden __ledf2
0000d9dc g     F .text	00000140 __pow5mult
000d46b8 g     O .bss	00000004 __nlocale_changed
0000841c g     F .text	00000008 .hidden __umodsi3
00000e24 g     F .text	0000054c setDefaultScrollBarY
001203e8 g       *ABS*	00000000 end
00013500 g     F .text	000000b8 altera_avalon_jtag_uart_init
000001d0 g     F .exceptions	00000074 alt_instruction_exception_entry
00015128 g       *ABS*	00000000 __CTOR_LIST__
08000000 g       *ABS*	00000000 __alt_stack_pointer
000089f4 g     F .text	00000064 .hidden __clzsi2
000019ac g     F .text	00000520 setDefaultNumEditGroup
00004510 g     F .text	00000070 screenMainAreaInfo
00013bc8 g     F .text	00000218 altera_avalon_jtag_uart_write
0000d184 g     F .text	000000e8 memchr
0000927c g     F .text	00000058 _sprintf_r
0000cdb4 g     F .text	000002f0 _free_r
0000d12c g     F .text	00000010 __locale_mb_cur_max
00014f60 g     F .text	00000194 __call_exitprocs
000d46b4 g     O .bss	00000004 __mlocale_changed
000d2a2c g     O .rwdata	00000004 __malloc_sbrk_base
00000244 g     F .text	0000004c _start
000d46cc g     O .bss	00000004 _alt_tick_rate
0000db1c g     F .text	00000148 __lshift
00006fcc g     F .text	000003dc showColorBoard
000d46d0 g     O .bss	00000004 _alt_nticks
00013300 g     F .text	0000009c alt_sys_init
000088c0 g     F .text	00000134 .hidden __floatsisf
0000e448 g     F .text	000001c8 __ssprint_r
00014e4c g     F .text	00000114 __register_exitproc
000004dc g     F .text	00000258 setAreaRangeByAreaFmt
000d09c8 g     O .rodata	00000020 icon_home
0000d7e0 g     F .text	000001fc __multiply
00013868 g     F .text	00000068 altera_avalon_jtag_uart_close
000d0e30 g       *ABS*	00000000 __ram_rwdata_start
00015128 g       *ABS*	00000000 __ram_rodata_start
000d46d8 g     O .bss	00000028 __malloc_current_mallinfo
0000dfd8 g     F .text	0000013c __d2b
0001339c g     F .text	00000060 altera_avalon_jtag_uart_read_fd
00014ba8 g     F .text	000000b4 alt_get_fd
00014dd0 g     F .text	0000007c memcmp
0001345c g     F .text	00000050 altera_avalon_jtag_uart_close_fd
001203e8 g       *ABS*	00000000 __alt_stack_base
000134ac g     F .text	00000054 altera_avalon_jtag_uart_ioctl_fd
00011348 g     F .text	000008cc .hidden __divdf3
0000e22c g     F .text	00000078 __copybits
000d2a28 g     O .rwdata	00000004 str1
000d0e30 g     O .rwdata	00000408 __malloc_av_
00000734 g     F .text	0000010c setAreaFmt
00011e58 g     F .text	00000724 .hidden __muldf3
0000748c g     F .text	0000020c showScreenFooter
00014a94 g     F .text	00000114 alt_find_file
00014100 g     F .text	000000a4 alt_dev_llist_insert
000131a4 g     F .text	00000020 __malloc_lock
000131e4 g     F .text	000000b0 sbrk
000093d8 g     F .text	00001f90 ___svfprintf_internal_r
0000f678 g     F .text	000000c4 _calloc_r
000d4700 g     O .bss	00000200 color_form
000d46a0 g       *ABS*	00000000 __bss_start
0000f898 g     F .text	00000124 memset
000003bc g     F .text	00000090 main
000d46c4 g     O .bss	00000004 alt_envp
000d46a0 g     O .bss	00000004 __malloc_max_total_mem
00007b1c g     F .text	000004a0 showScreenMainSetting
000d2a20 g     O .rwdata	00000008 defaultColorInfo
000133fc g     F .text	00000060 altera_avalon_jtag_uart_write_fd
000d0a08 g     O .rodata	00000018 icon_dot
08000000 g       *ABS*	00000000 __alt_heap_limit
0000b568 g     F .text	00001728 _dtoa_r
00008a80 g     F .text	000007a8 _malloc_r
00003074 g     F .text	000004ac screenMainBookInit
000d2a58 g     O .rwdata	00000004 alt_errno
00006968 g     F .text	000002b8 showScrollBarY
00008364 g     F .text	00000054 .hidden __divsi3
0000cc90 g     F .text	00000124 _malloc_trim_r
00015128 g       *ABS*	00000000 __CTOR_END__
00008424 g     F .text	00000424 .hidden __mulsf3
0000e3a4 g     F .text	000000a4 strcmp
00015128 g       *ABS*	00000000 __flash_rodata_start
00015128 g       *ABS*	00000000 __DTOR_LIST__
00000ae0 g     F .text	00000344 setDefaultProgressBarX
00004580 g     F .text	000000c8 getAbsPos
00011c14 g     F .text	00000084 .hidden __nedf2
000132cc g     F .text	00000034 alt_irq_init
00015128 g     O .rodata	00000800 ascii_font_x8y16
000147e8 g     F .text	00000060 alt_release_fd
000092d4 g     F .text	0000006c sprintf
000d0aa8 g     O .rodata	00000100 .hidden __clz_tab
000d46b0 g     O .bss	00000004 _PathLocale
00014d84 g     F .text	00000014 atexit
0000d15c g     F .text	0000001c setlocale
0000144c g     F .text	000000a0 setDefaultColorBoard
00015928 g     O .rodata	000bb080 gbk_font_x16y16
00001614 g     F .text	00000194 getWidthOfText
000d2a38 g     O .rwdata	00000004 _impure_ptr
000d46bc g     O .bss	00000004 alt_argc
00014200 g     F .text	0000005c _do_dtors
0000d148 g     F .text	00000008 __locale_cjk_lang
0000270c g     F .text	00000670 screenMainHomeInit
0000390c g     F .text	00000adc screenMainSettingInit
000002dc g     F .text	000000e0 getGbkFont
00000840 g     F .text	00000184 setAreaRangeCentered
00000020 g       .exceptions	00000000 alt_irq_entry
0000de5c g     F .text	00000060 __ulp
000d2a44 g     O .rwdata	00000008 alt_fs_list
00000290 g     F .text	0000004c getAsciiFont
000d09e8 g     O .rodata	00000020 icon_back
00000020 g       *ABS*	00000000 __ram_exceptions_start
0000d178 g     F .text	0000000c localeconv
000d09a8 g     O .rodata	00000020 icon_setting
000d2a68 g       *ABS*	00000000 _edata
000d4fc8 g     O .bss	0004b000 screenShowSpace
000d0a30 g     O .rodata	00000010 icon_move_down
001203e8 g       *ABS*	00000000 _end
00000244 g       *ABS*	00000000 __ram_exceptions_end
000138d0 g     F .text	000000ec altera_avalon_jtag_uart_ioctl
001202b3 g     O .bss	00000033 sdCardFileName
000d2a30 g     O .rwdata	00000004 __malloc_trim_threshold
0000d13c g     F .text	0000000c __locale_msgcharset
00014d98 g     F .text	00000038 exit
0000dcc4 g     F .text	00000198 __mdiff
00002214 g     F .text	000001ac screenHeaderInit
00006e2c g     F .text	000001a0 showProgressBarX
000083b8 g     F .text	0000005c .hidden __modsi3
08000000 g       *ABS*	00000000 __alt_data_end
00000020 g     F .exceptions	00000000 alt_exception
00000000 g       *ABS*	00000000 __alt_mem_sdram
00001ecc g     F .text	00000348 screenInit
000150f4 g     F .text	00000034 _exit
00013de0 g     F .text	00000140 alt_alarm_start
00009340 g     F .text	00000098 strlen
00014690 g     F .text	00000158 open
00011c98 g     F .text	000000e0 .hidden __gedf2
0001425c g     F .text	00000030 alt_icache_flush_all
000d2a5c g     O .rwdata	00000004 alt_priority_mask
000d0a20 g     O .rodata	00000010 icon_move_up
000060c0 g     F .text	00000180 showIconBlock
0001257c g     F .text	000008d0 .hidden __subdf3
000d2a10 g     O .rwdata	00000008 icon_plus
0000d6f4 g     F .text	000000b0 __lo0bits
000d2a60 g     O .rwdata	00000008 alt_alarm_list
00006658 g     F .text	00000310 showTagList
000141a4 g     F .text	0000005c _do_ctors
00013f70 g     F .text	000000d0 close
00005118 g     F .text	000006d0 showTagBlock
000130ac g     F .text	00000080 alt_load
00008a6c g     F .text	00000014 free
0000d474 g     F .text	00000114 __multadd
000073a8 g     F .text	000000e4 showScreenHeader
0000d44c g     F .text	00000028 _Bfree



Disassembly of section .entry:

00000000 <__reset>:
#if NIOS2_ICACHE_SIZE > 0 && defined(ALT_ALLOW_CODE_AT_RESET) && (!defined(ALT_SIM_OPTIMIZE) || defined(NIOS2_ECC_PRESENT))
    /* Assume the instruction cache size is always a power of two. */
#if NIOS2_ICACHE_SIZE > 0x8000
    movhi r2, %hi(NIOS2_ICACHE_SIZE)
#else
    movui r2, NIOS2_ICACHE_SIZE
   0:	00840014 	movui	r2,4096
#endif

0:
    initi r2
   4:	1001483a 	initi	r2
    addi r2, r2, -NIOS2_ICACHE_LINE_SIZE
   8:	10bff804 	addi	r2,r2,-32
    bgt r2, zero, 0b
   c:	00bffd16 	blt	zero,r2,4 <__alt_data_end+0xf8000004>
 * Jump to the _start entry point in the .text section if reset code
 * is allowed or if optimizing for RTL simulation.
 */
#if defined(ALT_ALLOW_CODE_AT_RESET) || defined(ALT_SIM_OPTIMIZE)
    /* Jump to the _start entry point in the .text section. */
    movhi r1, %hi(_start)
  10:	00400034 	movhi	at,0
    ori r1, r1, %lo(_start)
  14:	08409114 	ori	at,at,580
    jmp r1
  18:	0800683a 	jmp	at
  1c:	00000000 	call	0 <__reset>

Disassembly of section .exceptions:

00000020 <alt_exception>:

#else /* ALT_EXCEPTION_STACK disabled */
        /* 
         * Reserve space on normal stack for registers about to be pushed.
         */
        addi  sp, sp, -76
  20:	deffed04 	addi	sp,sp,-76
         * documentation for details).
         *
         * Leave a gap in the stack frame at 4(sp) for the muldiv handler to
         * store zero into.
         */
        stw   ra,  0(sp)
  24:	dfc00015 	stw	ra,0(sp)
        stw   r1,   8(sp)
  28:	d8400215 	stw	at,8(sp)
        stw   r2,  12(sp)
  2c:	d8800315 	stw	r2,12(sp)
        stw   r3,  16(sp)
  30:	d8c00415 	stw	r3,16(sp)
        stw   r4,  20(sp)
  34:	d9000515 	stw	r4,20(sp)
        stw   r5,  24(sp)
  38:	d9400615 	stw	r5,24(sp)
        stw   r6,  28(sp)
  3c:	d9800715 	stw	r6,28(sp)
        stw   r7,  32(sp)
  40:	d9c00815 	stw	r7,32(sp)
        rdctl r5, estatus   /* Read early to avoid usage stall */
  44:	000b307a 	rdctl	r5,estatus
        stw   r8,  36(sp)
  48:	da000915 	stw	r8,36(sp)
        stw   r9,  40(sp)
  4c:	da400a15 	stw	r9,40(sp)
        stw   r10, 44(sp)
  50:	da800b15 	stw	r10,44(sp)
        stw   r11, 48(sp)
  54:	dac00c15 	stw	r11,48(sp)
        stw   r12, 52(sp)
  58:	db000d15 	stw	r12,52(sp)
        stw   r13, 56(sp)
  5c:	db400e15 	stw	r13,56(sp)
        stw   r14, 60(sp)
  60:	db800f15 	stw	r14,60(sp)
        stw   r15, 64(sp)
  64:	dbc01015 	stw	r15,64(sp)
        /*
         * ea-4 contains the address of the instruction being executed
         * when the exception occured. For interrupt exceptions, we will
         * will be re-issue the isntruction. Store it in 72(sp)
         */
        stw   r5,  68(sp)  /* estatus */
  68:	d9401115 	stw	r5,68(sp)
        addi  r15, ea, -4  /* instruction that caused exception */
  6c:	ebffff04 	addi	r15,ea,-4
        stw   r15,  72(sp)
  70:	dbc01215 	stw	r15,72(sp)
#else
        /*
         * Test to see if the exception was a software exception or caused 
         * by an external interrupt, and vector accordingly.
         */
        rdctl r4, ipending
  74:	0009313a 	rdctl	r4,ipending
        andi  r2, r5, 1
  78:	2880004c 	andi	r2,r5,1
        beq   r2, zero, .Lnot_irq
  7c:	10000326 	beq	r2,zero,8c <alt_exception+0x6c>
        beq   r4, zero, .Lnot_irq
  80:	20000226 	beq	r4,zero,8c <alt_exception+0x6c>
        /*
         * Now that all necessary registers have been preserved, call 
         * alt_irq_handler() to process the interrupts.
         */

        call alt_irq_handler
  84:	00000fc0 	call	fc <alt_irq_handler>

        .section .exceptions.irqreturn, "xa"

        br    .Lexception_exit
  88:	00000706 	br	a8 <alt_exception+0x88>
         * upon completion, so we write ea (address of instruction *after*
         * the one where the exception occured) into 72(sp). The actual
         * instruction that caused the exception is written in r2, which these
         * handlers will utilize.
         */
        stw   ea,  72(sp)  /* Don't re-issue */
  8c:	df401215 	stw	ea,72(sp)
        ldhu.n  r2, 0(r4)
        ldhu.n  r3, 2(r4)
        slli.n  r3, r3, 16
        or.n    r2, r2, r3 /* Instruction that caused exception */
#else
        ldw   r2, -4(ea)   /* Instruction that caused exception */
  90:	e8bfff17 	ldw	r2,-4(ea)
         * debugger is present) or go into an infinite loop since the
         * handling behavior is undefined; in that case we will not return here.
         */

        /* Load exception-causing address as first argument (r4) */
        addi   r4, ea, -4
  94:	e93fff04 	addi	r4,ea,-4

        /* Call the instruction-exception entry */
        call   alt_instruction_exception_entry
  98:	00001d00 	call	1d0 <alt_instruction_exception_entry>
         * instruction
         *
         * Return code was 0: Skip. The instruction after the exception is
         * already stored in 72(sp).
         */
        bne   r2, r0, .Lexception_exit
  9c:	1000021e 	bne	r2,zero,a8 <alt_exception+0x88>

        /*
         * Otherwise, modify 72(sp) to re-issue the instruction that caused the
         * exception.
         */
        addi  r15, ea, -4  /* instruction that caused exception */
  a0:	ebffff04 	addi	r15,ea,-4
        stw   r15,  72(sp)
  a4:	dbc01215 	stw	r15,72(sp)
        /* 
         * Restore the saved registers, so that all general purpose registers 
         * have been restored to their state at the time the interrupt occured.
         */

        ldw   r5,  68(sp)
  a8:	d9401117 	ldw	r5,68(sp)
        ldw   ea,  72(sp)  /* This becomes the PC once eret is executed */
  ac:	df401217 	ldw	ea,72(sp)
        ldw   ra,   0(sp)
  b0:	dfc00017 	ldw	ra,0(sp)

        wrctl estatus, r5
  b4:	2801707a 	wrctl	estatus,r5

        ldw   r1,   8(sp)
  b8:	d8400217 	ldw	at,8(sp)
        ldw   r2,  12(sp)
  bc:	d8800317 	ldw	r2,12(sp)
        ldw   r3,  16(sp)
  c0:	d8c00417 	ldw	r3,16(sp)
        ldw   r4,  20(sp)
  c4:	d9000517 	ldw	r4,20(sp)
        ldw   r5,  24(sp)
  c8:	d9400617 	ldw	r5,24(sp)
        ldw   r6,  28(sp)
  cc:	d9800717 	ldw	r6,28(sp)
        ldw   r7,  32(sp)
  d0:	d9c00817 	ldw	r7,32(sp)

#if defined(ALT_EXCEPTION_STACK) && defined(ALT_STACK_CHECK)
        ldw   et, %gprel(alt_exception_old_stack_limit)(gp)
#endif

        ldw   r8,  36(sp)
  d4:	da000917 	ldw	r8,36(sp)
        ldw   r9,  40(sp)
  d8:	da400a17 	ldw	r9,40(sp)
        ldw   r10, 44(sp)
  dc:	da800b17 	ldw	r10,44(sp)
        ldw   r11, 48(sp)
  e0:	dac00c17 	ldw	r11,48(sp)
        ldw   r12, 52(sp)
  e4:	db000d17 	ldw	r12,52(sp)
        ldw   r13, 56(sp)
  e8:	db400e17 	ldw	r13,56(sp)
        ldw   r14, 60(sp)
  ec:	db800f17 	ldw	r14,60(sp)
        ldw   r15, 64(sp)
  f0:	dbc01017 	ldw	r15,64(sp)
        stw   et, %gprel(alt_stack_limit_value)(gp)
        stw   zero, %gprel(alt_exception_old_stack_limit)(gp)
#endif /* ALT_STACK_CHECK */
        ldw   sp,  76(sp)
#else /* ALT_EXCEPTION_STACK disabled */
        addi  sp, sp, 76
  f4:	dec01304 	addi	sp,sp,76

        /*
         * Return to the interrupted instruction.
         */

        eret
  f8:	ef80083a 	eret

000000fc <alt_irq_handler>:
 * instruction is present if the macro ALT_CI_INTERRUPT_VECTOR defined.
 */

void alt_irq_handler (void) __attribute__ ((section (".exceptions")));
void alt_irq_handler (void)
{
  fc:	defff904 	addi	sp,sp,-28
 100:	dfc00615 	stw	ra,24(sp)
 104:	df000515 	stw	fp,20(sp)
 108:	df000504 	addi	fp,sp,20
  
  /*
   * Notify the operating system that we are at interrupt level.
   */ 
  
  ALT_OS_INT_ENTER();
 10c:	0001883a 	nop
#ifndef NIOS2_EIC_PRESENT
static ALT_INLINE alt_u32 ALT_ALWAYS_INLINE alt_irq_pending (void)
{
  alt_u32 active;

  NIOS2_READ_IPENDING (active);
 110:	0005313a 	rdctl	r2,ipending
 114:	e0bffe15 	stw	r2,-8(fp)

  return active;
 118:	e0bffe17 	ldw	r2,-8(fp)
   * Consider the case where the high priority interupt is asserted during
   * the interrupt entry sequence for a lower priority interrupt to see why
   * this is the case.
   */

  active = alt_irq_pending ();
 11c:	e0bffb15 	stw	r2,-20(fp)

  do
  {
    i = 0;
 120:	e03ffd15 	stw	zero,-12(fp)
    mask = 1;
 124:	00800044 	movi	r2,1
 128:	e0bffc15 	stw	r2,-16(fp)
     * called to clear the interrupt condition.
     */

    do
    {
      if (active & mask)
 12c:	e0fffb17 	ldw	r3,-20(fp)
 130:	e0bffc17 	ldw	r2,-16(fp)
 134:	1884703a 	and	r2,r3,r2
 138:	10001526 	beq	r2,zero,190 <alt_irq_handler+0x94>
      { 
#ifdef ALT_ENHANCED_INTERRUPT_API_PRESENT
        alt_irq[i].handler(alt_irq[i].context); 
#else
        alt_irq[i].handler(alt_irq[i].context, i); 
 13c:	008004b4 	movhi	r2,18
 140:	1080ba04 	addi	r2,r2,744
 144:	e0fffd17 	ldw	r3,-12(fp)
 148:	180690fa 	slli	r3,r3,3
 14c:	10c5883a 	add	r2,r2,r3
 150:	10c00017 	ldw	r3,0(r2)
 154:	008004b4 	movhi	r2,18
 158:	1080ba04 	addi	r2,r2,744
 15c:	e13ffd17 	ldw	r4,-12(fp)
 160:	200890fa 	slli	r4,r4,3
 164:	1105883a 	add	r2,r2,r4
 168:	10800104 	addi	r2,r2,4
 16c:	10800017 	ldw	r2,0(r2)
 170:	1009883a 	mov	r4,r2
 174:	e17ffd17 	ldw	r5,-12(fp)
 178:	183ee83a 	callr	r3
#endif
        break;
 17c:	0001883a 	nop
#ifndef NIOS2_EIC_PRESENT
static ALT_INLINE alt_u32 ALT_ALWAYS_INLINE alt_irq_pending (void)
{
  alt_u32 active;

  NIOS2_READ_IPENDING (active);
 180:	0005313a 	rdctl	r2,ipending
 184:	e0bfff15 	stw	r2,-4(fp)

  return active;
 188:	e0bfff17 	ldw	r2,-4(fp)
 18c:	00000706 	br	1ac <alt_irq_handler+0xb0>
      }
      mask <<= 1;
 190:	e0bffc17 	ldw	r2,-16(fp)
 194:	1085883a 	add	r2,r2,r2
 198:	e0bffc15 	stw	r2,-16(fp)
      i++;
 19c:	e0bffd17 	ldw	r2,-12(fp)
 1a0:	10800044 	addi	r2,r2,1
 1a4:	e0bffd15 	stw	r2,-12(fp)

    } while (1);
 1a8:	003fe006 	br	12c <__alt_data_end+0xf800012c>

    active = alt_irq_pending ();
 1ac:	e0bffb15 	stw	r2,-20(fp)
    
  } while (active);
 1b0:	e0bffb17 	ldw	r2,-20(fp)
 1b4:	103fda1e 	bne	r2,zero,120 <__alt_data_end+0xf8000120>

  /*
   * Notify the operating system that interrupt processing is complete.
   */ 

  ALT_OS_INT_EXIT();
 1b8:	0001883a 	nop
}
 1bc:	e037883a 	mov	sp,fp
 1c0:	dfc00117 	ldw	ra,4(sp)
 1c4:	df000017 	ldw	fp,0(sp)
 1c8:	dec00204 	addi	sp,sp,8
 1cc:	f800283a 	ret

000001d0 <alt_instruction_exception_entry>:
 * that handler if it has been registered. Absent a handler, it will
 * break break or hang as discussed below.
 */
int 
alt_instruction_exception_entry (alt_u32 exception_pc)
{
 1d0:	defffb04 	addi	sp,sp,-20
 1d4:	dfc00415 	stw	ra,16(sp)
 1d8:	df000315 	stw	fp,12(sp)
 1dc:	df000304 	addi	fp,sp,12
 1e0:	e13fff15 	stw	r4,-4(fp)
 * NIOS2_EXCEPTION_CAUSE_NOT_PRESENT. Your handling routine should
 * check the validity of the cause argument before proceeding.
 */
#ifdef NIOS2_HAS_EXTRA_EXCEPTION_INFO
  /* Get exception cause & "badaddr" */
  NIOS2_READ_EXCEPTION(cause);
 1e4:	000531fa 	rdctl	r2,exception
 1e8:	e0bffd15 	stw	r2,-12(fp)
  cause = ( (cause & NIOS2_EXCEPTION_REG_CAUSE_MASK) >>
 1ec:	e0bffd17 	ldw	r2,-12(fp)
 1f0:	10801f0c 	andi	r2,r2,124
 1f4:	1004d0ba 	srli	r2,r2,2
 1f8:	e0bffd15 	stw	r2,-12(fp)
              NIOS2_EXCEPTION_REG_CAUSE_OFST );

  NIOS2_READ_BADADDR(badaddr);
 1fc:	0005333a 	rdctl	r2,badaddr
 200:	e0bffe15 	stw	r2,-8(fp)
#else
  cause = NIOS2_EXCEPTION_CAUSE_NOT_PRESENT;
  badaddr = 0;
#endif /* NIOS2_HAS_EXTRA_EXCEPTION_INFO */

  if(alt_instruction_exception_handler) {
 204:	d0a73117 	ldw	r2,-25404(gp)
 208:	10000726 	beq	r2,zero,228 <alt_instruction_exception_entry+0x58>
     * Call handler. Its return value indicates whether the exception-causing
     * instruction should be re-issued. The code that called us,
     * alt_eceptions_entry.S, will look at this value and adjust the ea
     * register as necessary
     */
    return alt_instruction_exception_handler(cause, exception_pc, badaddr);
 20c:	d0a73117 	ldw	r2,-25404(gp)
 210:	e0fffd17 	ldw	r3,-12(fp)
 214:	1809883a 	mov	r4,r3
 218:	e17fff17 	ldw	r5,-4(fp)
 21c:	e1bffe17 	ldw	r6,-8(fp)
 220:	103ee83a 	callr	r2
 224:	00000206 	br	230 <alt_instruction_exception_entry+0x60>
   *    (a peripheral which negates its interrupt output before its
   *    interrupt handler has been executed will cause spurious interrupts)
   */
  else {
#ifdef NIOS2_HAS_DEBUG_STUB
    NIOS2_BREAK();
 228:	003da03a 	break	0
      ;
#endif /* NIOS2_HAS_DEBUG_STUB */
  }

  /* We should not get here. Remove compiler warning. */
  return NIOS2_EXCEPTION_RETURN_REISSUE_INST;
 22c:	0005883a 	mov	r2,zero
}
 230:	e037883a 	mov	sp,fp
 234:	dfc00117 	ldw	ra,4(sp)
 238:	df000017 	ldw	fp,0(sp)
 23c:	dec00204 	addi	sp,sp,8
 240:	f800283a 	ret

Disassembly of section .text:

00000244 <_start>:

    /* Assume the data cache size is always a power of two. */
#if NIOS2_DCACHE_SIZE > 0x8000
    movhi r2, %hi(NIOS2_DCACHE_SIZE)
#else
    movui r2, NIOS2_DCACHE_SIZE
     244:	00820014 	movui	r2,2048
#endif

0:
    initd 0(r2)
     248:	10000033 	initd	0(r2)
#ifdef NIOS2_ECC_PRESENT
    addi r2, r2, -4
#else
    addi r2, r2, -NIOS2_DCACHE_LINE_SIZE
     24c:	10bff804 	addi	r2,r2,-32
#endif
    bgt r2, zero, 0b
     250:	00bffd16 	blt	zero,r2,248 <__alt_data_end+0xf8000248>

    /*
     * Now that the caches are initialized, set up the stack pointer and global pointer.
     * The values provided by the linker are assumed to be correctly aligned.
     */
    movhi sp, %hi(__alt_stack_pointer)
     254:	06c20034 	movhi	sp,2048
    ori sp, sp, %lo(__alt_stack_pointer)
     258:	dec00014 	ori	sp,sp,0
    movhi gp, %hi(_gp)
     25c:	06800374 	movhi	gp,13
    ori gp, gp, %lo(_gp)
     260:	d6aa8414 	ori	gp,gp,43536
 */
#ifndef ALT_SIM_OPTIMIZE
    /* Log that the BSS is about to be cleared. */
    ALT_LOG_PUTS(alt_log_msg_bss)

    movhi r2, %hi(__bss_start)
     264:	00800374 	movhi	r2,13
    ori r2, r2, %lo(__bss_start)
     268:	1091a814 	ori	r2,r2,18080

    movhi r3, %hi(__bss_end)
     26c:	00c004b4 	movhi	r3,18
    ori r3, r3, %lo(__bss_end)
     270:	18c0fa14 	ori	r3,r3,1000

    beq r2, r3, 1f
     274:	10c00326 	beq	r2,r3,284 <_start+0x40>

0:
    stw zero, (r2)
     278:	10000015 	stw	zero,0(r2)
    addi r2, r2, 4
     27c:	10800104 	addi	r2,r2,4
    bltu r2, r3, 0b
     280:	10fffd36 	bltu	r2,r3,278 <__alt_data_end+0xf8000278>
     * section aren't defined until alt_load() has been called).
     */
    mov   et, zero
#endif

    call alt_load
     284:	00130ac0 	call	130ac <alt_load>

    /* Log that alt_main is about to be called. */
    ALT_LOG_PUTS(alt_log_msg_alt_main)

    /* Call the C entry point. It should never return. */
    call alt_main
     288:	001312c0 	call	1312c <alt_main>

0000028c <alt_after_alt_main>:

    /* Wait in infinite loop in case alt_main does return. */
alt_after_alt_main:
    br alt_after_alt_main
     28c:	003fff06 	br	28c <__alt_data_end+0xf800028c>

00000290 <getAsciiFont>:
#include "font_manage.h"

extern const alt_u8 ascii_font_x8y16[];

alt_u8 *getAsciiFont( char asciiVal )
{
     290:	defffe04 	addi	sp,sp,-8
     294:	df000115 	stw	fp,4(sp)
     298:	df000104 	addi	fp,sp,4
     29c:	2005883a 	mov	r2,r4
     2a0:	e0bfff05 	stb	r2,-4(fp)
	if ( asciiVal < 0 )
     2a4:	e0bfff07 	ldb	r2,-4(fp)
     2a8:	1000020e 	bge	r2,zero,2b4 <getAsciiFont+0x24>
	{
		return (void*)0;
     2ac:	0005883a 	mov	r2,zero
     2b0:	00000606 	br	2cc <getAsciiFont+0x3c>
	}
	//ASCII码范围是0~127
	return ascii_font_x8y16 + (((int)asciiVal)*ASCII_LETTER_BYTES);
     2b4:	e0bfff07 	ldb	r2,-4(fp)
     2b8:	1004913a 	slli	r2,r2,4
     2bc:	1007883a 	mov	r3,r2
     2c0:	00800074 	movhi	r2,1
     2c4:	10944a04 	addi	r2,r2,20776
     2c8:	1885883a 	add	r2,r3,r2
}
     2cc:	e037883a 	mov	sp,fp
     2d0:	df000017 	ldw	fp,0(sp)
     2d4:	dec00104 	addi	sp,sp,4
     2d8:	f800283a 	ret

000002dc <getGbkFont>:

extern const alt_u8 gbk_font_x16y16[];

alt_u8 *getGbkFont( alt_u8 gbkHighByte, alt_u8 gbkLowByte )
{
     2dc:	defffc04 	addi	sp,sp,-16
     2e0:	df000315 	stw	fp,12(sp)
     2e4:	df000304 	addi	fp,sp,12
     2e8:	2007883a 	mov	r3,r4
     2ec:	2805883a 	mov	r2,r5
     2f0:	e0fffe05 	stb	r3,-8(fp)
     2f4:	e0bfff05 	stb	r2,-4(fp)

	if ( gbkLowByte < 0x40 )//非GBK编码
     2f8:	e0bfff03 	ldbu	r2,-4(fp)
     2fc:	10801028 	cmpgeui	r2,r2,64
     300:	1000021e 	bne	r2,zero,30c <getGbkFont+0x30>
	{
		return (void*)0;
     304:	0005883a 	mov	r2,zero
     308:	00002806 	br	3ac <getGbkFont+0xd0>
	}
	else
	{
		int wordPos = ( gbkHighByte - 0x81 ) * 190;
     30c:	e0bffe03 	ldbu	r2,-8(fp)
     310:	10bfdfc4 	addi	r2,r2,-129
     314:	10802fa4 	muli	r2,r2,190
     318:	e0bffd15 	stw	r2,-12(fp)
		if ( gbkLowByte < 0x7F )
     31c:	e0bfff03 	ldbu	r2,-4(fp)
     320:	10801fe8 	cmpgeui	r2,r2,127
     324:	10000c1e 	bne	r2,zero,358 <getGbkFont+0x7c>
		{
			wordPos = wordPos + gbkLowByte - 0x40;
     328:	e0ffff03 	ldbu	r3,-4(fp)
     32c:	e0bffd17 	ldw	r2,-12(fp)
     330:	1885883a 	add	r2,r3,r2
     334:	10bff004 	addi	r2,r2,-64
     338:	e0bffd15 	stw	r2,-12(fp)
			return gbk_font_x16y16 + (wordPos*GBK_WORD_BYTES);
     33c:	e0bffd17 	ldw	r2,-12(fp)
     340:	1004917a 	slli	r2,r2,5
     344:	1007883a 	mov	r3,r2
     348:	00800074 	movhi	r2,1
     34c:	10964a04 	addi	r2,r2,22824
     350:	1885883a 	add	r2,r3,r2
     354:	00001506 	br	3ac <getGbkFont+0xd0>
		}
		else if ( gbkLowByte > 0x7F && gbkLowByte < 0xFF )
     358:	e0bfff03 	ldbu	r2,-4(fp)
     35c:	10803fcc 	andi	r2,r2,255
     360:	1080201c 	xori	r2,r2,128
     364:	10bfe004 	addi	r2,r2,-128
     368:	10000f0e 	bge	r2,zero,3a8 <getGbkFont+0xcc>
     36c:	e0bfff03 	ldbu	r2,-4(fp)
     370:	10803fe0 	cmpeqi	r2,r2,255
     374:	10000c1e 	bne	r2,zero,3a8 <getGbkFont+0xcc>
		{
			wordPos = wordPos + gbkLowByte - 0x41;
     378:	e0ffff03 	ldbu	r3,-4(fp)
     37c:	e0bffd17 	ldw	r2,-12(fp)
     380:	1885883a 	add	r2,r3,r2
     384:	10bfefc4 	addi	r2,r2,-65
     388:	e0bffd15 	stw	r2,-12(fp)
			return gbk_font_x16y16 + (wordPos*GBK_WORD_BYTES);
     38c:	e0bffd17 	ldw	r2,-12(fp)
     390:	1004917a 	slli	r2,r2,5
     394:	1007883a 	mov	r3,r2
     398:	00800074 	movhi	r2,1
     39c:	10964a04 	addi	r2,r2,22824
     3a0:	1885883a 	add	r2,r3,r2
     3a4:	00000106 	br	3ac <getGbkFont+0xd0>
		}
		else
		{
			return (void*)0;
     3a8:	0005883a 	mov	r2,zero
		}
	}
}
     3ac:	e037883a 	mov	sp,fp
     3b0:	df000017 	ldw	fp,0(sp)
     3b4:	dec00104 	addi	sp,sp,4
     3b8:	f800283a 	ret

000003bc <main>:

#include "screen.h"
#include "screen_display.h"

int main( void )
{
     3bc:	defffd04 	addi	sp,sp,-12
     3c0:	dfc00215 	stw	ra,8(sp)
     3c4:	df000115 	stw	fp,4(sp)
     3c8:	df000104 	addi	fp,sp,4

	bool status = true;
     3cc:	00800044 	movi	r2,1
     3d0:	e0bfff05 	stb	r2,-4(fp)

	//1.读取并保存SD卡中的所有txt文件的文件名


	//2.初始化ScreenContainer屏幕显示信息结构体
	status = status && screenInit();
     3d4:	e0bfff03 	ldbu	r2,-4(fp)
     3d8:	10000526 	beq	r2,zero,3f0 <main+0x34>
     3dc:	0001ecc0 	call	1ecc <screenInit>
     3e0:	10803fcc 	andi	r2,r2,255
     3e4:	10000226 	beq	r2,zero,3f0 <main+0x34>
     3e8:	00800044 	movi	r2,1
     3ec:	00000106 	br	3f4 <main+0x38>
     3f0:	0005883a 	mov	r2,zero
     3f4:	e0bfff05 	stb	r2,-4(fp)
     3f8:	e0bfff03 	ldbu	r2,-4(fp)
     3fc:	1080004c 	andi	r2,r2,1
     400:	e0bfff05 	stb	r2,-4(fp)

	//3.执行屏幕显示函数
	status = status && showScreen( );
     404:	e0bfff03 	ldbu	r2,-4(fp)
     408:	10000526 	beq	r2,zero,420 <main+0x64>
     40c:	00080a00 	call	80a0 <showScreen>
     410:	10803fcc 	andi	r2,r2,255
     414:	10000226 	beq	r2,zero,420 <main+0x64>
     418:	00800044 	movi	r2,1
     41c:	00000106 	br	424 <main+0x68>
     420:	0005883a 	mov	r2,zero
     424:	e0bfff05 	stb	r2,-4(fp)
     428:	e0bfff03 	ldbu	r2,-4(fp)
     42c:	1080004c 	andi	r2,r2,1
     430:	e0bfff05 	stb	r2,-4(fp)

	return 0;
     434:	0005883a 	mov	r2,zero
}
     438:	e037883a 	mov	sp,fp
     43c:	dfc00117 	ldw	ra,4(sp)
     440:	df000017 	ldw	fp,0(sp)
     444:	dec00204 	addi	sp,sp,8
     448:	f800283a 	ret

0000044c <setAreaRange>:

char *str1 = "Happy";

//设置区域范围
bool setAreaRange( AreaRange *areaPtr, short x_min, short x_max, short y_min, short y_max )
{
     44c:	defffa04 	addi	sp,sp,-24
     450:	df000515 	stw	fp,20(sp)
     454:	df000504 	addi	fp,sp,20
     458:	e13ffb15 	stw	r4,-20(fp)
     45c:	3009883a 	mov	r4,r6
     460:	3807883a 	mov	r3,r7
     464:	e0800117 	ldw	r2,4(fp)
     468:	e17ffc0d 	sth	r5,-16(fp)
     46c:	e13ffd0d 	sth	r4,-12(fp)
     470:	e0fffe0d 	sth	r3,-8(fp)
     474:	e0bfff0d 	sth	r2,-4(fp)
	areaPtr->x_min = x_min;
     478:	e0bffb17 	ldw	r2,-20(fp)
     47c:	e0fffc0b 	ldhu	r3,-16(fp)
     480:	10c0000d 	sth	r3,0(r2)
	areaPtr->x_max = x_max;
     484:	e0bffb17 	ldw	r2,-20(fp)
     488:	e0fffd0b 	ldhu	r3,-12(fp)
     48c:	10c0008d 	sth	r3,2(r2)
	areaPtr->y_min = y_min;
     490:	e0bffb17 	ldw	r2,-20(fp)
     494:	e0fffe0b 	ldhu	r3,-8(fp)
     498:	10c0010d 	sth	r3,4(r2)
	areaPtr->y_max = y_max;
     49c:	e0bffb17 	ldw	r2,-20(fp)
     4a0:	e0ffff0b 	ldhu	r3,-4(fp)
     4a4:	10c0018d 	sth	r3,6(r2)
	if ( x_min > x_max || y_min > y_max )
     4a8:	e0bffc0f 	ldh	r2,-16(fp)
     4ac:	e0fffd0f 	ldh	r3,-12(fp)
     4b0:	18800316 	blt	r3,r2,4c0 <setAreaRange+0x74>
     4b4:	e0bffe0f 	ldh	r2,-8(fp)
     4b8:	e0ffff0f 	ldh	r3,-4(fp)
     4bc:	1880020e 	bge	r3,r2,4c8 <setAreaRange+0x7c>
	{
		return false;
     4c0:	0005883a 	mov	r2,zero
     4c4:	00000106 	br	4cc <setAreaRange+0x80>
	}
	return true;
     4c8:	00800044 	movi	r2,1
}
     4cc:	e037883a 	mov	sp,fp
     4d0:	df000017 	ldw	fp,0(sp)
     4d4:	dec00104 	addi	sp,sp,4
     4d8:	f800283a 	ret

000004dc <setAreaRangeByAreaFmt>:
//区域范围自动转换
bool setAreaRangeByAreaFmt( AreaRange *areaPtr, AreaFmt *areaFmtPos, short width, short height )
{
     4dc:	defff804 	addi	sp,sp,-32
     4e0:	df000715 	stw	fp,28(sp)
     4e4:	df000704 	addi	fp,sp,28
     4e8:	e13ffc15 	stw	r4,-16(fp)
     4ec:	e17ffd15 	stw	r5,-12(fp)
     4f0:	3007883a 	mov	r3,r6
     4f4:	3805883a 	mov	r2,r7
     4f8:	e0fffe0d 	sth	r3,-8(fp)
     4fc:	e0bfff0d 	sth	r2,-4(fp)

	AreaFmtCenter *tempFmtCenterPos;
	AreaFmtMargin *tempFmtMarginPos;

	bool status = true;
     500:	00800044 	movi	r2,1
     504:	e0bff905 	stb	r2,-28(fp)

	//处理x方向
	switch( areaFmtPos->fmtTypeX )
     508:	e0bffd17 	ldw	r2,-12(fp)
     50c:	10800017 	ldw	r2,0(r2)
     510:	10000326 	beq	r2,zero,520 <setAreaRangeByAreaFmt+0x44>
     514:	10800060 	cmpeqi	r2,r2,1
     518:	1000181e 	bne	r2,zero,57c <setAreaRangeByAreaFmt+0xa0>
     51c:	00002806 	br	5c0 <setAreaRangeByAreaFmt+0xe4>
	{
		case AREA_FMT_CENTER:
			tempFmtCenterPos = &((areaFmtPos->fmtValX).fmtCenterVal);
     520:	e0bffd17 	ldw	r2,-12(fp)
     524:	10800204 	addi	r2,r2,8
     528:	e0bffa15 	stw	r2,-24(fp)

			areaPtr->x_min = tempFmtCenterPos->center - tempFmtCenterPos->half + 1;
     52c:	e0bffa17 	ldw	r2,-24(fp)
     530:	1080000b 	ldhu	r2,0(r2)
     534:	1007883a 	mov	r3,r2
     538:	e0bffa17 	ldw	r2,-24(fp)
     53c:	1080008b 	ldhu	r2,2(r2)
     540:	1885c83a 	sub	r2,r3,r2
     544:	10800044 	addi	r2,r2,1
     548:	1007883a 	mov	r3,r2
     54c:	e0bffc17 	ldw	r2,-16(fp)
     550:	10c0000d 	sth	r3,0(r2)
			areaPtr->x_max = tempFmtCenterPos->center + tempFmtCenterPos->half;
     554:	e0bffa17 	ldw	r2,-24(fp)
     558:	1080000b 	ldhu	r2,0(r2)
     55c:	1007883a 	mov	r3,r2
     560:	e0bffa17 	ldw	r2,-24(fp)
     564:	1080008b 	ldhu	r2,2(r2)
     568:	1885883a 	add	r2,r3,r2
     56c:	1007883a 	mov	r3,r2
     570:	e0bffc17 	ldw	r2,-16(fp)
     574:	10c0008d 	sth	r3,2(r2)

			break;
     578:	00001206 	br	5c4 <setAreaRangeByAreaFmt+0xe8>

		case AREA_FMT_MARGIN:
			tempFmtMarginPos = &((areaFmtPos->fmtValX).fmtMarginVal);
     57c:	e0bffd17 	ldw	r2,-12(fp)
     580:	10800204 	addi	r2,r2,8
     584:	e0bffb15 	stw	r2,-20(fp)

			areaPtr->x_min = tempFmtMarginPos->margin_LU + 1;
     588:	e0bffb17 	ldw	r2,-20(fp)
     58c:	1080000b 	ldhu	r2,0(r2)
     590:	10800044 	addi	r2,r2,1
     594:	1007883a 	mov	r3,r2
     598:	e0bffc17 	ldw	r2,-16(fp)
     59c:	10c0000d 	sth	r3,0(r2)
			areaPtr->x_max = width - tempFmtMarginPos->margin_RD;
     5a0:	e0bffe0b 	ldhu	r2,-8(fp)
     5a4:	e0fffb17 	ldw	r3,-20(fp)
     5a8:	18c0008b 	ldhu	r3,2(r3)
     5ac:	10c5c83a 	sub	r2,r2,r3
     5b0:	1007883a 	mov	r3,r2
     5b4:	e0bffc17 	ldw	r2,-16(fp)
     5b8:	10c0008d 	sth	r3,2(r2)

			break;
     5bc:	00000106 	br	5c4 <setAreaRangeByAreaFmt+0xe8>
		default:
			status = false;
     5c0:	e03ff905 	stb	zero,-28(fp)
	}
	//处理y方向
	switch( areaFmtPos->fmtTypeY )
     5c4:	e0bffd17 	ldw	r2,-12(fp)
     5c8:	10800117 	ldw	r2,4(r2)
     5cc:	10000326 	beq	r2,zero,5dc <setAreaRangeByAreaFmt+0x100>
     5d0:	10800060 	cmpeqi	r2,r2,1
     5d4:	1000181e 	bne	r2,zero,638 <setAreaRangeByAreaFmt+0x15c>
     5d8:	00002806 	br	67c <setAreaRangeByAreaFmt+0x1a0>
	{
		case AREA_FMT_CENTER:
			tempFmtCenterPos = &((areaFmtPos->fmtValY).fmtCenterVal);
     5dc:	e0bffd17 	ldw	r2,-12(fp)
     5e0:	10800304 	addi	r2,r2,12
     5e4:	e0bffa15 	stw	r2,-24(fp)

			areaPtr->y_min = tempFmtCenterPos->center - tempFmtCenterPos->half + 1;
     5e8:	e0bffa17 	ldw	r2,-24(fp)
     5ec:	1080000b 	ldhu	r2,0(r2)
     5f0:	1007883a 	mov	r3,r2
     5f4:	e0bffa17 	ldw	r2,-24(fp)
     5f8:	1080008b 	ldhu	r2,2(r2)
     5fc:	1885c83a 	sub	r2,r3,r2
     600:	10800044 	addi	r2,r2,1
     604:	1007883a 	mov	r3,r2
     608:	e0bffc17 	ldw	r2,-16(fp)
     60c:	10c0010d 	sth	r3,4(r2)
			areaPtr->y_max = tempFmtCenterPos->center + tempFmtCenterPos->half;
     610:	e0bffa17 	ldw	r2,-24(fp)
     614:	1080000b 	ldhu	r2,0(r2)
     618:	1007883a 	mov	r3,r2
     61c:	e0bffa17 	ldw	r2,-24(fp)
     620:	1080008b 	ldhu	r2,2(r2)
     624:	1885883a 	add	r2,r3,r2
     628:	1007883a 	mov	r3,r2
     62c:	e0bffc17 	ldw	r2,-16(fp)
     630:	10c0018d 	sth	r3,6(r2)

			break;
     634:	00001206 	br	680 <setAreaRangeByAreaFmt+0x1a4>

		case AREA_FMT_MARGIN:
			tempFmtMarginPos = &((areaFmtPos->fmtValY).fmtMarginVal);
     638:	e0bffd17 	ldw	r2,-12(fp)
     63c:	10800304 	addi	r2,r2,12
     640:	e0bffb15 	stw	r2,-20(fp)

			areaPtr->y_min = tempFmtMarginPos->margin_LU + 1;
     644:	e0bffb17 	ldw	r2,-20(fp)
     648:	1080000b 	ldhu	r2,0(r2)
     64c:	10800044 	addi	r2,r2,1
     650:	1007883a 	mov	r3,r2
     654:	e0bffc17 	ldw	r2,-16(fp)
     658:	10c0010d 	sth	r3,4(r2)
			areaPtr->y_max = width - tempFmtMarginPos->margin_RD;
     65c:	e0bffe0b 	ldhu	r2,-8(fp)
     660:	e0fffb17 	ldw	r3,-20(fp)
     664:	18c0008b 	ldhu	r3,2(r3)
     668:	10c5c83a 	sub	r2,r2,r3
     66c:	1007883a 	mov	r3,r2
     670:	e0bffc17 	ldw	r2,-16(fp)
     674:	10c0018d 	sth	r3,6(r2)

			break;
     678:	00000106 	br	680 <setAreaRangeByAreaFmt+0x1a4>
		default:
			status = false;
     67c:	e03ff905 	stb	zero,-28(fp)
	}

	if ( areaPtr->x_min > areaPtr->x_max || areaPtr->y_min > areaPtr->y_max )
     680:	e0bffc17 	ldw	r2,-16(fp)
     684:	1100000b 	ldhu	r4,0(r2)
     688:	e0bffc17 	ldw	r2,-16(fp)
     68c:	10c0008b 	ldhu	r3,2(r2)
     690:	20bfffcc 	andi	r2,r4,65535
     694:	10a0001c 	xori	r2,r2,32768
     698:	10a00004 	addi	r2,r2,-32768
     69c:	18ffffcc 	andi	r3,r3,65535
     6a0:	18e0001c 	xori	r3,r3,32768
     6a4:	18e00004 	addi	r3,r3,-32768
     6a8:	18800b16 	blt	r3,r2,6d8 <setAreaRangeByAreaFmt+0x1fc>
     6ac:	e0bffc17 	ldw	r2,-16(fp)
     6b0:	1100010b 	ldhu	r4,4(r2)
     6b4:	e0bffc17 	ldw	r2,-16(fp)
     6b8:	10c0018b 	ldhu	r3,6(r2)
     6bc:	20bfffcc 	andi	r2,r4,65535
     6c0:	10a0001c 	xori	r2,r2,32768
     6c4:	10a00004 	addi	r2,r2,-32768
     6c8:	18ffffcc 	andi	r3,r3,65535
     6cc:	18e0001c 	xori	r3,r3,32768
     6d0:	18e00004 	addi	r3,r3,-32768
     6d4:	1880020e 	bge	r3,r2,6e0 <setAreaRangeByAreaFmt+0x204>
	{
		return false;
     6d8:	0005883a 	mov	r2,zero
     6dc:	00001106 	br	724 <setAreaRangeByAreaFmt+0x248>
	}
	if ( areaPtr->x_max > width || areaPtr->y_max > height )
     6e0:	e0bffc17 	ldw	r2,-16(fp)
     6e4:	1080008b 	ldhu	r2,2(r2)
     6e8:	10bfffcc 	andi	r2,r2,65535
     6ec:	10a0001c 	xori	r2,r2,32768
     6f0:	10a00004 	addi	r2,r2,-32768
     6f4:	e0fffe0f 	ldh	r3,-8(fp)
     6f8:	18800716 	blt	r3,r2,718 <setAreaRangeByAreaFmt+0x23c>
     6fc:	e0bffc17 	ldw	r2,-16(fp)
     700:	1080018b 	ldhu	r2,6(r2)
     704:	10bfffcc 	andi	r2,r2,65535
     708:	10a0001c 	xori	r2,r2,32768
     70c:	10a00004 	addi	r2,r2,-32768
     710:	e0ffff0f 	ldh	r3,-4(fp)
     714:	1880020e 	bge	r3,r2,720 <setAreaRangeByAreaFmt+0x244>
	{
		return false;
     718:	0005883a 	mov	r2,zero
     71c:	00000106 	br	724 <setAreaRangeByAreaFmt+0x248>
	}

	return status;
     720:	e0bff903 	ldbu	r2,-28(fp)

}
     724:	e037883a 	mov	sp,fp
     728:	df000017 	ldw	fp,0(sp)
     72c:	dec00104 	addi	sp,sp,4
     730:	f800283a 	ret

00000734 <setAreaFmt>:

//设置区域格式
bool setAreaFmt( AreaFmt *areaFmtPos, enum areaFmtID fmtXID, enum areaFmtID fmtYID, short xC_xML, short xHf_xMR, short yC_yMU, short yHf_yMD )
{
     734:	defff704 	addi	sp,sp,-36
     738:	df000815 	stw	fp,32(sp)
     73c:	df000804 	addi	fp,sp,32
     740:	e13ff915 	stw	r4,-28(fp)
     744:	e17ffa15 	stw	r5,-24(fp)
     748:	e1bffb15 	stw	r6,-20(fp)
     74c:	380b883a 	mov	r5,r7
     750:	e1000117 	ldw	r4,4(fp)
     754:	e0c00217 	ldw	r3,8(fp)
     758:	e0800317 	ldw	r2,12(fp)
     75c:	e17ffc0d 	sth	r5,-16(fp)
     760:	e13ffd0d 	sth	r4,-12(fp)
     764:	e0fffe0d 	sth	r3,-8(fp)
     768:	e0bfff0d 	sth	r2,-4(fp)
	bool status = true;
     76c:	00800044 	movi	r2,1
     770:	e0bff805 	stb	r2,-32(fp)
	areaFmtPos->fmtTypeX = fmtXID;
     774:	e0bff917 	ldw	r2,-28(fp)
     778:	e0fffa17 	ldw	r3,-24(fp)
     77c:	10c00015 	stw	r3,0(r2)
	areaFmtPos->fmtTypeY = fmtYID;
     780:	e0bff917 	ldw	r2,-28(fp)
     784:	e0fffb17 	ldw	r3,-20(fp)
     788:	10c00115 	stw	r3,4(r2)

	switch( fmtXID )
     78c:	e0bffa17 	ldw	r2,-24(fp)
     790:	10000326 	beq	r2,zero,7a0 <setAreaFmt+0x6c>
     794:	10800060 	cmpeqi	r2,r2,1
     798:	1000081e 	bne	r2,zero,7bc <setAreaFmt+0x88>
     79c:	00000e06 	br	7d8 <setAreaFmt+0xa4>
	{
		case AREA_FMT_CENTER:
			(areaFmtPos->fmtValX).fmtCenterVal.center = xC_xML;
     7a0:	e0bff917 	ldw	r2,-28(fp)
     7a4:	e0fffc0b 	ldhu	r3,-16(fp)
     7a8:	10c0020d 	sth	r3,8(r2)
			(areaFmtPos->fmtValX).fmtCenterVal.half = xHf_xMR;
     7ac:	e0bff917 	ldw	r2,-28(fp)
     7b0:	e0fffd0b 	ldhu	r3,-12(fp)
     7b4:	10c0028d 	sth	r3,10(r2)
			break;
     7b8:	00000806 	br	7dc <setAreaFmt+0xa8>

		case AREA_FMT_MARGIN:
			(areaFmtPos->fmtValX).fmtMarginVal.margin_LU = xC_xML;
     7bc:	e0bff917 	ldw	r2,-28(fp)
     7c0:	e0fffc0b 	ldhu	r3,-16(fp)
     7c4:	10c0020d 	sth	r3,8(r2)
			(areaFmtPos->fmtValX).fmtMarginVal.margin_RD = xHf_xMR;
     7c8:	e0bff917 	ldw	r2,-28(fp)
     7cc:	e0fffd0b 	ldhu	r3,-12(fp)
     7d0:	10c0028d 	sth	r3,10(r2)
			break;
     7d4:	00000106 	br	7dc <setAreaFmt+0xa8>
		default:
			status = false;
     7d8:	e03ff805 	stb	zero,-32(fp)
	}
	switch( fmtYID )
     7dc:	e0bffb17 	ldw	r2,-20(fp)
     7e0:	10000326 	beq	r2,zero,7f0 <setAreaFmt+0xbc>
     7e4:	10800060 	cmpeqi	r2,r2,1
     7e8:	1000081e 	bne	r2,zero,80c <setAreaFmt+0xd8>
     7ec:	00000e06 	br	828 <setAreaFmt+0xf4>
	{
		case AREA_FMT_CENTER:
			(areaFmtPos->fmtValY).fmtCenterVal.center = yC_yMU;
     7f0:	e0bff917 	ldw	r2,-28(fp)
     7f4:	e0fffe0b 	ldhu	r3,-8(fp)
     7f8:	10c0030d 	sth	r3,12(r2)
			(areaFmtPos->fmtValY).fmtCenterVal.half = yHf_yMD;
     7fc:	e0bff917 	ldw	r2,-28(fp)
     800:	e0ffff0b 	ldhu	r3,-4(fp)
     804:	10c0038d 	sth	r3,14(r2)
			break;
     808:	00000806 	br	82c <setAreaFmt+0xf8>

		case AREA_FMT_MARGIN:
			(areaFmtPos->fmtValY).fmtMarginVal.margin_LU = yC_yMU;
     80c:	e0bff917 	ldw	r2,-28(fp)
     810:	e0fffe0b 	ldhu	r3,-8(fp)
     814:	10c0030d 	sth	r3,12(r2)
			(areaFmtPos->fmtValY).fmtMarginVal.margin_RD = yHf_yMD;
     818:	e0bff917 	ldw	r2,-28(fp)
     81c:	e0ffff0b 	ldhu	r3,-4(fp)
     820:	10c0038d 	sth	r3,14(r2)
			break;
     824:	00000106 	br	82c <setAreaFmt+0xf8>
		default:
			status = false;
     828:	e03ff805 	stb	zero,-32(fp)
	}
	return status;
     82c:	e0bff803 	ldbu	r2,-32(fp)
}
     830:	e037883a 	mov	sp,fp
     834:	df000017 	ldw	fp,0(sp)
     838:	dec00104 	addi	sp,sp,4
     83c:	f800283a 	ret

00000840 <setAreaRangeCentered>:

//居中设置区域范围(如果不是偶数，就稍微偏左上角)
bool setAreaRangeCentered( AreaRange *areaPtr, short width, short height, short objXSize, short objYSize )
{
     840:	defff504 	addi	sp,sp,-44
     844:	dfc00a15 	stw	ra,40(sp)
     848:	df000915 	stw	fp,36(sp)
     84c:	df000904 	addi	fp,sp,36
     850:	e13ffb15 	stw	r4,-20(fp)
     854:	3009883a 	mov	r4,r6
     858:	3807883a 	mov	r3,r7
     85c:	e0800217 	ldw	r2,8(fp)
     860:	e17ffc0d 	sth	r5,-16(fp)
     864:	e13ffd0d 	sth	r4,-12(fp)
     868:	e0fffe0d 	sth	r3,-8(fp)
     86c:	e0bfff0d 	sth	r2,-4(fp)
	bool status = true;
     870:	00800044 	movi	r2,1
     874:	e0bff805 	stb	r2,-32(fp)

	if ( width < objXSize || height < objYSize )//obj尺寸超出模块范围，不考虑对象obj的需求尺寸，obj直接使用模块尺寸
     878:	e0fffc0f 	ldh	r3,-16(fp)
     87c:	e0bffe0f 	ldh	r2,-8(fp)
     880:	18800316 	blt	r3,r2,890 <setAreaRangeCentered+0x50>
     884:	e0fffd0f 	ldh	r3,-12(fp)
     888:	e0bfff0f 	ldh	r2,-4(fp)
     88c:	18800b0e 	bge	r3,r2,8bc <setAreaRangeCentered+0x7c>
	{
		setAreaRange( areaPtr, 1, width, 1, height );
     890:	e0fffc0f 	ldh	r3,-16(fp)
     894:	e0bffd0f 	ldh	r2,-12(fp)
     898:	d8800015 	stw	r2,0(sp)
     89c:	e13ffb17 	ldw	r4,-20(fp)
     8a0:	01400044 	movi	r5,1
     8a4:	180d883a 	mov	r6,r3
     8a8:	01c00044 	movi	r7,1
     8ac:	000044c0 	call	44c <setAreaRange>
		status = false;//参数设置有误（有模块的对象尺寸超出边界）
     8b0:	e03ff805 	stb	zero,-32(fp)
		return status;
     8b4:	e0bff803 	ldbu	r2,-32(fp)
     8b8:	00003d06 	br	9b0 <setAreaRangeCentered+0x170>
	}

	//区域范围正常
	short marginXL = ( width - objXSize ) >> 1;//左边距
     8bc:	e0fffc0f 	ldh	r3,-16(fp)
     8c0:	e0bffe0f 	ldh	r2,-8(fp)
     8c4:	1885c83a 	sub	r2,r3,r2
     8c8:	1005d07a 	srai	r2,r2,1
     8cc:	e0bff88d 	sth	r2,-30(fp)
	short marginXR = ( width - objXSize ) - marginXL;//右边距
     8d0:	e0fffc0b 	ldhu	r3,-16(fp)
     8d4:	e0bffe0b 	ldhu	r2,-8(fp)
     8d8:	1885c83a 	sub	r2,r3,r2
     8dc:	1007883a 	mov	r3,r2
     8e0:	e0bff88b 	ldhu	r2,-30(fp)
     8e4:	1885c83a 	sub	r2,r3,r2
     8e8:	e0bff90d 	sth	r2,-28(fp)
	short marginYU = ( height - objYSize )>> 1;//上边距
     8ec:	e0fffd0f 	ldh	r3,-12(fp)
     8f0:	e0bfff0f 	ldh	r2,-4(fp)
     8f4:	1885c83a 	sub	r2,r3,r2
     8f8:	1005d07a 	srai	r2,r2,1
     8fc:	e0bff98d 	sth	r2,-26(fp)
	short marginYD = ( height - objYSize ) - marginYU;//下边距
     900:	e0fffd0b 	ldhu	r3,-12(fp)
     904:	e0bfff0b 	ldhu	r2,-4(fp)
     908:	1885c83a 	sub	r2,r3,r2
     90c:	1007883a 	mov	r3,r2
     910:	e0bff98b 	ldhu	r2,-26(fp)
     914:	1885c83a 	sub	r2,r3,r2
     918:	e0bffa0d 	sth	r2,-24(fp)

	status = status && setAreaRange( areaPtr, marginXL+1, width-marginXR, marginYU+1, height-marginYD );
     91c:	e0bff803 	ldbu	r2,-32(fp)
     920:	10001d26 	beq	r2,zero,998 <setAreaRangeCentered+0x158>
     924:	e0bff88b 	ldhu	r2,-30(fp)
     928:	10800044 	addi	r2,r2,1
     92c:	117fffcc 	andi	r5,r2,65535
     930:	2960001c 	xori	r5,r5,32768
     934:	29600004 	addi	r5,r5,-32768
     938:	e0fffc0b 	ldhu	r3,-16(fp)
     93c:	e0bff90b 	ldhu	r2,-28(fp)
     940:	1885c83a 	sub	r2,r3,r2
     944:	11bfffcc 	andi	r6,r2,65535
     948:	31a0001c 	xori	r6,r6,32768
     94c:	31a00004 	addi	r6,r6,-32768
     950:	e0bff98b 	ldhu	r2,-26(fp)
     954:	10800044 	addi	r2,r2,1
     958:	11ffffcc 	andi	r7,r2,65535
     95c:	39e0001c 	xori	r7,r7,32768
     960:	39e00004 	addi	r7,r7,-32768
     964:	e0fffd0b 	ldhu	r3,-12(fp)
     968:	e0bffa0b 	ldhu	r2,-24(fp)
     96c:	1885c83a 	sub	r2,r3,r2
     970:	10bfffcc 	andi	r2,r2,65535
     974:	10a0001c 	xori	r2,r2,32768
     978:	10a00004 	addi	r2,r2,-32768
     97c:	d8800015 	stw	r2,0(sp)
     980:	e13ffb17 	ldw	r4,-20(fp)
     984:	000044c0 	call	44c <setAreaRange>
     988:	10803fcc 	andi	r2,r2,255
     98c:	10000226 	beq	r2,zero,998 <setAreaRangeCentered+0x158>
     990:	00800044 	movi	r2,1
     994:	00000106 	br	99c <setAreaRangeCentered+0x15c>
     998:	0005883a 	mov	r2,zero
     99c:	e0bff805 	stb	r2,-32(fp)
     9a0:	e0bff803 	ldbu	r2,-32(fp)
     9a4:	1080004c 	andi	r2,r2,1
     9a8:	e0bff805 	stb	r2,-32(fp)

	return status;
     9ac:	e0bff803 	ldbu	r2,-32(fp)
}
     9b0:	e037883a 	mov	sp,fp
     9b4:	dfc00117 	ldw	ra,4(sp)
     9b8:	df000017 	ldw	fp,0(sp)
     9bc:	dec00204 	addi	sp,sp,8
     9c0:	f800283a 	ret

000009c4 <setDefaultTagBlock>:
//设置默认居中标签
bool setDefaultTagBlock( TagBlock *tagPtr, char *text, short width, short height )
{
     9c4:	defff704 	addi	sp,sp,-36
     9c8:	dfc00815 	stw	ra,32(sp)
     9cc:	df000715 	stw	fp,28(sp)
     9d0:	df000704 	addi	fp,sp,28
     9d4:	e13ffc15 	stw	r4,-16(fp)
     9d8:	e17ffd15 	stw	r5,-12(fp)
     9dc:	3007883a 	mov	r3,r6
     9e0:	3805883a 	mov	r2,r7
     9e4:	e0fffe0d 	sth	r3,-8(fp)
     9e8:	e0bfff0d 	sth	r2,-4(fp)
	tagPtr->tagColorInfo = defaultColorInfo;
     9ec:	e0bffc17 	ldw	r2,-16(fp)
     9f0:	d0e0040b 	ldhu	r3,-32752(gp)
     9f4:	10c0020d 	sth	r3,8(r2)
     9f8:	d0e00484 	addi	r3,gp,-32750
     9fc:	18c0000b 	ldhu	r3,0(r3)
     a00:	10c0028d 	sth	r3,10(r2)
     a04:	d0e00504 	addi	r3,gp,-32748
     a08:	18c0000b 	ldhu	r3,0(r3)
     a0c:	10c0030d 	sth	r3,12(r2)
     a10:	d0e00584 	addi	r3,gp,-32746
     a14:	18c0000b 	ldhu	r3,0(r3)
     a18:	10c0038d 	sth	r3,14(r2)

	tagPtr->wordSpacing = DEFAULT_WORD_SPACING;
     a1c:	e0bffc17 	ldw	r2,-16(fp)
     a20:	00c00084 	movi	r3,2
     a24:	10c0040d 	sth	r3,16(r2)
	tagPtr->letterSpacing = DEFAULT_LETTER_SPACING;
     a28:	e0bffc17 	ldw	r2,-16(fp)
     a2c:	00c00044 	movi	r3,1
     a30:	10c0048d 	sth	r3,18(r2)
	tagPtr->wordXSize = SRC_WORD_SIZE_X;//汉字横向宽度
     a34:	e0bffc17 	ldw	r2,-16(fp)
     a38:	00c00404 	movi	r3,16
     a3c:	10c0058d 	sth	r3,22(r2)
	tagPtr->letterXSize = SRC_LETTER_SIZE_X;//字母横向宽度
     a40:	e0bffc17 	ldw	r2,-16(fp)
     a44:	00c00204 	movi	r3,8
     a48:	10c0060d 	sth	r3,24(r2)
	tagPtr->objYSize = SRC_OBJ_SIZE_Y;//文字纵向高度
     a4c:	e0bffc17 	ldw	r2,-16(fp)
     a50:	00c00404 	movi	r3,16
     a54:	10c0068d 	sth	r3,26(r2)
	(tagPtr->tagText).text = text;
     a58:	e0bffc17 	ldw	r2,-16(fp)
     a5c:	e0fffd17 	ldw	r3,-12(fp)
     a60:	10c00715 	stw	r3,28(r2)

	short textLen = strlen(text);
     a64:	e13ffd17 	ldw	r4,-12(fp)
     a68:	00093400 	call	9340 <strlen>
     a6c:	e0bffa0d 	sth	r2,-24(fp)
	(tagPtr->tagText).textLen = textLen;
     a70:	e0bffc17 	ldw	r2,-16(fp)
     a74:	e0fffa0b 	ldhu	r3,-24(fp)
     a78:	10c0080d 	sth	r3,32(r2)

	(tagPtr->tagColorInfo).objVisible = ( text == NULL ) ? false : true;
     a7c:	e0bffd17 	ldw	r2,-12(fp)
     a80:	1004c03a 	cmpne	r2,r2,zero
     a84:	1007883a 	mov	r3,r2
     a88:	e0bffc17 	ldw	r2,-16(fp)
     a8c:	10c003c5 	stb	r3,15(r2)

	short textWidthSum = getWidthOfText( text, textLen );
     a90:	e0bffa0f 	ldh	r2,-24(fp)
     a94:	e13ffd17 	ldw	r4,-12(fp)
     a98:	100b883a 	mov	r5,r2
     a9c:	00016140 	call	1614 <getWidthOfText>
     aa0:	e0bffa8d 	sth	r2,-22(fp)

	bool status = setAreaRangeCentered( &(tagPtr->textArea ), width, height, textWidthSum, SRC_OBJ_SIZE_Y );
     aa4:	e13ffc17 	ldw	r4,-16(fp)
     aa8:	e17ffe0f 	ldh	r5,-8(fp)
     aac:	e1bfff0f 	ldh	r6,-4(fp)
     ab0:	e0fffa8f 	ldh	r3,-22(fp)
     ab4:	00800404 	movi	r2,16
     ab8:	d8800015 	stw	r2,0(sp)
     abc:	180f883a 	mov	r7,r3
     ac0:	00008400 	call	840 <setAreaRangeCentered>
     ac4:	e0bffb05 	stb	r2,-20(fp)

	return status;
     ac8:	e0bffb03 	ldbu	r2,-20(fp)
}
     acc:	e037883a 	mov	sp,fp
     ad0:	dfc00117 	ldw	ra,4(sp)
     ad4:	df000017 	ldw	fp,0(sp)
     ad8:	dec00204 	addi	sp,sp,8
     adc:	f800283a 	ret

00000ae0 <setDefaultProgressBarX>:
//设置默认进度条
bool setDefaultProgressBarX( ProgressBarX *prgBarInst, short width, short height )
{
     ae0:	defff504 	addi	sp,sp,-44
     ae4:	dfc00a15 	stw	ra,40(sp)
     ae8:	df000915 	stw	fp,36(sp)
     aec:	df000904 	addi	fp,sp,36
     af0:	e13ffd15 	stw	r4,-12(fp)
     af4:	2807883a 	mov	r3,r5
     af8:	3005883a 	mov	r2,r6
     afc:	e0fffe0d 	sth	r3,-8(fp)
     b00:	e0bfff0d 	sth	r2,-4(fp)
	bool status = true;
     b04:	00800044 	movi	r2,1
     b08:	e0bff905 	stb	r2,-28(fp)
	//基本信息
	prgBarInst->bkgBorderColor = defaultColorInfo;
     b0c:	e0bffd17 	ldw	r2,-12(fp)
     b10:	d0e0040b 	ldhu	r3,-32752(gp)
     b14:	10c0000d 	sth	r3,0(r2)
     b18:	d0e00484 	addi	r3,gp,-32750
     b1c:	18c0000b 	ldhu	r3,0(r3)
     b20:	10c0008d 	sth	r3,2(r2)
     b24:	d0e00504 	addi	r3,gp,-32748
     b28:	18c0000b 	ldhu	r3,0(r3)
     b2c:	10c0010d 	sth	r3,4(r2)
     b30:	d0e00584 	addi	r3,gp,-32746
     b34:	18c0000b 	ldhu	r3,0(r3)
     b38:	10c0018d 	sth	r3,6(r2)

	prgBarInst->xOffset = 0;
     b3c:	e0bffd17 	ldw	r2,-12(fp)
     b40:	1000140d 	sth	zero,80(r2)
	prgBarInst->xOffsetMax = 280;
     b44:	e0bffd17 	ldw	r2,-12(fp)
     b48:	00c04604 	movi	r3,280
     b4c:	10c0148d 	sth	r3,82(r2)

	//运动轴
	short dotHeight = ICON_DOT_Y_SIZE;
     b50:	00800304 	movi	r2,12
     b54:	e0bff98d 	sth	r2,-26(fp)
	short axisHeight = dotHeight / 2;
     b58:	e0bff98f 	ldh	r2,-26(fp)
     b5c:	1006d7fa 	srli	r3,r2,31
     b60:	1885883a 	add	r2,r3,r2
     b64:	1005d07a 	srai	r2,r2,1
     b68:	e0bffa0d 	sth	r2,-24(fp)
	short axisWidth = prgBarInst->xOffsetMax + 1;
     b6c:	e0bffd17 	ldw	r2,-12(fp)
     b70:	1080148b 	ldhu	r2,82(r2)
     b74:	10800044 	addi	r2,r2,1
     b78:	e0bffa8d 	sth	r2,-22(fp)
	status = status && setAreaRangeCentered( &(prgBarInst->axisArea), width, height, axisWidth, axisHeight );
     b7c:	e0bff903 	ldbu	r2,-28(fp)
     b80:	10000d26 	beq	r2,zero,bb8 <setDefaultProgressBarX+0xd8>
     b84:	e0bffd17 	ldw	r2,-12(fp)
     b88:	11000204 	addi	r4,r2,8
     b8c:	e17ffe0f 	ldh	r5,-8(fp)
     b90:	e1bfff0f 	ldh	r6,-4(fp)
     b94:	e0fffa8f 	ldh	r3,-22(fp)
     b98:	e0bffa0f 	ldh	r2,-24(fp)
     b9c:	d8800015 	stw	r2,0(sp)
     ba0:	180f883a 	mov	r7,r3
     ba4:	00008400 	call	840 <setAreaRangeCentered>
     ba8:	10803fcc 	andi	r2,r2,255
     bac:	10000226 	beq	r2,zero,bb8 <setDefaultProgressBarX+0xd8>
     bb0:	00800044 	movi	r2,1
     bb4:	00000106 	br	bbc <setDefaultProgressBarX+0xdc>
     bb8:	0005883a 	mov	r2,zero
     bbc:	e0bff905 	stb	r2,-28(fp)
     bc0:	e0bff903 	ldbu	r2,-28(fp)
     bc4:	1080004c 	andi	r2,r2,1
     bc8:	e0bff905 	stb	r2,-28(fp)
	//轴采用长方形区域的边界和填充的颜色体现
	status = status && setDefaultIconBlock( &(prgBarInst->axis), (void*)0, axisWidth, axisHeight, 0, 0 );
     bcc:	e0bff903 	ldbu	r2,-28(fp)
     bd0:	10000e26 	beq	r2,zero,c0c <setDefaultProgressBarX+0x12c>
     bd4:	e0bffd17 	ldw	r2,-12(fp)
     bd8:	11000404 	addi	r4,r2,16
     bdc:	e0fffa8f 	ldh	r3,-22(fp)
     be0:	e0bffa0f 	ldh	r2,-24(fp)
     be4:	d8000015 	stw	zero,0(sp)
     be8:	d8000115 	stw	zero,4(sp)
     bec:	000b883a 	mov	r5,zero
     bf0:	180d883a 	mov	r6,r3
     bf4:	100f883a 	mov	r7,r2
     bf8:	00013700 	call	1370 <setDefaultIconBlock>
     bfc:	10803fcc 	andi	r2,r2,255
     c00:	10000226 	beq	r2,zero,c0c <setDefaultProgressBarX+0x12c>
     c04:	00800044 	movi	r2,1
     c08:	00000106 	br	c10 <setDefaultProgressBarX+0x130>
     c0c:	0005883a 	mov	r2,zero
     c10:	e0bff905 	stb	r2,-28(fp)
     c14:	e0bff903 	ldbu	r2,-28(fp)
     c18:	1080004c 	andi	r2,r2,1
     c1c:	e0bff905 	stb	r2,-28(fp)


	//进度点基本区域（无偏移量时）
	short dotWidth = ICON_DOT_X_SIZE;
     c20:	00800304 	movi	r2,12
     c24:	e0bffb0d 	sth	r2,-20(fp)
	short dotMarginXL = (prgBarInst->axisArea).x_min - dotWidth/2 - 1;
     c28:	e0bffd17 	ldw	r2,-12(fp)
     c2c:	1080020b 	ldhu	r2,8(r2)
     c30:	1009883a 	mov	r4,r2
     c34:	e0bffb0f 	ldh	r2,-20(fp)
     c38:	1006d7fa 	srli	r3,r2,31
     c3c:	1885883a 	add	r2,r3,r2
     c40:	1005d07a 	srai	r2,r2,1
     c44:	2085c83a 	sub	r2,r4,r2
     c48:	10bfffc4 	addi	r2,r2,-1
     c4c:	e0bffb8d 	sth	r2,-18(fp)
	short dotMarginYU = ( (prgBarInst->axisArea).y_min - 1 + (prgBarInst->axisArea).y_max - dotHeight ) / 2;
     c50:	e0bffd17 	ldw	r2,-12(fp)
     c54:	1080030b 	ldhu	r2,12(r2)
     c58:	10bfffcc 	andi	r2,r2,65535
     c5c:	10a0001c 	xori	r2,r2,32768
     c60:	10a00004 	addi	r2,r2,-32768
     c64:	10ffffc4 	addi	r3,r2,-1
     c68:	e0bffd17 	ldw	r2,-12(fp)
     c6c:	1080038b 	ldhu	r2,14(r2)
     c70:	10bfffcc 	andi	r2,r2,65535
     c74:	10a0001c 	xori	r2,r2,32768
     c78:	10a00004 	addi	r2,r2,-32768
     c7c:	1887883a 	add	r3,r3,r2
     c80:	e0bff98f 	ldh	r2,-26(fp)
     c84:	1885c83a 	sub	r2,r3,r2
     c88:	1006d7fa 	srli	r3,r2,31
     c8c:	1885883a 	add	r2,r3,r2
     c90:	1005d07a 	srai	r2,r2,1
     c94:	e0bffc0d 	sth	r2,-16(fp)
	status = status && setAreaRange( &(prgBarInst->dotBaseArea), dotMarginXL + 1, dotMarginXL + dotWidth,\
     c98:	e0bff903 	ldbu	r2,-28(fp)
     c9c:	10001e26 	beq	r2,zero,d18 <setDefaultProgressBarX+0x238>
     ca0:	e0bffd17 	ldw	r2,-12(fp)
     ca4:	11000a04 	addi	r4,r2,40
     ca8:	e0bffb8b 	ldhu	r2,-18(fp)
     cac:	10800044 	addi	r2,r2,1
     cb0:	117fffcc 	andi	r5,r2,65535
     cb4:	2960001c 	xori	r5,r5,32768
     cb8:	29600004 	addi	r5,r5,-32768
     cbc:	e0fffb8b 	ldhu	r3,-18(fp)
     cc0:	e0bffb0b 	ldhu	r2,-20(fp)
     cc4:	1885883a 	add	r2,r3,r2
     cc8:	11bfffcc 	andi	r6,r2,65535
     ccc:	31a0001c 	xori	r6,r6,32768
     cd0:	31a00004 	addi	r6,r6,-32768
     cd4:	e0bffc0b 	ldhu	r2,-16(fp)
     cd8:	10800044 	addi	r2,r2,1
     cdc:	11ffffcc 	andi	r7,r2,65535
     ce0:	39e0001c 	xori	r7,r7,32768
     ce4:	39e00004 	addi	r7,r7,-32768
     ce8:	e0fffc0b 	ldhu	r3,-16(fp)
     cec:	e0bff98b 	ldhu	r2,-26(fp)
     cf0:	1885883a 	add	r2,r3,r2
     cf4:	10bfffcc 	andi	r2,r2,65535
     cf8:	10a0001c 	xori	r2,r2,32768
     cfc:	10a00004 	addi	r2,r2,-32768
     d00:	d8800015 	stw	r2,0(sp)
     d04:	000044c0 	call	44c <setAreaRange>
     d08:	10803fcc 	andi	r2,r2,255
     d0c:	10000226 	beq	r2,zero,d18 <setDefaultProgressBarX+0x238>
     d10:	00800044 	movi	r2,1
     d14:	00000106 	br	d1c <setDefaultProgressBarX+0x23c>
     d18:	0005883a 	mov	r2,zero
     d1c:	e0bff905 	stb	r2,-28(fp)
     d20:	e0bff903 	ldbu	r2,-28(fp)
     d24:	1080004c 	andi	r2,r2,1
     d28:	e0bff905 	stb	r2,-28(fp)
					dotMarginYU + 1, dotMarginYU + dotHeight);
	status = status && setDefaultIconBlock( &(prgBarInst->dot), icon_dot, axisWidth, axisHeight, dotWidth, dotHeight );
     d2c:	e0bff903 	ldbu	r2,-28(fp)
     d30:	10000f26 	beq	r2,zero,d70 <setDefaultProgressBarX+0x290>
     d34:	e0bffd17 	ldw	r2,-12(fp)
     d38:	11000c04 	addi	r4,r2,48
     d3c:	e1bffa8f 	ldh	r6,-22(fp)
     d40:	e1fffa0f 	ldh	r7,-24(fp)
     d44:	e0fffb0f 	ldh	r3,-20(fp)
     d48:	e0bff98f 	ldh	r2,-26(fp)
     d4c:	d8c00015 	stw	r3,0(sp)
     d50:	d8800115 	stw	r2,4(sp)
     d54:	01400374 	movhi	r5,13
     d58:	29428204 	addi	r5,r5,2568
     d5c:	00013700 	call	1370 <setDefaultIconBlock>
     d60:	10803fcc 	andi	r2,r2,255
     d64:	10000226 	beq	r2,zero,d70 <setDefaultProgressBarX+0x290>
     d68:	00800044 	movi	r2,1
     d6c:	00000106 	br	d74 <setDefaultProgressBarX+0x294>
     d70:	0005883a 	mov	r2,zero
     d74:	e0bff905 	stb	r2,-28(fp)
     d78:	e0bff903 	ldbu	r2,-28(fp)
     d7c:	1080004c 	andi	r2,r2,1
     d80:	e0bff905 	stb	r2,-28(fp)

	//用户点击区
	status = status && setAreaRangeCentered( &(prgBarInst->clickArea), width, height, axisWidth + dotWidth/2, height / 2 );
     d84:	e0bff903 	ldbu	r2,-28(fp)
     d88:	10001b26 	beq	r2,zero,df8 <setDefaultProgressBarX+0x318>
     d8c:	e0bffd17 	ldw	r2,-12(fp)
     d90:	11001204 	addi	r4,r2,72
     d94:	e17ffe0f 	ldh	r5,-8(fp)
     d98:	e1bfff0f 	ldh	r6,-4(fp)
     d9c:	e0bffb0f 	ldh	r2,-20(fp)
     da0:	1006d7fa 	srli	r3,r2,31
     da4:	1885883a 	add	r2,r3,r2
     da8:	1005d07a 	srai	r2,r2,1
     dac:	1007883a 	mov	r3,r2
     db0:	e0bffa8b 	ldhu	r2,-22(fp)
     db4:	1885883a 	add	r2,r3,r2
     db8:	11ffffcc 	andi	r7,r2,65535
     dbc:	39e0001c 	xori	r7,r7,32768
     dc0:	39e00004 	addi	r7,r7,-32768
     dc4:	e0bfff0f 	ldh	r2,-4(fp)
     dc8:	1006d7fa 	srli	r3,r2,31
     dcc:	1885883a 	add	r2,r3,r2
     dd0:	1005d07a 	srai	r2,r2,1
     dd4:	10bfffcc 	andi	r2,r2,65535
     dd8:	10a0001c 	xori	r2,r2,32768
     ddc:	10a00004 	addi	r2,r2,-32768
     de0:	d8800015 	stw	r2,0(sp)
     de4:	00008400 	call	840 <setAreaRangeCentered>
     de8:	10803fcc 	andi	r2,r2,255
     dec:	10000226 	beq	r2,zero,df8 <setDefaultProgressBarX+0x318>
     df0:	00800044 	movi	r2,1
     df4:	00000106 	br	dfc <setDefaultProgressBarX+0x31c>
     df8:	0005883a 	mov	r2,zero
     dfc:	e0bff905 	stb	r2,-28(fp)
     e00:	e0bff903 	ldbu	r2,-28(fp)
     e04:	1080004c 	andi	r2,r2,1
     e08:	e0bff905 	stb	r2,-28(fp)


	return status;
     e0c:	e0bff903 	ldbu	r2,-28(fp)

}
     e10:	e037883a 	mov	sp,fp
     e14:	dfc00117 	ldw	ra,4(sp)
     e18:	df000017 	ldw	fp,0(sp)
     e1c:	dec00204 	addi	sp,sp,8
     e20:	f800283a 	ret

00000e24 <setDefaultScrollBarY>:
//设置默认垂直滚动条
bool setDefaultScrollBarY( ScrollBarY *scrollBarYInst, short width, short height, float barYRatio )
{
     e24:	defff204 	addi	sp,sp,-56
     e28:	dfc00d15 	stw	ra,52(sp)
     e2c:	df000c15 	stw	fp,48(sp)
     e30:	df000c04 	addi	fp,sp,48
     e34:	e13ffc15 	stw	r4,-16(fp)
     e38:	2807883a 	mov	r3,r5
     e3c:	3005883a 	mov	r2,r6
     e40:	e1ffff15 	stw	r7,-4(fp)
     e44:	e0fffd0d 	sth	r3,-12(fp)
     e48:	e0bffe0d 	sth	r2,-8(fp)
	bool status = true;
     e4c:	00800044 	movi	r2,1
     e50:	e0bff605 	stb	r2,-40(fp)

	scrollBarYInst->barYColorInfo = defaultColorInfo;
     e54:	e0bffc17 	ldw	r2,-16(fp)
     e58:	d0e0040b 	ldhu	r3,-32752(gp)
     e5c:	10c0000d 	sth	r3,0(r2)
     e60:	d0e00484 	addi	r3,gp,-32750
     e64:	18c0000b 	ldhu	r3,0(r3)
     e68:	10c0008d 	sth	r3,2(r2)
     e6c:	d0e00504 	addi	r3,gp,-32748
     e70:	18c0000b 	ldhu	r3,0(r3)
     e74:	10c0010d 	sth	r3,4(r2)
     e78:	d0e00584 	addi	r3,gp,-32746
     e7c:	18c0000b 	ldhu	r3,0(r3)
     e80:	10c0018d 	sth	r3,6(r2)

	short iconMarginXL = 1;
     e84:	00800044 	movi	r2,1
     e88:	e0bff68d 	sth	r2,-38(fp)
	short iconMarginXR = 1;
     e8c:	00800044 	movi	r2,1
     e90:	e0bff70d 	sth	r2,-36(fp)
	short iconUpMarginYU = 1;
     e94:	00800044 	movi	r2,1
     e98:	e0bff78d 	sth	r2,-34(fp)
	short iconDownMarginYD = 1;
     e9c:	00800044 	movi	r2,1
     ea0:	e0bff80d 	sth	r2,-32(fp)
	short iconWidth = width - iconMarginXL - iconMarginXR;
     ea4:	e0fffd0b 	ldhu	r3,-12(fp)
     ea8:	e0bff68b 	ldhu	r2,-38(fp)
     eac:	1885c83a 	sub	r2,r3,r2
     eb0:	1007883a 	mov	r3,r2
     eb4:	e0bff70b 	ldhu	r2,-36(fp)
     eb8:	1885c83a 	sub	r2,r3,r2
     ebc:	e0bff88d 	sth	r2,-30(fp)
	short iconUpHeight = iconWidth;
     ec0:	e0bff88b 	ldhu	r2,-30(fp)
     ec4:	e0bff90d 	sth	r2,-28(fp)
	short iconDownHeight = iconWidth;
     ec8:	e0bff88b 	ldhu	r2,-30(fp)
     ecc:	e0bff98d 	sth	r2,-26(fp)
	short iconDownMarginYU = height - iconDownHeight - iconUpMarginYU;
     ed0:	e0fffe0b 	ldhu	r3,-8(fp)
     ed4:	e0bff98b 	ldhu	r2,-26(fp)
     ed8:	1885c83a 	sub	r2,r3,r2
     edc:	1007883a 	mov	r3,r2
     ee0:	e0bff78b 	ldhu	r2,-34(fp)
     ee4:	1885c83a 	sub	r2,r3,r2
     ee8:	e0bffa0d 	sth	r2,-24(fp)
	short iconSpacing = 2;//iconBlock之间的纵向间隔
     eec:	00800084 	movi	r2,2
     ef0:	e0bffa8d 	sth	r2,-22(fp)
	short iconBarMoveMarginYU = iconUpMarginYU + iconUpHeight + iconSpacing;
     ef4:	e0fff78b 	ldhu	r3,-34(fp)
     ef8:	e0bff90b 	ldhu	r2,-28(fp)
     efc:	1885883a 	add	r2,r3,r2
     f00:	1007883a 	mov	r3,r2
     f04:	e0bffa8b 	ldhu	r2,-22(fp)
     f08:	1885883a 	add	r2,r3,r2
     f0c:	e0bffb0d 	sth	r2,-20(fp)
	short iconBarMoveHeight = height - iconDownMarginYD - iconDownHeight - iconSpacing - iconBarMoveMarginYU;
     f10:	e0fffe0b 	ldhu	r3,-8(fp)
     f14:	e0bff80b 	ldhu	r2,-32(fp)
     f18:	1885c83a 	sub	r2,r3,r2
     f1c:	1007883a 	mov	r3,r2
     f20:	e0bff98b 	ldhu	r2,-26(fp)
     f24:	1885c83a 	sub	r2,r3,r2
     f28:	1007883a 	mov	r3,r2
     f2c:	e0bffa8b 	ldhu	r2,-22(fp)
     f30:	1885c83a 	sub	r2,r3,r2
     f34:	1007883a 	mov	r3,r2
     f38:	e0bffb0b 	ldhu	r2,-20(fp)
     f3c:	1885c83a 	sub	r2,r3,r2
     f40:	e0bffb8d 	sth	r2,-18(fp)

	//上移键图标
	status = status && setAreaRange( &(scrollBarYInst->iconMoveUpArea), iconMarginXL+1, iconMarginXL+iconWidth,\
     f44:	e0bff603 	ldbu	r2,-40(fp)
     f48:	10001e26 	beq	r2,zero,fc4 <setDefaultScrollBarY+0x1a0>
     f4c:	e0bffc17 	ldw	r2,-16(fp)
     f50:	11000204 	addi	r4,r2,8
     f54:	e0bff68b 	ldhu	r2,-38(fp)
     f58:	10800044 	addi	r2,r2,1
     f5c:	117fffcc 	andi	r5,r2,65535
     f60:	2960001c 	xori	r5,r5,32768
     f64:	29600004 	addi	r5,r5,-32768
     f68:	e0fff68b 	ldhu	r3,-38(fp)
     f6c:	e0bff88b 	ldhu	r2,-30(fp)
     f70:	1885883a 	add	r2,r3,r2
     f74:	11bfffcc 	andi	r6,r2,65535
     f78:	31a0001c 	xori	r6,r6,32768
     f7c:	31a00004 	addi	r6,r6,-32768
     f80:	e0bff78b 	ldhu	r2,-34(fp)
     f84:	10800044 	addi	r2,r2,1
     f88:	11ffffcc 	andi	r7,r2,65535
     f8c:	39e0001c 	xori	r7,r7,32768
     f90:	39e00004 	addi	r7,r7,-32768
     f94:	e0fff78b 	ldhu	r3,-34(fp)
     f98:	e0bff90b 	ldhu	r2,-28(fp)
     f9c:	1885883a 	add	r2,r3,r2
     fa0:	10bfffcc 	andi	r2,r2,65535
     fa4:	10a0001c 	xori	r2,r2,32768
     fa8:	10a00004 	addi	r2,r2,-32768
     fac:	d8800015 	stw	r2,0(sp)
     fb0:	000044c0 	call	44c <setAreaRange>
     fb4:	10803fcc 	andi	r2,r2,255
     fb8:	10000226 	beq	r2,zero,fc4 <setDefaultScrollBarY+0x1a0>
     fbc:	00800044 	movi	r2,1
     fc0:	00000106 	br	fc8 <setDefaultScrollBarY+0x1a4>
     fc4:	0005883a 	mov	r2,zero
     fc8:	e0bff605 	stb	r2,-40(fp)
     fcc:	e0bff603 	ldbu	r2,-40(fp)
     fd0:	1080004c 	andi	r2,r2,1
     fd4:	e0bff605 	stb	r2,-40(fp)
					iconUpMarginYU+1, iconUpMarginYU+iconUpHeight );
	status = status && setDefaultIconBlock( &(scrollBarYInst->iconMoveUp), icon_move_up, iconWidth, iconUpHeight,\
     fd8:	e0bff603 	ldbu	r2,-40(fp)
     fdc:	10001026 	beq	r2,zero,1020 <setDefaultScrollBarY+0x1fc>
     fe0:	e0bffc17 	ldw	r2,-16(fp)
     fe4:	11000404 	addi	r4,r2,16
     fe8:	e1bff88f 	ldh	r6,-30(fp)
     fec:	e0fff90f 	ldh	r3,-28(fp)
     ff0:	00800304 	movi	r2,12
     ff4:	d8800015 	stw	r2,0(sp)
     ff8:	00800204 	movi	r2,8
     ffc:	d8800115 	stw	r2,4(sp)
    1000:	01400374 	movhi	r5,13
    1004:	29428804 	addi	r5,r5,2592
    1008:	180f883a 	mov	r7,r3
    100c:	00013700 	call	1370 <setDefaultIconBlock>
    1010:	10803fcc 	andi	r2,r2,255
    1014:	10000226 	beq	r2,zero,1020 <setDefaultScrollBarY+0x1fc>
    1018:	00800044 	movi	r2,1
    101c:	00000106 	br	1024 <setDefaultScrollBarY+0x200>
    1020:	0005883a 	mov	r2,zero
    1024:	e0bff605 	stb	r2,-40(fp)
    1028:	e0bff603 	ldbu	r2,-40(fp)
    102c:	1080004c 	andi	r2,r2,1
    1030:	e0bff605 	stb	r2,-40(fp)
					ICON_MOVE_UP_X_SIZE, ICON_MOVE_UP_Y_SIZE );

	//下移键图标
	status = status && setAreaRange( &(scrollBarYInst->iconMoveDownArea), iconMarginXL+1, iconMarginXL+iconWidth,\
    1034:	e0bff603 	ldbu	r2,-40(fp)
    1038:	10001e26 	beq	r2,zero,10b4 <setDefaultScrollBarY+0x290>
    103c:	e0bffc17 	ldw	r2,-16(fp)
    1040:	11000a04 	addi	r4,r2,40
    1044:	e0bff68b 	ldhu	r2,-38(fp)
    1048:	10800044 	addi	r2,r2,1
    104c:	117fffcc 	andi	r5,r2,65535
    1050:	2960001c 	xori	r5,r5,32768
    1054:	29600004 	addi	r5,r5,-32768
    1058:	e0fff68b 	ldhu	r3,-38(fp)
    105c:	e0bff88b 	ldhu	r2,-30(fp)
    1060:	1885883a 	add	r2,r3,r2
    1064:	11bfffcc 	andi	r6,r2,65535
    1068:	31a0001c 	xori	r6,r6,32768
    106c:	31a00004 	addi	r6,r6,-32768
    1070:	e0bffa0b 	ldhu	r2,-24(fp)
    1074:	10800044 	addi	r2,r2,1
    1078:	11ffffcc 	andi	r7,r2,65535
    107c:	39e0001c 	xori	r7,r7,32768
    1080:	39e00004 	addi	r7,r7,-32768
    1084:	e0fffa0b 	ldhu	r3,-24(fp)
    1088:	e0bff98b 	ldhu	r2,-26(fp)
    108c:	1885883a 	add	r2,r3,r2
    1090:	10bfffcc 	andi	r2,r2,65535
    1094:	10a0001c 	xori	r2,r2,32768
    1098:	10a00004 	addi	r2,r2,-32768
    109c:	d8800015 	stw	r2,0(sp)
    10a0:	000044c0 	call	44c <setAreaRange>
    10a4:	10803fcc 	andi	r2,r2,255
    10a8:	10000226 	beq	r2,zero,10b4 <setDefaultScrollBarY+0x290>
    10ac:	00800044 	movi	r2,1
    10b0:	00000106 	br	10b8 <setDefaultScrollBarY+0x294>
    10b4:	0005883a 	mov	r2,zero
    10b8:	e0bff605 	stb	r2,-40(fp)
    10bc:	e0bff603 	ldbu	r2,-40(fp)
    10c0:	1080004c 	andi	r2,r2,1
    10c4:	e0bff605 	stb	r2,-40(fp)
					iconDownMarginYU+1, iconDownMarginYU+iconDownHeight );
	status = status && setDefaultIconBlock( &(scrollBarYInst->iconMoveDown), icon_move_down, iconWidth, iconDownHeight,\
    10c8:	e0bff603 	ldbu	r2,-40(fp)
    10cc:	10001026 	beq	r2,zero,1110 <setDefaultScrollBarY+0x2ec>
    10d0:	e0bffc17 	ldw	r2,-16(fp)
    10d4:	11000c04 	addi	r4,r2,48
    10d8:	e1bff88f 	ldh	r6,-30(fp)
    10dc:	e0fff98f 	ldh	r3,-26(fp)
    10e0:	00800304 	movi	r2,12
    10e4:	d8800015 	stw	r2,0(sp)
    10e8:	00800204 	movi	r2,8
    10ec:	d8800115 	stw	r2,4(sp)
    10f0:	01400374 	movhi	r5,13
    10f4:	29428c04 	addi	r5,r5,2608
    10f8:	180f883a 	mov	r7,r3
    10fc:	00013700 	call	1370 <setDefaultIconBlock>
    1100:	10803fcc 	andi	r2,r2,255
    1104:	10000226 	beq	r2,zero,1110 <setDefaultScrollBarY+0x2ec>
    1108:	00800044 	movi	r2,1
    110c:	00000106 	br	1114 <setDefaultScrollBarY+0x2f0>
    1110:	0005883a 	mov	r2,zero
    1114:	e0bff605 	stb	r2,-40(fp)
    1118:	e0bff603 	ldbu	r2,-40(fp)
    111c:	1080004c 	andi	r2,r2,1
    1120:	e0bff605 	stb	r2,-40(fp)
					ICON_MOVE_DOWN_X_SIZE, ICON_MOVE_DOWN_Y_SIZE );


	//滚动条
	//运动区
	status = status && setAreaRange( &(scrollBarYInst->barMoveArea), iconMarginXL+1, iconMarginXL+iconWidth, \
    1124:	e0bff603 	ldbu	r2,-40(fp)
    1128:	10001e26 	beq	r2,zero,11a4 <setDefaultScrollBarY+0x380>
    112c:	e0bffc17 	ldw	r2,-16(fp)
    1130:	11001a04 	addi	r4,r2,104
    1134:	e0bff68b 	ldhu	r2,-38(fp)
    1138:	10800044 	addi	r2,r2,1
    113c:	117fffcc 	andi	r5,r2,65535
    1140:	2960001c 	xori	r5,r5,32768
    1144:	29600004 	addi	r5,r5,-32768
    1148:	e0fff68b 	ldhu	r3,-38(fp)
    114c:	e0bff88b 	ldhu	r2,-30(fp)
    1150:	1885883a 	add	r2,r3,r2
    1154:	11bfffcc 	andi	r6,r2,65535
    1158:	31a0001c 	xori	r6,r6,32768
    115c:	31a00004 	addi	r6,r6,-32768
    1160:	e0bffb0b 	ldhu	r2,-20(fp)
    1164:	10800044 	addi	r2,r2,1
    1168:	11ffffcc 	andi	r7,r2,65535
    116c:	39e0001c 	xori	r7,r7,32768
    1170:	39e00004 	addi	r7,r7,-32768
    1174:	e0fffb0b 	ldhu	r3,-20(fp)
    1178:	e0bffb8b 	ldhu	r2,-18(fp)
    117c:	1885883a 	add	r2,r3,r2
    1180:	10bfffcc 	andi	r2,r2,65535
    1184:	10a0001c 	xori	r2,r2,32768
    1188:	10a00004 	addi	r2,r2,-32768
    118c:	d8800015 	stw	r2,0(sp)
    1190:	000044c0 	call	44c <setAreaRange>
    1194:	10803fcc 	andi	r2,r2,255
    1198:	10000226 	beq	r2,zero,11a4 <setDefaultScrollBarY+0x380>
    119c:	00800044 	movi	r2,1
    11a0:	00000106 	br	11a8 <setDefaultScrollBarY+0x384>
    11a4:	0005883a 	mov	r2,zero
    11a8:	e0bff605 	stb	r2,-40(fp)
    11ac:	e0bff603 	ldbu	r2,-40(fp)
    11b0:	1080004c 	andi	r2,r2,1
    11b4:	e0bff605 	stb	r2,-40(fp)
					iconBarMoveMarginYU+1, iconBarMoveMarginYU+iconBarMoveHeight );

	//滚动条纵向偏移量
	scrollBarYInst->barHeight = barYRatio * iconBarMoveHeight;//计算滚动条的长度，barYRatio是滚动条高度占整个运动区高度的比率
    11b8:	e0bffb8f 	ldh	r2,-18(fp)
    11bc:	1009883a 	mov	r4,r2
    11c0:	00088c00 	call	88c0 <__floatsisf>
    11c4:	1007883a 	mov	r3,r2
    11c8:	1809883a 	mov	r4,r3
    11cc:	e17fff17 	ldw	r5,-4(fp)
    11d0:	00084240 	call	8424 <__mulsf3>
    11d4:	1007883a 	mov	r3,r2
    11d8:	1805883a 	mov	r2,r3
    11dc:	1009883a 	mov	r4,r2
    11e0:	00088480 	call	8848 <__fixsfsi>
    11e4:	1007883a 	mov	r3,r2
    11e8:	e0bffc17 	ldw	r2,-16(fp)
    11ec:	10c01d0d 	sth	r3,116(r2)
	if ( scrollBarYInst->barHeight > iconBarMoveHeight )//文件数很少，不需要滚动条
    11f0:	e0bffc17 	ldw	r2,-16(fp)
    11f4:	10801d0b 	ldhu	r2,116(r2)
    11f8:	10bfffcc 	andi	r2,r2,65535
    11fc:	10a0001c 	xori	r2,r2,32768
    1200:	10a00004 	addi	r2,r2,-32768
    1204:	e0fffb8f 	ldh	r3,-18(fp)
    1208:	1880060e 	bge	r3,r2,1224 <setDefaultScrollBarY+0x400>
	{
		scrollBarYInst->iconBarVisible = false;
    120c:	e0bffc17 	ldw	r2,-16(fp)
    1210:	10001d85 	stb	zero,118(r2)
		scrollBarYInst->barHeight = iconBarMoveHeight;
    1214:	e0bffc17 	ldw	r2,-16(fp)
    1218:	e0fffb8b 	ldhu	r3,-18(fp)
    121c:	10c01d0d 	sth	r3,116(r2)
    1220:	00000306 	br	1230 <setDefaultScrollBarY+0x40c>
	}
	else//文件很多，需要滚动条
	{
		scrollBarYInst->iconBarVisible = true;
    1224:	e0bffc17 	ldw	r2,-16(fp)
    1228:	00c00044 	movi	r3,1
    122c:	10c01d85 	stb	r3,118(r2)
	}

	scrollBarYInst->barYOffsetMax = iconBarMoveHeight - scrollBarYInst->barHeight;
    1230:	e0bffb8b 	ldhu	r2,-18(fp)
    1234:	e0fffc17 	ldw	r3,-16(fp)
    1238:	18c01d0b 	ldhu	r3,116(r3)
    123c:	10c5c83a 	sub	r2,r2,r3
    1240:	1007883a 	mov	r3,r2
    1244:	e0bffc17 	ldw	r2,-16(fp)
    1248:	10c01c8d 	sth	r3,114(r2)
	scrollBarYInst->barYoffset = 0;
    124c:	e0bffc17 	ldw	r2,-16(fp)
    1250:	10001c0d 	sth	zero,112(r2)

	//基本区（纵向偏移量为0时的位置）
	status = status && setAreaRange( &(scrollBarYInst->barBaseArea), iconMarginXL+1, iconMarginXL+iconWidth,\
    1254:	e0bff603 	ldbu	r2,-40(fp)
    1258:	10002126 	beq	r2,zero,12e0 <setDefaultScrollBarY+0x4bc>
    125c:	e0bffc17 	ldw	r2,-16(fp)
    1260:	11001204 	addi	r4,r2,72
    1264:	e0bff68b 	ldhu	r2,-38(fp)
    1268:	10800044 	addi	r2,r2,1
    126c:	117fffcc 	andi	r5,r2,65535
    1270:	2960001c 	xori	r5,r5,32768
    1274:	29600004 	addi	r5,r5,-32768
    1278:	e0fff68b 	ldhu	r3,-38(fp)
    127c:	e0bff88b 	ldhu	r2,-30(fp)
    1280:	1885883a 	add	r2,r3,r2
    1284:	11bfffcc 	andi	r6,r2,65535
    1288:	31a0001c 	xori	r6,r6,32768
    128c:	31a00004 	addi	r6,r6,-32768
    1290:	e0bffb0b 	ldhu	r2,-20(fp)
    1294:	10800044 	addi	r2,r2,1
    1298:	10ffffcc 	andi	r3,r2,65535
    129c:	18e0001c 	xori	r3,r3,32768
    12a0:	18e00004 	addi	r3,r3,-32768
					iconBarMoveMarginYU+1, iconBarMoveMarginYU+scrollBarYInst->barHeight );
    12a4:	e0bffc17 	ldw	r2,-16(fp)
    12a8:	10801d0b 	ldhu	r2,116(r2)

	scrollBarYInst->barYOffsetMax = iconBarMoveHeight - scrollBarYInst->barHeight;
	scrollBarYInst->barYoffset = 0;

	//基本区（纵向偏移量为0时的位置）
	status = status && setAreaRange( &(scrollBarYInst->barBaseArea), iconMarginXL+1, iconMarginXL+iconWidth,\
    12ac:	100f883a 	mov	r7,r2
    12b0:	e0bffb0b 	ldhu	r2,-20(fp)
    12b4:	3885883a 	add	r2,r7,r2
    12b8:	10bfffcc 	andi	r2,r2,65535
    12bc:	10a0001c 	xori	r2,r2,32768
    12c0:	10a00004 	addi	r2,r2,-32768
    12c4:	d8800015 	stw	r2,0(sp)
    12c8:	180f883a 	mov	r7,r3
    12cc:	000044c0 	call	44c <setAreaRange>
    12d0:	10803fcc 	andi	r2,r2,255
    12d4:	10000226 	beq	r2,zero,12e0 <setDefaultScrollBarY+0x4bc>
    12d8:	00800044 	movi	r2,1
    12dc:	00000106 	br	12e4 <setDefaultScrollBarY+0x4c0>
    12e0:	0005883a 	mov	r2,zero
    12e4:	e0bff605 	stb	r2,-40(fp)
    12e8:	e0bff603 	ldbu	r2,-40(fp)
    12ec:	1080004c 	andi	r2,r2,1
    12f0:	e0bff605 	stb	r2,-40(fp)
					iconBarMoveMarginYU+1, iconBarMoveMarginYU+scrollBarYInst->barHeight );
	status = status && setDefaultIconBlock( &(scrollBarYInst->iconMoveDown), (void*)0, iconWidth, scrollBarYInst->barHeight, 0, 0 );
    12f4:	e0bff603 	ldbu	r2,-40(fp)
    12f8:	10001226 	beq	r2,zero,1344 <setDefaultScrollBarY+0x520>
    12fc:	e0bffc17 	ldw	r2,-16(fp)
    1300:	11000c04 	addi	r4,r2,48
    1304:	e0fff88f 	ldh	r3,-30(fp)
    1308:	e0bffc17 	ldw	r2,-16(fp)
    130c:	10801d0b 	ldhu	r2,116(r2)
    1310:	10bfffcc 	andi	r2,r2,65535
    1314:	10a0001c 	xori	r2,r2,32768
    1318:	10a00004 	addi	r2,r2,-32768
    131c:	d8000015 	stw	zero,0(sp)
    1320:	d8000115 	stw	zero,4(sp)
    1324:	000b883a 	mov	r5,zero
    1328:	180d883a 	mov	r6,r3
    132c:	100f883a 	mov	r7,r2
    1330:	00013700 	call	1370 <setDefaultIconBlock>
    1334:	10803fcc 	andi	r2,r2,255
    1338:	10000226 	beq	r2,zero,1344 <setDefaultScrollBarY+0x520>
    133c:	00800044 	movi	r2,1
    1340:	00000106 	br	1348 <setDefaultScrollBarY+0x524>
    1344:	0005883a 	mov	r2,zero
    1348:	e0bff605 	stb	r2,-40(fp)
    134c:	e0bff603 	ldbu	r2,-40(fp)
    1350:	1080004c 	andi	r2,r2,1
    1354:	e0bff605 	stb	r2,-40(fp)


	return status;
    1358:	e0bff603 	ldbu	r2,-40(fp)
}
    135c:	e037883a 	mov	sp,fp
    1360:	dfc00117 	ldw	ra,4(sp)
    1364:	df000017 	ldw	fp,0(sp)
    1368:	dec00204 	addi	sp,sp,8
    136c:	f800283a 	ret

00001370 <setDefaultIconBlock>:
//设置默认居中图标
bool setDefaultIconBlock( IconBlock *iconPtr, const alt_u8 *iconModel, short width, short height, short iconXSize, short iconYSize )
{
    1370:	defff604 	addi	sp,sp,-40
    1374:	dfc00915 	stw	ra,36(sp)
    1378:	df000815 	stw	fp,32(sp)
    137c:	df000804 	addi	fp,sp,32
    1380:	e13ffa15 	stw	r4,-24(fp)
    1384:	e17ffb15 	stw	r5,-20(fp)
    1388:	300b883a 	mov	r5,r6
    138c:	3809883a 	mov	r4,r7
    1390:	e0c00217 	ldw	r3,8(fp)
    1394:	e0800317 	ldw	r2,12(fp)
    1398:	e17ffc0d 	sth	r5,-16(fp)
    139c:	e13ffd0d 	sth	r4,-12(fp)
    13a0:	e0fffe0d 	sth	r3,-8(fp)
    13a4:	e0bfff0d 	sth	r2,-4(fp)
	iconPtr->iconColorInfo = defaultColorInfo;
    13a8:	e0bffa17 	ldw	r2,-24(fp)
    13ac:	d0e0040b 	ldhu	r3,-32752(gp)
    13b0:	10c0020d 	sth	r3,8(r2)
    13b4:	d0e00484 	addi	r3,gp,-32750
    13b8:	18c0000b 	ldhu	r3,0(r3)
    13bc:	10c0028d 	sth	r3,10(r2)
    13c0:	d0e00504 	addi	r3,gp,-32748
    13c4:	18c0000b 	ldhu	r3,0(r3)
    13c8:	10c0030d 	sth	r3,12(r2)
    13cc:	d0e00584 	addi	r3,gp,-32746
    13d0:	18c0000b 	ldhu	r3,0(r3)
    13d4:	10c0038d 	sth	r3,14(r2)

	iconPtr->iconPic = iconModel;
    13d8:	e0bffa17 	ldw	r2,-24(fp)
    13dc:	e0fffb17 	ldw	r3,-20(fp)
    13e0:	10c00415 	stw	r3,16(r2)
	iconPtr->iconXSize = iconXSize;
    13e4:	e0bffa17 	ldw	r2,-24(fp)
    13e8:	e0fffe0b 	ldhu	r3,-8(fp)
    13ec:	10c0050d 	sth	r3,20(r2)
	iconPtr->iconYSize = iconYSize;
    13f0:	e0bffa17 	ldw	r2,-24(fp)
    13f4:	e0ffff0b 	ldhu	r3,-4(fp)
    13f8:	10c0058d 	sth	r3,22(r2)

	(iconPtr->iconColorInfo).objVisible = ( iconModel == NULL )? false : true;
    13fc:	e0bffb17 	ldw	r2,-20(fp)
    1400:	1004c03a 	cmpne	r2,r2,zero
    1404:	1007883a 	mov	r3,r2
    1408:	e0bffa17 	ldw	r2,-24(fp)
    140c:	10c003c5 	stb	r3,15(r2)



	bool status = setAreaRangeCentered( &(iconPtr->picArea ), width, height, iconXSize, iconYSize );
    1410:	e13ffa17 	ldw	r4,-24(fp)
    1414:	e17ffc0f 	ldh	r5,-16(fp)
    1418:	e1bffd0f 	ldh	r6,-12(fp)
    141c:	e0fffe0f 	ldh	r3,-8(fp)
    1420:	e0bfff0f 	ldh	r2,-4(fp)
    1424:	d8800015 	stw	r2,0(sp)
    1428:	180f883a 	mov	r7,r3
    142c:	00008400 	call	840 <setAreaRangeCentered>
    1430:	e0bff905 	stb	r2,-28(fp)

	return status;
    1434:	e0bff903 	ldbu	r2,-28(fp)
}
    1438:	e037883a 	mov	sp,fp
    143c:	dfc00117 	ldw	ra,4(sp)
    1440:	df000017 	ldw	fp,0(sp)
    1444:	dec00204 	addi	sp,sp,8
    1448:	f800283a 	ret

0000144c <setDefaultColorBoard>:

//设置取色板信息(颜色的位置colorPos表示屏幕中选中的位置，根据该位置，显示器会突出该块颜色的边界)
void setDefaultColorBoard( ColorBoard *colorPickerInst, color_u8 *colorSel, short width, short height )
{
    144c:	defffb04 	addi	sp,sp,-20
    1450:	df000415 	stw	fp,16(sp)
    1454:	df000404 	addi	fp,sp,16
    1458:	e13ffc15 	stw	r4,-16(fp)
    145c:	e17ffd15 	stw	r5,-12(fp)
    1460:	3007883a 	mov	r3,r6
    1464:	3805883a 	mov	r2,r7
    1468:	e0fffe0d 	sth	r3,-8(fp)
    146c:	e0bfff0d 	sth	r2,-4(fp)
	colorPickerInst->colorIndex = colorSel;
    1470:	e0bffc17 	ldw	r2,-16(fp)
    1474:	e0fffd17 	ldw	r3,-12(fp)
    1478:	10c00315 	stw	r3,12(r2)
	colorPickerInst->colorXNum = COLOR_FORM_X_NUM;//颜色有16行
    147c:	e0bffc17 	ldw	r2,-16(fp)
    1480:	00c00404 	movi	r3,16
    1484:	10c0010d 	sth	r3,4(r2)
	colorPickerInst->colorYNum = COLOR_FORM_Y_NUM;//颜色有16列
    1488:	e0bffc17 	ldw	r2,-16(fp)
    148c:	00c00404 	movi	r3,16
    1490:	10c0018d 	sth	r3,6(r2)
	colorPickerInst->colorXSize = width / 16;
    1494:	e0bffe0f 	ldh	r2,-8(fp)
    1498:	1000010e 	bge	r2,zero,14a0 <setDefaultColorBoard+0x54>
    149c:	108003c4 	addi	r2,r2,15
    14a0:	1005d13a 	srai	r2,r2,4
    14a4:	1007883a 	mov	r3,r2
    14a8:	e0bffc17 	ldw	r2,-16(fp)
    14ac:	10c0000d 	sth	r3,0(r2)
	colorPickerInst->colorYSize = height / 16;
    14b0:	e0bfff0f 	ldh	r2,-4(fp)
    14b4:	1000010e 	bge	r2,zero,14bc <setDefaultColorBoard+0x70>
    14b8:	108003c4 	addi	r2,r2,15
    14bc:	1005d13a 	srai	r2,r2,4
    14c0:	1007883a 	mov	r3,r2
    14c4:	e0bffc17 	ldw	r2,-16(fp)
    14c8:	10c0008d 	sth	r3,2(r2)
	colorPickerInst->colorSpace = color_form;
    14cc:	e0fffc17 	ldw	r3,-16(fp)
    14d0:	00800374 	movhi	r2,13
    14d4:	1091c004 	addi	r2,r2,18176
    14d8:	18800215 	stw	r2,8(r3)
}
    14dc:	e037883a 	mov	sp,fp
    14e0:	df000017 	ldw	fp,0(sp)
    14e4:	dec00104 	addi	sp,sp,4
    14e8:	f800283a 	ret

000014ec <getWordLetterArrange>:

//获取文本中汉字与字母的分布表(值为'c'，代表汉字，值为'e'，代表英文字母
char *getWordLetterArrange( char *str, short len )
{
    14ec:	defff804 	addi	sp,sp,-32
    14f0:	dfc00715 	stw	ra,28(sp)
    14f4:	df000615 	stw	fp,24(sp)
    14f8:	df000604 	addi	fp,sp,24
    14fc:	e13ffe15 	stw	r4,-8(fp)
    1500:	2805883a 	mov	r2,r5
    1504:	e0bfff0d 	sth	r2,-4(fp)
	char *strType = (char*)malloc( sizeof( char ) * (len+1) );
    1508:	e0bfff0f 	ldh	r2,-4(fp)
    150c:	10800044 	addi	r2,r2,1
    1510:	1009883a 	mov	r4,r2
    1514:	0008a580 	call	8a58 <malloc>
    1518:	e0bffc15 	stw	r2,-16(fp)
	short strTypeVaildNum = 0;
    151c:	e03ffa0d 	sth	zero,-24(fp)

	int i;
	for ( i = 0; i < len; i ++ )
    1520:	e03ffb15 	stw	zero,-20(fp)
    1524:	00002e06 	br	15e0 <getWordLetterArrange+0xf4>
	{
		char curChar = str[i];
    1528:	e0bffb17 	ldw	r2,-20(fp)
    152c:	e0fffe17 	ldw	r3,-8(fp)
    1530:	1885883a 	add	r2,r3,r2
    1534:	10800003 	ldbu	r2,0(r2)
    1538:	e0bffd05 	stb	r2,-12(fp)
		if ( curChar == 0 )//结束标志
    153c:	e0bffd07 	ldb	r2,-12(fp)
    1540:	1000011e 	bne	r2,zero,1548 <getWordLetterArrange+0x5c>
		{
			break;
    1544:	00002906 	br	15ec <getWordLetterArrange+0x100>
		}
		if ( curChar < 0 )//当前字节为汉字高字节
    1548:	e0bffd07 	ldb	r2,-12(fp)
    154c:	1000190e 	bge	r2,zero,15b4 <getWordLetterArrange+0xc8>
		{
			strType[strTypeVaildNum] = 'c';//中文CHINESE
    1550:	e0bffa0f 	ldh	r2,-24(fp)
    1554:	e0fffc17 	ldw	r3,-16(fp)
    1558:	1885883a 	add	r2,r3,r2
    155c:	00c018c4 	movi	r3,99
    1560:	10c00005 	stb	r3,0(r2)
			i = i + 1;
    1564:	e0bffb17 	ldw	r2,-20(fp)
    1568:	10800044 	addi	r2,r2,1
    156c:	e0bffb15 	stw	r2,-20(fp)
			if ( i == len || str[i] == 0 )//到了字符串结束，低字节却不存在，有问题
    1570:	e0ffff0f 	ldh	r3,-4(fp)
    1574:	e0bffb17 	ldw	r2,-20(fp)
    1578:	18800826 	beq	r3,r2,159c <getWordLetterArrange+0xb0>
    157c:	e0bffb17 	ldw	r2,-20(fp)
    1580:	e0fffe17 	ldw	r3,-8(fp)
    1584:	1885883a 	add	r2,r3,r2
    1588:	10800003 	ldbu	r2,0(r2)
    158c:	10803fcc 	andi	r2,r2,255
    1590:	1080201c 	xori	r2,r2,128
    1594:	10bfe004 	addi	r2,r2,-128
    1598:	10000b1e 	bne	r2,zero,15c8 <getWordLetterArrange+0xdc>
			{
				strType[strTypeVaildNum] = 0;//结束标志
    159c:	e0bffa0f 	ldh	r2,-24(fp)
    15a0:	e0fffc17 	ldw	r3,-16(fp)
    15a4:	1885883a 	add	r2,r3,r2
    15a8:	10000005 	stb	zero,0(r2)
				return strType;
    15ac:	e0bffc17 	ldw	r2,-16(fp)
    15b0:	00001306 	br	1600 <getWordLetterArrange+0x114>
			}
		}
		else
		{
			strType[strTypeVaildNum] = 'e';//英文ENGLISH
    15b4:	e0bffa0f 	ldh	r2,-24(fp)
    15b8:	e0fffc17 	ldw	r3,-16(fp)
    15bc:	1885883a 	add	r2,r3,r2
    15c0:	00c01944 	movi	r3,101
    15c4:	10c00005 	stb	r3,0(r2)
		}
		strTypeVaildNum ++;
    15c8:	e0bffa0b 	ldhu	r2,-24(fp)
    15cc:	10800044 	addi	r2,r2,1
    15d0:	e0bffa0d 	sth	r2,-24(fp)
{
	char *strType = (char*)malloc( sizeof( char ) * (len+1) );
	short strTypeVaildNum = 0;

	int i;
	for ( i = 0; i < len; i ++ )
    15d4:	e0bffb17 	ldw	r2,-20(fp)
    15d8:	10800044 	addi	r2,r2,1
    15dc:	e0bffb15 	stw	r2,-20(fp)
    15e0:	e0bfff0f 	ldh	r2,-4(fp)
    15e4:	e0fffb17 	ldw	r3,-20(fp)
    15e8:	18bfcf16 	blt	r3,r2,1528 <__alt_data_end+0xf8001528>
		{
			strType[strTypeVaildNum] = 'e';//英文ENGLISH
		}
		strTypeVaildNum ++;
	}
	strType[strTypeVaildNum] = 0;//结束标志
    15ec:	e0bffa0f 	ldh	r2,-24(fp)
    15f0:	e0fffc17 	ldw	r3,-16(fp)
    15f4:	1885883a 	add	r2,r3,r2
    15f8:	10000005 	stb	zero,0(r2)
	return strType;
    15fc:	e0bffc17 	ldw	r2,-16(fp)
}
    1600:	e037883a 	mov	sp,fp
    1604:	dfc00117 	ldw	ra,4(sp)
    1608:	df000017 	ldw	fp,0(sp)
    160c:	dec00204 	addi	sp,sp,8
    1610:	f800283a 	ret

00001614 <getWidthOfText>:

//计算有效文本全部显示时的像素宽度
short getWidthOfText( char *str, short len )
{
    1614:	defff904 	addi	sp,sp,-28
    1618:	dfc00615 	stw	ra,24(sp)
    161c:	df000515 	stw	fp,20(sp)
    1620:	df000504 	addi	fp,sp,20
    1624:	e13ffe15 	stw	r4,-8(fp)
    1628:	2805883a 	mov	r2,r5
    162c:	e0bfff0d 	sth	r2,-4(fp)
	char *strType = getWordLetterArrange( str, len );
    1630:	e0bfff0f 	ldh	r2,-4(fp)
    1634:	e13ffe17 	ldw	r4,-8(fp)
    1638:	100b883a 	mov	r5,r2
    163c:	00014ec0 	call	14ec <getWordLetterArrange>
    1640:	e0bffd15 	stw	r2,-12(fp)

	if ( strType == NULL )
    1644:	e0bffd17 	ldw	r2,-12(fp)
    1648:	1000021e 	bne	r2,zero,1654 <getWidthOfText+0x40>
	{
		return 0;
    164c:	0005883a 	mov	r2,zero
    1650:	00005006 	br	1794 <getWidthOfText+0x180>
	}
	if ( strType[0] == 0 )
    1654:	e0bffd17 	ldw	r2,-12(fp)
    1658:	10800003 	ldbu	r2,0(r2)
    165c:	10803fcc 	andi	r2,r2,255
    1660:	1080201c 	xori	r2,r2,128
    1664:	10bfe004 	addi	r2,r2,-128
    1668:	1000041e 	bne	r2,zero,167c <getWidthOfText+0x68>
	{
		free(strType);
    166c:	e13ffd17 	ldw	r4,-12(fp)
    1670:	0008a6c0 	call	8a6c <free>
		return 0;
    1674:	0005883a 	mov	r2,zero
    1678:	00004606 	br	1794 <getWidthOfText+0x180>
	}

	short textWidth = ( strType[0] == 'e' ) ? SRC_LETTER_SIZE_X : SRC_WORD_SIZE_X;
    167c:	e0bffd17 	ldw	r2,-12(fp)
    1680:	10800003 	ldbu	r2,0(r2)
    1684:	10803fcc 	andi	r2,r2,255
    1688:	1080201c 	xori	r2,r2,128
    168c:	10bfe004 	addi	r2,r2,-128
    1690:	10801958 	cmpnei	r2,r2,101
    1694:	1000021e 	bne	r2,zero,16a0 <getWidthOfText+0x8c>
    1698:	00800204 	movi	r2,8
    169c:	00000106 	br	16a4 <getWidthOfText+0x90>
    16a0:	00800404 	movi	r2,16
    16a4:	e0bffb0d 	sth	r2,-20(fp)

	int i;
	for ( i = 1; strType[i] != 0; i ++ )
    16a8:	00800044 	movi	r2,1
    16ac:	e0bffc15 	stw	r2,-16(fp)
    16b0:	00002d06 	br	1768 <getWidthOfText+0x154>
	{
		if( strType[i-1] == 'e' && strType[i] == 'e' )
    16b4:	e0bffc17 	ldw	r2,-16(fp)
    16b8:	10bfffc4 	addi	r2,r2,-1
    16bc:	e0fffd17 	ldw	r3,-12(fp)
    16c0:	1885883a 	add	r2,r3,r2
    16c4:	10800003 	ldbu	r2,0(r2)
    16c8:	10803fcc 	andi	r2,r2,255
    16cc:	1080201c 	xori	r2,r2,128
    16d0:	10bfe004 	addi	r2,r2,-128
    16d4:	10801958 	cmpnei	r2,r2,101
    16d8:	10000d1e 	bne	r2,zero,1710 <getWidthOfText+0xfc>
    16dc:	e0bffc17 	ldw	r2,-16(fp)
    16e0:	e0fffd17 	ldw	r3,-12(fp)
    16e4:	1885883a 	add	r2,r3,r2
    16e8:	10800003 	ldbu	r2,0(r2)
    16ec:	10803fcc 	andi	r2,r2,255
    16f0:	1080201c 	xori	r2,r2,128
    16f4:	10bfe004 	addi	r2,r2,-128
    16f8:	10801958 	cmpnei	r2,r2,101
    16fc:	1000041e 	bne	r2,zero,1710 <getWidthOfText+0xfc>
		{
			textWidth = textWidth + DEFAULT_LETTER_SPACING;
    1700:	e0bffb0b 	ldhu	r2,-20(fp)
    1704:	10800044 	addi	r2,r2,1
    1708:	e0bffb0d 	sth	r2,-20(fp)
    170c:	00000306 	br	171c <getWidthOfText+0x108>
		}
		else
		{
			textWidth = textWidth + DEFAULT_WORD_SPACING;
    1710:	e0bffb0b 	ldhu	r2,-20(fp)
    1714:	10800084 	addi	r2,r2,2
    1718:	e0bffb0d 	sth	r2,-20(fp)
		}
		if ( strType[i] == 'e' )
    171c:	e0bffc17 	ldw	r2,-16(fp)
    1720:	e0fffd17 	ldw	r3,-12(fp)
    1724:	1885883a 	add	r2,r3,r2
    1728:	10800003 	ldbu	r2,0(r2)
    172c:	10803fcc 	andi	r2,r2,255
    1730:	1080201c 	xori	r2,r2,128
    1734:	10bfe004 	addi	r2,r2,-128
    1738:	10801958 	cmpnei	r2,r2,101
    173c:	1000041e 	bne	r2,zero,1750 <getWidthOfText+0x13c>
		{
			textWidth = textWidth + SRC_LETTER_SIZE_X;
    1740:	e0bffb0b 	ldhu	r2,-20(fp)
    1744:	10800204 	addi	r2,r2,8
    1748:	e0bffb0d 	sth	r2,-20(fp)
    174c:	00000306 	br	175c <getWidthOfText+0x148>
		}
		else
		{
			textWidth = textWidth + SRC_WORD_SIZE_X;
    1750:	e0bffb0b 	ldhu	r2,-20(fp)
    1754:	10800404 	addi	r2,r2,16
    1758:	e0bffb0d 	sth	r2,-20(fp)
	}

	short textWidth = ( strType[0] == 'e' ) ? SRC_LETTER_SIZE_X : SRC_WORD_SIZE_X;

	int i;
	for ( i = 1; strType[i] != 0; i ++ )
    175c:	e0bffc17 	ldw	r2,-16(fp)
    1760:	10800044 	addi	r2,r2,1
    1764:	e0bffc15 	stw	r2,-16(fp)
    1768:	e0bffc17 	ldw	r2,-16(fp)
    176c:	e0fffd17 	ldw	r3,-12(fp)
    1770:	1885883a 	add	r2,r3,r2
    1774:	10800003 	ldbu	r2,0(r2)
    1778:	10803fcc 	andi	r2,r2,255
    177c:	1080201c 	xori	r2,r2,128
    1780:	10bfe004 	addi	r2,r2,-128
    1784:	103fcb1e 	bne	r2,zero,16b4 <__alt_data_end+0xf80016b4>
		else
		{
			textWidth = textWidth + SRC_WORD_SIZE_X;
		}
	}
	free(strType);
    1788:	e13ffd17 	ldw	r4,-12(fp)
    178c:	0008a6c0 	call	8a6c <free>
	return textWidth;
    1790:	e0bffb0b 	ldhu	r2,-20(fp)
}
    1794:	e037883a 	mov	sp,fp
    1798:	dfc00117 	ldw	ra,4(sp)
    179c:	df000017 	ldw	fp,0(sp)
    17a0:	dec00204 	addi	sp,sp,8
    17a4:	f800283a 	ret

000017a8 <setDefaultTagGroup>:


//设置默认标签组
bool setDefaultTagGroup( TagGroup *tagGroupInst, AreaFmt *tagStaticPos, AreaFmt *tagVarPos, short width, short height,\
			char *tagStaText, char *tagVarText )
{
    17a8:	defff704 	addi	sp,sp,-36
    17ac:	dfc00815 	stw	ra,32(sp)
    17b0:	df000715 	stw	fp,28(sp)
    17b4:	df000704 	addi	fp,sp,28
    17b8:	e13ffb15 	stw	r4,-20(fp)
    17bc:	e17ffc15 	stw	r5,-16(fp)
    17c0:	e1bffd15 	stw	r6,-12(fp)
    17c4:	3807883a 	mov	r3,r7
    17c8:	e0800217 	ldw	r2,8(fp)
    17cc:	e0fffe0d 	sth	r3,-8(fp)
    17d0:	e0bfff0d 	sth	r2,-4(fp)
	bool status = true;
    17d4:	00800044 	movi	r2,1
    17d8:	e0bff905 	stb	r2,-28(fp)

	tagGroupInst->bkgBorderColor = defaultColorInfo;
    17dc:	e0bffb17 	ldw	r2,-20(fp)
    17e0:	d0e0040b 	ldhu	r3,-32752(gp)
    17e4:	10c0000d 	sth	r3,0(r2)
    17e8:	d0e00484 	addi	r3,gp,-32750
    17ec:	18c0000b 	ldhu	r3,0(r3)
    17f0:	10c0008d 	sth	r3,2(r2)
    17f4:	d0e00504 	addi	r3,gp,-32748
    17f8:	18c0000b 	ldhu	r3,0(r3)
    17fc:	10c0010d 	sth	r3,4(r2)
    1800:	d0e00584 	addi	r3,gp,-32746
    1804:	18c0000b 	ldhu	r3,0(r3)
    1808:	10c0018d 	sth	r3,6(r2)

	//设置静态标签的位置
	AreaRange *tempArea = &(tagGroupInst->staticTagArea);
    180c:	e0bffb17 	ldw	r2,-20(fp)
    1810:	10800204 	addi	r2,r2,8
    1814:	e0bffa15 	stw	r2,-24(fp)
	status = status && setAreaRangeByAreaFmt( tempArea, tagStaticPos, width, height );
    1818:	e0bff903 	ldbu	r2,-28(fp)
    181c:	10000b26 	beq	r2,zero,184c <setDefaultTagGroup+0xa4>
    1820:	e0fffe0f 	ldh	r3,-8(fp)
    1824:	e0bfff0f 	ldh	r2,-4(fp)
    1828:	e13ffa17 	ldw	r4,-24(fp)
    182c:	e17ffc17 	ldw	r5,-16(fp)
    1830:	180d883a 	mov	r6,r3
    1834:	100f883a 	mov	r7,r2
    1838:	00004dc0 	call	4dc <setAreaRangeByAreaFmt>
    183c:	10803fcc 	andi	r2,r2,255
    1840:	10000226 	beq	r2,zero,184c <setDefaultTagGroup+0xa4>
    1844:	00800044 	movi	r2,1
    1848:	00000106 	br	1850 <setDefaultTagGroup+0xa8>
    184c:	0005883a 	mov	r2,zero
    1850:	e0bff905 	stb	r2,-28(fp)
    1854:	e0bff903 	ldbu	r2,-28(fp)
    1858:	1080004c 	andi	r2,r2,1
    185c:	e0bff905 	stb	r2,-28(fp)
	//设置静态标签内容
	status = status && setDefaultTagBlock( &(tagGroupInst->staticTag), tagStaText, \
    1860:	e0bff903 	ldbu	r2,-28(fp)
    1864:	10001526 	beq	r2,zero,18bc <setDefaultTagGroup+0x114>
    1868:	e0bffb17 	ldw	r2,-20(fp)
    186c:	10c00404 	addi	r3,r2,16
			tempArea->x_max - tempArea->x_min + 1, tempArea->y_max - tempArea->y_max + 1);
    1870:	e0bffa17 	ldw	r2,-24(fp)
    1874:	1080008b 	ldhu	r2,2(r2)

	//设置静态标签的位置
	AreaRange *tempArea = &(tagGroupInst->staticTagArea);
	status = status && setAreaRangeByAreaFmt( tempArea, tagStaticPos, width, height );
	//设置静态标签内容
	status = status && setDefaultTagBlock( &(tagGroupInst->staticTag), tagStaText, \
    1878:	1009883a 	mov	r4,r2
			tempArea->x_max - tempArea->x_min + 1, tempArea->y_max - tempArea->y_max + 1);
    187c:	e0bffa17 	ldw	r2,-24(fp)
    1880:	1080000b 	ldhu	r2,0(r2)

	//设置静态标签的位置
	AreaRange *tempArea = &(tagGroupInst->staticTagArea);
	status = status && setAreaRangeByAreaFmt( tempArea, tagStaticPos, width, height );
	//设置静态标签内容
	status = status && setDefaultTagBlock( &(tagGroupInst->staticTag), tagStaText, \
    1884:	2085c83a 	sub	r2,r4,r2
    1888:	10800044 	addi	r2,r2,1
    188c:	10bfffcc 	andi	r2,r2,65535
    1890:	10a0001c 	xori	r2,r2,32768
    1894:	10a00004 	addi	r2,r2,-32768
    1898:	1809883a 	mov	r4,r3
    189c:	e1400317 	ldw	r5,12(fp)
    18a0:	100d883a 	mov	r6,r2
    18a4:	01c00044 	movi	r7,1
    18a8:	00009c40 	call	9c4 <setDefaultTagBlock>
    18ac:	10803fcc 	andi	r2,r2,255
    18b0:	10000226 	beq	r2,zero,18bc <setDefaultTagGroup+0x114>
    18b4:	00800044 	movi	r2,1
    18b8:	00000106 	br	18c0 <setDefaultTagGroup+0x118>
    18bc:	0005883a 	mov	r2,zero
    18c0:	e0bff905 	stb	r2,-28(fp)
    18c4:	e0bff903 	ldbu	r2,-28(fp)
    18c8:	1080004c 	andi	r2,r2,1
    18cc:	e0bff905 	stb	r2,-28(fp)
			tempArea->x_max - tempArea->x_min + 1, tempArea->y_max - tempArea->y_max + 1);


	//设置动态标签的位置
	tempArea = &(tagGroupInst->varTagArea);
    18d0:	e0bffb17 	ldw	r2,-20(fp)
    18d4:	10800d04 	addi	r2,r2,52
    18d8:	e0bffa15 	stw	r2,-24(fp)
	status = status && setAreaRangeByAreaFmt( tempArea, tagVarPos, width, height );
    18dc:	e0bff903 	ldbu	r2,-28(fp)
    18e0:	10000b26 	beq	r2,zero,1910 <setDefaultTagGroup+0x168>
    18e4:	e0fffe0f 	ldh	r3,-8(fp)
    18e8:	e0bfff0f 	ldh	r2,-4(fp)
    18ec:	e13ffa17 	ldw	r4,-24(fp)
    18f0:	e17ffd17 	ldw	r5,-12(fp)
    18f4:	180d883a 	mov	r6,r3
    18f8:	100f883a 	mov	r7,r2
    18fc:	00004dc0 	call	4dc <setAreaRangeByAreaFmt>
    1900:	10803fcc 	andi	r2,r2,255
    1904:	10000226 	beq	r2,zero,1910 <setDefaultTagGroup+0x168>
    1908:	00800044 	movi	r2,1
    190c:	00000106 	br	1914 <setDefaultTagGroup+0x16c>
    1910:	0005883a 	mov	r2,zero
    1914:	e0bff905 	stb	r2,-28(fp)
    1918:	e0bff903 	ldbu	r2,-28(fp)
    191c:	1080004c 	andi	r2,r2,1
    1920:	e0bff905 	stb	r2,-28(fp)
	//设置动态标签内容
	status = status && setDefaultTagBlock( &(tagGroupInst->varTag), tagVarText, \
    1924:	e0bff903 	ldbu	r2,-28(fp)
    1928:	10001526 	beq	r2,zero,1980 <setDefaultTagGroup+0x1d8>
    192c:	e0bffb17 	ldw	r2,-20(fp)
    1930:	10c00f04 	addi	r3,r2,60
			tempArea->x_max - tempArea->x_min + 1, tempArea->y_max - tempArea->y_max + 1);
    1934:	e0bffa17 	ldw	r2,-24(fp)
    1938:	1080008b 	ldhu	r2,2(r2)

	//设置动态标签的位置
	tempArea = &(tagGroupInst->varTagArea);
	status = status && setAreaRangeByAreaFmt( tempArea, tagVarPos, width, height );
	//设置动态标签内容
	status = status && setDefaultTagBlock( &(tagGroupInst->varTag), tagVarText, \
    193c:	1009883a 	mov	r4,r2
			tempArea->x_max - tempArea->x_min + 1, tempArea->y_max - tempArea->y_max + 1);
    1940:	e0bffa17 	ldw	r2,-24(fp)
    1944:	1080000b 	ldhu	r2,0(r2)

	//设置动态标签的位置
	tempArea = &(tagGroupInst->varTagArea);
	status = status && setAreaRangeByAreaFmt( tempArea, tagVarPos, width, height );
	//设置动态标签内容
	status = status && setDefaultTagBlock( &(tagGroupInst->varTag), tagVarText, \
    1948:	2085c83a 	sub	r2,r4,r2
    194c:	10800044 	addi	r2,r2,1
    1950:	10bfffcc 	andi	r2,r2,65535
    1954:	10a0001c 	xori	r2,r2,32768
    1958:	10a00004 	addi	r2,r2,-32768
    195c:	1809883a 	mov	r4,r3
    1960:	e1400417 	ldw	r5,16(fp)
    1964:	100d883a 	mov	r6,r2
    1968:	01c00044 	movi	r7,1
    196c:	00009c40 	call	9c4 <setDefaultTagBlock>
    1970:	10803fcc 	andi	r2,r2,255
    1974:	10000226 	beq	r2,zero,1980 <setDefaultTagGroup+0x1d8>
    1978:	00800044 	movi	r2,1
    197c:	00000106 	br	1984 <setDefaultTagGroup+0x1dc>
    1980:	0005883a 	mov	r2,zero
    1984:	e0bff905 	stb	r2,-28(fp)
    1988:	e0bff903 	ldbu	r2,-28(fp)
    198c:	1080004c 	andi	r2,r2,1
    1990:	e0bff905 	stb	r2,-28(fp)
			tempArea->x_max - tempArea->x_min + 1, tempArea->y_max - tempArea->y_max + 1);

	return status;
    1994:	e0bff903 	ldbu	r2,-28(fp)
}
    1998:	e037883a 	mov	sp,fp
    199c:	dfc00117 	ldw	ra,4(sp)
    19a0:	df000017 	ldw	fp,0(sp)
    19a4:	dec00204 	addi	sp,sp,8
    19a8:	f800283a 	ret

000019ac <setDefaultNumEditGroup>:

//设置默认可编辑数字(动态标签+静态图标)
bool setDefaultNumEditGroup( TagIconGroup *numEditGrpInst, short width, short height, short numMax, short numMin, short num, char *unitName )
{
    19ac:	defff004 	addi	sp,sp,-64
    19b0:	dfc00f15 	stw	ra,60(sp)
    19b4:	df000e15 	stw	fp,56(sp)
    19b8:	df000e04 	addi	fp,sp,56
    19bc:	e13ffa15 	stw	r4,-24(fp)
    19c0:	2811883a 	mov	r8,r5
    19c4:	300b883a 	mov	r5,r6
    19c8:	3809883a 	mov	r4,r7
    19cc:	e0c00217 	ldw	r3,8(fp)
    19d0:	e0800317 	ldw	r2,12(fp)
    19d4:	e23ffb0d 	sth	r8,-20(fp)
    19d8:	e17ffc0d 	sth	r5,-16(fp)
    19dc:	e13ffd0d 	sth	r4,-12(fp)
    19e0:	e0fffe0d 	sth	r3,-8(fp)
    19e4:	e0bfff0d 	sth	r2,-4(fp)
	bool status = true;
    19e8:	00800044 	movi	r2,1
    19ec:	e0bff405 	stb	r2,-48(fp)

	//设置基本信息
	numEditGrpInst->bkgBorderColor = defaultColorInfo;
    19f0:	e0bffa17 	ldw	r2,-24(fp)
    19f4:	d0e0040b 	ldhu	r3,-32752(gp)
    19f8:	10c0000d 	sth	r3,0(r2)
    19fc:	d0e00484 	addi	r3,gp,-32750
    1a00:	18c0000b 	ldhu	r3,0(r3)
    1a04:	10c0008d 	sth	r3,2(r2)
    1a08:	d0e00504 	addi	r3,gp,-32748
    1a0c:	18c0000b 	ldhu	r3,0(r3)
    1a10:	10c0010d 	sth	r3,4(r2)
    1a14:	d0e00584 	addi	r3,gp,-32746
    1a18:	18c0000b 	ldhu	r3,0(r3)
    1a1c:	10c0018d 	sth	r3,6(r2)

	//设置数字变化范围
	numEditGrpInst->value = num;
    1a20:	e0bffa17 	ldw	r2,-24(fp)
    1a24:	e0ffff0b 	ldhu	r3,-4(fp)
    1a28:	10c0280d 	sth	r3,160(r2)
	numEditGrpInst->valueMax = numMax;
    1a2c:	e0bffa17 	ldw	r2,-24(fp)
    1a30:	e0fffd0b 	ldhu	r3,-12(fp)
    1a34:	10c0288d 	sth	r3,162(r2)
	numEditGrpInst->valueMin = numMin;
    1a38:	e0bffa17 	ldw	r2,-24(fp)
    1a3c:	e0fffe0b 	ldhu	r3,-8(fp)
    1a40:	10c0290d 	sth	r3,164(r2)
	 * |                      |
	 * |  minusIcon           |
	 * |______________________|
	 */

	short tagHeight = 30;
    1a44:	00800784 	movi	r2,30
    1a48:	e0bff48d 	sth	r2,-46(fp)
	short tagWidth = 30;
    1a4c:	00800784 	movi	r2,30
    1a50:	e0bff50d 	sth	r2,-44(fp)
	short iconBlockWidth = 30;
    1a54:	00800784 	movi	r2,30
    1a58:	e0bff58d 	sth	r2,-42(fp)
	short iconBlockHeight = 20;
    1a5c:	00800504 	movi	r2,20
    1a60:	e0bff60d 	sth	r2,-40(fp)
	short numTagMarginXL = 10;
    1a64:	00800284 	movi	r2,10
    1a68:	e0bff68d 	sth	r2,-38(fp)
	short plusIconMarginYU = 10;
    1a6c:	00800284 	movi	r2,10
    1a70:	e0bff70d 	sth	r2,-36(fp)
	short minusIconMarginYD = 10;
    1a74:	00800284 	movi	r2,10
    1a78:	e0bff78d 	sth	r2,-34(fp)
	short twoTagSpacingX = 20;
    1a7c:	00800504 	movi	r2,20
    1a80:	e0bff80d 	sth	r2,-32(fp)

	//设置plusIcon
	status = status && setAreaRange( &(numEditGrpInst->plusIconArea), numTagMarginXL+1, numTagMarginXL+iconBlockWidth,\
    1a84:	e0bff403 	ldbu	r2,-48(fp)
    1a88:	10001e26 	beq	r2,zero,1b04 <setDefaultNumEditGroup+0x158>
    1a8c:	e0bffa17 	ldw	r2,-24(fp)
    1a90:	11000204 	addi	r4,r2,8
    1a94:	e0bff68b 	ldhu	r2,-38(fp)
    1a98:	10800044 	addi	r2,r2,1
    1a9c:	117fffcc 	andi	r5,r2,65535
    1aa0:	2960001c 	xori	r5,r5,32768
    1aa4:	29600004 	addi	r5,r5,-32768
    1aa8:	e0fff68b 	ldhu	r3,-38(fp)
    1aac:	e0bff58b 	ldhu	r2,-42(fp)
    1ab0:	1885883a 	add	r2,r3,r2
    1ab4:	11bfffcc 	andi	r6,r2,65535
    1ab8:	31a0001c 	xori	r6,r6,32768
    1abc:	31a00004 	addi	r6,r6,-32768
    1ac0:	e0bff70b 	ldhu	r2,-36(fp)
    1ac4:	10800044 	addi	r2,r2,1
    1ac8:	11ffffcc 	andi	r7,r2,65535
    1acc:	39e0001c 	xori	r7,r7,32768
    1ad0:	39e00004 	addi	r7,r7,-32768
    1ad4:	e0fff70b 	ldhu	r3,-36(fp)
    1ad8:	e0bff60b 	ldhu	r2,-40(fp)
    1adc:	1885883a 	add	r2,r3,r2
    1ae0:	10bfffcc 	andi	r2,r2,65535
    1ae4:	10a0001c 	xori	r2,r2,32768
    1ae8:	10a00004 	addi	r2,r2,-32768
    1aec:	d8800015 	stw	r2,0(sp)
    1af0:	000044c0 	call	44c <setAreaRange>
    1af4:	10803fcc 	andi	r2,r2,255
    1af8:	10000226 	beq	r2,zero,1b04 <setDefaultNumEditGroup+0x158>
    1afc:	00800044 	movi	r2,1
    1b00:	00000106 	br	1b08 <setDefaultNumEditGroup+0x15c>
    1b04:	0005883a 	mov	r2,zero
    1b08:	e0bff405 	stb	r2,-48(fp)
    1b0c:	e0bff403 	ldbu	r2,-48(fp)
    1b10:	1080004c 	andi	r2,r2,1
    1b14:	e0bff405 	stb	r2,-48(fp)
				plusIconMarginYU + 1, plusIconMarginYU + iconBlockHeight );
	status = status && setDefaultIconBlock( &(numEditGrpInst->plusIcon), icon_plus, \
    1b18:	e0bff403 	ldbu	r2,-48(fp)
    1b1c:	10001026 	beq	r2,zero,1b60 <setDefaultNumEditGroup+0x1b4>
    1b20:	e0bffa17 	ldw	r2,-24(fp)
    1b24:	11000404 	addi	r4,r2,16
    1b28:	e1bff58f 	ldh	r6,-42(fp)
    1b2c:	e0fff60f 	ldh	r3,-40(fp)
    1b30:	00800204 	movi	r2,8
    1b34:	d8800015 	stw	r2,0(sp)
    1b38:	00800204 	movi	r2,8
    1b3c:	d8800115 	stw	r2,4(sp)
    1b40:	01400374 	movhi	r5,13
    1b44:	294a8404 	addi	r5,r5,10768
    1b48:	180f883a 	mov	r7,r3
    1b4c:	00013700 	call	1370 <setDefaultIconBlock>
    1b50:	10803fcc 	andi	r2,r2,255
    1b54:	10000226 	beq	r2,zero,1b60 <setDefaultNumEditGroup+0x1b4>
    1b58:	00800044 	movi	r2,1
    1b5c:	00000106 	br	1b64 <setDefaultNumEditGroup+0x1b8>
    1b60:	0005883a 	mov	r2,zero
    1b64:	e0bff405 	stb	r2,-48(fp)
    1b68:	e0bff403 	ldbu	r2,-48(fp)
    1b6c:	1080004c 	andi	r2,r2,1
    1b70:	e0bff405 	stb	r2,-48(fp)
				iconBlockWidth, iconBlockHeight, ICON_PLUS_X_SIZE, ICON_PLUS_Y_SIZE );

	//设置numberTag
	char numStr[3];
	sprintf(numStr, "%2d", num);
    1b74:	e0bfff0f 	ldh	r2,-4(fp)
    1b78:	e0fff904 	addi	r3,fp,-28
    1b7c:	1809883a 	mov	r4,r3
    1b80:	01400374 	movhi	r5,13
    1b84:	29429204 	addi	r5,r5,2632
    1b88:	100d883a 	mov	r6,r2
    1b8c:	00092d40 	call	92d4 <sprintf>
	status = status && setAreaRange( &(numEditGrpInst->valueTagArea), numTagMarginXL+1, numTagMarginXL+tagWidth,\
    1b90:	e0bff403 	ldbu	r2,-48(fp)
    1b94:	10002726 	beq	r2,zero,1c34 <setDefaultNumEditGroup+0x288>
    1b98:	e0bffa17 	ldw	r2,-24(fp)
    1b9c:	11001204 	addi	r4,r2,72
    1ba0:	e0bff68b 	ldhu	r2,-38(fp)
    1ba4:	10800044 	addi	r2,r2,1
    1ba8:	117fffcc 	andi	r5,r2,65535
    1bac:	2960001c 	xori	r5,r5,32768
    1bb0:	29600004 	addi	r5,r5,-32768
    1bb4:	e0fff68b 	ldhu	r3,-38(fp)
    1bb8:	e0bff50b 	ldhu	r2,-44(fp)
    1bbc:	1885883a 	add	r2,r3,r2
    1bc0:	11bfffcc 	andi	r6,r2,65535
    1bc4:	31a0001c 	xori	r6,r6,32768
    1bc8:	31a00004 	addi	r6,r6,-32768
    1bcc:	e0bffc0f 	ldh	r2,-16(fp)
    1bd0:	1005d07a 	srai	r2,r2,1
    1bd4:	1007883a 	mov	r3,r2
    1bd8:	e0bff48f 	ldh	r2,-46(fp)
    1bdc:	1005d07a 	srai	r2,r2,1
    1be0:	1885c83a 	sub	r2,r3,r2
    1be4:	10800044 	addi	r2,r2,1
    1be8:	10ffffcc 	andi	r3,r2,65535
    1bec:	18e0001c 	xori	r3,r3,32768
    1bf0:	18e00004 	addi	r3,r3,-32768
    1bf4:	e0bffc0f 	ldh	r2,-16(fp)
    1bf8:	1005d07a 	srai	r2,r2,1
    1bfc:	100f883a 	mov	r7,r2
    1c00:	e0bff48f 	ldh	r2,-46(fp)
    1c04:	1005d07a 	srai	r2,r2,1
    1c08:	3885883a 	add	r2,r7,r2
    1c0c:	10bfffcc 	andi	r2,r2,65535
    1c10:	10a0001c 	xori	r2,r2,32768
    1c14:	10a00004 	addi	r2,r2,-32768
    1c18:	d8800015 	stw	r2,0(sp)
    1c1c:	180f883a 	mov	r7,r3
    1c20:	000044c0 	call	44c <setAreaRange>
    1c24:	10803fcc 	andi	r2,r2,255
    1c28:	10000226 	beq	r2,zero,1c34 <setDefaultNumEditGroup+0x288>
    1c2c:	00800044 	movi	r2,1
    1c30:	00000106 	br	1c38 <setDefaultNumEditGroup+0x28c>
    1c34:	0005883a 	mov	r2,zero
    1c38:	e0bff405 	stb	r2,-48(fp)
    1c3c:	e0bff403 	ldbu	r2,-48(fp)
    1c40:	1080004c 	andi	r2,r2,1
    1c44:	e0bff405 	stb	r2,-48(fp)
				(height>>1)-(tagHeight>>1)+1, (height>>1)+(tagHeight>>1) );
	status = status && setDefaultTagBlock( &(numEditGrpInst->valueTag), numStr, tagWidth, tagHeight );
    1c48:	e0bff403 	ldbu	r2,-48(fp)
    1c4c:	10000c26 	beq	r2,zero,1c80 <setDefaultNumEditGroup+0x2d4>
    1c50:	e0bffa17 	ldw	r2,-24(fp)
    1c54:	11001404 	addi	r4,r2,80
    1c58:	e0fff50f 	ldh	r3,-44(fp)
    1c5c:	e0bff48f 	ldh	r2,-46(fp)
    1c60:	e17ff904 	addi	r5,fp,-28
    1c64:	180d883a 	mov	r6,r3
    1c68:	100f883a 	mov	r7,r2
    1c6c:	00009c40 	call	9c4 <setDefaultTagBlock>
    1c70:	10803fcc 	andi	r2,r2,255
    1c74:	10000226 	beq	r2,zero,1c80 <setDefaultNumEditGroup+0x2d4>
    1c78:	00800044 	movi	r2,1
    1c7c:	00000106 	br	1c84 <setDefaultNumEditGroup+0x2d8>
    1c80:	0005883a 	mov	r2,zero
    1c84:	e0bff405 	stb	r2,-48(fp)
    1c88:	e0bff403 	ldbu	r2,-48(fp)
    1c8c:	1080004c 	andi	r2,r2,1
    1c90:	e0bff405 	stb	r2,-48(fp)


	//设置minusIcon
	status = status && setAreaRange( &(numEditGrpInst->valueTagArea), numTagMarginXL+1, numTagMarginXL+tagWidth,\
    1c94:	e0bff403 	ldbu	r2,-48(fp)
    1c98:	10002226 	beq	r2,zero,1d24 <setDefaultNumEditGroup+0x378>
    1c9c:	e0bffa17 	ldw	r2,-24(fp)
    1ca0:	11001204 	addi	r4,r2,72
    1ca4:	e0bff68b 	ldhu	r2,-38(fp)
    1ca8:	10800044 	addi	r2,r2,1
    1cac:	117fffcc 	andi	r5,r2,65535
    1cb0:	2960001c 	xori	r5,r5,32768
    1cb4:	29600004 	addi	r5,r5,-32768
    1cb8:	e0fff68b 	ldhu	r3,-38(fp)
    1cbc:	e0bff50b 	ldhu	r2,-44(fp)
    1cc0:	1885883a 	add	r2,r3,r2
    1cc4:	11bfffcc 	andi	r6,r2,65535
    1cc8:	31a0001c 	xori	r6,r6,32768
    1ccc:	31a00004 	addi	r6,r6,-32768
    1cd0:	e0fffc0b 	ldhu	r3,-16(fp)
    1cd4:	e0bff78b 	ldhu	r2,-34(fp)
    1cd8:	1885c83a 	sub	r2,r3,r2
    1cdc:	1007883a 	mov	r3,r2
    1ce0:	e0bff60b 	ldhu	r2,-40(fp)
    1ce4:	1885c83a 	sub	r2,r3,r2
    1ce8:	11ffffcc 	andi	r7,r2,65535
    1cec:	39e0001c 	xori	r7,r7,32768
    1cf0:	39e00004 	addi	r7,r7,-32768
    1cf4:	e0fffc0b 	ldhu	r3,-16(fp)
    1cf8:	e0bff78b 	ldhu	r2,-34(fp)
    1cfc:	1885c83a 	sub	r2,r3,r2
    1d00:	10bfffcc 	andi	r2,r2,65535
    1d04:	10a0001c 	xori	r2,r2,32768
    1d08:	10a00004 	addi	r2,r2,-32768
    1d0c:	d8800015 	stw	r2,0(sp)
    1d10:	000044c0 	call	44c <setAreaRange>
    1d14:	10803fcc 	andi	r2,r2,255
    1d18:	10000226 	beq	r2,zero,1d24 <setDefaultNumEditGroup+0x378>
    1d1c:	00800044 	movi	r2,1
    1d20:	00000106 	br	1d28 <setDefaultNumEditGroup+0x37c>
    1d24:	0005883a 	mov	r2,zero
    1d28:	e0bff405 	stb	r2,-48(fp)
    1d2c:	e0bff403 	ldbu	r2,-48(fp)
    1d30:	1080004c 	andi	r2,r2,1
    1d34:	e0bff405 	stb	r2,-48(fp)
				height - minusIconMarginYD - iconBlockHeight, height - minusIconMarginYD );
	status = status && setDefaultIconBlock( &(numEditGrpInst->minusIcon), icon_minus, \
    1d38:	e0bff403 	ldbu	r2,-48(fp)
    1d3c:	10001026 	beq	r2,zero,1d80 <setDefaultNumEditGroup+0x3d4>
    1d40:	e0bffa17 	ldw	r2,-24(fp)
    1d44:	11000c04 	addi	r4,r2,48
    1d48:	e1bff58f 	ldh	r6,-42(fp)
    1d4c:	e0fff60f 	ldh	r3,-40(fp)
    1d50:	00800204 	movi	r2,8
    1d54:	d8800015 	stw	r2,0(sp)
    1d58:	00800204 	movi	r2,8
    1d5c:	d8800115 	stw	r2,4(sp)
    1d60:	01400374 	movhi	r5,13
    1d64:	294a8604 	addi	r5,r5,10776
    1d68:	180f883a 	mov	r7,r3
    1d6c:	00013700 	call	1370 <setDefaultIconBlock>
    1d70:	10803fcc 	andi	r2,r2,255
    1d74:	10000226 	beq	r2,zero,1d80 <setDefaultNumEditGroup+0x3d4>
    1d78:	00800044 	movi	r2,1
    1d7c:	00000106 	br	1d84 <setDefaultNumEditGroup+0x3d8>
    1d80:	0005883a 	mov	r2,zero
    1d84:	e0bff405 	stb	r2,-48(fp)
    1d88:	e0bff403 	ldbu	r2,-48(fp)
    1d8c:	1080004c 	andi	r2,r2,1
    1d90:	e0bff405 	stb	r2,-48(fp)
				iconBlockWidth, iconBlockHeight, ICON_MINUS_X_SIZE, ICON_MINUS_Y_SIZE );


	//设置unitTag
	short unitTagMarginXL = numTagMarginXL+tagWidth + twoTagSpacingX;
    1d94:	e0fff68b 	ldhu	r3,-38(fp)
    1d98:	e0bff50b 	ldhu	r2,-44(fp)
    1d9c:	1885883a 	add	r2,r3,r2
    1da0:	1007883a 	mov	r3,r2
    1da4:	e0bff80b 	ldhu	r2,-32(fp)
    1da8:	1885883a 	add	r2,r3,r2
    1dac:	e0bff88d 	sth	r2,-30(fp)
	status = status && setAreaRange( &(numEditGrpInst->valueTagArea), unitTagMarginXL+1, unitTagMarginXL+tagWidth,\
    1db0:	e0bff403 	ldbu	r2,-48(fp)
    1db4:	10002726 	beq	r2,zero,1e54 <setDefaultNumEditGroup+0x4a8>
    1db8:	e0bffa17 	ldw	r2,-24(fp)
    1dbc:	11001204 	addi	r4,r2,72
    1dc0:	e0bff88b 	ldhu	r2,-30(fp)
    1dc4:	10800044 	addi	r2,r2,1
    1dc8:	117fffcc 	andi	r5,r2,65535
    1dcc:	2960001c 	xori	r5,r5,32768
    1dd0:	29600004 	addi	r5,r5,-32768
    1dd4:	e0fff88b 	ldhu	r3,-30(fp)
    1dd8:	e0bff50b 	ldhu	r2,-44(fp)
    1ddc:	1885883a 	add	r2,r3,r2
    1de0:	11bfffcc 	andi	r6,r2,65535
    1de4:	31a0001c 	xori	r6,r6,32768
    1de8:	31a00004 	addi	r6,r6,-32768
    1dec:	e0bffc0f 	ldh	r2,-16(fp)
    1df0:	1005d07a 	srai	r2,r2,1
    1df4:	1007883a 	mov	r3,r2
    1df8:	e0bff48f 	ldh	r2,-46(fp)
    1dfc:	1005d07a 	srai	r2,r2,1
    1e00:	1885c83a 	sub	r2,r3,r2
    1e04:	10800044 	addi	r2,r2,1
    1e08:	10ffffcc 	andi	r3,r2,65535
    1e0c:	18e0001c 	xori	r3,r3,32768
    1e10:	18e00004 	addi	r3,r3,-32768
    1e14:	e0bffc0f 	ldh	r2,-16(fp)
    1e18:	1005d07a 	srai	r2,r2,1
    1e1c:	100f883a 	mov	r7,r2
    1e20:	e0bff48f 	ldh	r2,-46(fp)
    1e24:	1005d07a 	srai	r2,r2,1
    1e28:	3885883a 	add	r2,r7,r2
    1e2c:	10bfffcc 	andi	r2,r2,65535
    1e30:	10a0001c 	xori	r2,r2,32768
    1e34:	10a00004 	addi	r2,r2,-32768
    1e38:	d8800015 	stw	r2,0(sp)
    1e3c:	180f883a 	mov	r7,r3
    1e40:	000044c0 	call	44c <setAreaRange>
    1e44:	10803fcc 	andi	r2,r2,255
    1e48:	10000226 	beq	r2,zero,1e54 <setDefaultNumEditGroup+0x4a8>
    1e4c:	00800044 	movi	r2,1
    1e50:	00000106 	br	1e58 <setDefaultNumEditGroup+0x4ac>
    1e54:	0005883a 	mov	r2,zero
    1e58:	e0bff405 	stb	r2,-48(fp)
    1e5c:	e0bff403 	ldbu	r2,-48(fp)
    1e60:	1080004c 	andi	r2,r2,1
    1e64:	e0bff405 	stb	r2,-48(fp)
					(height>>1)-(tagHeight>>1)+1, (height>>1)+(tagHeight>>1) );
	status = status && setDefaultTagBlock( &(numEditGrpInst->valueTag), unitName, tagWidth, tagHeight );
    1e68:	e0bff403 	ldbu	r2,-48(fp)
    1e6c:	10000c26 	beq	r2,zero,1ea0 <setDefaultNumEditGroup+0x4f4>
    1e70:	e0bffa17 	ldw	r2,-24(fp)
    1e74:	11001404 	addi	r4,r2,80
    1e78:	e0fff50f 	ldh	r3,-44(fp)
    1e7c:	e0bff48f 	ldh	r2,-46(fp)
    1e80:	e1400417 	ldw	r5,16(fp)
    1e84:	180d883a 	mov	r6,r3
    1e88:	100f883a 	mov	r7,r2
    1e8c:	00009c40 	call	9c4 <setDefaultTagBlock>
    1e90:	10803fcc 	andi	r2,r2,255
    1e94:	10000226 	beq	r2,zero,1ea0 <setDefaultNumEditGroup+0x4f4>
    1e98:	00800044 	movi	r2,1
    1e9c:	00000106 	br	1ea4 <setDefaultNumEditGroup+0x4f8>
    1ea0:	0005883a 	mov	r2,zero
    1ea4:	e0bff405 	stb	r2,-48(fp)
    1ea8:	e0bff403 	ldbu	r2,-48(fp)
    1eac:	1080004c 	andi	r2,r2,1
    1eb0:	e0bff405 	stb	r2,-48(fp)


	return status;
    1eb4:	e0bff403 	ldbu	r2,-48(fp)
}
    1eb8:	e037883a 	mov	sp,fp
    1ebc:	dfc00117 	ldw	ra,4(sp)
    1ec0:	df000017 	ldw	fp,0(sp)
    1ec4:	dec00204 	addi	sp,sp,8
    1ec8:	f800283a 	ret

00001ecc <screenInit>:


//初始化
bool screenInit()
{
    1ecc:	defffb04 	addi	sp,sp,-20
    1ed0:	dfc00415 	stw	ra,16(sp)
    1ed4:	df000315 	stw	fp,12(sp)
    1ed8:	df000304 	addi	fp,sp,12
	//以下子模块宽度都相同 ( 1 ≤ x ≤ SCR_WIDE )

	bool status = true;
    1edc:	00800044 	movi	r2,1
    1ee0:	e0bffe05 	stb	r2,-8(fp)
	//初始化屏幕总体尺寸 ( 1 ≤ y ≤ SCR_HEIGHT )
	status = status && setAreaRange( &(tftlcdScreenInst.screenArea), 1, SCR_WIDTH, 1, SCR_HEIGHT );
    1ee4:	e0bffe03 	ldbu	r2,-8(fp)
    1ee8:	10000c26 	beq	r2,zero,1f1c <screenInit+0x50>
    1eec:	00807804 	movi	r2,480
    1ef0:	d8800015 	stw	r2,0(sp)
    1ef4:	01000374 	movhi	r4,13
    1ef8:	21124004 	addi	r4,r4,18688
    1efc:	01400044 	movi	r5,1
    1f00:	01805004 	movi	r6,320
    1f04:	01c00044 	movi	r7,1
    1f08:	000044c0 	call	44c <setAreaRange>
    1f0c:	10803fcc 	andi	r2,r2,255
    1f10:	10000226 	beq	r2,zero,1f1c <screenInit+0x50>
    1f14:	00800044 	movi	r2,1
    1f18:	00000106 	br	1f20 <screenInit+0x54>
    1f1c:	0005883a 	mov	r2,zero
    1f20:	e0bffe05 	stb	r2,-8(fp)
    1f24:	e0bffe03 	ldbu	r2,-8(fp)
    1f28:	1080004c 	andi	r2,r2,1
    1f2c:	e0bffe05 	stb	r2,-8(fp)

	//1.初始化顶栏 ( 1 ≤ y ≤ headerHeight )
	short headerHeight = SCR_HEADER_HEIGHT;//顶栏高度 (
    1f30:	00800a04 	movi	r2,40
    1f34:	e0bffe8d 	sth	r2,-6(fp)
	status = status && setAreaRange( &(tftlcdScreenInst.headerArea), 1, SCR_WIDTH, 1, headerHeight );
    1f38:	e0bffe03 	ldbu	r2,-8(fp)
    1f3c:	10000c26 	beq	r2,zero,1f70 <screenInit+0xa4>
    1f40:	e0bffe8f 	ldh	r2,-6(fp)
    1f44:	d8800015 	stw	r2,0(sp)
    1f48:	01000374 	movhi	r4,13
    1f4c:	21124204 	addi	r4,r4,18696
    1f50:	01400044 	movi	r5,1
    1f54:	01805004 	movi	r6,320
    1f58:	01c00044 	movi	r7,1
    1f5c:	000044c0 	call	44c <setAreaRange>
    1f60:	10803fcc 	andi	r2,r2,255
    1f64:	10000226 	beq	r2,zero,1f70 <screenInit+0xa4>
    1f68:	00800044 	movi	r2,1
    1f6c:	00000106 	br	1f74 <screenInit+0xa8>
    1f70:	0005883a 	mov	r2,zero
    1f74:	e0bffe05 	stb	r2,-8(fp)
    1f78:	e0bffe03 	ldbu	r2,-8(fp)
    1f7c:	1080004c 	andi	r2,r2,1
    1f80:	e0bffe05 	stb	r2,-8(fp)

	status = status && screenHeaderInit( &(tftlcdScreenInst.scrHeader), SCR_WIDTH, headerHeight );
    1f84:	e0bffe03 	ldbu	r2,-8(fp)
    1f88:	10000a26 	beq	r2,zero,1fb4 <screenInit+0xe8>
    1f8c:	e0bffe8f 	ldh	r2,-6(fp)
    1f90:	01000374 	movhi	r4,13
    1f94:	21124404 	addi	r4,r4,18704
    1f98:	01405004 	movi	r5,320
    1f9c:	100d883a 	mov	r6,r2
    1fa0:	00022140 	call	2214 <screenHeaderInit>
    1fa4:	10803fcc 	andi	r2,r2,255
    1fa8:	10000226 	beq	r2,zero,1fb4 <screenInit+0xe8>
    1fac:	00800044 	movi	r2,1
    1fb0:	00000106 	br	1fb8 <screenInit+0xec>
    1fb4:	0005883a 	mov	r2,zero
    1fb8:	e0bffe05 	stb	r2,-8(fp)
    1fbc:	e0bffe03 	ldbu	r2,-8(fp)
    1fc0:	1080004c 	andi	r2,r2,1
    1fc4:	e0bffe05 	stb	r2,-8(fp)

	//2.初始化底栏 ( SCR_HEIGHT - footerHeight + 1 ≤ y ≤ SCR_HEIGHT )
	short footerHeight = SCR_FOTTER_HEIGHT;//底栏高度
    1fc8:	00800f04 	movi	r2,60
    1fcc:	e0bfff0d 	sth	r2,-4(fp)
	status = status && setAreaRange( &(tftlcdScreenInst.headerArea), 1, SCR_WIDTH, SCR_HEIGHT - footerHeight + 1, SCR_HEIGHT );
    1fd0:	e0bffe03 	ldbu	r2,-8(fp)
    1fd4:	10001226 	beq	r2,zero,2020 <screenInit+0x154>
    1fd8:	e0bfff0b 	ldhu	r2,-4(fp)
    1fdc:	00c07844 	movi	r3,481
    1fe0:	1885c83a 	sub	r2,r3,r2
    1fe4:	10ffffcc 	andi	r3,r2,65535
    1fe8:	18e0001c 	xori	r3,r3,32768
    1fec:	18e00004 	addi	r3,r3,-32768
    1ff0:	00807804 	movi	r2,480
    1ff4:	d8800015 	stw	r2,0(sp)
    1ff8:	01000374 	movhi	r4,13
    1ffc:	21124204 	addi	r4,r4,18696
    2000:	01400044 	movi	r5,1
    2004:	01805004 	movi	r6,320
    2008:	180f883a 	mov	r7,r3
    200c:	000044c0 	call	44c <setAreaRange>
    2010:	10803fcc 	andi	r2,r2,255
    2014:	10000226 	beq	r2,zero,2020 <screenInit+0x154>
    2018:	00800044 	movi	r2,1
    201c:	00000106 	br	2024 <screenInit+0x158>
    2020:	0005883a 	mov	r2,zero
    2024:	e0bffe05 	stb	r2,-8(fp)
    2028:	e0bffe03 	ldbu	r2,-8(fp)
    202c:	1080004c 	andi	r2,r2,1
    2030:	e0bffe05 	stb	r2,-8(fp)

	status = status && screenFooterInit( &(tftlcdScreenInst.scrFooter), SCR_WIDTH, footerHeight );
    2034:	e0bffe03 	ldbu	r2,-8(fp)
    2038:	10000a26 	beq	r2,zero,2064 <screenInit+0x198>
    203c:	e0bfff0f 	ldh	r2,-4(fp)
    2040:	01000374 	movhi	r4,13
    2044:	21125504 	addi	r4,r4,18772
    2048:	01405004 	movi	r5,320
    204c:	100d883a 	mov	r6,r2
    2050:	00023c00 	call	23c0 <screenFooterInit>
    2054:	10803fcc 	andi	r2,r2,255
    2058:	10000226 	beq	r2,zero,2064 <screenInit+0x198>
    205c:	00800044 	movi	r2,1
    2060:	00000106 	br	2068 <screenInit+0x19c>
    2064:	0005883a 	mov	r2,zero
    2068:	e0bffe05 	stb	r2,-8(fp)
    206c:	e0bffe03 	ldbu	r2,-8(fp)
    2070:	1080004c 	andi	r2,r2,1
    2074:	e0bffe05 	stb	r2,-8(fp)

	//3.初始化主栏  ( headerHeight + 1 ≤ y ≤ SCR_HEIGHT - footerHeight )
	short mainAreaHeight = SCR_HEIGHT - headerHeight - footerHeight;
    2078:	e0bffe8b 	ldhu	r2,-6(fp)
    207c:	0085c83a 	sub	r2,zero,r2
    2080:	1007883a 	mov	r3,r2
    2084:	e0bfff0b 	ldhu	r2,-4(fp)
    2088:	1885c83a 	sub	r2,r3,r2
    208c:	10807804 	addi	r2,r2,480
    2090:	e0bfff8d 	sth	r2,-2(fp)
	setAreaRange( &(tftlcdScreenInst.mainArea), 1, SCR_WIDTH, headerHeight + 1, SCR_HEIGHT - footerHeight );
    2094:	e0bffe8b 	ldhu	r2,-6(fp)
    2098:	10800044 	addi	r2,r2,1
    209c:	11ffffcc 	andi	r7,r2,65535
    20a0:	39e0001c 	xori	r7,r7,32768
    20a4:	39e00004 	addi	r7,r7,-32768
    20a8:	e0bfff0b 	ldhu	r2,-4(fp)
    20ac:	00c07804 	movi	r3,480
    20b0:	1885c83a 	sub	r2,r3,r2
    20b4:	10bfffcc 	andi	r2,r2,65535
    20b8:	10a0001c 	xori	r2,r2,32768
    20bc:	10a00004 	addi	r2,r2,-32768
    20c0:	d8800015 	stw	r2,0(sp)
    20c4:	01000374 	movhi	r4,13
    20c8:	21126f04 	addi	r4,r4,18876
    20cc:	01400044 	movi	r5,1
    20d0:	01805004 	movi	r6,320
    20d4:	000044c0 	call	44c <setAreaRange>
	//注意：txtFilesInfoSpace内的数据必须提前填充好，否则可能运行出错。因此，执行screenInit()之前，首先运行txtFilesInfoSpace信息填充
	status = status && screenMainHomeInit( &(tftlcdScreenInst.scrHome), SCR_WIDTH, mainAreaHeight, &txtFilesInfoSpace );
    20d8:	e0bffe03 	ldbu	r2,-8(fp)
    20dc:	10000c26 	beq	r2,zero,2110 <screenInit+0x244>
    20e0:	e0bfff8f 	ldh	r2,-2(fp)
    20e4:	01000374 	movhi	r4,13
    20e8:	21127104 	addi	r4,r4,18884
    20ec:	01405004 	movi	r5,320
    20f0:	100d883a 	mov	r6,r2
    20f4:	01c004b4 	movhi	r7,18
    20f8:	39fff204 	addi	r7,r7,-56
    20fc:	000270c0 	call	270c <screenMainHomeInit>
    2100:	10803fcc 	andi	r2,r2,255
    2104:	10000226 	beq	r2,zero,2110 <screenInit+0x244>
    2108:	00800044 	movi	r2,1
    210c:	00000106 	br	2114 <screenInit+0x248>
    2110:	0005883a 	mov	r2,zero
    2114:	e0bffe05 	stb	r2,-8(fp)
    2118:	e0bffe03 	ldbu	r2,-8(fp)
    211c:	1080004c 	andi	r2,r2,1
    2120:	e0bffe05 	stb	r2,-8(fp)
	status = status && screenMainBookInit( &(tftlcdScreenInst.scrBook), SCR_WIDTH, mainAreaHeight );
    2124:	e0bffe03 	ldbu	r2,-8(fp)
    2128:	10000a26 	beq	r2,zero,2154 <screenInit+0x288>
    212c:	e0bfff8f 	ldh	r2,-2(fp)
    2130:	01000374 	movhi	r4,13
    2134:	2112b004 	addi	r4,r4,19136
    2138:	01405004 	movi	r5,320
    213c:	100d883a 	mov	r6,r2
    2140:	00030740 	call	3074 <screenMainBookInit>
    2144:	10803fcc 	andi	r2,r2,255
    2148:	10000226 	beq	r2,zero,2154 <screenInit+0x288>
    214c:	00800044 	movi	r2,1
    2150:	00000106 	br	2158 <screenInit+0x28c>
    2154:	0005883a 	mov	r2,zero
    2158:	e0bffe05 	stb	r2,-8(fp)
    215c:	e0bffe03 	ldbu	r2,-8(fp)
    2160:	1080004c 	andi	r2,r2,1
    2164:	e0bffe05 	stb	r2,-8(fp)
	status = status && screenMainSettingInit( &(tftlcdScreenInst.scrSetting), SCR_WIDTH, mainAreaHeight );
    2168:	e0bffe03 	ldbu	r2,-8(fp)
    216c:	10000a26 	beq	r2,zero,2198 <screenInit+0x2cc>
    2170:	e0bfff8f 	ldh	r2,-2(fp)
    2174:	01000374 	movhi	r4,13
    2178:	2112fa04 	addi	r4,r4,19432
    217c:	01405004 	movi	r5,320
    2180:	100d883a 	mov	r6,r2
    2184:	000390c0 	call	390c <screenMainSettingInit>
    2188:	10803fcc 	andi	r2,r2,255
    218c:	10000226 	beq	r2,zero,2198 <screenInit+0x2cc>
    2190:	00800044 	movi	r2,1
    2194:	00000106 	br	219c <screenInit+0x2d0>
    2198:	0005883a 	mov	r2,zero
    219c:	e0bffe05 	stb	r2,-8(fp)
    21a0:	e0bffe03 	ldbu	r2,-8(fp)
    21a4:	1080004c 	andi	r2,r2,1
    21a8:	e0bffe05 	stb	r2,-8(fp)
	status = status && screenMainColorPickerInit( &(tftlcdScreenInst.scrColorPicker), SCR_WIDTH, mainAreaHeight );
    21ac:	e0bffe03 	ldbu	r2,-8(fp)
    21b0:	10000a26 	beq	r2,zero,21dc <screenInit+0x310>
    21b4:	e0bfff8f 	ldh	r2,-2(fp)
    21b8:	01000374 	movhi	r4,13
    21bc:	2113e504 	addi	r4,r4,20372
    21c0:	01405004 	movi	r5,320
    21c4:	100d883a 	mov	r6,r2
    21c8:	00043e80 	call	43e8 <screenMainColorPickerInit>
    21cc:	10803fcc 	andi	r2,r2,255
    21d0:	10000226 	beq	r2,zero,21dc <screenInit+0x310>
    21d4:	00800044 	movi	r2,1
    21d8:	00000106 	br	21e0 <screenInit+0x314>
    21dc:	0005883a 	mov	r2,zero
    21e0:	e0bffe05 	stb	r2,-8(fp)
    21e4:	e0bffe03 	ldbu	r2,-8(fp)
    21e8:	1080004c 	andi	r2,r2,1
    21ec:	e0bffe05 	stb	r2,-8(fp)

	//4.初始化主栏页面信息
	screenMainAreaInfo( &(tftlcdScreenInst.mainAreaInfo) );
    21f0:	01000374 	movhi	r4,13
    21f4:	2113ed04 	addi	r4,r4,20404
    21f8:	00045100 	call	4510 <screenMainAreaInfo>

	return status;
    21fc:	e0bffe03 	ldbu	r2,-8(fp)
}
    2200:	e037883a 	mov	sp,fp
    2204:	dfc00117 	ldw	ra,4(sp)
    2208:	df000017 	ldw	fp,0(sp)
    220c:	dec00204 	addi	sp,sp,8
    2210:	f800283a 	ret

00002214 <screenHeaderInit>:

bool screenHeaderInit( ScreenHeaderTime *scrHeaderInst, short width, short height )
{
    2214:	defff804 	addi	sp,sp,-32
    2218:	dfc00715 	stw	ra,28(sp)
    221c:	df000615 	stw	fp,24(sp)
    2220:	df000604 	addi	fp,sp,24
    2224:	e13ffd15 	stw	r4,-12(fp)
    2228:	2807883a 	mov	r3,r5
    222c:	3005883a 	mov	r2,r6
    2230:	e0fffe0d 	sth	r3,-8(fp)
    2234:	e0bfff0d 	sth	r2,-4(fp)

	scrHeaderInst->bkgBorderColor = defaultColorInfo;
    2238:	e0bffd17 	ldw	r2,-12(fp)
    223c:	d0e0040b 	ldhu	r3,-32752(gp)
    2240:	10c0000d 	sth	r3,0(r2)
    2244:	d0e00484 	addi	r3,gp,-32750
    2248:	18c0000b 	ldhu	r3,0(r3)
    224c:	10c0008d 	sth	r3,2(r2)
    2250:	d0e00504 	addi	r3,gp,-32748
    2254:	18c0000b 	ldhu	r3,0(r3)
    2258:	10c0010d 	sth	r3,4(r2)
    225c:	d0e00584 	addi	r3,gp,-32746
    2260:	18c0000b 	ldhu	r3,0(r3)
    2264:	10c0018d 	sth	r3,6(r2)

	short marginX = 100;//横向边距
    2268:	00801904 	movi	r2,100
    226c:	e0bffb0d 	sth	r2,-20(fp)
	short marginY = 5;//纵向边距
    2270:	00800144 	movi	r2,5
    2274:	e0bffb8d 	sth	r2,-18(fp)

	bool status = true;
    2278:	00800044 	movi	r2,1
    227c:	e0bffc05 	stb	r2,-16(fp)

	status = status && setAreaRange( &(scrHeaderInst->tagTimeArea), marginX+1, width-marginX, marginY+1, height-marginY );
    2280:	e0bffc03 	ldbu	r2,-16(fp)
    2284:	10001e26 	beq	r2,zero,2300 <screenHeaderInit+0xec>
    2288:	e0bffd17 	ldw	r2,-12(fp)
    228c:	11000204 	addi	r4,r2,8
    2290:	e0bffb0b 	ldhu	r2,-20(fp)
    2294:	10800044 	addi	r2,r2,1
    2298:	117fffcc 	andi	r5,r2,65535
    229c:	2960001c 	xori	r5,r5,32768
    22a0:	29600004 	addi	r5,r5,-32768
    22a4:	e0fffe0b 	ldhu	r3,-8(fp)
    22a8:	e0bffb0b 	ldhu	r2,-20(fp)
    22ac:	1885c83a 	sub	r2,r3,r2
    22b0:	11bfffcc 	andi	r6,r2,65535
    22b4:	31a0001c 	xori	r6,r6,32768
    22b8:	31a00004 	addi	r6,r6,-32768
    22bc:	e0bffb8b 	ldhu	r2,-18(fp)
    22c0:	10800044 	addi	r2,r2,1
    22c4:	11ffffcc 	andi	r7,r2,65535
    22c8:	39e0001c 	xori	r7,r7,32768
    22cc:	39e00004 	addi	r7,r7,-32768
    22d0:	e0ffff0b 	ldhu	r3,-4(fp)
    22d4:	e0bffb8b 	ldhu	r2,-18(fp)
    22d8:	1885c83a 	sub	r2,r3,r2
    22dc:	10bfffcc 	andi	r2,r2,65535
    22e0:	10a0001c 	xori	r2,r2,32768
    22e4:	10a00004 	addi	r2,r2,-32768
    22e8:	d8800015 	stw	r2,0(sp)
    22ec:	000044c0 	call	44c <setAreaRange>
    22f0:	10803fcc 	andi	r2,r2,255
    22f4:	10000226 	beq	r2,zero,2300 <screenHeaderInit+0xec>
    22f8:	00800044 	movi	r2,1
    22fc:	00000106 	br	2304 <screenHeaderInit+0xf0>
    2300:	0005883a 	mov	r2,zero
    2304:	e0bffc05 	stb	r2,-16(fp)
    2308:	e0bffc03 	ldbu	r2,-16(fp)
    230c:	1080004c 	andi	r2,r2,1
    2310:	e0bffc05 	stb	r2,-16(fp)

	scrHeaderInst->timeHour = 0;
    2314:	e0bffd17 	ldw	r2,-12(fp)
    2318:	10000d0d 	sth	zero,52(r2)
	scrHeaderInst->timeMinute = 0;
    231c:	e0bffd17 	ldw	r2,-12(fp)
    2320:	10000d8d 	sth	zero,54(r2)
	scrHeaderInst->timeSecond = 0;
    2324:	e0bffd17 	ldw	r2,-12(fp)
    2328:	10000e0d 	sth	zero,56(r2)

	//时间文本为"00:00"(0时0分)
	status = status && setDefaultTagBlock( &(scrHeaderInst->tagTime), "00:00", width - (marginX<<1), height - (marginY<<1) );
    232c:	e0bffc03 	ldbu	r2,-16(fp)
    2330:	10001826 	beq	r2,zero,2394 <screenHeaderInit+0x180>
    2334:	e0bffd17 	ldw	r2,-12(fp)
    2338:	11000404 	addi	r4,r2,16
    233c:	e0fffe0b 	ldhu	r3,-8(fp)
    2340:	e0bffb0b 	ldhu	r2,-20(fp)
    2344:	1085883a 	add	r2,r2,r2
    2348:	1885c83a 	sub	r2,r3,r2
    234c:	11bfffcc 	andi	r6,r2,65535
    2350:	31a0001c 	xori	r6,r6,32768
    2354:	31a00004 	addi	r6,r6,-32768
    2358:	e0ffff0b 	ldhu	r3,-4(fp)
    235c:	e0bffb8b 	ldhu	r2,-18(fp)
    2360:	1085883a 	add	r2,r2,r2
    2364:	1885c83a 	sub	r2,r3,r2
    2368:	10bfffcc 	andi	r2,r2,65535
    236c:	10a0001c 	xori	r2,r2,32768
    2370:	10a00004 	addi	r2,r2,-32768
    2374:	01400374 	movhi	r5,13
    2378:	29429304 	addi	r5,r5,2636
    237c:	100f883a 	mov	r7,r2
    2380:	00009c40 	call	9c4 <setDefaultTagBlock>
    2384:	10803fcc 	andi	r2,r2,255
    2388:	10000226 	beq	r2,zero,2394 <screenHeaderInit+0x180>
    238c:	00800044 	movi	r2,1
    2390:	00000106 	br	2398 <screenHeaderInit+0x184>
    2394:	0005883a 	mov	r2,zero
    2398:	e0bffc05 	stb	r2,-16(fp)
    239c:	e0bffc03 	ldbu	r2,-16(fp)
    23a0:	1080004c 	andi	r2,r2,1
    23a4:	e0bffc05 	stb	r2,-16(fp)
//	(scrHeaderInst->tagTime).borderVisible = false;

	return status;
    23a8:	e0bffc03 	ldbu	r2,-16(fp)
}
    23ac:	e037883a 	mov	sp,fp
    23b0:	dfc00117 	ldw	ra,4(sp)
    23b4:	df000017 	ldw	fp,0(sp)
    23b8:	dec00204 	addi	sp,sp,8
    23bc:	f800283a 	ret

000023c0 <screenFooterInit>:
bool screenFooterInit( ScreenFooterBtn *scrFooterInst, short width, short height )
{
    23c0:	defff604 	addi	sp,sp,-40
    23c4:	dfc00915 	stw	ra,36(sp)
    23c8:	df000815 	stw	fp,32(sp)
    23cc:	df000804 	addi	fp,sp,32
    23d0:	e13ffd15 	stw	r4,-12(fp)
    23d4:	2807883a 	mov	r3,r5
    23d8:	3005883a 	mov	r2,r6
    23dc:	e0fffe0d 	sth	r3,-8(fp)
    23e0:	e0bfff0d 	sth	r2,-4(fp)
	scrFooterInst->bkgBorderColor = defaultColorInfo;
    23e4:	e0bffd17 	ldw	r2,-12(fp)
    23e8:	d0e0040b 	ldhu	r3,-32752(gp)
    23ec:	10c0000d 	sth	r3,0(r2)
    23f0:	d0e00484 	addi	r3,gp,-32750
    23f4:	18c0000b 	ldhu	r3,0(r3)
    23f8:	10c0008d 	sth	r3,2(r2)
    23fc:	d0e00504 	addi	r3,gp,-32748
    2400:	18c0000b 	ldhu	r3,0(r3)
    2404:	10c0010d 	sth	r3,4(r2)
    2408:	d0e00584 	addi	r3,gp,-32746
    240c:	18c0000b 	ldhu	r3,0(r3)
    2410:	10c0018d 	sth	r3,6(r2)

	//SETTING键,HOME键,BACK键分别处于下边栏的左、中、右位置
	short marginX = 20;
    2414:	00800504 	movi	r2,20
    2418:	e0bffa0d 	sth	r2,-24(fp)
	short marginY = 10;
    241c:	00800284 	movi	r2,10
    2420:	e0bffa8d 	sth	r2,-22(fp)
	short iconBlockHeight = height - (marginY<<1);
    2424:	e0ffff0b 	ldhu	r3,-4(fp)
    2428:	e0bffa8b 	ldhu	r2,-22(fp)
    242c:	1085883a 	add	r2,r2,r2
    2430:	1885c83a 	sub	r2,r3,r2
    2434:	e0bffb0d 	sth	r2,-20(fp)
	short iconBlockWidth = width / 5;
    2438:	e0bffe0f 	ldh	r2,-8(fp)
    243c:	1009883a 	mov	r4,r2
    2440:	01400144 	movi	r5,5
    2444:	00083640 	call	8364 <__divsi3>
    2448:	e0bffb8d 	sth	r2,-18(fp)

	bool status = true;
    244c:	00800044 	movi	r2,1
    2450:	e0bffc05 	stb	r2,-16(fp)

	status = status && setAreaRange( &(scrFooterInst->iconSettingArea), marginX+1, marginX+iconBlockWidth, marginY+1, height - marginY );
    2454:	e0bffc03 	ldbu	r2,-16(fp)
    2458:	10001e26 	beq	r2,zero,24d4 <screenFooterInit+0x114>
    245c:	e0bffd17 	ldw	r2,-12(fp)
    2460:	11000204 	addi	r4,r2,8
    2464:	e0bffa0b 	ldhu	r2,-24(fp)
    2468:	10800044 	addi	r2,r2,1
    246c:	117fffcc 	andi	r5,r2,65535
    2470:	2960001c 	xori	r5,r5,32768
    2474:	29600004 	addi	r5,r5,-32768
    2478:	e0fffa0b 	ldhu	r3,-24(fp)
    247c:	e0bffb8b 	ldhu	r2,-18(fp)
    2480:	1885883a 	add	r2,r3,r2
    2484:	11bfffcc 	andi	r6,r2,65535
    2488:	31a0001c 	xori	r6,r6,32768
    248c:	31a00004 	addi	r6,r6,-32768
    2490:	e0bffa8b 	ldhu	r2,-22(fp)
    2494:	10800044 	addi	r2,r2,1
    2498:	11ffffcc 	andi	r7,r2,65535
    249c:	39e0001c 	xori	r7,r7,32768
    24a0:	39e00004 	addi	r7,r7,-32768
    24a4:	e0ffff0b 	ldhu	r3,-4(fp)
    24a8:	e0bffa8b 	ldhu	r2,-22(fp)
    24ac:	1885c83a 	sub	r2,r3,r2
    24b0:	10bfffcc 	andi	r2,r2,65535
    24b4:	10a0001c 	xori	r2,r2,32768
    24b8:	10a00004 	addi	r2,r2,-32768
    24bc:	d8800015 	stw	r2,0(sp)
    24c0:	000044c0 	call	44c <setAreaRange>
    24c4:	10803fcc 	andi	r2,r2,255
    24c8:	10000226 	beq	r2,zero,24d4 <screenFooterInit+0x114>
    24cc:	00800044 	movi	r2,1
    24d0:	00000106 	br	24d8 <screenFooterInit+0x118>
    24d4:	0005883a 	mov	r2,zero
    24d8:	e0bffc05 	stb	r2,-16(fp)
    24dc:	e0bffc03 	ldbu	r2,-16(fp)
    24e0:	1080004c 	andi	r2,r2,1
    24e4:	e0bffc05 	stb	r2,-16(fp)
	status = status && setAreaRangeCentered( &(scrFooterInst->iconHomeArea), width, height, iconBlockWidth, iconBlockHeight );
    24e8:	e0bffc03 	ldbu	r2,-16(fp)
    24ec:	10000d26 	beq	r2,zero,2524 <screenFooterInit+0x164>
    24f0:	e0bffd17 	ldw	r2,-12(fp)
    24f4:	11000a04 	addi	r4,r2,40
    24f8:	e17ffe0f 	ldh	r5,-8(fp)
    24fc:	e1bfff0f 	ldh	r6,-4(fp)
    2500:	e0fffb8f 	ldh	r3,-18(fp)
    2504:	e0bffb0f 	ldh	r2,-20(fp)
    2508:	d8800015 	stw	r2,0(sp)
    250c:	180f883a 	mov	r7,r3
    2510:	00008400 	call	840 <setAreaRangeCentered>
    2514:	10803fcc 	andi	r2,r2,255
    2518:	10000226 	beq	r2,zero,2524 <screenFooterInit+0x164>
    251c:	00800044 	movi	r2,1
    2520:	00000106 	br	2528 <screenFooterInit+0x168>
    2524:	0005883a 	mov	r2,zero
    2528:	e0bffc05 	stb	r2,-16(fp)
    252c:	e0bffc03 	ldbu	r2,-16(fp)
    2530:	1080004c 	andi	r2,r2,1
    2534:	e0bffc05 	stb	r2,-16(fp)
	status = status && setAreaRange( &(scrFooterInst->iconSettingArea), width-marginX-iconBlockWidth+1, width-marginX, marginY+1, height - marginY );
    2538:	e0bffc03 	ldbu	r2,-16(fp)
    253c:	10002326 	beq	r2,zero,25cc <screenFooterInit+0x20c>
    2540:	e0bffd17 	ldw	r2,-12(fp)
    2544:	11000204 	addi	r4,r2,8
    2548:	e0fffe0b 	ldhu	r3,-8(fp)
    254c:	e0bffa0b 	ldhu	r2,-24(fp)
    2550:	1885c83a 	sub	r2,r3,r2
    2554:	1007883a 	mov	r3,r2
    2558:	e0bffb8b 	ldhu	r2,-18(fp)
    255c:	1885c83a 	sub	r2,r3,r2
    2560:	10800044 	addi	r2,r2,1
    2564:	117fffcc 	andi	r5,r2,65535
    2568:	2960001c 	xori	r5,r5,32768
    256c:	29600004 	addi	r5,r5,-32768
    2570:	e0fffe0b 	ldhu	r3,-8(fp)
    2574:	e0bffa0b 	ldhu	r2,-24(fp)
    2578:	1885c83a 	sub	r2,r3,r2
    257c:	11bfffcc 	andi	r6,r2,65535
    2580:	31a0001c 	xori	r6,r6,32768
    2584:	31a00004 	addi	r6,r6,-32768
    2588:	e0bffa8b 	ldhu	r2,-22(fp)
    258c:	10800044 	addi	r2,r2,1
    2590:	11ffffcc 	andi	r7,r2,65535
    2594:	39e0001c 	xori	r7,r7,32768
    2598:	39e00004 	addi	r7,r7,-32768
    259c:	e0ffff0b 	ldhu	r3,-4(fp)
    25a0:	e0bffa8b 	ldhu	r2,-22(fp)
    25a4:	1885c83a 	sub	r2,r3,r2
    25a8:	10bfffcc 	andi	r2,r2,65535
    25ac:	10a0001c 	xori	r2,r2,32768
    25b0:	10a00004 	addi	r2,r2,-32768
    25b4:	d8800015 	stw	r2,0(sp)
    25b8:	000044c0 	call	44c <setAreaRange>
    25bc:	10803fcc 	andi	r2,r2,255
    25c0:	10000226 	beq	r2,zero,25cc <screenFooterInit+0x20c>
    25c4:	00800044 	movi	r2,1
    25c8:	00000106 	br	25d0 <screenFooterInit+0x210>
    25cc:	0005883a 	mov	r2,zero
    25d0:	e0bffc05 	stb	r2,-16(fp)
    25d4:	e0bffc03 	ldbu	r2,-16(fp)
    25d8:	1080004c 	andi	r2,r2,1
    25dc:	e0bffc05 	stb	r2,-16(fp)


	status = status && setDefaultIconBlock( &(scrFooterInst->iconSetting), icon_setting, iconBlockWidth, iconBlockHeight, ICON_SETTING_X_SIZE, ICON_SETTING_Y_SIZE );
    25e0:	e0bffc03 	ldbu	r2,-16(fp)
    25e4:	10001026 	beq	r2,zero,2628 <screenFooterInit+0x268>
    25e8:	e0bffd17 	ldw	r2,-12(fp)
    25ec:	11000404 	addi	r4,r2,16
    25f0:	e1bffb8f 	ldh	r6,-18(fp)
    25f4:	e0fffb0f 	ldh	r3,-20(fp)
    25f8:	00800404 	movi	r2,16
    25fc:	d8800015 	stw	r2,0(sp)
    2600:	00800404 	movi	r2,16
    2604:	d8800115 	stw	r2,4(sp)
    2608:	01400374 	movhi	r5,13
    260c:	29426a04 	addi	r5,r5,2472
    2610:	180f883a 	mov	r7,r3
    2614:	00013700 	call	1370 <setDefaultIconBlock>
    2618:	10803fcc 	andi	r2,r2,255
    261c:	10000226 	beq	r2,zero,2628 <screenFooterInit+0x268>
    2620:	00800044 	movi	r2,1
    2624:	00000106 	br	262c <screenFooterInit+0x26c>
    2628:	0005883a 	mov	r2,zero
    262c:	e0bffc05 	stb	r2,-16(fp)
    2630:	e0bffc03 	ldbu	r2,-16(fp)
    2634:	1080004c 	andi	r2,r2,1
    2638:	e0bffc05 	stb	r2,-16(fp)
	status = status && setDefaultIconBlock( &(scrFooterInst->iconHome), icon_setting, iconBlockWidth, iconBlockHeight, ICON_HOME_X_SIZE, ICON_HOME_Y_SIZE );
    263c:	e0bffc03 	ldbu	r2,-16(fp)
    2640:	10001026 	beq	r2,zero,2684 <screenFooterInit+0x2c4>
    2644:	e0bffd17 	ldw	r2,-12(fp)
    2648:	11000c04 	addi	r4,r2,48
    264c:	e1bffb8f 	ldh	r6,-18(fp)
    2650:	e0fffb0f 	ldh	r3,-20(fp)
    2654:	00800404 	movi	r2,16
    2658:	d8800015 	stw	r2,0(sp)
    265c:	00800404 	movi	r2,16
    2660:	d8800115 	stw	r2,4(sp)
    2664:	01400374 	movhi	r5,13
    2668:	29426a04 	addi	r5,r5,2472
    266c:	180f883a 	mov	r7,r3
    2670:	00013700 	call	1370 <setDefaultIconBlock>
    2674:	10803fcc 	andi	r2,r2,255
    2678:	10000226 	beq	r2,zero,2684 <screenFooterInit+0x2c4>
    267c:	00800044 	movi	r2,1
    2680:	00000106 	br	2688 <screenFooterInit+0x2c8>
    2684:	0005883a 	mov	r2,zero
    2688:	e0bffc05 	stb	r2,-16(fp)
    268c:	e0bffc03 	ldbu	r2,-16(fp)
    2690:	1080004c 	andi	r2,r2,1
    2694:	e0bffc05 	stb	r2,-16(fp)
	status = status && setDefaultIconBlock( &(scrFooterInst->iconBack), icon_setting, iconBlockWidth, iconBlockHeight, ICON_BACK_X_SIZE, ICON_BACK_Y_SIZE );
    2698:	e0bffc03 	ldbu	r2,-16(fp)
    269c:	10001026 	beq	r2,zero,26e0 <screenFooterInit+0x320>
    26a0:	e0bffd17 	ldw	r2,-12(fp)
    26a4:	11001404 	addi	r4,r2,80
    26a8:	e1bffb8f 	ldh	r6,-18(fp)
    26ac:	e0fffb0f 	ldh	r3,-20(fp)
    26b0:	00800404 	movi	r2,16
    26b4:	d8800015 	stw	r2,0(sp)
    26b8:	00800404 	movi	r2,16
    26bc:	d8800115 	stw	r2,4(sp)
    26c0:	01400374 	movhi	r5,13
    26c4:	29426a04 	addi	r5,r5,2472
    26c8:	180f883a 	mov	r7,r3
    26cc:	00013700 	call	1370 <setDefaultIconBlock>
    26d0:	10803fcc 	andi	r2,r2,255
    26d4:	10000226 	beq	r2,zero,26e0 <screenFooterInit+0x320>
    26d8:	00800044 	movi	r2,1
    26dc:	00000106 	br	26e4 <screenFooterInit+0x324>
    26e0:	0005883a 	mov	r2,zero
    26e4:	e0bffc05 	stb	r2,-16(fp)
    26e8:	e0bffc03 	ldbu	r2,-16(fp)
    26ec:	1080004c 	andi	r2,r2,1
    26f0:	e0bffc05 	stb	r2,-16(fp)

	return status;
    26f4:	e0bffc03 	ldbu	r2,-16(fp)
}
    26f8:	e037883a 	mov	sp,fp
    26fc:	dfc00117 	ldw	ra,4(sp)
    2700:	df000017 	ldw	fp,0(sp)
    2704:	dec00204 	addi	sp,sp,8
    2708:	f800283a 	ret

0000270c <screenMainHomeInit>:

bool screenMainHomeInit( ScreenHome *scrHomeInst, short width, short height, const TxtFilesInfo *txtFilesInfoPtr )
{
    270c:	deffe504 	addi	sp,sp,-108
    2710:	dfc01a15 	stw	ra,104(sp)
    2714:	df001915 	stw	fp,100(sp)
    2718:	dc001815 	stw	r16,96(sp)
    271c:	df001904 	addi	fp,sp,100
    2720:	e13ffb15 	stw	r4,-20(fp)
    2724:	2807883a 	mov	r3,r5
    2728:	3005883a 	mov	r2,r6
    272c:	e1fffe15 	stw	r7,-8(fp)
    2730:	e0fffc0d 	sth	r3,-16(fp)
    2734:	e0bffd0d 	sth	r2,-12(fp)
	scrHomeInst->bkgBorderColor = defaultColorInfo;
    2738:	e0bffb17 	ldw	r2,-20(fp)
    273c:	d0e0040b 	ldhu	r3,-32752(gp)
    2740:	10c0000d 	sth	r3,0(r2)
    2744:	d0e00484 	addi	r3,gp,-32750
    2748:	18c0000b 	ldhu	r3,0(r3)
    274c:	10c0008d 	sth	r3,2(r2)
    2750:	d0e00504 	addi	r3,gp,-32748
    2754:	18c0000b 	ldhu	r3,0(r3)
    2758:	10c0010d 	sth	r3,4(r2)
    275c:	d0e00584 	addi	r3,gp,-32746
    2760:	18c0000b 	ldhu	r3,0(r3)
    2764:	10c0018d 	sth	r3,6(r2)

	bool status = true;
    2768:	00800044 	movi	r2,1
    276c:	e0bfea05 	stb	r2,-88(fp)

	//列表
	short blockMarginY = 1;
    2770:	00800044 	movi	r2,1
    2774:	e0bfea8d 	sth	r2,-86(fp)
	short blockHeight = height - (blockMarginY<<1);
    2778:	e0fffd0b 	ldhu	r3,-12(fp)
    277c:	e0bfea8b 	ldhu	r2,-86(fp)
    2780:	1085883a 	add	r2,r2,r2
    2784:	1885c83a 	sub	r2,r3,r2
    2788:	e0bfeb0d 	sth	r2,-84(fp)

	short numListMarginXL = 1;
    278c:	00800044 	movi	r2,1
    2790:	e0bfeb8d 	sth	r2,-82(fp)
	short numListWidth = 50;//数字编号列表元素宽度
    2794:	00800c84 	movi	r2,50
    2798:	e0bfec0d 	sth	r2,-80(fp)

	short scrollBarMarginXR = 1;
    279c:	00800044 	movi	r2,1
    27a0:	e0bfec8d 	sth	r2,-78(fp)
	short scrollBarWidth = 50;//滚动条宽度
    27a4:	00800c84 	movi	r2,50
    27a8:	e0bfed0d 	sth	r2,-76(fp)
	short scrollBarMarginXL = width - scrollBarMarginXR - scrollBarWidth;
    27ac:	e0fffc0b 	ldhu	r3,-16(fp)
    27b0:	e0bfec8b 	ldhu	r2,-78(fp)
    27b4:	1885c83a 	sub	r2,r3,r2
    27b8:	1007883a 	mov	r3,r2
    27bc:	e0bfed0b 	ldhu	r2,-76(fp)
    27c0:	1885c83a 	sub	r2,r3,r2
    27c4:	e0bfed8d 	sth	r2,-74(fp)

	short catalogListSpacingL = 2;//txt文件目录与左侧数字编号列表的间隔
    27c8:	00800084 	movi	r2,2
    27cc:	e0bfee0d 	sth	r2,-72(fp)
	short catalogListSpacingR = 2;//txt文件目录与右侧滚动条的间隔
    27d0:	00800084 	movi	r2,2
    27d4:	e0bfee8d 	sth	r2,-70(fp)
	short catalogListMarginXL = numListMarginXL + numListWidth + catalogListSpacingL;
    27d8:	e0ffeb8b 	ldhu	r3,-82(fp)
    27dc:	e0bfec0b 	ldhu	r2,-80(fp)
    27e0:	1885883a 	add	r2,r3,r2
    27e4:	1007883a 	mov	r3,r2
    27e8:	e0bfee0b 	ldhu	r2,-72(fp)
    27ec:	1885883a 	add	r2,r3,r2
    27f0:	e0bfef0d 	sth	r2,-68(fp)
	short catalogListWidth = width - scrollBarMarginXR - scrollBarWidth - catalogListSpacingR - catalogListMarginXL;
    27f4:	e0fffc0b 	ldhu	r3,-16(fp)
    27f8:	e0bfec8b 	ldhu	r2,-78(fp)
    27fc:	1885c83a 	sub	r2,r3,r2
    2800:	1007883a 	mov	r3,r2
    2804:	e0bfed0b 	ldhu	r2,-76(fp)
    2808:	1885c83a 	sub	r2,r3,r2
    280c:	1007883a 	mov	r3,r2
    2810:	e0bfee8b 	ldhu	r2,-70(fp)
    2814:	1885c83a 	sub	r2,r3,r2
    2818:	1007883a 	mov	r3,r2
    281c:	e0bfef0b 	ldhu	r2,-68(fp)
    2820:	1885c83a 	sub	r2,r3,r2
    2824:	e0bfef8d 	sth	r2,-66(fp)

	//列表元素个数
	short listElemNum = txtFilesInfoPtr->txtFilesNum;//列表元素个数
    2828:	e0bffe17 	ldw	r2,-8(fp)
    282c:	10800117 	ldw	r2,4(r2)
    2830:	e0bff00d 	sth	r2,-64(fp)
	short listElemHeight = CATALOG_ROW_HEIGHT;//列表元素高度
    2834:	00800484 	movi	r2,18
    2838:	e0bff08d 	sth	r2,-62(fp)


	//列表内容设置
	//两个TextList变量malloc索要空间，并将txtFilesInfoPtr中的有效信息保存到索要的TextList空间中
	TextList numList;
	numList.textNum = listElemNum;
    283c:	e0bff00b 	ldhu	r2,-64(fp)
    2840:	e0bff50d 	sth	r2,-44(fp)
	numList.textArray = (TextType*)malloc( sizeof(TextType) * listElemNum );
    2844:	e0bff00f 	ldh	r2,-64(fp)
    2848:	100490fa 	slli	r2,r2,3
    284c:	1009883a 	mov	r4,r2
    2850:	0008a580 	call	8a58 <malloc>
    2854:	e0bff415 	stw	r2,-48(fp)
	TextType *textAry = numList.textArray;
    2858:	e0bff417 	ldw	r2,-48(fp)
    285c:	e0bff115 	stw	r2,-60(fp)
	int i;
	char tempStr[10];
	for ( i = 0; i < listElemNum; i ++ )
    2860:	e03fe915 	stw	zero,-92(fp)
    2864:	00002e06 	br	2920 <screenMainHomeInit+0x214>
	{
		sprintf(tempStr, "%2d", i + 1 );//获取编号字符串（从" 1"开始,最大"99"）
    2868:	e0bfe917 	ldw	r2,-92(fp)
    286c:	10800044 	addi	r2,r2,1
    2870:	e0fff604 	addi	r3,fp,-40
    2874:	1809883a 	mov	r4,r3
    2878:	01400374 	movhi	r5,13
    287c:	29429204 	addi	r5,r5,2632
    2880:	100d883a 	mov	r6,r2
    2884:	00092d40 	call	92d4 <sprintf>
		(textAry[i]).text = (char*)malloc( sizeof(char) * 3 );
    2888:	e0bfe917 	ldw	r2,-92(fp)
    288c:	100490fa 	slli	r2,r2,3
    2890:	e0fff117 	ldw	r3,-60(fp)
    2894:	18a1883a 	add	r16,r3,r2
    2898:	010000c4 	movi	r4,3
    289c:	0008a580 	call	8a58 <malloc>
    28a0:	80800015 	stw	r2,0(r16)
		((textAry[i]).text)[0] = tempStr[0];
    28a4:	e0bfe917 	ldw	r2,-92(fp)
    28a8:	100490fa 	slli	r2,r2,3
    28ac:	e0fff117 	ldw	r3,-60(fp)
    28b0:	1885883a 	add	r2,r3,r2
    28b4:	10800017 	ldw	r2,0(r2)
    28b8:	e0fff603 	ldbu	r3,-40(fp)
    28bc:	10c00005 	stb	r3,0(r2)
		((textAry[i]).text)[1] = tempStr[1];
    28c0:	e0bfe917 	ldw	r2,-92(fp)
    28c4:	100490fa 	slli	r2,r2,3
    28c8:	e0fff117 	ldw	r3,-60(fp)
    28cc:	1885883a 	add	r2,r3,r2
    28d0:	10800017 	ldw	r2,0(r2)
    28d4:	10800044 	addi	r2,r2,1
    28d8:	e0fff643 	ldbu	r3,-39(fp)
    28dc:	10c00005 	stb	r3,0(r2)
		((textAry[i]).text)[2] = 0;
    28e0:	e0bfe917 	ldw	r2,-92(fp)
    28e4:	100490fa 	slli	r2,r2,3
    28e8:	e0fff117 	ldw	r3,-60(fp)
    28ec:	1885883a 	add	r2,r3,r2
    28f0:	10800017 	ldw	r2,0(r2)
    28f4:	10800084 	addi	r2,r2,2
    28f8:	10000005 	stb	zero,0(r2)
		(textAry[i]).textLen = 2;
    28fc:	e0bfe917 	ldw	r2,-92(fp)
    2900:	100490fa 	slli	r2,r2,3
    2904:	e0fff117 	ldw	r3,-60(fp)
    2908:	1885883a 	add	r2,r3,r2
    290c:	00c00084 	movi	r3,2
    2910:	10c0010d 	sth	r3,4(r2)
	numList.textNum = listElemNum;
	numList.textArray = (TextType*)malloc( sizeof(TextType) * listElemNum );
	TextType *textAry = numList.textArray;
	int i;
	char tempStr[10];
	for ( i = 0; i < listElemNum; i ++ )
    2914:	e0bfe917 	ldw	r2,-92(fp)
    2918:	10800044 	addi	r2,r2,1
    291c:	e0bfe915 	stw	r2,-92(fp)
    2920:	e0bff00f 	ldh	r2,-64(fp)
    2924:	e0ffe917 	ldw	r3,-92(fp)
    2928:	18bfcf16 	blt	r3,r2,2868 <__alt_data_end+0xf8002868>
		(textAry[i]).textLen = 2;
	}


	TextList catalogList;
	catalogList.textNum = listElemNum;
    292c:	e0bff00b 	ldhu	r2,-64(fp)
    2930:	e0bffa0d 	sth	r2,-24(fp)
	catalogList.textArray = (TextType*)malloc( sizeof(TextType) * listElemNum );
    2934:	e0bff00f 	ldh	r2,-64(fp)
    2938:	100490fa 	slli	r2,r2,3
    293c:	1009883a 	mov	r4,r2
    2940:	0008a580 	call	8a58 <malloc>
    2944:	e0bff915 	stw	r2,-28(fp)
	TextType *catalogAry = catalogList.textArray;
    2948:	e0bff917 	ldw	r2,-28(fp)
    294c:	e0bff215 	stw	r2,-56(fp)
	TxtFile *txtFileArray = txtFilesInfoPtr->txtFileList;
    2950:	e0bffe17 	ldw	r2,-8(fp)
    2954:	10800017 	ldw	r2,0(r2)
    2958:	e0bff315 	stw	r2,-52(fp)

	for ( i = 0; i < listElemNum; i ++ )
    295c:	e03fe915 	stw	zero,-92(fp)
    2960:	00000f06 	br	29a0 <screenMainHomeInit+0x294>
	{
		catalogAry[i] = (txtFileArray[i]).txtFileName;
    2964:	e0bfe917 	ldw	r2,-92(fp)
    2968:	100490fa 	slli	r2,r2,3
    296c:	e0fff217 	ldw	r3,-56(fp)
    2970:	1885883a 	add	r2,r3,r2
    2974:	e0ffe917 	ldw	r3,-92(fp)
    2978:	18c00724 	muli	r3,r3,28
    297c:	e13ff317 	ldw	r4,-52(fp)
    2980:	20c7883a 	add	r3,r4,r3
    2984:	19000017 	ldw	r4,0(r3)
    2988:	11000015 	stw	r4,0(r2)
    298c:	18c00117 	ldw	r3,4(r3)
    2990:	10c00115 	stw	r3,4(r2)
	catalogList.textNum = listElemNum;
	catalogList.textArray = (TextType*)malloc( sizeof(TextType) * listElemNum );
	TextType *catalogAry = catalogList.textArray;
	TxtFile *txtFileArray = txtFilesInfoPtr->txtFileList;

	for ( i = 0; i < listElemNum; i ++ )
    2994:	e0bfe917 	ldw	r2,-92(fp)
    2998:	10800044 	addi	r2,r2,1
    299c:	e0bfe915 	stw	r2,-92(fp)
    29a0:	e0bff00f 	ldh	r2,-64(fp)
    29a4:	e0ffe917 	ldw	r3,-92(fp)
    29a8:	18bfee16 	blt	r3,r2,2964 <__alt_data_end+0xf8002964>




	//数字编号列表
	status = status && setAreaRange( &(scrHomeInst->numBarArea), numListMarginXL+1, numListMarginXL+numListWidth,\
    29ac:	e0bfea03 	ldbu	r2,-88(fp)
    29b0:	10001e26 	beq	r2,zero,2a2c <screenMainHomeInit+0x320>
    29b4:	e0bffb17 	ldw	r2,-20(fp)
    29b8:	11000604 	addi	r4,r2,24
    29bc:	e0bfeb8b 	ldhu	r2,-82(fp)
    29c0:	10800044 	addi	r2,r2,1
    29c4:	117fffcc 	andi	r5,r2,65535
    29c8:	2960001c 	xori	r5,r5,32768
    29cc:	29600004 	addi	r5,r5,-32768
    29d0:	e0ffeb8b 	ldhu	r3,-82(fp)
    29d4:	e0bfec0b 	ldhu	r2,-80(fp)
    29d8:	1885883a 	add	r2,r3,r2
    29dc:	11bfffcc 	andi	r6,r2,65535
    29e0:	31a0001c 	xori	r6,r6,32768
    29e4:	31a00004 	addi	r6,r6,-32768
    29e8:	e0bfea8b 	ldhu	r2,-86(fp)
    29ec:	10800044 	addi	r2,r2,1
    29f0:	11ffffcc 	andi	r7,r2,65535
    29f4:	39e0001c 	xori	r7,r7,32768
    29f8:	39e00004 	addi	r7,r7,-32768
    29fc:	e0fffd0b 	ldhu	r3,-12(fp)
    2a00:	e0bfea8b 	ldhu	r2,-86(fp)
    2a04:	1885c83a 	sub	r2,r3,r2
    2a08:	10bfffcc 	andi	r2,r2,65535
    2a0c:	10a0001c 	xori	r2,r2,32768
    2a10:	10a00004 	addi	r2,r2,-32768
    2a14:	d8800015 	stw	r2,0(sp)
    2a18:	000044c0 	call	44c <setAreaRange>
    2a1c:	10803fcc 	andi	r2,r2,255
    2a20:	10000226 	beq	r2,zero,2a2c <screenMainHomeInit+0x320>
    2a24:	00800044 	movi	r2,1
    2a28:	00000106 	br	2a30 <screenMainHomeInit+0x324>
    2a2c:	0005883a 	mov	r2,zero
    2a30:	e0bfea05 	stb	r2,-88(fp)
    2a34:	e0bfea03 	ldbu	r2,-88(fp)
    2a38:	1080004c 	andi	r2,r2,1
    2a3c:	e0bfea05 	stb	r2,-88(fp)
							blockMarginY+1, height-blockMarginY );
	status = status && setDefaultTagList( &(scrHomeInst->numBar), numListWidth, listElemNum, &numList, true,\
    2a40:	e0bfea03 	ldbu	r2,-88(fp)
    2a44:	10000f26 	beq	r2,zero,2a84 <screenMainHomeInit+0x378>
    2a48:	e0bffb17 	ldw	r2,-20(fp)
    2a4c:	11000804 	addi	r4,r2,32
    2a50:	e17fec0f 	ldh	r5,-80(fp)
    2a54:	e1bff00f 	ldh	r6,-64(fp)
    2a58:	e0fff404 	addi	r3,fp,-48
    2a5c:	00800044 	movi	r2,1
    2a60:	d8800015 	stw	r2,0(sp)
    2a64:	d0a00404 	addi	r2,gp,-32752
    2a68:	d8800115 	stw	r2,4(sp)
    2a6c:	180f883a 	mov	r7,r3
    2a70:	0002d7c0 	call	2d7c <setDefaultTagList>
    2a74:	10803fcc 	andi	r2,r2,255
    2a78:	10000226 	beq	r2,zero,2a84 <screenMainHomeInit+0x378>
    2a7c:	00800044 	movi	r2,1
    2a80:	00000106 	br	2a88 <screenMainHomeInit+0x37c>
    2a84:	0005883a 	mov	r2,zero
    2a88:	e0bfea05 	stb	r2,-88(fp)
    2a8c:	e0bfea03 	ldbu	r2,-88(fp)
    2a90:	1080004c 	andi	r2,r2,1
    2a94:	e0bfea05 	stb	r2,-88(fp)
							&defaultColorInfo );
	//txt文件目录列表
	status = status && setAreaRange( &(scrHomeInst->txtCatalogArea), catalogListMarginXL+1, catalogListMarginXL+catalogListWidth,\
    2a98:	e0bfea03 	ldbu	r2,-88(fp)
    2a9c:	10001e26 	beq	r2,zero,2b18 <screenMainHomeInit+0x40c>
    2aa0:	e0bffb17 	ldw	r2,-20(fp)
    2aa4:	11001104 	addi	r4,r2,68
    2aa8:	e0bfef0b 	ldhu	r2,-68(fp)
    2aac:	10800044 	addi	r2,r2,1
    2ab0:	117fffcc 	andi	r5,r2,65535
    2ab4:	2960001c 	xori	r5,r5,32768
    2ab8:	29600004 	addi	r5,r5,-32768
    2abc:	e0ffef0b 	ldhu	r3,-68(fp)
    2ac0:	e0bfef8b 	ldhu	r2,-66(fp)
    2ac4:	1885883a 	add	r2,r3,r2
    2ac8:	11bfffcc 	andi	r6,r2,65535
    2acc:	31a0001c 	xori	r6,r6,32768
    2ad0:	31a00004 	addi	r6,r6,-32768
    2ad4:	e0bfea8b 	ldhu	r2,-86(fp)
    2ad8:	10800044 	addi	r2,r2,1
    2adc:	11ffffcc 	andi	r7,r2,65535
    2ae0:	39e0001c 	xori	r7,r7,32768
    2ae4:	39e00004 	addi	r7,r7,-32768
    2ae8:	e0fffd0b 	ldhu	r3,-12(fp)
    2aec:	e0bfea8b 	ldhu	r2,-86(fp)
    2af0:	1885c83a 	sub	r2,r3,r2
    2af4:	10bfffcc 	andi	r2,r2,65535
    2af8:	10a0001c 	xori	r2,r2,32768
    2afc:	10a00004 	addi	r2,r2,-32768
    2b00:	d8800015 	stw	r2,0(sp)
    2b04:	000044c0 	call	44c <setAreaRange>
    2b08:	10803fcc 	andi	r2,r2,255
    2b0c:	10000226 	beq	r2,zero,2b18 <screenMainHomeInit+0x40c>
    2b10:	00800044 	movi	r2,1
    2b14:	00000106 	br	2b1c <screenMainHomeInit+0x410>
    2b18:	0005883a 	mov	r2,zero
    2b1c:	e0bfea05 	stb	r2,-88(fp)
    2b20:	e0bfea03 	ldbu	r2,-88(fp)
    2b24:	1080004c 	andi	r2,r2,1
    2b28:	e0bfea05 	stb	r2,-88(fp)
							blockMarginY+1, height-blockMarginY );
	status = status && setDefaultTagList( &(scrHomeInst->txtCatalog), numListWidth, listElemNum, &catalogList, true,\
    2b2c:	e0bfea03 	ldbu	r2,-88(fp)
    2b30:	10000f26 	beq	r2,zero,2b70 <screenMainHomeInit+0x464>
    2b34:	e0bffb17 	ldw	r2,-20(fp)
    2b38:	11001304 	addi	r4,r2,76
    2b3c:	e17fec0f 	ldh	r5,-80(fp)
    2b40:	e1bff00f 	ldh	r6,-64(fp)
    2b44:	e0fff904 	addi	r3,fp,-28
    2b48:	00800044 	movi	r2,1
    2b4c:	d8800015 	stw	r2,0(sp)
    2b50:	d0a00404 	addi	r2,gp,-32752
    2b54:	d8800115 	stw	r2,4(sp)
    2b58:	180f883a 	mov	r7,r3
    2b5c:	0002d7c0 	call	2d7c <setDefaultTagList>
    2b60:	10803fcc 	andi	r2,r2,255
    2b64:	10000226 	beq	r2,zero,2b70 <screenMainHomeInit+0x464>
    2b68:	00800044 	movi	r2,1
    2b6c:	00000106 	br	2b74 <screenMainHomeInit+0x468>
    2b70:	0005883a 	mov	r2,zero
    2b74:	e0bfea05 	stb	r2,-88(fp)
    2b78:	e0bfea03 	ldbu	r2,-88(fp)
    2b7c:	1080004c 	andi	r2,r2,1
    2b80:	e0bfea05 	stb	r2,-88(fp)
							&defaultColorInfo );

	//释放使用完毕的numListPtr与catalogListPtr空间
	free(numList.textArray);
    2b84:	e0bff417 	ldw	r2,-48(fp)
    2b88:	1009883a 	mov	r4,r2
    2b8c:	0008a6c0 	call	8a6c <free>

	free(catalogList.textArray);
    2b90:	e0bff917 	ldw	r2,-28(fp)
    2b94:	1009883a 	mov	r4,r2
    2b98:	0008a6c0 	call	8a6c <free>


	//列表纵向移动显示设置
	scrHomeInst->listYOffset = 0;//列表显示时的纵向偏移量
    2b9c:	e0bffb17 	ldw	r2,-20(fp)
    2ba0:	1000020d 	sth	zero,8(r2)
	scrHomeInst->listShowHeight = blockHeight;//列表显示在屏幕上时的高度
    2ba4:	e0bffb17 	ldw	r2,-20(fp)
    2ba8:	e0ffeb0b 	ldhu	r3,-84(fp)
    2bac:	10c0040d 	sth	r3,16(r2)
	scrHomeInst->listYSize = listElemNum * listElemHeight;//列表纵向全长
    2bb0:	e0fff00b 	ldhu	r3,-64(fp)
    2bb4:	e0bff08b 	ldhu	r2,-62(fp)
    2bb8:	1885383a 	mul	r2,r3,r2
    2bbc:	1007883a 	mov	r3,r2
    2bc0:	e0bffb17 	ldw	r2,-20(fp)
    2bc4:	10c0030d 	sth	r3,12(r2)
	scrHomeInst->listShowYRatio = scrHomeInst->listShowHeight / scrHomeInst->listYSize;
    2bc8:	e0bffb17 	ldw	r2,-20(fp)
    2bcc:	1080040b 	ldhu	r2,16(r2)
    2bd0:	10ffffcc 	andi	r3,r2,65535
    2bd4:	18e0001c 	xori	r3,r3,32768
    2bd8:	18e00004 	addi	r3,r3,-32768
    2bdc:	e0bffb17 	ldw	r2,-20(fp)
    2be0:	1080030b 	ldhu	r2,12(r2)
    2be4:	10bfffcc 	andi	r2,r2,65535
    2be8:	10a0001c 	xori	r2,r2,32768
    2bec:	10a00004 	addi	r2,r2,-32768
    2bf0:	1809883a 	mov	r4,r3
    2bf4:	100b883a 	mov	r5,r2
    2bf8:	00083640 	call	8364 <__divsi3>
    2bfc:	1009883a 	mov	r4,r2
    2c00:	00088c00 	call	88c0 <__floatsisf>
    2c04:	1007883a 	mov	r3,r2
    2c08:	e0bffb17 	ldw	r2,-20(fp)
    2c0c:	10c00515 	stw	r3,20(r2)
	scrHomeInst->listYOffsetMax = scrHomeInst->listYSize - blockHeight;
    2c10:	e0bffb17 	ldw	r2,-20(fp)
    2c14:	1080030b 	ldhu	r2,12(r2)
    2c18:	1007883a 	mov	r3,r2
    2c1c:	e0bfeb0b 	ldhu	r2,-84(fp)
    2c20:	1885c83a 	sub	r2,r3,r2
    2c24:	1007883a 	mov	r3,r2
    2c28:	e0bffb17 	ldw	r2,-20(fp)
    2c2c:	10c0028d 	sth	r3,10(r2)
	scrHomeInst->listYStepSize = CATALOG_ROW_HEIGHT;
    2c30:	e0bffb17 	ldw	r2,-20(fp)
    2c34:	00c00484 	movi	r3,18
    2c38:	10c0038d 	sth	r3,14(r2)

	//滚动条
	status = status && setAreaRange( &(scrHomeInst->turnCatalogBarArea), scrollBarMarginXL + 1, scrollBarMarginXL + scrollBarWidth,\
    2c3c:	e0bfea03 	ldbu	r2,-88(fp)
    2c40:	10001e26 	beq	r2,zero,2cbc <screenMainHomeInit+0x5b0>
    2c44:	e0bffb17 	ldw	r2,-20(fp)
    2c48:	11001f04 	addi	r4,r2,124
    2c4c:	e0bfed8b 	ldhu	r2,-74(fp)
    2c50:	10800044 	addi	r2,r2,1
    2c54:	117fffcc 	andi	r5,r2,65535
    2c58:	2960001c 	xori	r5,r5,32768
    2c5c:	29600004 	addi	r5,r5,-32768
    2c60:	e0ffed8b 	ldhu	r3,-74(fp)
    2c64:	e0bfed0b 	ldhu	r2,-76(fp)
    2c68:	1885883a 	add	r2,r3,r2
    2c6c:	11bfffcc 	andi	r6,r2,65535
    2c70:	31a0001c 	xori	r6,r6,32768
    2c74:	31a00004 	addi	r6,r6,-32768
    2c78:	e0bfea8b 	ldhu	r2,-86(fp)
    2c7c:	10800044 	addi	r2,r2,1
    2c80:	11ffffcc 	andi	r7,r2,65535
    2c84:	39e0001c 	xori	r7,r7,32768
    2c88:	39e00004 	addi	r7,r7,-32768
    2c8c:	e0fffd0b 	ldhu	r3,-12(fp)
    2c90:	e0bfea8b 	ldhu	r2,-86(fp)
    2c94:	1885c83a 	sub	r2,r3,r2
    2c98:	10bfffcc 	andi	r2,r2,65535
    2c9c:	10a0001c 	xori	r2,r2,32768
    2ca0:	10a00004 	addi	r2,r2,-32768
    2ca4:	d8800015 	stw	r2,0(sp)
    2ca8:	000044c0 	call	44c <setAreaRange>
    2cac:	10803fcc 	andi	r2,r2,255
    2cb0:	10000226 	beq	r2,zero,2cbc <screenMainHomeInit+0x5b0>
    2cb4:	00800044 	movi	r2,1
    2cb8:	00000106 	br	2cc0 <screenMainHomeInit+0x5b4>
    2cbc:	0005883a 	mov	r2,zero
    2cc0:	e0bfea05 	stb	r2,-88(fp)
    2cc4:	e0bfea03 	ldbu	r2,-88(fp)
    2cc8:	1080004c 	andi	r2,r2,1
    2ccc:	e0bfea05 	stb	r2,-88(fp)
							blockMarginY+1, height-blockMarginY );
	status = status && setDefaultScrollBarY( &(scrHomeInst->turnCatalogBarY), scrollBarWidth, blockHeight, scrHomeInst->listShowYRatio );
    2cd0:	e0bfea03 	ldbu	r2,-88(fp)
    2cd4:	10000c26 	beq	r2,zero,2d08 <screenMainHomeInit+0x5fc>
    2cd8:	e0bffb17 	ldw	r2,-20(fp)
    2cdc:	11002104 	addi	r4,r2,132
    2ce0:	e17fed0f 	ldh	r5,-76(fp)
    2ce4:	e1bfeb0f 	ldh	r6,-84(fp)
    2ce8:	e0bffb17 	ldw	r2,-20(fp)
    2cec:	10c00517 	ldw	r3,20(r2)
    2cf0:	180f883a 	mov	r7,r3
    2cf4:	0000e240 	call	e24 <setDefaultScrollBarY>
    2cf8:	10803fcc 	andi	r2,r2,255
    2cfc:	10000226 	beq	r2,zero,2d08 <screenMainHomeInit+0x5fc>
    2d00:	00800044 	movi	r2,1
    2d04:	00000106 	br	2d0c <screenMainHomeInit+0x600>
    2d08:	0005883a 	mov	r2,zero
    2d0c:	e0bfea05 	stb	r2,-88(fp)
    2d10:	e0bfea03 	ldbu	r2,-88(fp)
    2d14:	1080004c 	andi	r2,r2,1
    2d18:	e0bfea05 	stb	r2,-88(fp)




	//某行目录文件名水平滚动设置
	scrHomeInst->txtScrollable = false;//允许滚动否
    2d1c:	e0bffb17 	ldw	r2,-20(fp)
    2d20:	10001c05 	stb	zero,112(r2)
	scrHomeInst->txtScrollrow = 0;//可滚动的某行行数（一次只有一行可以滚动）
    2d24:	e0bffb17 	ldw	r2,-20(fp)
    2d28:	10001c8d 	sth	zero,114(r2)
	scrHomeInst->txtScrollXOffset = 0;//当前水平滚动偏移量
    2d2c:	e0bffb17 	ldw	r2,-20(fp)
    2d30:	10001d0d 	sth	zero,116(r2)
	scrHomeInst->txtScrollXStepSize = 0;//水平滚动步长
    2d34:	e0bffb17 	ldw	r2,-20(fp)
    2d38:	10001d8d 	sth	zero,118(r2)
	scrHomeInst->txtScrollwidth = 0;//滚动文本的真实像素宽度（可以超出屏幕宽度）
    2d3c:	e0bffb17 	ldw	r2,-20(fp)
    2d40:	10001e0d 	sth	zero,120(r2)
	scrHomeInst->txtScrollSpacing = width / 2;//滚动文本循环时文本尾与新文本头的间隔
    2d44:	e0bffc0f 	ldh	r2,-16(fp)
    2d48:	1006d7fa 	srli	r3,r2,31
    2d4c:	1885883a 	add	r2,r3,r2
    2d50:	1005d07a 	srai	r2,r2,1
    2d54:	1007883a 	mov	r3,r2
    2d58:	e0bffb17 	ldw	r2,-20(fp)
    2d5c:	10c01e8d 	sth	r3,122(r2)


	return status;
    2d60:	e0bfea03 	ldbu	r2,-88(fp)
}
    2d64:	e6ffff04 	addi	sp,fp,-4
    2d68:	dfc00217 	ldw	ra,8(sp)
    2d6c:	df000117 	ldw	fp,4(sp)
    2d70:	dc000017 	ldw	r16,0(sp)
    2d74:	dec00304 	addi	sp,sp,12
    2d78:	f800283a 	ret

00002d7c <setDefaultTagList>:
//设置默认文本标签列表
bool setDefaultTagList( TagList *TagListInst, short elemWidth, short elemHeight, TextList *textListPtr, bool elemBorderVisible,\
		                 ColorInfo *colorInfoPtr )
{
    2d7c:	deffef04 	addi	sp,sp,-68
    2d80:	dfc01015 	stw	ra,64(sp)
    2d84:	df000f15 	stw	fp,60(sp)
    2d88:	df000f04 	addi	fp,sp,60
    2d8c:	e13ffb15 	stw	r4,-20(fp)
    2d90:	2809883a 	mov	r4,r5
    2d94:	3007883a 	mov	r3,r6
    2d98:	e1fffe15 	stw	r7,-8(fp)
    2d9c:	e0800217 	ldw	r2,8(fp)
    2da0:	e13ffc0d 	sth	r4,-16(fp)
    2da4:	e0fffd0d 	sth	r3,-12(fp)
    2da8:	e0bfff05 	stb	r2,-4(fp)
	//设置列表元素区域大小
	bool status = true;
    2dac:	00800044 	movi	r2,1
    2db0:	e0bff205 	stb	r2,-56(fp)
	status = status && setAreaRange( &(TagListInst->elemBaseArea), 1, elemWidth, 1, elemHeight );
    2db4:	e0bff203 	ldbu	r2,-56(fp)
    2db8:	10000c26 	beq	r2,zero,2dec <setDefaultTagList+0x70>
    2dbc:	e13ffb17 	ldw	r4,-20(fp)
    2dc0:	e0fffc0f 	ldh	r3,-16(fp)
    2dc4:	e0bffd0f 	ldh	r2,-12(fp)
    2dc8:	d8800015 	stw	r2,0(sp)
    2dcc:	01400044 	movi	r5,1
    2dd0:	180d883a 	mov	r6,r3
    2dd4:	01c00044 	movi	r7,1
    2dd8:	000044c0 	call	44c <setAreaRange>
    2ddc:	10803fcc 	andi	r2,r2,255
    2de0:	10000226 	beq	r2,zero,2dec <setDefaultTagList+0x70>
    2de4:	00800044 	movi	r2,1
    2de8:	00000106 	br	2df0 <setDefaultTagList+0x74>
    2dec:	0005883a 	mov	r2,zero
    2df0:	e0bff205 	stb	r2,-56(fp)
    2df4:	e0bff203 	ldbu	r2,-56(fp)
    2df8:	1080004c 	andi	r2,r2,1
    2dfc:	e0bff205 	stb	r2,-56(fp)
	//计算文本所在区域
	//计算文本宽度(使用中文尺寸来估计）
	short textWidth = ( BOOK_ROW_BYTES >> 1) * ( SRC_WORD_SIZE_X + DEFAULT_WORD_SPACING );
    2e00:	00804c84 	movi	r2,306
    2e04:	e0bff68d 	sth	r2,-38(fp)
	short marginXL = ( elemWidth - textWidth )>>1;
    2e08:	e0fffc0f 	ldh	r3,-16(fp)
    2e0c:	e0bff68f 	ldh	r2,-38(fp)
    2e10:	1885c83a 	sub	r2,r3,r2
    2e14:	1005d07a 	srai	r2,r2,1
    2e18:	e0bff28d 	sth	r2,-54(fp)
	short marginXR = elemWidth - marginXL - textWidth;
    2e1c:	e0fffc0b 	ldhu	r3,-16(fp)
    2e20:	e0bff28b 	ldhu	r2,-54(fp)
    2e24:	1885c83a 	sub	r2,r3,r2
    2e28:	1007883a 	mov	r3,r2
    2e2c:	e0bff68b 	ldhu	r2,-38(fp)
    2e30:	1885c83a 	sub	r2,r3,r2
    2e34:	e0bff30d 	sth	r2,-52(fp)
	short marginYU = ( elemHeight - SRC_WORD_SIZE_Y )>>1;
    2e38:	e0bffd0f 	ldh	r2,-12(fp)
    2e3c:	10bffc04 	addi	r2,r2,-16
    2e40:	1005d07a 	srai	r2,r2,1
    2e44:	e0bff38d 	sth	r2,-50(fp)
	short marginYD = elemHeight - marginYU - SRC_WORD_SIZE_Y;
    2e48:	e0fffd0b 	ldhu	r3,-12(fp)
    2e4c:	e0bff38b 	ldhu	r2,-50(fp)
    2e50:	1885c83a 	sub	r2,r3,r2
    2e54:	10bffc04 	addi	r2,r2,-16
    2e58:	e0bff40d 	sth	r2,-48(fp)

	if ( elemWidth < textWidth || elemHeight < SRC_WORD_SIZE_Y )
    2e5c:	e0fffc0f 	ldh	r3,-16(fp)
    2e60:	e0bff68f 	ldh	r2,-38(fp)
    2e64:	18800316 	blt	r3,r2,2e74 <setDefaultTagList+0xf8>
    2e68:	e0bffd0f 	ldh	r2,-12(fp)
    2e6c:	10800408 	cmpgei	r2,r2,16
    2e70:	1000051e 	bne	r2,zero,2e88 <setDefaultTagList+0x10c>
	{
		marginXL = 0;
    2e74:	e03ff28d 	sth	zero,-54(fp)
		marginXR = 0;
    2e78:	e03ff30d 	sth	zero,-52(fp)
		marginYU = 0;
    2e7c:	e03ff38d 	sth	zero,-50(fp)
		marginYD = 0;
    2e80:	e03ff40d 	sth	zero,-48(fp)
		status = false;
    2e84:	e03ff205 	stb	zero,-56(fp)
	}
	//设置元素文本区域位置
	status = status && setAreaRange( &(TagListInst->textArea), marginXL+1, elemWidth-marginXR, marginYU+1, elemHeight-marginYD );
    2e88:	e0bff203 	ldbu	r2,-56(fp)
    2e8c:	10001e26 	beq	r2,zero,2f08 <setDefaultTagList+0x18c>
    2e90:	e0bffb17 	ldw	r2,-20(fp)
    2e94:	11000204 	addi	r4,r2,8
    2e98:	e0bff28b 	ldhu	r2,-54(fp)
    2e9c:	10800044 	addi	r2,r2,1
    2ea0:	117fffcc 	andi	r5,r2,65535
    2ea4:	2960001c 	xori	r5,r5,32768
    2ea8:	29600004 	addi	r5,r5,-32768
    2eac:	e0fffc0b 	ldhu	r3,-16(fp)
    2eb0:	e0bff30b 	ldhu	r2,-52(fp)
    2eb4:	1885c83a 	sub	r2,r3,r2
    2eb8:	11bfffcc 	andi	r6,r2,65535
    2ebc:	31a0001c 	xori	r6,r6,32768
    2ec0:	31a00004 	addi	r6,r6,-32768
    2ec4:	e0bff38b 	ldhu	r2,-50(fp)
    2ec8:	10800044 	addi	r2,r2,1
    2ecc:	11ffffcc 	andi	r7,r2,65535
    2ed0:	39e0001c 	xori	r7,r7,32768
    2ed4:	39e00004 	addi	r7,r7,-32768
    2ed8:	e0fffd0b 	ldhu	r3,-12(fp)
    2edc:	e0bff40b 	ldhu	r2,-48(fp)
    2ee0:	1885c83a 	sub	r2,r3,r2
    2ee4:	10bfffcc 	andi	r2,r2,65535
    2ee8:	10a0001c 	xori	r2,r2,32768
    2eec:	10a00004 	addi	r2,r2,-32768
    2ef0:	d8800015 	stw	r2,0(sp)
    2ef4:	000044c0 	call	44c <setAreaRange>
    2ef8:	10803fcc 	andi	r2,r2,255
    2efc:	10000226 	beq	r2,zero,2f08 <setDefaultTagList+0x18c>
    2f00:	00800044 	movi	r2,1
    2f04:	00000106 	br	2f0c <setDefaultTagList+0x190>
    2f08:	0005883a 	mov	r2,zero
    2f0c:	e0bff205 	stb	r2,-56(fp)
    2f10:	e0bff203 	ldbu	r2,-56(fp)
    2f14:	1080004c 	andi	r2,r2,1
    2f18:	e0bff205 	stb	r2,-56(fp)

	short elemNum = textListPtr->textNum;
    2f1c:	e0bffe17 	ldw	r2,-8(fp)
    2f20:	1080010b 	ldhu	r2,4(r2)
    2f24:	e0bff70d 	sth	r2,-36(fp)

	TagListInst->wordSpacing = DEFAULT_WORD_SPACING;
    2f28:	e0bffb17 	ldw	r2,-20(fp)
    2f2c:	00c00084 	movi	r3,2
    2f30:	10c0040d 	sth	r3,16(r2)
	TagListInst->letterSpacing = DEFAULT_LETTER_SPACING;
    2f34:	e0bffb17 	ldw	r2,-20(fp)
    2f38:	00c00044 	movi	r3,1
    2f3c:	10c0048d 	sth	r3,18(r2)

	TagListInst->elemNum = elemNum;
    2f40:	e0bffb17 	ldw	r2,-20(fp)
    2f44:	e0fff70b 	ldhu	r3,-36(fp)
    2f48:	10c0070d 	sth	r3,28(r2)
	TagListInst->elemColorInfo = *colorInfoPtr;
    2f4c:	e0bffb17 	ldw	r2,-20(fp)
    2f50:	e0c00317 	ldw	r3,12(fp)
    2f54:	1900000b 	ldhu	r4,0(r3)
    2f58:	1100050d 	sth	r4,20(r2)
    2f5c:	1900008b 	ldhu	r4,2(r3)
    2f60:	1100058d 	sth	r4,22(r2)
    2f64:	1900010b 	ldhu	r4,4(r3)
    2f68:	1100060d 	sth	r4,24(r2)
    2f6c:	18c0018b 	ldhu	r3,6(r3)
    2f70:	10c0068d 	sth	r3,26(r2)

	int i;

//	AreaRange *elemAreaArray = (AreaRange*)malloc( sizeof( AreaRange ) * elemNum );
//	TagListInst->elemArea = elemAreaArray;
	TagBlock *tagBolckArray = (TagBlock*)malloc( sizeof( TagBlock ) * elemNum );
    2f74:	e0bff70f 	ldh	r2,-36(fp)
    2f78:	10800924 	muli	r2,r2,36
    2f7c:	1009883a 	mov	r4,r2
    2f80:	0008a580 	call	8a58 <malloc>
    2f84:	e0bff815 	stw	r2,-32(fp)
	TagListInst->elemBlock = tagBolckArray;
    2f88:	e0bffb17 	ldw	r2,-20(fp)
    2f8c:	e0fff817 	ldw	r3,-32(fp)
    2f90:	10c00815 	stw	r3,32(r2)

//	AreaRange *curElemAreaPtr;
	TagBlock *curTagPtr;
	TextType *textArray = textListPtr->textArray;
    2f94:	e0bffe17 	ldw	r2,-8(fp)
    2f98:	10800017 	ldw	r2,0(r2)
    2f9c:	e0bff915 	stw	r2,-28(fp)

	short elemYPos = 0;
    2fa0:	e03ff60d 	sth	zero,-40(fp)
	for ( i = 0; i < elemNum; i ++ )
    2fa4:	e03ff515 	stw	zero,-44(fp)
    2fa8:	00002906 	br	3050 <setDefaultTagList+0x2d4>
	{
		curTagPtr = &(tagBolckArray[i]);
    2fac:	e0bff517 	ldw	r2,-44(fp)
    2fb0:	10800924 	muli	r2,r2,36
    2fb4:	e0fff817 	ldw	r3,-32(fp)
    2fb8:	1885883a 	add	r2,r3,r2
    2fbc:	e0bffa15 	stw	r2,-24(fp)
//		curElemAreaPtr = &(elemAreaArray[i]);

		curTagPtr->tagColorInfo = TagListInst->elemColorInfo;
    2fc0:	e0bffa17 	ldw	r2,-24(fp)
    2fc4:	e0fffb17 	ldw	r3,-20(fp)
    2fc8:	19000517 	ldw	r4,20(r3)
    2fcc:	11000215 	stw	r4,8(r2)
    2fd0:	18c00617 	ldw	r3,24(r3)
    2fd4:	10c00315 	stw	r3,12(r2)
		curTagPtr->wordSpacing = TagListInst->wordSpacing;
    2fd8:	e0bffb17 	ldw	r2,-20(fp)
    2fdc:	10c0040b 	ldhu	r3,16(r2)
    2fe0:	e0bffa17 	ldw	r2,-24(fp)
    2fe4:	10c0040d 	sth	r3,16(r2)
		curTagPtr->letterSpacing = TagListInst->letterSpacing;
    2fe8:	e0bffb17 	ldw	r2,-20(fp)
    2fec:	10c0048b 	ldhu	r3,18(r2)
    2ff0:	e0bffa17 	ldw	r2,-24(fp)
    2ff4:	10c0048d 	sth	r3,18(r2)
		curTagPtr->tagText = textArray[i];
    2ff8:	e0bff517 	ldw	r2,-44(fp)
    2ffc:	100490fa 	slli	r2,r2,3
    3000:	e0fff917 	ldw	r3,-28(fp)
    3004:	1887883a 	add	r3,r3,r2
    3008:	e0bffa17 	ldw	r2,-24(fp)
    300c:	19000017 	ldw	r4,0(r3)
    3010:	11000715 	stw	r4,28(r2)
    3014:	18c00117 	ldw	r3,4(r3)
    3018:	10c00815 	stw	r3,32(r2)
		curTagPtr->textArea = TagListInst->textArea;
    301c:	e0bffa17 	ldw	r2,-24(fp)
    3020:	e0fffb17 	ldw	r3,-20(fp)
    3024:	19000217 	ldw	r4,8(r3)
    3028:	11000015 	stw	r4,0(r2)
    302c:	18c00317 	ldw	r3,12(r3)
    3030:	10c00115 	stw	r3,4(r2)
//		setAreaRange( curElemAreaPtr, 1, elemWidth, elemYPos + 1, elemYPos + elemHeight );
		elemYPos = elemYPos + elemHeight;
    3034:	e0fff60b 	ldhu	r3,-40(fp)
    3038:	e0bffd0b 	ldhu	r2,-12(fp)
    303c:	1885883a 	add	r2,r3,r2
    3040:	e0bff60d 	sth	r2,-40(fp)
//	AreaRange *curElemAreaPtr;
	TagBlock *curTagPtr;
	TextType *textArray = textListPtr->textArray;

	short elemYPos = 0;
	for ( i = 0; i < elemNum; i ++ )
    3044:	e0bff517 	ldw	r2,-44(fp)
    3048:	10800044 	addi	r2,r2,1
    304c:	e0bff515 	stw	r2,-44(fp)
    3050:	e0bff70f 	ldh	r2,-36(fp)
    3054:	e0fff517 	ldw	r3,-44(fp)
    3058:	18bfd416 	blt	r3,r2,2fac <__alt_data_end+0xf8002fac>
		curTagPtr->textArea = TagListInst->textArea;
//		setAreaRange( curElemAreaPtr, 1, elemWidth, elemYPos + 1, elemYPos + elemHeight );
		elemYPos = elemYPos + elemHeight;
	}

	return status;
    305c:	e0bff203 	ldbu	r2,-56(fp)

}
    3060:	e037883a 	mov	sp,fp
    3064:	dfc00117 	ldw	ra,4(sp)
    3068:	df000017 	ldw	fp,0(sp)
    306c:	dec00204 	addi	sp,sp,8
    3070:	f800283a 	ret

00003074 <screenMainBookInit>:

bool screenMainBookInit( ScreenBook *scrBookInst, short width, short height )
{
    3074:	deffc704 	addi	sp,sp,-228
    3078:	dfc03815 	stw	ra,224(sp)
    307c:	df003715 	stw	fp,220(sp)
    3080:	df003704 	addi	fp,sp,220
    3084:	e13ffd15 	stw	r4,-12(fp)
    3088:	2807883a 	mov	r3,r5
    308c:	3005883a 	mov	r2,r6
    3090:	e0fffe0d 	sth	r3,-8(fp)
    3094:	e0bfff0d 	sth	r2,-4(fp)
	bool status = true;
    3098:	00800044 	movi	r2,1
    309c:	e0bfcc05 	stb	r2,-208(fp)

	scrBookInst->bookColorInfo = defaultColorInfo;
    30a0:	e0bffd17 	ldw	r2,-12(fp)
    30a4:	d0e0040b 	ldhu	r3,-32752(gp)
    30a8:	10c0000d 	sth	r3,0(r2)
    30ac:	d0e00484 	addi	r3,gp,-32750
    30b0:	18c0000b 	ldhu	r3,0(r3)
    30b4:	10c0008d 	sth	r3,2(r2)
    30b8:	d0e00504 	addi	r3,gp,-32748
    30bc:	18c0000b 	ldhu	r3,0(r3)
    30c0:	10c0010d 	sth	r3,4(r2)
    30c4:	d0e00584 	addi	r3,gp,-32746
    30c8:	18c0000b 	ldhu	r3,0(r3)
    30cc:	10c0018d 	sth	r3,6(r2)


	//设置左中右点击区范围
	short leftAreaWidth = width/3;
    30d0:	e0bffe0f 	ldh	r2,-8(fp)
    30d4:	1009883a 	mov	r4,r2
    30d8:	014000c4 	movi	r5,3
    30dc:	00083640 	call	8364 <__divsi3>
    30e0:	e0bfcc8d 	sth	r2,-206(fp)
	short rightAreaWidth = width/3;
    30e4:	e0bffe0f 	ldh	r2,-8(fp)
    30e8:	1009883a 	mov	r4,r2
    30ec:	014000c4 	movi	r5,3
    30f0:	00083640 	call	8364 <__divsi3>
    30f4:	e0bfcd0d 	sth	r2,-204(fp)
	short middleAreaWidth = width - leftAreaWidth - rightAreaWidth;
    30f8:	e0fffe0b 	ldhu	r3,-8(fp)
    30fc:	e0bfcc8b 	ldhu	r2,-206(fp)
    3100:	1885c83a 	sub	r2,r3,r2
    3104:	1007883a 	mov	r3,r2
    3108:	e0bfcd0b 	ldhu	r2,-204(fp)
    310c:	1885c83a 	sub	r2,r3,r2
    3110:	e0bfcd8d 	sth	r2,-202(fp)
	status = status && setAreaRange( &(scrBookInst->turnBackPageAreaPos), 1, leftAreaWidth, 1, height );
    3114:	e0bfcc03 	ldbu	r2,-208(fp)
    3118:	10000d26 	beq	r2,zero,3150 <screenMainBookInit+0xdc>
    311c:	e0bffd17 	ldw	r2,-12(fp)
    3120:	11000f04 	addi	r4,r2,60
    3124:	e0ffcc8f 	ldh	r3,-206(fp)
    3128:	e0bfff0f 	ldh	r2,-4(fp)
    312c:	d8800015 	stw	r2,0(sp)
    3130:	01400044 	movi	r5,1
    3134:	180d883a 	mov	r6,r3
    3138:	01c00044 	movi	r7,1
    313c:	000044c0 	call	44c <setAreaRange>
    3140:	10803fcc 	andi	r2,r2,255
    3144:	10000226 	beq	r2,zero,3150 <screenMainBookInit+0xdc>
    3148:	00800044 	movi	r2,1
    314c:	00000106 	br	3154 <screenMainBookInit+0xe0>
    3150:	0005883a 	mov	r2,zero
    3154:	e0bfcc05 	stb	r2,-208(fp)
    3158:	e0bfcc03 	ldbu	r2,-208(fp)
    315c:	1080004c 	andi	r2,r2,1
    3160:	e0bfcc05 	stb	r2,-208(fp)
	status = status && setAreaRange( &(scrBookInst->openPageInfoAreaPos), leftAreaWidth+1, leftAreaWidth+middleAreaWidth, 1, height );
    3164:	e0bfcc03 	ldbu	r2,-208(fp)
    3168:	10001626 	beq	r2,zero,31c4 <screenMainBookInit+0x150>
    316c:	e0bffd17 	ldw	r2,-12(fp)
    3170:	11001304 	addi	r4,r2,76
    3174:	e0bfcc8b 	ldhu	r2,-206(fp)
    3178:	10800044 	addi	r2,r2,1
    317c:	117fffcc 	andi	r5,r2,65535
    3180:	2960001c 	xori	r5,r5,32768
    3184:	29600004 	addi	r5,r5,-32768
    3188:	e0ffcc8b 	ldhu	r3,-206(fp)
    318c:	e0bfcd8b 	ldhu	r2,-202(fp)
    3190:	1885883a 	add	r2,r3,r2
    3194:	10ffffcc 	andi	r3,r2,65535
    3198:	18e0001c 	xori	r3,r3,32768
    319c:	18e00004 	addi	r3,r3,-32768
    31a0:	e0bfff0f 	ldh	r2,-4(fp)
    31a4:	d8800015 	stw	r2,0(sp)
    31a8:	180d883a 	mov	r6,r3
    31ac:	01c00044 	movi	r7,1
    31b0:	000044c0 	call	44c <setAreaRange>
    31b4:	10803fcc 	andi	r2,r2,255
    31b8:	10000226 	beq	r2,zero,31c4 <screenMainBookInit+0x150>
    31bc:	00800044 	movi	r2,1
    31c0:	00000106 	br	31c8 <screenMainBookInit+0x154>
    31c4:	0005883a 	mov	r2,zero
    31c8:	e0bfcc05 	stb	r2,-208(fp)
    31cc:	e0bfcc03 	ldbu	r2,-208(fp)
    31d0:	1080004c 	andi	r2,r2,1
    31d4:	e0bfcc05 	stb	r2,-208(fp)
	status = status && setAreaRange( &(scrBookInst->turnBackPageAreaPos), width-rightAreaWidth+1, width, 1, height );
    31d8:	e0bfcc03 	ldbu	r2,-208(fp)
    31dc:	10001326 	beq	r2,zero,322c <screenMainBookInit+0x1b8>
    31e0:	e0bffd17 	ldw	r2,-12(fp)
    31e4:	11000f04 	addi	r4,r2,60
    31e8:	e0fffe0b 	ldhu	r3,-8(fp)
    31ec:	e0bfcd0b 	ldhu	r2,-204(fp)
    31f0:	1885c83a 	sub	r2,r3,r2
    31f4:	10800044 	addi	r2,r2,1
    31f8:	117fffcc 	andi	r5,r2,65535
    31fc:	2960001c 	xori	r5,r5,32768
    3200:	29600004 	addi	r5,r5,-32768
    3204:	e0fffe0f 	ldh	r3,-8(fp)
    3208:	e0bfff0f 	ldh	r2,-4(fp)
    320c:	d8800015 	stw	r2,0(sp)
    3210:	180d883a 	mov	r6,r3
    3214:	01c00044 	movi	r7,1
    3218:	000044c0 	call	44c <setAreaRange>
    321c:	10803fcc 	andi	r2,r2,255
    3220:	10000226 	beq	r2,zero,322c <screenMainBookInit+0x1b8>
    3224:	00800044 	movi	r2,1
    3228:	00000106 	br	3230 <screenMainBookInit+0x1bc>
    322c:	0005883a 	mov	r2,zero
    3230:	e0bfcc05 	stb	r2,-208(fp)
    3234:	e0bfcc03 	ldbu	r2,-208(fp)
    3238:	1080004c 	andi	r2,r2,1
    323c:	e0bfcc05 	stb	r2,-208(fp)

	//设置电子书范围（居中）
	short bookAreaHeight = BOOK_ROW_HEIGHT * BOOK_COL_NUM;
    3240:	00805e84 	movi	r2,378
    3244:	e0bfce0d 	sth	r2,-200(fp)
	short marginYU = ( height - bookAreaHeight )>>1;
    3248:	e0ffff0f 	ldh	r3,-4(fp)
    324c:	e0bfce0f 	ldh	r2,-200(fp)
    3250:	1885c83a 	sub	r2,r3,r2
    3254:	1005d07a 	srai	r2,r2,1
    3258:	e0bfce8d 	sth	r2,-198(fp)
	short marginYD = height - bookAreaHeight - marginYU;
    325c:	e0ffff0b 	ldhu	r3,-4(fp)
    3260:	e0bfce0b 	ldhu	r2,-200(fp)
    3264:	1885c83a 	sub	r2,r3,r2
    3268:	1007883a 	mov	r3,r2
    326c:	e0bfce8b 	ldhu	r2,-198(fp)
    3270:	1885c83a 	sub	r2,r3,r2
    3274:	e0bfcf0d 	sth	r2,-196(fp)
	status = status && setAreaRange( &(scrBookInst->txtBookArea), 1, width, marginYU+1, height-marginYD );
    3278:	e0bfcc03 	ldbu	r2,-208(fp)
    327c:	10001526 	beq	r2,zero,32d4 <screenMainBookInit+0x260>
    3280:	e0bffd17 	ldw	r2,-12(fp)
    3284:	11000204 	addi	r4,r2,8
    3288:	e1bffe0f 	ldh	r6,-8(fp)
    328c:	e0bfce8b 	ldhu	r2,-198(fp)
    3290:	10800044 	addi	r2,r2,1
    3294:	11ffffcc 	andi	r7,r2,65535
    3298:	39e0001c 	xori	r7,r7,32768
    329c:	39e00004 	addi	r7,r7,-32768
    32a0:	e0ffff0b 	ldhu	r3,-4(fp)
    32a4:	e0bfcf0b 	ldhu	r2,-196(fp)
    32a8:	1885c83a 	sub	r2,r3,r2
    32ac:	10bfffcc 	andi	r2,r2,65535
    32b0:	10a0001c 	xori	r2,r2,32768
    32b4:	10a00004 	addi	r2,r2,-32768
    32b8:	d8800015 	stw	r2,0(sp)
    32bc:	01400044 	movi	r5,1
    32c0:	000044c0 	call	44c <setAreaRange>
    32c4:	10803fcc 	andi	r2,r2,255
    32c8:	10000226 	beq	r2,zero,32d4 <screenMainBookInit+0x260>
    32cc:	00800044 	movi	r2,1
    32d0:	00000106 	br	32d8 <screenMainBookInit+0x264>
    32d4:	0005883a 	mov	r2,zero
    32d8:	e0bfcc05 	stb	r2,-208(fp)
    32dc:	e0bfcc03 	ldbu	r2,-208(fp)
    32e0:	1080004c 	andi	r2,r2,1
    32e4:	e0bfcc05 	stb	r2,-208(fp)

	//设置电子书阅读进度信息页面范围
	short pageInfoAreaHeight = height/4;
    32e8:	e0bfff0f 	ldh	r2,-4(fp)
    32ec:	1000010e 	bge	r2,zero,32f4 <screenMainBookInit+0x280>
    32f0:	108000c4 	addi	r2,r2,3
    32f4:	1005d0ba 	srai	r2,r2,2
    32f8:	e0bfcf8d 	sth	r2,-194(fp)
	status = status && setAreaRange( &(scrBookInst->pageInfoArea), 1, width, height-pageInfoAreaHeight, height-1 );
    32fc:	e0bfcc03 	ldbu	r2,-208(fp)
    3300:	10001626 	beq	r2,zero,335c <screenMainBookInit+0x2e8>
    3304:	e0bffd17 	ldw	r2,-12(fp)
    3308:	11001504 	addi	r4,r2,84
    330c:	e1bffe0f 	ldh	r6,-8(fp)
    3310:	e0ffff0b 	ldhu	r3,-4(fp)
    3314:	e0bfcf8b 	ldhu	r2,-194(fp)
    3318:	1885c83a 	sub	r2,r3,r2
    331c:	10ffffcc 	andi	r3,r2,65535
    3320:	18e0001c 	xori	r3,r3,32768
    3324:	18e00004 	addi	r3,r3,-32768
    3328:	e0bfff0b 	ldhu	r2,-4(fp)
    332c:	10bfffc4 	addi	r2,r2,-1
    3330:	10bfffcc 	andi	r2,r2,65535
    3334:	10a0001c 	xori	r2,r2,32768
    3338:	10a00004 	addi	r2,r2,-32768
    333c:	d8800015 	stw	r2,0(sp)
    3340:	01400044 	movi	r5,1
    3344:	180f883a 	mov	r7,r3
    3348:	000044c0 	call	44c <setAreaRange>
    334c:	10803fcc 	andi	r2,r2,255
    3350:	10000226 	beq	r2,zero,335c <screenMainBookInit+0x2e8>
    3354:	00800044 	movi	r2,1
    3358:	00000106 	br	3360 <screenMainBookInit+0x2ec>
    335c:	0005883a 	mov	r2,zero
    3360:	e0bfcc05 	stb	r2,-208(fp)
    3364:	e0bfcc03 	ldbu	r2,-208(fp)
    3368:	1080004c 	andi	r2,r2,1
    336c:	e0bfcc05 	stb	r2,-208(fp)

	//设置电子书窄区范围（当电子书阅读进度显示时，电子书范围变窄）
	status = status && setAreaRange( &(scrBookInst->txtBookNarrowArea), 1, width, marginYU+1, height-pageInfoAreaHeight-1 );
    3370:	e0bfcc03 	ldbu	r2,-208(fp)
    3374:	10001626 	beq	r2,zero,33d0 <screenMainBookInit+0x35c>
    3378:	e0bffd17 	ldw	r2,-12(fp)
    337c:	11000404 	addi	r4,r2,16
    3380:	e1bffe0f 	ldh	r6,-8(fp)
    3384:	e0bfce8b 	ldhu	r2,-198(fp)
    3388:	10800044 	addi	r2,r2,1
    338c:	11ffffcc 	andi	r7,r2,65535
    3390:	39e0001c 	xori	r7,r7,32768
    3394:	39e00004 	addi	r7,r7,-32768
    3398:	e0ffff0b 	ldhu	r3,-4(fp)
    339c:	e0bfcf8b 	ldhu	r2,-194(fp)
    33a0:	1885c83a 	sub	r2,r3,r2
    33a4:	10bfffc4 	addi	r2,r2,-1
    33a8:	10bfffcc 	andi	r2,r2,65535
    33ac:	10a0001c 	xori	r2,r2,32768
    33b0:	10a00004 	addi	r2,r2,-32768
    33b4:	d8800015 	stw	r2,0(sp)
    33b8:	01400044 	movi	r5,1
    33bc:	000044c0 	call	44c <setAreaRange>
    33c0:	10803fcc 	andi	r2,r2,255
    33c4:	10000226 	beq	r2,zero,33d0 <screenMainBookInit+0x35c>
    33c8:	00800044 	movi	r2,1
    33cc:	00000106 	br	33d4 <screenMainBookInit+0x360>
    33d0:	0005883a 	mov	r2,zero
    33d4:	e0bfcc05 	stb	r2,-208(fp)
    33d8:	e0bfcc03 	ldbu	r2,-208(fp)
    33dc:	1080004c 	andi	r2,r2,1
    33e0:	e0bfcc05 	stb	r2,-208(fp)

	//设置电子书阅读进度信息页面是否可见
	scrBookInst->pageInfoVisible = false;
    33e4:	e0bffd17 	ldw	r2,-12(fp)
    33e8:	10004905 	stb	zero,292(r2)

	TextType textArray[BOOK_COL_NUM];

	int i;
	for( i = 0; i < BOOK_COL_NUM; i ++ )
    33ec:	e03fcb15 	stw	zero,-212(fp)
    33f0:	00001506 	br	3448 <screenMainBookInit+0x3d4>
	{
		(textArray[i]).text = txtBookSpace[i];
    33f4:	e0bfcb17 	ldw	r2,-212(fp)
    33f8:	10c008e4 	muli	r3,r2,35
    33fc:	008004b4 	movhi	r2,18
    3400:	10bff504 	addi	r2,r2,-44
    3404:	1887883a 	add	r3,r3,r2
    3408:	e0bfcb17 	ldw	r2,-212(fp)
    340c:	100490fa 	slli	r2,r2,3
    3410:	e13fcb04 	addi	r4,fp,-212
    3414:	2085883a 	add	r2,r4,r2
    3418:	10800604 	addi	r2,r2,24
    341c:	10c00015 	stw	r3,0(r2)
		(textArray[i]).textLen = BOOK_ROW_BYTES;
    3420:	e0bfcb17 	ldw	r2,-212(fp)
    3424:	100490fa 	slli	r2,r2,3
    3428:	e0ffcb04 	addi	r3,fp,-212
    342c:	1885883a 	add	r2,r3,r2
    3430:	10800704 	addi	r2,r2,28
    3434:	00c00884 	movi	r3,34
    3438:	10c0000d 	sth	r3,0(r2)
	scrBookInst->pageInfoVisible = false;

	TextType textArray[BOOK_COL_NUM];

	int i;
	for( i = 0; i < BOOK_COL_NUM; i ++ )
    343c:	e0bfcb17 	ldw	r2,-212(fp)
    3440:	10800044 	addi	r2,r2,1
    3444:	e0bfcb15 	stw	r2,-212(fp)
    3448:	e0bfcb17 	ldw	r2,-212(fp)
    344c:	10800550 	cmplti	r2,r2,21
    3450:	103fe81e 	bne	r2,zero,33f4 <__alt_data_end+0xf80033f4>
	{
		(textArray[i]).text = txtBookSpace[i];
		(textArray[i]).textLen = BOOK_ROW_BYTES;
	}

	ColorInfo *colorSel = &(scrBookInst->bookColorInfo);
    3454:	e0bffd17 	ldw	r2,-12(fp)
    3458:	e0bfd015 	stw	r2,-192(fp)
	//设置电子书文本域（文本域为由TagBlock组成的TagList文本标签列表）
	TextList textList = { textArray, BOOK_COL_NUM };
    345c:	e0bfd104 	addi	r2,fp,-188
    3460:	e0bffb15 	stw	r2,-20(fp)
    3464:	00800544 	movi	r2,21
    3468:	e0bffc0d 	sth	r2,-16(fp)
	status = status && setDefaultTagList( &(scrBookInst->txtBook), width, BOOK_ROW_HEIGHT, &textList, false, colorSel );
    346c:	e0bfcc03 	ldbu	r2,-208(fp)
    3470:	10000e26 	beq	r2,zero,34ac <screenMainBookInit+0x438>
    3474:	e0bffd17 	ldw	r2,-12(fp)
    3478:	11000604 	addi	r4,r2,24
    347c:	e17ffe0f 	ldh	r5,-8(fp)
    3480:	e0fffb04 	addi	r3,fp,-20
    3484:	d8000015 	stw	zero,0(sp)
    3488:	e0bfd017 	ldw	r2,-192(fp)
    348c:	d8800115 	stw	r2,4(sp)
    3490:	01800484 	movi	r6,18
    3494:	180f883a 	mov	r7,r3
    3498:	0002d7c0 	call	2d7c <setDefaultTagList>
    349c:	10803fcc 	andi	r2,r2,255
    34a0:	10000226 	beq	r2,zero,34ac <screenMainBookInit+0x438>
    34a4:	00800044 	movi	r2,1
    34a8:	00000106 	br	34b0 <screenMainBookInit+0x43c>
    34ac:	0005883a 	mov	r2,zero
    34b0:	e0bfcc05 	stb	r2,-208(fp)
    34b4:	e0bfcc03 	ldbu	r2,-208(fp)
    34b8:	1080004c 	andi	r2,r2,1
    34bc:	e0bfcc05 	stb	r2,-208(fp)


	//设置电子书阅读进度信息页面
	status = status && ScreenMainPageInfoInit( &(scrBookInst->pageInfo), width, pageInfoAreaHeight );
    34c0:	e0bfcc03 	ldbu	r2,-208(fp)
    34c4:	10000b26 	beq	r2,zero,34f4 <screenMainBookInit+0x480>
    34c8:	e0bffd17 	ldw	r2,-12(fp)
    34cc:	11001704 	addi	r4,r2,92
    34d0:	e0fffe0f 	ldh	r3,-8(fp)
    34d4:	e0bfcf8f 	ldh	r2,-194(fp)
    34d8:	180b883a 	mov	r5,r3
    34dc:	100d883a 	mov	r6,r2
    34e0:	00035200 	call	3520 <ScreenMainPageInfoInit>
    34e4:	10803fcc 	andi	r2,r2,255
    34e8:	10000226 	beq	r2,zero,34f4 <screenMainBookInit+0x480>
    34ec:	00800044 	movi	r2,1
    34f0:	00000106 	br	34f8 <screenMainBookInit+0x484>
    34f4:	0005883a 	mov	r2,zero
    34f8:	e0bfcc05 	stb	r2,-208(fp)
    34fc:	e0bfcc03 	ldbu	r2,-208(fp)
    3500:	1080004c 	andi	r2,r2,1
    3504:	e0bfcc05 	stb	r2,-208(fp)

	return status;
    3508:	e0bfcc03 	ldbu	r2,-208(fp)
}
    350c:	e037883a 	mov	sp,fp
    3510:	dfc00117 	ldw	ra,4(sp)
    3514:	df000017 	ldw	fp,0(sp)
    3518:	dec00204 	addi	sp,sp,8
    351c:	f800283a 	ret

00003520 <ScreenMainPageInfoInit>:

bool ScreenMainPageInfoInit( ScreenPageInfo *scrPageInfoInst, short width, short height )
{
    3520:	defff504 	addi	sp,sp,-44
    3524:	dfc00a15 	stw	ra,40(sp)
    3528:	df000915 	stw	fp,36(sp)
    352c:	df000904 	addi	fp,sp,36
    3530:	e13ffd15 	stw	r4,-12(fp)
    3534:	2807883a 	mov	r3,r5
    3538:	3005883a 	mov	r2,r6
    353c:	e0fffe0d 	sth	r3,-8(fp)
    3540:	e0bfff0d 	sth	r2,-4(fp)
	//基本信息
	scrPageInfoInst->bkgBorderColor = defaultColorInfo;
    3544:	e0bffd17 	ldw	r2,-12(fp)
    3548:	d0e0040b 	ldhu	r3,-32752(gp)
    354c:	10c0000d 	sth	r3,0(r2)
    3550:	d0e00484 	addi	r3,gp,-32750
    3554:	18c0000b 	ldhu	r3,0(r3)
    3558:	10c0008d 	sth	r3,2(r2)
    355c:	d0e00504 	addi	r3,gp,-32748
    3560:	18c0000b 	ldhu	r3,0(r3)
    3564:	10c0010d 	sth	r3,4(r2)
    3568:	d0e00584 	addi	r3,gp,-32746
    356c:	18c0000b 	ldhu	r3,0(r3)
    3570:	10c0018d 	sth	r3,6(r2)
	scrPageInfoInst->curPageNum = 0;
    3574:	e0bffd17 	ldw	r2,-12(fp)
    3578:	10002f15 	stw	zero,188(r2)
	scrPageInfoInst->curPagePercent = 0;
    357c:	e0bffd17 	ldw	r2,-12(fp)
    3580:	10003115 	stw	zero,196(r2)
	scrPageInfoInst->totalPageNum = 0;
    3584:	e0bffd17 	ldw	r2,-12(fp)
    3588:	10003015 	stw	zero,192(r2)

	bool status = true;
    358c:	00800044 	movi	r2,1
    3590:	e0bff805 	stb	r2,-32(fp)

	//进度条
	short prgBarMarginYU = 4;
    3594:	00800104 	movi	r2,4
    3598:	e0bff88d 	sth	r2,-30(fp)
	short prgBarHeight = height/2;
    359c:	e0bfff0f 	ldh	r2,-4(fp)
    35a0:	1006d7fa 	srli	r3,r2,31
    35a4:	1885883a 	add	r2,r3,r2
    35a8:	1005d07a 	srai	r2,r2,1
    35ac:	e0bff90d 	sth	r2,-28(fp)
	short prgBarMarginX = 2;
    35b0:	00800084 	movi	r2,2
    35b4:	e0bff98d 	sth	r2,-26(fp)
	status = status && setAreaRange( &(scrPageInfoInst->prgBarArea), prgBarMarginX+1, width-prgBarMarginX, prgBarMarginYU+1,\
    35b8:	e0bff803 	ldbu	r2,-32(fp)
    35bc:	10001e26 	beq	r2,zero,3638 <ScreenMainPageInfoInit+0x118>
    35c0:	e0bffd17 	ldw	r2,-12(fp)
    35c4:	11000204 	addi	r4,r2,8
    35c8:	e0bff98b 	ldhu	r2,-26(fp)
    35cc:	10800044 	addi	r2,r2,1
    35d0:	117fffcc 	andi	r5,r2,65535
    35d4:	2960001c 	xori	r5,r5,32768
    35d8:	29600004 	addi	r5,r5,-32768
    35dc:	e0fffe0b 	ldhu	r3,-8(fp)
    35e0:	e0bff98b 	ldhu	r2,-26(fp)
    35e4:	1885c83a 	sub	r2,r3,r2
    35e8:	11bfffcc 	andi	r6,r2,65535
    35ec:	31a0001c 	xori	r6,r6,32768
    35f0:	31a00004 	addi	r6,r6,-32768
    35f4:	e0bff88b 	ldhu	r2,-30(fp)
    35f8:	10800044 	addi	r2,r2,1
    35fc:	11ffffcc 	andi	r7,r2,65535
    3600:	39e0001c 	xori	r7,r7,32768
    3604:	39e00004 	addi	r7,r7,-32768
    3608:	e0fff88b 	ldhu	r3,-30(fp)
    360c:	e0bff90b 	ldhu	r2,-28(fp)
    3610:	1885883a 	add	r2,r3,r2
    3614:	10bfffcc 	andi	r2,r2,65535
    3618:	10a0001c 	xori	r2,r2,32768
    361c:	10a00004 	addi	r2,r2,-32768
    3620:	d8800015 	stw	r2,0(sp)
    3624:	000044c0 	call	44c <setAreaRange>
    3628:	10803fcc 	andi	r2,r2,255
    362c:	10000226 	beq	r2,zero,3638 <ScreenMainPageInfoInit+0x118>
    3630:	00800044 	movi	r2,1
    3634:	00000106 	br	363c <ScreenMainPageInfoInit+0x11c>
    3638:	0005883a 	mov	r2,zero
    363c:	e0bff805 	stb	r2,-32(fp)
    3640:	e0bff803 	ldbu	r2,-32(fp)
    3644:	1080004c 	andi	r2,r2,1
    3648:	e0bff805 	stb	r2,-32(fp)
						prgBarMarginYU + prgBarHeight  );
	status = status && setDefaultProgressBarX( &(scrPageInfoInst->prgBarX), width - (prgBarMarginX<<1), prgBarHeight );
    364c:	e0bff803 	ldbu	r2,-32(fp)
    3650:	10001126 	beq	r2,zero,3698 <ScreenMainPageInfoInit+0x178>
    3654:	e0bffd17 	ldw	r2,-12(fp)
    3658:	11000404 	addi	r4,r2,16
    365c:	e0fffe0b 	ldhu	r3,-8(fp)
    3660:	e0bff98b 	ldhu	r2,-26(fp)
    3664:	1085883a 	add	r2,r2,r2
    3668:	1885c83a 	sub	r2,r3,r2
    366c:	10ffffcc 	andi	r3,r2,65535
    3670:	18e0001c 	xori	r3,r3,32768
    3674:	18e00004 	addi	r3,r3,-32768
    3678:	e0bff90f 	ldh	r2,-28(fp)
    367c:	180b883a 	mov	r5,r3
    3680:	100d883a 	mov	r6,r2
    3684:	0000ae00 	call	ae0 <setDefaultProgressBarX>
    3688:	10803fcc 	andi	r2,r2,255
    368c:	10000226 	beq	r2,zero,3698 <ScreenMainPageInfoInit+0x178>
    3690:	00800044 	movi	r2,1
    3694:	00000106 	br	369c <ScreenMainPageInfoInit+0x17c>
    3698:	0005883a 	mov	r2,zero
    369c:	e0bff805 	stb	r2,-32(fp)
    36a0:	e0bff803 	ldbu	r2,-32(fp)
    36a4:	1080004c 	andi	r2,r2,1
    36a8:	e0bff805 	stb	r2,-32(fp)

	//动态文本标签(高度设定)
	short tagHeight = ( height - prgBarMarginYU - prgBarHeight );
    36ac:	e0ffff0b 	ldhu	r3,-4(fp)
    36b0:	e0bff88b 	ldhu	r2,-30(fp)
    36b4:	1885c83a 	sub	r2,r3,r2
    36b8:	1007883a 	mov	r3,r2
    36bc:	e0bff90b 	ldhu	r2,-28(fp)
    36c0:	1885c83a 	sub	r2,r3,r2
    36c4:	e0bffa0d 	sth	r2,-24(fp)
	short tagMarginYD = 5;
    36c8:	00800144 	movi	r2,5
    36cc:	e0bffa8d 	sth	r2,-22(fp)

	//进度百分数标签(向左侧偏移)格式为"53.33%"
	short tagPercentMarginXL = 10;
    36d0:	00800284 	movi	r2,10
    36d4:	e0bffb0d 	sth	r2,-20(fp)
	short tagPercWidth = 6 * SRC_LETTER_SIZE_X + 5 * DEFAULT_LETTER_SPACING + 20;//20是横向边界裕量
    36d8:	00801244 	movi	r2,73
    36dc:	e0bffb8d 	sth	r2,-18(fp)
	status = status && setAreaRange( &(scrPageInfoInst->tagPagePercTageArea), tagPercentMarginXL+1, tagPercentMarginXL+tagPercWidth,\
    36e0:	e0bff803 	ldbu	r2,-32(fp)
    36e4:	10002326 	beq	r2,zero,3774 <ScreenMainPageInfoInit+0x254>
    36e8:	e0bffd17 	ldw	r2,-12(fp)
    36ec:	11001904 	addi	r4,r2,100
    36f0:	e0bffb0b 	ldhu	r2,-20(fp)
    36f4:	10800044 	addi	r2,r2,1
    36f8:	117fffcc 	andi	r5,r2,65535
    36fc:	2960001c 	xori	r5,r5,32768
    3700:	29600004 	addi	r5,r5,-32768
    3704:	e0fffb0b 	ldhu	r3,-20(fp)
    3708:	e0bffb8b 	ldhu	r2,-18(fp)
    370c:	1885883a 	add	r2,r3,r2
    3710:	11bfffcc 	andi	r6,r2,65535
    3714:	31a0001c 	xori	r6,r6,32768
    3718:	31a00004 	addi	r6,r6,-32768
    371c:	e0ffff0b 	ldhu	r3,-4(fp)
    3720:	e0bffa8b 	ldhu	r2,-22(fp)
    3724:	1885c83a 	sub	r2,r3,r2
    3728:	1007883a 	mov	r3,r2
    372c:	e0bffa0b 	ldhu	r2,-24(fp)
    3730:	1885c83a 	sub	r2,r3,r2
    3734:	10800044 	addi	r2,r2,1
    3738:	11ffffcc 	andi	r7,r2,65535
    373c:	39e0001c 	xori	r7,r7,32768
    3740:	39e00004 	addi	r7,r7,-32768
    3744:	e0ffff0b 	ldhu	r3,-4(fp)
    3748:	e0bffa8b 	ldhu	r2,-22(fp)
    374c:	1885c83a 	sub	r2,r3,r2
    3750:	10bfffcc 	andi	r2,r2,65535
    3754:	10a0001c 	xori	r2,r2,32768
    3758:	10a00004 	addi	r2,r2,-32768
    375c:	d8800015 	stw	r2,0(sp)
    3760:	000044c0 	call	44c <setAreaRange>
    3764:	10803fcc 	andi	r2,r2,255
    3768:	10000226 	beq	r2,zero,3774 <ScreenMainPageInfoInit+0x254>
    376c:	00800044 	movi	r2,1
    3770:	00000106 	br	3778 <ScreenMainPageInfoInit+0x258>
    3774:	0005883a 	mov	r2,zero
    3778:	e0bff805 	stb	r2,-32(fp)
    377c:	e0bff803 	ldbu	r2,-32(fp)
    3780:	1080004c 	andi	r2,r2,1
    3784:	e0bff805 	stb	r2,-32(fp)
						height - tagMarginYD - tagHeight + 1 , height - tagMarginYD );
	status = status && setDefaultTagBlock( &(scrPageInfoInst->tagPagePercTage), "33.33%", tagPercWidth, tagHeight );
    3788:	e0bff803 	ldbu	r2,-32(fp)
    378c:	10000d26 	beq	r2,zero,37c4 <ScreenMainPageInfoInit+0x2a4>
    3790:	e0bffd17 	ldw	r2,-12(fp)
    3794:	11001b04 	addi	r4,r2,108
    3798:	e0fffb8f 	ldh	r3,-18(fp)
    379c:	e0bffa0f 	ldh	r2,-24(fp)
    37a0:	01400374 	movhi	r5,13
    37a4:	29429504 	addi	r5,r5,2644
    37a8:	180d883a 	mov	r6,r3
    37ac:	100f883a 	mov	r7,r2
    37b0:	00009c40 	call	9c4 <setDefaultTagBlock>
    37b4:	10803fcc 	andi	r2,r2,255
    37b8:	10000226 	beq	r2,zero,37c4 <ScreenMainPageInfoInit+0x2a4>
    37bc:	00800044 	movi	r2,1
    37c0:	00000106 	br	37c8 <ScreenMainPageInfoInit+0x2a8>
    37c4:	0005883a 	mov	r2,zero
    37c8:	e0bff805 	stb	r2,-32(fp)
    37cc:	e0bff803 	ldbu	r2,-32(fp)
    37d0:	1080004c 	andi	r2,r2,1
    37d4:	e0bff805 	stb	r2,-32(fp)


	//进度页数标签(向右侧偏移)格式为：" 1234/99999"
	short tagPageNumMarginXR = 10;
    37d8:	00800284 	movi	r2,10
    37dc:	e0bffc0d 	sth	r2,-16(fp)
	short tagPsgeNumWidth = 11 * SRC_LETTER_SIZE_X + 10 * DEFAULT_LETTER_SPACING + 20;//20是横向边界裕量
    37e0:	00801d84 	movi	r2,118
    37e4:	e0bffc8d 	sth	r2,-14(fp)

	status = status && setAreaRange( &(scrPageInfoInst->tagPageNumArea), width-tagPageNumMarginXR-tagPsgeNumWidth+1, width-tagPageNumMarginXR,\
    37e8:	e0bff803 	ldbu	r2,-32(fp)
    37ec:	10002826 	beq	r2,zero,3890 <ScreenMainPageInfoInit+0x370>
    37f0:	e0bffd17 	ldw	r2,-12(fp)
    37f4:	11002404 	addi	r4,r2,144
    37f8:	e0fffe0b 	ldhu	r3,-8(fp)
    37fc:	e0bffc0b 	ldhu	r2,-16(fp)
    3800:	1885c83a 	sub	r2,r3,r2
    3804:	1007883a 	mov	r3,r2
    3808:	e0bffc8b 	ldhu	r2,-14(fp)
    380c:	1885c83a 	sub	r2,r3,r2
    3810:	10800044 	addi	r2,r2,1
    3814:	117fffcc 	andi	r5,r2,65535
    3818:	2960001c 	xori	r5,r5,32768
    381c:	29600004 	addi	r5,r5,-32768
    3820:	e0fffe0b 	ldhu	r3,-8(fp)
    3824:	e0bffc0b 	ldhu	r2,-16(fp)
    3828:	1885c83a 	sub	r2,r3,r2
    382c:	11bfffcc 	andi	r6,r2,65535
    3830:	31a0001c 	xori	r6,r6,32768
    3834:	31a00004 	addi	r6,r6,-32768
    3838:	e0ffff0b 	ldhu	r3,-4(fp)
    383c:	e0bffa8b 	ldhu	r2,-22(fp)
    3840:	1885c83a 	sub	r2,r3,r2
    3844:	1007883a 	mov	r3,r2
    3848:	e0bffa0b 	ldhu	r2,-24(fp)
    384c:	1885c83a 	sub	r2,r3,r2
    3850:	10800044 	addi	r2,r2,1
    3854:	11ffffcc 	andi	r7,r2,65535
    3858:	39e0001c 	xori	r7,r7,32768
    385c:	39e00004 	addi	r7,r7,-32768
    3860:	e0ffff0b 	ldhu	r3,-4(fp)
    3864:	e0bffa8b 	ldhu	r2,-22(fp)
    3868:	1885c83a 	sub	r2,r3,r2
    386c:	10bfffcc 	andi	r2,r2,65535
    3870:	10a0001c 	xori	r2,r2,32768
    3874:	10a00004 	addi	r2,r2,-32768
    3878:	d8800015 	stw	r2,0(sp)
    387c:	000044c0 	call	44c <setAreaRange>
    3880:	10803fcc 	andi	r2,r2,255
    3884:	10000226 	beq	r2,zero,3890 <ScreenMainPageInfoInit+0x370>
    3888:	00800044 	movi	r2,1
    388c:	00000106 	br	3894 <ScreenMainPageInfoInit+0x374>
    3890:	0005883a 	mov	r2,zero
    3894:	e0bff805 	stb	r2,-32(fp)
    3898:	e0bff803 	ldbu	r2,-32(fp)
    389c:	1080004c 	andi	r2,r2,1
    38a0:	e0bff805 	stb	r2,-32(fp)
						height - tagMarginYD - tagHeight + 1 , height - tagMarginYD );
	status = status && setDefaultTagBlock( &(scrPageInfoInst->tagPageNum), "33.33%", tagPsgeNumWidth, tagHeight );
    38a4:	e0bff803 	ldbu	r2,-32(fp)
    38a8:	10000d26 	beq	r2,zero,38e0 <ScreenMainPageInfoInit+0x3c0>
    38ac:	e0bffd17 	ldw	r2,-12(fp)
    38b0:	11002604 	addi	r4,r2,152
    38b4:	e0fffc8f 	ldh	r3,-14(fp)
    38b8:	e0bffa0f 	ldh	r2,-24(fp)
    38bc:	01400374 	movhi	r5,13
    38c0:	29429504 	addi	r5,r5,2644
    38c4:	180d883a 	mov	r6,r3
    38c8:	100f883a 	mov	r7,r2
    38cc:	00009c40 	call	9c4 <setDefaultTagBlock>
    38d0:	10803fcc 	andi	r2,r2,255
    38d4:	10000226 	beq	r2,zero,38e0 <ScreenMainPageInfoInit+0x3c0>
    38d8:	00800044 	movi	r2,1
    38dc:	00000106 	br	38e4 <ScreenMainPageInfoInit+0x3c4>
    38e0:	0005883a 	mov	r2,zero
    38e4:	e0bff805 	stb	r2,-32(fp)
    38e8:	e0bff803 	ldbu	r2,-32(fp)
    38ec:	1080004c 	andi	r2,r2,1
    38f0:	e0bff805 	stb	r2,-32(fp)

	return status;
    38f4:	e0bff803 	ldbu	r2,-32(fp)
}
    38f8:	e037883a 	mov	sp,fp
    38fc:	dfc00117 	ldw	ra,4(sp)
    3900:	df000017 	ldw	fp,0(sp)
    3904:	dec00204 	addi	sp,sp,8
    3908:	f800283a 	ret

0000390c <screenMainSettingInit>:

bool screenMainSettingInit( ScreenSetting *scrSettingInst, short width, short height )
{
    390c:	deffdf04 	addi	sp,sp,-132
    3910:	dfc02015 	stw	ra,128(sp)
    3914:	df001f15 	stw	fp,124(sp)
    3918:	df001f04 	addi	fp,sp,124
    391c:	e13ffd15 	stw	r4,-12(fp)
    3920:	2807883a 	mov	r3,r5
    3924:	3005883a 	mov	r2,r6
    3928:	e0fffe0d 	sth	r3,-8(fp)
    392c:	e0bfff0d 	sth	r2,-4(fp)
	bool status = true;
    3930:	00800044 	movi	r2,1
    3934:	e0bfe405 	stb	r2,-112(fp)

	scrSettingInst->bkgBorderColor = defaultColorInfo;
    3938:	e0bffd17 	ldw	r2,-12(fp)
    393c:	d0e0040b 	ldhu	r3,-32752(gp)
    3940:	10c0000d 	sth	r3,0(r2)
    3944:	d0e00484 	addi	r3,gp,-32750
    3948:	18c0000b 	ldhu	r3,0(r3)
    394c:	10c0008d 	sth	r3,2(r2)
    3950:	d0e00504 	addi	r3,gp,-32748
    3954:	18c0000b 	ldhu	r3,0(r3)
    3958:	10c0010d 	sth	r3,4(r2)
    395c:	d0e00584 	addi	r3,gp,-32746
    3960:	18c0000b 	ldhu	r3,0(r3)
    3964:	10c0018d 	sth	r3,6(r2)

	//颜色信息编辑存储区
	scrSettingInst->bkgColorIndex = 0;
    3968:	e0bffd17 	ldw	r2,-12(fp)
    396c:	1000ea45 	stb	zero,937(r2)
	scrSettingInst->txtColorIndex = 255;
    3970:	e0bffd17 	ldw	r2,-12(fp)
    3974:	00ffffc4 	movi	r3,-1
    3978:	10c0ea85 	stb	r3,938(r2)

	//设置左侧所有标签的位置
	short LeftTagMarginXL = 20;//左侧所有标签的左边距
    397c:	00800504 	movi	r2,20
    3980:	e0bfe48d 	sth	r2,-110(fp)
	short LeftTextMarginInTagX = 15;//在标签内部的文本与标签横向边界的距离
    3984:	008003c4 	movi	r2,15
    3988:	e0bfe50d 	sth	r2,-108(fp)
	short LeftTagGroupMarginXL = 10;//标签组的左边距
    398c:	00800284 	movi	r2,10
    3990:	e0bfe58d 	sth	r2,-106(fp)
	//高度设定
	short tag1CenterY = 60;
    3994:	00800f04 	movi	r2,60
    3998:	e0bfe60d 	sth	r2,-104(fp)
	short tag1HalfH = 25;
    399c:	00800644 	movi	r2,25
    39a0:	e0bfe68d 	sth	r2,-102(fp)
	short editBkgColorCenterY = tag1CenterY + 70;
    39a4:	e0bfe60b 	ldhu	r2,-104(fp)
    39a8:	10801184 	addi	r2,r2,70
    39ac:	e0bfe70d 	sth	r2,-100(fp)
	short editBkgColorHalfH = 25;
    39b0:	00800644 	movi	r2,25
    39b4:	e0bfe78d 	sth	r2,-98(fp)
	short editWordColorCenterY = editBkgColorCenterY + 60;
    39b8:	e0bfe70b 	ldhu	r2,-100(fp)
    39bc:	10800f04 	addi	r2,r2,60
    39c0:	e0bfe80d 	sth	r2,-96(fp)
	short editWordColorHalfH = 25;
    39c4:	00800644 	movi	r2,25
    39c8:	e0bfe88d 	sth	r2,-94(fp)
	short editTurnPageModCenterY = editWordColorCenterY + 60;
    39cc:	e0bfe80b 	ldhu	r2,-96(fp)
    39d0:	10800f04 	addi	r2,r2,60
    39d4:	e0bfe90d 	sth	r2,-92(fp)
	short editTurnPageModHalfH = 25;
    39d8:	00800644 	movi	r2,25
    39dc:	e0bfe98d 	sth	r2,-90(fp)
	short tag2CenterY = editTurnPageModCenterY + 70;
    39e0:	e0bfe90b 	ldhu	r2,-92(fp)
    39e4:	10801184 	addi	r2,r2,70
    39e8:	e0bfea0d 	sth	r2,-88(fp)
	short tag2HalfH = 25;
    39ec:	00800644 	movi	r2,25
    39f0:	e0bfea8d 	sth	r2,-86(fp)

	if ( tag2CenterY + tag2HalfH > height )
    39f4:	e0ffea0f 	ldh	r3,-88(fp)
    39f8:	e0bfea8f 	ldh	r2,-86(fp)
    39fc:	1885883a 	add	r2,r3,r2
    3a00:	e0ffff0f 	ldh	r3,-4(fp)
    3a04:	1880010e 	bge	r3,r2,3a0c <screenMainSettingInit+0x100>
	{
		status = false;
    3a08:	e03fe405 	stb	zero,-112(fp)
	}

	//设置静态标签：

	//"休息定时"
	short textWidth1 = getWidthOfText( "休息定时", 8 );//4字汉字文本的像素宽度
    3a0c:	01000374 	movhi	r4,13
    3a10:	21029704 	addi	r4,r4,2652
    3a14:	01400204 	movi	r5,8
    3a18:	00016140 	call	1614 <getWidthOfText>
    3a1c:	e0bfeb0d 	sth	r2,-84(fp)
	short staticTag1XLen = (LeftTextMarginInTagX<<1)+textWidth1;
    3a20:	e0bfe50b 	ldhu	r2,-108(fp)
    3a24:	1085883a 	add	r2,r2,r2
    3a28:	1007883a 	mov	r3,r2
    3a2c:	e0bfeb0b 	ldhu	r2,-84(fp)
    3a30:	1885883a 	add	r2,r3,r2
    3a34:	e0bfeb8d 	sth	r2,-82(fp)
	short staticTag1XMax = LeftTagMarginXL+staticTag1XLen;
    3a38:	e0ffe48b 	ldhu	r3,-110(fp)
    3a3c:	e0bfeb8b 	ldhu	r2,-82(fp)
    3a40:	1885883a 	add	r2,r3,r2
    3a44:	e0bfec0d 	sth	r2,-80(fp)

	status = status && setAreaRange( &(scrSettingInst->tag1Area), LeftTagMarginXL+1, staticTag1XMax, tag1CenterY-tag1HalfH+1, tag1CenterY+tag1HalfH );
    3a48:	e0bfe403 	ldbu	r2,-112(fp)
    3a4c:	10001b26 	beq	r2,zero,3abc <screenMainSettingInit+0x1b0>
    3a50:	e0bffd17 	ldw	r2,-12(fp)
    3a54:	11000204 	addi	r4,r2,8
    3a58:	e0bfe48b 	ldhu	r2,-110(fp)
    3a5c:	10800044 	addi	r2,r2,1
    3a60:	117fffcc 	andi	r5,r2,65535
    3a64:	2960001c 	xori	r5,r5,32768
    3a68:	29600004 	addi	r5,r5,-32768
    3a6c:	e1bfec0f 	ldh	r6,-80(fp)
    3a70:	e0ffe60b 	ldhu	r3,-104(fp)
    3a74:	e0bfe68b 	ldhu	r2,-102(fp)
    3a78:	1885c83a 	sub	r2,r3,r2
    3a7c:	10800044 	addi	r2,r2,1
    3a80:	11ffffcc 	andi	r7,r2,65535
    3a84:	39e0001c 	xori	r7,r7,32768
    3a88:	39e00004 	addi	r7,r7,-32768
    3a8c:	e0ffe60b 	ldhu	r3,-104(fp)
    3a90:	e0bfe68b 	ldhu	r2,-102(fp)
    3a94:	1885883a 	add	r2,r3,r2
    3a98:	10bfffcc 	andi	r2,r2,65535
    3a9c:	10a0001c 	xori	r2,r2,32768
    3aa0:	10a00004 	addi	r2,r2,-32768
    3aa4:	d8800015 	stw	r2,0(sp)
    3aa8:	000044c0 	call	44c <setAreaRange>
    3aac:	10803fcc 	andi	r2,r2,255
    3ab0:	10000226 	beq	r2,zero,3abc <screenMainSettingInit+0x1b0>
    3ab4:	00800044 	movi	r2,1
    3ab8:	00000106 	br	3ac0 <screenMainSettingInit+0x1b4>
    3abc:	0005883a 	mov	r2,zero
    3ac0:	e0bfe405 	stb	r2,-112(fp)
    3ac4:	e0bfe403 	ldbu	r2,-112(fp)
    3ac8:	1080004c 	andi	r2,r2,1
    3acc:	e0bfe405 	stb	r2,-112(fp)
	status = status && setDefaultTagBlock( &(scrSettingInst->tag1), "休息定时", staticTag1XLen, tag1HalfH<<1 );
    3ad0:	e0bfe403 	ldbu	r2,-112(fp)
    3ad4:	10001126 	beq	r2,zero,3b1c <screenMainSettingInit+0x210>
    3ad8:	e0bffd17 	ldw	r2,-12(fp)
    3adc:	11000404 	addi	r4,r2,16
    3ae0:	e0ffeb8f 	ldh	r3,-82(fp)
    3ae4:	e0bfe68f 	ldh	r2,-102(fp)
    3ae8:	1085883a 	add	r2,r2,r2
    3aec:	10bfffcc 	andi	r2,r2,65535
    3af0:	10a0001c 	xori	r2,r2,32768
    3af4:	10a00004 	addi	r2,r2,-32768
    3af8:	01400374 	movhi	r5,13
    3afc:	29429704 	addi	r5,r5,2652
    3b00:	180d883a 	mov	r6,r3
    3b04:	100f883a 	mov	r7,r2
    3b08:	00009c40 	call	9c4 <setDefaultTagBlock>
    3b0c:	10803fcc 	andi	r2,r2,255
    3b10:	10000226 	beq	r2,zero,3b1c <screenMainSettingInit+0x210>
    3b14:	00800044 	movi	r2,1
    3b18:	00000106 	br	3b20 <screenMainSettingInit+0x214>
    3b1c:	0005883a 	mov	r2,zero
    3b20:	e0bfe405 	stb	r2,-112(fp)
    3b24:	e0bfe403 	ldbu	r2,-112(fp)
    3b28:	1080004c 	andi	r2,r2,1
    3b2c:	e0bfe405 	stb	r2,-112(fp)


	//"自动翻页定时"
	short textWidth2 = getWidthOfText( "翻页定时", 8 );//4字汉字文本的像素宽度
    3b30:	01000374 	movhi	r4,13
    3b34:	21029a04 	addi	r4,r4,2664
    3b38:	01400204 	movi	r5,8
    3b3c:	00016140 	call	1614 <getWidthOfText>
    3b40:	e0bfec8d 	sth	r2,-78(fp)
	short staticTag2XLen = (LeftTextMarginInTagX<<1)+textWidth2;
    3b44:	e0bfe50b 	ldhu	r2,-108(fp)
    3b48:	1085883a 	add	r2,r2,r2
    3b4c:	1007883a 	mov	r3,r2
    3b50:	e0bfec8b 	ldhu	r2,-78(fp)
    3b54:	1885883a 	add	r2,r3,r2
    3b58:	e0bfed0d 	sth	r2,-76(fp)
	short staticTag2XMax = LeftTagMarginXL+staticTag2XLen;
    3b5c:	e0ffe48b 	ldhu	r3,-110(fp)
    3b60:	e0bfed0b 	ldhu	r2,-76(fp)
    3b64:	1885883a 	add	r2,r3,r2
    3b68:	e0bfed8d 	sth	r2,-74(fp)

	status = status && setAreaRange( &(scrSettingInst->tag1Area), LeftTagMarginXL+1, LeftTagMarginXL+staticTag2XLen, tag2CenterY-tag2HalfH+1, tag2CenterY+tag2HalfH );
    3b6c:	e0bfe403 	ldbu	r2,-112(fp)
    3b70:	10002026 	beq	r2,zero,3bf4 <screenMainSettingInit+0x2e8>
    3b74:	e0bffd17 	ldw	r2,-12(fp)
    3b78:	11000204 	addi	r4,r2,8
    3b7c:	e0bfe48b 	ldhu	r2,-110(fp)
    3b80:	10800044 	addi	r2,r2,1
    3b84:	117fffcc 	andi	r5,r2,65535
    3b88:	2960001c 	xori	r5,r5,32768
    3b8c:	29600004 	addi	r5,r5,-32768
    3b90:	e0ffe48b 	ldhu	r3,-110(fp)
    3b94:	e0bfed0b 	ldhu	r2,-76(fp)
    3b98:	1885883a 	add	r2,r3,r2
    3b9c:	11bfffcc 	andi	r6,r2,65535
    3ba0:	31a0001c 	xori	r6,r6,32768
    3ba4:	31a00004 	addi	r6,r6,-32768
    3ba8:	e0ffea0b 	ldhu	r3,-88(fp)
    3bac:	e0bfea8b 	ldhu	r2,-86(fp)
    3bb0:	1885c83a 	sub	r2,r3,r2
    3bb4:	10800044 	addi	r2,r2,1
    3bb8:	11ffffcc 	andi	r7,r2,65535
    3bbc:	39e0001c 	xori	r7,r7,32768
    3bc0:	39e00004 	addi	r7,r7,-32768
    3bc4:	e0ffea0b 	ldhu	r3,-88(fp)
    3bc8:	e0bfea8b 	ldhu	r2,-86(fp)
    3bcc:	1885883a 	add	r2,r3,r2
    3bd0:	10bfffcc 	andi	r2,r2,65535
    3bd4:	10a0001c 	xori	r2,r2,32768
    3bd8:	10a00004 	addi	r2,r2,-32768
    3bdc:	d8800015 	stw	r2,0(sp)
    3be0:	000044c0 	call	44c <setAreaRange>
    3be4:	10803fcc 	andi	r2,r2,255
    3be8:	10000226 	beq	r2,zero,3bf4 <screenMainSettingInit+0x2e8>
    3bec:	00800044 	movi	r2,1
    3bf0:	00000106 	br	3bf8 <screenMainSettingInit+0x2ec>
    3bf4:	0005883a 	mov	r2,zero
    3bf8:	e0bfe405 	stb	r2,-112(fp)
    3bfc:	e0bfe403 	ldbu	r2,-112(fp)
    3c00:	1080004c 	andi	r2,r2,1
    3c04:	e0bfe405 	stb	r2,-112(fp)
	status = status && setDefaultTagBlock( &(scrSettingInst->tag1), "翻页定时", (LeftTextMarginInTagX<<1)+textWidth2, tag2HalfH<<1 );
    3c08:	e0bfe403 	ldbu	r2,-112(fp)
    3c0c:	10001826 	beq	r2,zero,3c70 <screenMainSettingInit+0x364>
    3c10:	e0bffd17 	ldw	r2,-12(fp)
    3c14:	11000404 	addi	r4,r2,16
    3c18:	e0bfe50b 	ldhu	r2,-108(fp)
    3c1c:	1085883a 	add	r2,r2,r2
    3c20:	1007883a 	mov	r3,r2
    3c24:	e0bfec8b 	ldhu	r2,-78(fp)
    3c28:	1885883a 	add	r2,r3,r2
    3c2c:	10ffffcc 	andi	r3,r2,65535
    3c30:	18e0001c 	xori	r3,r3,32768
    3c34:	18e00004 	addi	r3,r3,-32768
    3c38:	e0bfea8f 	ldh	r2,-86(fp)
    3c3c:	1085883a 	add	r2,r2,r2
    3c40:	10bfffcc 	andi	r2,r2,65535
    3c44:	10a0001c 	xori	r2,r2,32768
    3c48:	10a00004 	addi	r2,r2,-32768
    3c4c:	01400374 	movhi	r5,13
    3c50:	29429a04 	addi	r5,r5,2664
    3c54:	180d883a 	mov	r6,r3
    3c58:	100f883a 	mov	r7,r2
    3c5c:	00009c40 	call	9c4 <setDefaultTagBlock>
    3c60:	10803fcc 	andi	r2,r2,255
    3c64:	10000226 	beq	r2,zero,3c70 <screenMainSettingInit+0x364>
    3c68:	00800044 	movi	r2,1
    3c6c:	00000106 	br	3c74 <screenMainSettingInit+0x368>
    3c70:	0005883a 	mov	r2,zero
    3c74:	e0bfe405 	stb	r2,-112(fp)
    3c78:	e0bfe403 	ldbu	r2,-112(fp)
    3c7c:	1080004c 	andi	r2,r2,1
    3c80:	e0bfe405 	stb	r2,-112(fp)
	AreaFmt tempAreaFmt2;

	//"背景颜色","字体颜色","自动翻页"
	//设置tagGroup位置(水平用边距，垂直用中心距)

	short tagGroupWidth = width*2/3;
    3c84:	e0bffe0f 	ldh	r2,-8(fp)
    3c88:	1085883a 	add	r2,r2,r2
    3c8c:	1009883a 	mov	r4,r2
    3c90:	014000c4 	movi	r5,3
    3c94:	00083640 	call	8364 <__divsi3>
    3c98:	e0bfee0d 	sth	r2,-72(fp)
	short tagGroupHalfH = editBkgColorHalfH + 5;
    3c9c:	e0bfe78b 	ldhu	r2,-98(fp)
    3ca0:	10800144 	addi	r2,r2,5
    3ca4:	e0bfee8d 	sth	r2,-70(fp)
	short tagGroupXSpacing = 50;//标签组中两个标签的水平间距
    3ca8:	00800c84 	movi	r2,50
    3cac:	e0bfef0d 	sth	r2,-68(fp)

	status = status && setAreaFmt( &tempAreaFmt1, AREA_FMT_MARGIN, AREA_FMT_CENTER, \
    3cb0:	e0bfe403 	ldbu	r2,-112(fp)
    3cb4:	10001826 	beq	r2,zero,3d18 <screenMainSettingInit+0x40c>
    3cb8:	e1ffe58f 	ldh	r7,-106(fp)
    3cbc:	e0fffe0b 	ldhu	r3,-8(fp)
    3cc0:	e0bfee0b 	ldhu	r2,-72(fp)
    3cc4:	1885c83a 	sub	r2,r3,r2
    3cc8:	1007883a 	mov	r3,r2
    3ccc:	e0bfe58b 	ldhu	r2,-106(fp)
    3cd0:	1885c83a 	sub	r2,r3,r2
    3cd4:	113fffcc 	andi	r4,r2,65535
    3cd8:	2120001c 	xori	r4,r4,32768
    3cdc:	21200004 	addi	r4,r4,-32768
    3ce0:	e0ffe70f 	ldh	r3,-100(fp)
    3ce4:	e0bfee8f 	ldh	r2,-70(fp)
    3ce8:	e17ff504 	addi	r5,fp,-44
    3cec:	d9000015 	stw	r4,0(sp)
    3cf0:	d8c00115 	stw	r3,4(sp)
    3cf4:	d8800215 	stw	r2,8(sp)
    3cf8:	2809883a 	mov	r4,r5
    3cfc:	01400044 	movi	r5,1
    3d00:	000d883a 	mov	r6,zero
    3d04:	00007340 	call	734 <setAreaFmt>
    3d08:	10803fcc 	andi	r2,r2,255
    3d0c:	10000226 	beq	r2,zero,3d18 <screenMainSettingInit+0x40c>
    3d10:	00800044 	movi	r2,1
    3d14:	00000106 	br	3d1c <screenMainSettingInit+0x410>
    3d18:	0005883a 	mov	r2,zero
    3d1c:	e0bfe405 	stb	r2,-112(fp)
    3d20:	e0bfe403 	ldbu	r2,-112(fp)
    3d24:	1080004c 	andi	r2,r2,1
    3d28:	e0bfe405 	stb	r2,-112(fp)
			    LeftTagGroupMarginXL, width - tagGroupWidth - LeftTagGroupMarginXL, editBkgColorCenterY, tagGroupHalfH );

	setAreaRangeByAreaFmt( &(scrSettingInst->editBkgColorArea), &tempAreaFmt1, width, height );
    3d2c:	e0bffd17 	ldw	r2,-12(fp)
    3d30:	11006504 	addi	r4,r2,404
    3d34:	e0fffe0f 	ldh	r3,-8(fp)
    3d38:	e0bfff0f 	ldh	r2,-4(fp)
    3d3c:	e17ff504 	addi	r5,fp,-44
    3d40:	180d883a 	mov	r6,r3
    3d44:	100f883a 	mov	r7,r2
    3d48:	00004dc0 	call	4dc <setAreaRangeByAreaFmt>
	tempAreaFmt1.fmtValY.fmtCenterVal.center = editWordColorCenterY;
    3d4c:	e0bfe80b 	ldhu	r2,-96(fp)
    3d50:	e0bff80d 	sth	r2,-32(fp)
	setAreaRangeByAreaFmt( &(scrSettingInst->editWordColorArea), &tempAreaFmt1, width, height );
    3d54:	e0bffd17 	ldw	r2,-12(fp)
    3d58:	11007f04 	addi	r4,r2,508
    3d5c:	e0fffe0f 	ldh	r3,-8(fp)
    3d60:	e0bfff0f 	ldh	r2,-4(fp)
    3d64:	e17ff504 	addi	r5,fp,-44
    3d68:	180d883a 	mov	r6,r3
    3d6c:	100f883a 	mov	r7,r2
    3d70:	00004dc0 	call	4dc <setAreaRangeByAreaFmt>
	tempAreaFmt1.fmtValY.fmtCenterVal.center = editTurnPageModCenterY;
    3d74:	e0bfe90b 	ldhu	r2,-92(fp)
    3d78:	e0bff80d 	sth	r2,-32(fp)
	setAreaRangeByAreaFmt( &(scrSettingInst->editTurnPageModArea), &tempAreaFmt1, width, height );
    3d7c:	e0bffd17 	ldw	r2,-12(fp)
    3d80:	11009904 	addi	r4,r2,612
    3d84:	e0fffe0f 	ldh	r3,-8(fp)
    3d88:	e0bfff0f 	ldh	r2,-4(fp)
    3d8c:	e17ff504 	addi	r5,fp,-44
    3d90:	180d883a 	mov	r6,r3
    3d94:	100f883a 	mov	r7,r2
    3d98:	00004dc0 	call	4dc <setAreaRangeByAreaFmt>

	//设置tagGroup内容
	//左边的静态标签范围
	short leftTagMarginInGroupXL = LeftTagMarginXL - LeftTagGroupMarginXL;
    3d9c:	e0ffe48b 	ldhu	r3,-110(fp)
    3da0:	e0bfe58b 	ldhu	r2,-106(fp)
    3da4:	1885c83a 	sub	r2,r3,r2
    3da8:	e0bfef8d 	sth	r2,-66(fp)
	status = status && setAreaFmt( &tempAreaFmt1, AREA_FMT_MARGIN, AREA_FMT_CENTER, \
    3dac:	e0bfe403 	ldbu	r2,-112(fp)
    3db0:	10001826 	beq	r2,zero,3e14 <screenMainSettingInit+0x508>
    3db4:	e1ffef8f 	ldh	r7,-66(fp)
    3db8:	e0ffee0b 	ldhu	r3,-72(fp)
    3dbc:	e0bfef8b 	ldhu	r2,-66(fp)
    3dc0:	1885c83a 	sub	r2,r3,r2
    3dc4:	1007883a 	mov	r3,r2
    3dc8:	e0bfeb8b 	ldhu	r2,-82(fp)
    3dcc:	1885c83a 	sub	r2,r3,r2
    3dd0:	113fffcc 	andi	r4,r2,65535
    3dd4:	2120001c 	xori	r4,r4,32768
    3dd8:	21200004 	addi	r4,r4,-32768
    3ddc:	e0ffe70f 	ldh	r3,-100(fp)
    3de0:	e0bfe78f 	ldh	r2,-98(fp)
    3de4:	e17ff504 	addi	r5,fp,-44
    3de8:	d9000015 	stw	r4,0(sp)
    3dec:	d8c00115 	stw	r3,4(sp)
    3df0:	d8800215 	stw	r2,8(sp)
    3df4:	2809883a 	mov	r4,r5
    3df8:	01400044 	movi	r5,1
    3dfc:	000d883a 	mov	r6,zero
    3e00:	00007340 	call	734 <setAreaFmt>
    3e04:	10803fcc 	andi	r2,r2,255
    3e08:	10000226 	beq	r2,zero,3e14 <screenMainSettingInit+0x508>
    3e0c:	00800044 	movi	r2,1
    3e10:	00000106 	br	3e18 <screenMainSettingInit+0x50c>
    3e14:	0005883a 	mov	r2,zero
    3e18:	e0bfe405 	stb	r2,-112(fp)
    3e1c:	e0bfe403 	ldbu	r2,-112(fp)
    3e20:	1080004c 	andi	r2,r2,1
    3e24:	e0bfe405 	stb	r2,-112(fp)
				leftTagMarginInGroupXL, tagGroupWidth - leftTagMarginInGroupXL - staticTag1XLen, editBkgColorCenterY, editBkgColorHalfH );
	//右边的动态标签范围
	short rightTagMarginInGroupXL = leftTagMarginInGroupXL + staticTag1XLen + tagGroupXSpacing;
    3e28:	e0ffef8b 	ldhu	r3,-66(fp)
    3e2c:	e0bfeb8b 	ldhu	r2,-82(fp)
    3e30:	1885883a 	add	r2,r3,r2
    3e34:	1007883a 	mov	r3,r2
    3e38:	e0bfef0b 	ldhu	r2,-68(fp)
    3e3c:	1885883a 	add	r2,r3,r2
    3e40:	e0bff00d 	sth	r2,-64(fp)
	short rightTagWidth = 50;//要保证取值大于文本"off"的宽度，即3*SRC_LETTER_SIZE_X+2*DEFAULT_LETTER_SPACING
    3e44:	00800c84 	movi	r2,50
    3e48:	e0bff08d 	sth	r2,-62(fp)
	status = status && setAreaFmt( &tempAreaFmt2, AREA_FMT_MARGIN, AREA_FMT_CENTER, \
    3e4c:	e0bfe403 	ldbu	r2,-112(fp)
    3e50:	10001826 	beq	r2,zero,3eb4 <screenMainSettingInit+0x5a8>
    3e54:	e1fff00f 	ldh	r7,-64(fp)
    3e58:	e0ffee0b 	ldhu	r3,-72(fp)
    3e5c:	e0bfef8b 	ldhu	r2,-66(fp)
    3e60:	1885c83a 	sub	r2,r3,r2
    3e64:	1007883a 	mov	r3,r2
    3e68:	e0bff08b 	ldhu	r2,-62(fp)
    3e6c:	1885c83a 	sub	r2,r3,r2
    3e70:	113fffcc 	andi	r4,r2,65535
    3e74:	2120001c 	xori	r4,r4,32768
    3e78:	21200004 	addi	r4,r4,-32768
    3e7c:	e0ffe70f 	ldh	r3,-100(fp)
    3e80:	e0bfe78f 	ldh	r2,-98(fp)
    3e84:	e17ff904 	addi	r5,fp,-28
    3e88:	d9000015 	stw	r4,0(sp)
    3e8c:	d8c00115 	stw	r3,4(sp)
    3e90:	d8800215 	stw	r2,8(sp)
    3e94:	2809883a 	mov	r4,r5
    3e98:	01400044 	movi	r5,1
    3e9c:	000d883a 	mov	r6,zero
    3ea0:	00007340 	call	734 <setAreaFmt>
    3ea4:	10803fcc 	andi	r2,r2,255
    3ea8:	10000226 	beq	r2,zero,3eb4 <screenMainSettingInit+0x5a8>
    3eac:	00800044 	movi	r2,1
    3eb0:	00000106 	br	3eb8 <screenMainSettingInit+0x5ac>
    3eb4:	0005883a 	mov	r2,zero
    3eb8:	e0bfe405 	stb	r2,-112(fp)
    3ebc:	e0bfe403 	ldbu	r2,-112(fp)
    3ec0:	1080004c 	andi	r2,r2,1
    3ec4:	e0bfe405 	stb	r2,-112(fp)
				rightTagMarginInGroupXL, tagGroupWidth - leftTagMarginInGroupXL - rightTagWidth, editBkgColorCenterY, editBkgColorHalfH );

	//设置标签组
	status = status && setDefaultTagGroup( &(scrSettingInst->editBkgColor), &tempAreaFmt1, &tempAreaFmt2, \
    3ec8:	e0bfe403 	ldbu	r2,-112(fp)
    3ecc:	10001526 	beq	r2,zero,3f24 <screenMainSettingInit+0x618>
    3ed0:	e0bffd17 	ldw	r2,-12(fp)
    3ed4:	11006704 	addi	r4,r2,412
    3ed8:	e0ffee0f 	ldh	r3,-72(fp)
				tagGroupWidth, tagGroupHalfH<<1,"背景颜色", (void*)0 );
    3edc:	e0bfee8f 	ldh	r2,-70(fp)
    3ee0:	1085883a 	add	r2,r2,r2
	short rightTagWidth = 50;//要保证取值大于文本"off"的宽度，即3*SRC_LETTER_SIZE_X+2*DEFAULT_LETTER_SPACING
	status = status && setAreaFmt( &tempAreaFmt2, AREA_FMT_MARGIN, AREA_FMT_CENTER, \
				rightTagMarginInGroupXL, tagGroupWidth - leftTagMarginInGroupXL - rightTagWidth, editBkgColorCenterY, editBkgColorHalfH );

	//设置标签组
	status = status && setDefaultTagGroup( &(scrSettingInst->editBkgColor), &tempAreaFmt1, &tempAreaFmt2, \
    3ee4:	10bfffcc 	andi	r2,r2,65535
    3ee8:	10a0001c 	xori	r2,r2,32768
    3eec:	10a00004 	addi	r2,r2,-32768
    3ef0:	e17ff504 	addi	r5,fp,-44
    3ef4:	e1bff904 	addi	r6,fp,-28
    3ef8:	d8800015 	stw	r2,0(sp)
    3efc:	00800374 	movhi	r2,13
    3f00:	10829d04 	addi	r2,r2,2676
    3f04:	d8800115 	stw	r2,4(sp)
    3f08:	d8000215 	stw	zero,8(sp)
    3f0c:	180f883a 	mov	r7,r3
    3f10:	00017a80 	call	17a8 <setDefaultTagGroup>
    3f14:	10803fcc 	andi	r2,r2,255
    3f18:	10000226 	beq	r2,zero,3f24 <screenMainSettingInit+0x618>
    3f1c:	00800044 	movi	r2,1
    3f20:	00000106 	br	3f28 <screenMainSettingInit+0x61c>
    3f24:	0005883a 	mov	r2,zero
    3f28:	e0bfe405 	stb	r2,-112(fp)
    3f2c:	e0bfe403 	ldbu	r2,-112(fp)
    3f30:	1080004c 	andi	r2,r2,1
    3f34:	e0bfe405 	stb	r2,-112(fp)
				tagGroupWidth, tagGroupHalfH<<1,"背景颜色", (void*)0 );

	tempAreaFmt1.fmtValY.fmtCenterVal.half = editWordColorHalfH;
    3f38:	e0bfe88b 	ldhu	r2,-94(fp)
    3f3c:	e0bff88d 	sth	r2,-30(fp)
	tempAreaFmt2.fmtValY.fmtCenterVal.half = editWordColorHalfH;
    3f40:	e0bfe88b 	ldhu	r2,-94(fp)
    3f44:	e0bffc8d 	sth	r2,-14(fp)
	status = status && setDefaultTagGroup( &(scrSettingInst->editWordColor), &tempAreaFmt1, &tempAreaFmt2, \
    3f48:	e0bfe403 	ldbu	r2,-112(fp)
    3f4c:	10001526 	beq	r2,zero,3fa4 <screenMainSettingInit+0x698>
    3f50:	e0bffd17 	ldw	r2,-12(fp)
    3f54:	11008104 	addi	r4,r2,516
    3f58:	e0ffee0f 	ldh	r3,-72(fp)
				tagGroupWidth, tagGroupHalfH<<1,"字体颜色", (void*)0 );
    3f5c:	e0bfee8f 	ldh	r2,-70(fp)
    3f60:	1085883a 	add	r2,r2,r2
	status = status && setDefaultTagGroup( &(scrSettingInst->editBkgColor), &tempAreaFmt1, &tempAreaFmt2, \
				tagGroupWidth, tagGroupHalfH<<1,"背景颜色", (void*)0 );

	tempAreaFmt1.fmtValY.fmtCenterVal.half = editWordColorHalfH;
	tempAreaFmt2.fmtValY.fmtCenterVal.half = editWordColorHalfH;
	status = status && setDefaultTagGroup( &(scrSettingInst->editWordColor), &tempAreaFmt1, &tempAreaFmt2, \
    3f64:	10bfffcc 	andi	r2,r2,65535
    3f68:	10a0001c 	xori	r2,r2,32768
    3f6c:	10a00004 	addi	r2,r2,-32768
    3f70:	e17ff504 	addi	r5,fp,-44
    3f74:	e1bff904 	addi	r6,fp,-28
    3f78:	d8800015 	stw	r2,0(sp)
    3f7c:	00800374 	movhi	r2,13
    3f80:	1082a004 	addi	r2,r2,2688
    3f84:	d8800115 	stw	r2,4(sp)
    3f88:	d8000215 	stw	zero,8(sp)
    3f8c:	180f883a 	mov	r7,r3
    3f90:	00017a80 	call	17a8 <setDefaultTagGroup>
    3f94:	10803fcc 	andi	r2,r2,255
    3f98:	10000226 	beq	r2,zero,3fa4 <screenMainSettingInit+0x698>
    3f9c:	00800044 	movi	r2,1
    3fa0:	00000106 	br	3fa8 <screenMainSettingInit+0x69c>
    3fa4:	0005883a 	mov	r2,zero
    3fa8:	e0bfe405 	stb	r2,-112(fp)
    3fac:	e0bfe403 	ldbu	r2,-112(fp)
    3fb0:	1080004c 	andi	r2,r2,1
    3fb4:	e0bfe405 	stb	r2,-112(fp)
				tagGroupWidth, tagGroupHalfH<<1,"字体颜色", (void*)0 );

	tempAreaFmt1.fmtValY.fmtCenterVal.half = editTurnPageModHalfH;
    3fb8:	e0bfe98b 	ldhu	r2,-90(fp)
    3fbc:	e0bff88d 	sth	r2,-30(fp)
	tempAreaFmt2.fmtValY.fmtCenterVal.half = editTurnPageModHalfH;
    3fc0:	e0bfe98b 	ldhu	r2,-90(fp)
    3fc4:	e0bffc8d 	sth	r2,-14(fp)
	status = status && setDefaultTagGroup( &(scrSettingInst->editTurnPageMod), &tempAreaFmt1, &tempAreaFmt2, \
    3fc8:	e0bfe403 	ldbu	r2,-112(fp)
    3fcc:	10001726 	beq	r2,zero,402c <screenMainSettingInit+0x720>
    3fd0:	e0bffd17 	ldw	r2,-12(fp)
    3fd4:	11009b04 	addi	r4,r2,620
    3fd8:	e0ffee0f 	ldh	r3,-72(fp)
				tagGroupWidth, tagGroupHalfH<<1,"自动翻页", "off" );
    3fdc:	e0bfee8f 	ldh	r2,-70(fp)
    3fe0:	1085883a 	add	r2,r2,r2
	status = status && setDefaultTagGroup( &(scrSettingInst->editWordColor), &tempAreaFmt1, &tempAreaFmt2, \
				tagGroupWidth, tagGroupHalfH<<1,"字体颜色", (void*)0 );

	tempAreaFmt1.fmtValY.fmtCenterVal.half = editTurnPageModHalfH;
	tempAreaFmt2.fmtValY.fmtCenterVal.half = editTurnPageModHalfH;
	status = status && setDefaultTagGroup( &(scrSettingInst->editTurnPageMod), &tempAreaFmt1, &tempAreaFmt2, \
    3fe4:	10bfffcc 	andi	r2,r2,65535
    3fe8:	10a0001c 	xori	r2,r2,32768
    3fec:	10a00004 	addi	r2,r2,-32768
    3ff0:	e17ff504 	addi	r5,fp,-44
    3ff4:	e1bff904 	addi	r6,fp,-28
    3ff8:	d8800015 	stw	r2,0(sp)
    3ffc:	00800374 	movhi	r2,13
    4000:	1082a304 	addi	r2,r2,2700
    4004:	d8800115 	stw	r2,4(sp)
    4008:	00800374 	movhi	r2,13
    400c:	1082a604 	addi	r2,r2,2712
    4010:	d8800215 	stw	r2,8(sp)
    4014:	180f883a 	mov	r7,r3
    4018:	00017a80 	call	17a8 <setDefaultTagGroup>
    401c:	10803fcc 	andi	r2,r2,255
    4020:	10000226 	beq	r2,zero,402c <screenMainSettingInit+0x720>
    4024:	00800044 	movi	r2,1
    4028:	00000106 	br	4030 <screenMainSettingInit+0x724>
    402c:	0005883a 	mov	r2,zero
    4030:	e0bfe405 	stb	r2,-112(fp)
    4034:	e0bfe403 	ldbu	r2,-112(fp)
    4038:	1080004c 	andi	r2,r2,1
    403c:	e0bfe405 	stb	r2,-112(fp)
				tagGroupWidth, tagGroupHalfH<<1,"自动翻页", "off" );


	//设置可编辑数字域
	short numEditGrpWidth = 100;
    4040:	00801904 	movi	r2,100
    4044:	e0bff10d 	sth	r2,-60(fp)
	short numEditGrpHeight = 110;
    4048:	00801b84 	movi	r2,110
    404c:	e0bff18d 	sth	r2,-58(fp)

	short tag1NumHourSpacingX = 20;
    4050:	00800504 	movi	r2,20
    4054:	e0bff20d 	sth	r2,-56(fp)
	short numHourNumMinuteSpacingX = 10;
    4058:	00800284 	movi	r2,10
    405c:	e0bff28d 	sth	r2,-54(fp)

	short tag2NumSecondSpacingX = 20;
    4060:	00800504 	movi	r2,20
    4064:	e0bff30d 	sth	r2,-52(fp)


	//闹钟的"时"(默认为1时)
	short alarmHourMarginXL = staticTag1XMax+tag1NumHourSpacingX;
    4068:	e0ffec0b 	ldhu	r3,-80(fp)
    406c:	e0bff20b 	ldhu	r2,-56(fp)
    4070:	1885883a 	add	r2,r3,r2
    4074:	e0bff38d 	sth	r2,-50(fp)
	status = status && setAreaRange( &(scrSettingInst->editAlarmHourArea), alarmHourMarginXL + 1, alarmHourMarginXL + numEditGrpWidth, \
    4078:	e0bfe403 	ldbu	r2,-112(fp)
    407c:	10002426 	beq	r2,zero,4110 <screenMainSettingInit+0x804>
    4080:	e0bffd17 	ldw	r2,-12(fp)
    4084:	11000d04 	addi	r4,r2,52
    4088:	e0bff38b 	ldhu	r2,-50(fp)
    408c:	10800044 	addi	r2,r2,1
    4090:	117fffcc 	andi	r5,r2,65535
    4094:	2960001c 	xori	r5,r5,32768
    4098:	29600004 	addi	r5,r5,-32768
    409c:	e0fff38b 	ldhu	r3,-50(fp)
    40a0:	e0bff10b 	ldhu	r2,-60(fp)
    40a4:	1885883a 	add	r2,r3,r2
    40a8:	11bfffcc 	andi	r6,r2,65535
    40ac:	31a0001c 	xori	r6,r6,32768
    40b0:	31a00004 	addi	r6,r6,-32768
    40b4:	e0bfe60b 	ldhu	r2,-104(fp)
    40b8:	e0fff18f 	ldh	r3,-58(fp)
    40bc:	1807d07a 	srai	r3,r3,1
    40c0:	10c5c83a 	sub	r2,r2,r3
    40c4:	10800044 	addi	r2,r2,1
    40c8:	10ffffcc 	andi	r3,r2,65535
    40cc:	18e0001c 	xori	r3,r3,32768
    40d0:	18e00004 	addi	r3,r3,-32768
    40d4:	e0bff18f 	ldh	r2,-58(fp)
    40d8:	1005d07a 	srai	r2,r2,1
    40dc:	100f883a 	mov	r7,r2
    40e0:	e0bfe60b 	ldhu	r2,-104(fp)
    40e4:	3885883a 	add	r2,r7,r2
    40e8:	10bfffcc 	andi	r2,r2,65535
    40ec:	10a0001c 	xori	r2,r2,32768
    40f0:	10a00004 	addi	r2,r2,-32768
    40f4:	d8800015 	stw	r2,0(sp)
    40f8:	180f883a 	mov	r7,r3
    40fc:	000044c0 	call	44c <setAreaRange>
    4100:	10803fcc 	andi	r2,r2,255
    4104:	10000226 	beq	r2,zero,4110 <screenMainSettingInit+0x804>
    4108:	00800044 	movi	r2,1
    410c:	00000106 	br	4114 <screenMainSettingInit+0x808>
    4110:	0005883a 	mov	r2,zero
    4114:	e0bfe405 	stb	r2,-112(fp)
    4118:	e0bfe403 	ldbu	r2,-112(fp)
    411c:	1080004c 	andi	r2,r2,1
    4120:	e0bfe405 	stb	r2,-112(fp)
				tag1CenterY - (numEditGrpHeight>>1)+1, tag1CenterY + (numEditGrpHeight>>1) );
	status = status && setDefaultNumEditGroup( &(scrSettingInst->editAlarmHour), numEditGrpWidth, numEditGrpHeight, 23, 0, 1, "时" );
    4124:	e0bfe403 	ldbu	r2,-112(fp)
    4128:	10001126 	beq	r2,zero,4170 <screenMainSettingInit+0x864>
    412c:	e0bffd17 	ldw	r2,-12(fp)
    4130:	11000f04 	addi	r4,r2,60
    4134:	e17ff10f 	ldh	r5,-60(fp)
    4138:	e0fff18f 	ldh	r3,-58(fp)
    413c:	d8000015 	stw	zero,0(sp)
    4140:	00800044 	movi	r2,1
    4144:	d8800115 	stw	r2,4(sp)
    4148:	00800374 	movhi	r2,13
    414c:	1082a704 	addi	r2,r2,2716
    4150:	d8800215 	stw	r2,8(sp)
    4154:	180d883a 	mov	r6,r3
    4158:	01c005c4 	movi	r7,23
    415c:	00019ac0 	call	19ac <setDefaultNumEditGroup>
    4160:	10803fcc 	andi	r2,r2,255
    4164:	10000226 	beq	r2,zero,4170 <screenMainSettingInit+0x864>
    4168:	00800044 	movi	r2,1
    416c:	00000106 	br	4174 <screenMainSettingInit+0x868>
    4170:	0005883a 	mov	r2,zero
    4174:	e0bfe405 	stb	r2,-112(fp)
    4178:	e0bfe403 	ldbu	r2,-112(fp)
    417c:	1080004c 	andi	r2,r2,1
    4180:	e0bfe405 	stb	r2,-112(fp)

	//闹钟的"分"(默认为0分)
	short alarmMinuteMarginXL = staticTag1XMax + tag1NumHourSpacingX + numEditGrpWidth + numHourNumMinuteSpacingX;
    4184:	e0ffec0b 	ldhu	r3,-80(fp)
    4188:	e0bff20b 	ldhu	r2,-56(fp)
    418c:	1885883a 	add	r2,r3,r2
    4190:	1007883a 	mov	r3,r2
    4194:	e0bff10b 	ldhu	r2,-60(fp)
    4198:	1885883a 	add	r2,r3,r2
    419c:	1007883a 	mov	r3,r2
    41a0:	e0bff28b 	ldhu	r2,-54(fp)
    41a4:	1885883a 	add	r2,r3,r2
    41a8:	e0bff40d 	sth	r2,-48(fp)
	status = status && setAreaRange( &(scrSettingInst->editAlarmMinuteArea), alarmMinuteMarginXL+1, alarmMinuteMarginXL+numEditGrpWidth, \
    41ac:	e0bfe403 	ldbu	r2,-112(fp)
    41b0:	10002426 	beq	r2,zero,4244 <screenMainSettingInit+0x938>
    41b4:	e0bffd17 	ldw	r2,-12(fp)
    41b8:	11003904 	addi	r4,r2,228
    41bc:	e0bff40b 	ldhu	r2,-48(fp)
    41c0:	10800044 	addi	r2,r2,1
    41c4:	117fffcc 	andi	r5,r2,65535
    41c8:	2960001c 	xori	r5,r5,32768
    41cc:	29600004 	addi	r5,r5,-32768
    41d0:	e0fff40b 	ldhu	r3,-48(fp)
    41d4:	e0bff10b 	ldhu	r2,-60(fp)
    41d8:	1885883a 	add	r2,r3,r2
    41dc:	11bfffcc 	andi	r6,r2,65535
    41e0:	31a0001c 	xori	r6,r6,32768
    41e4:	31a00004 	addi	r6,r6,-32768
    41e8:	e0bfe60b 	ldhu	r2,-104(fp)
    41ec:	e0fff18f 	ldh	r3,-58(fp)
    41f0:	1807d07a 	srai	r3,r3,1
    41f4:	10c5c83a 	sub	r2,r2,r3
    41f8:	10800044 	addi	r2,r2,1
    41fc:	10ffffcc 	andi	r3,r2,65535
    4200:	18e0001c 	xori	r3,r3,32768
    4204:	18e00004 	addi	r3,r3,-32768
    4208:	e0bff18f 	ldh	r2,-58(fp)
    420c:	1005d07a 	srai	r2,r2,1
    4210:	100f883a 	mov	r7,r2
    4214:	e0bfe60b 	ldhu	r2,-104(fp)
    4218:	3885883a 	add	r2,r7,r2
    421c:	10bfffcc 	andi	r2,r2,65535
    4220:	10a0001c 	xori	r2,r2,32768
    4224:	10a00004 	addi	r2,r2,-32768
    4228:	d8800015 	stw	r2,0(sp)
    422c:	180f883a 	mov	r7,r3
    4230:	000044c0 	call	44c <setAreaRange>
    4234:	10803fcc 	andi	r2,r2,255
    4238:	10000226 	beq	r2,zero,4244 <screenMainSettingInit+0x938>
    423c:	00800044 	movi	r2,1
    4240:	00000106 	br	4248 <screenMainSettingInit+0x93c>
    4244:	0005883a 	mov	r2,zero
    4248:	e0bfe405 	stb	r2,-112(fp)
    424c:	e0bfe403 	ldbu	r2,-112(fp)
    4250:	1080004c 	andi	r2,r2,1
    4254:	e0bfe405 	stb	r2,-112(fp)
				tag1CenterY - (numEditGrpHeight>>1)+1, tag1CenterY + (numEditGrpHeight>>1) );
	status = status && setDefaultNumEditGroup( &(scrSettingInst->editAlarmMinute), numEditGrpWidth, numEditGrpHeight, 59, 0, 0, "分" );
    4258:	e0bfe403 	ldbu	r2,-112(fp)
    425c:	10001026 	beq	r2,zero,42a0 <screenMainSettingInit+0x994>
    4260:	e0bffd17 	ldw	r2,-12(fp)
    4264:	11003b04 	addi	r4,r2,236
    4268:	e17ff10f 	ldh	r5,-60(fp)
    426c:	e0fff18f 	ldh	r3,-58(fp)
    4270:	d8000015 	stw	zero,0(sp)
    4274:	d8000115 	stw	zero,4(sp)
    4278:	00800374 	movhi	r2,13
    427c:	1082a804 	addi	r2,r2,2720
    4280:	d8800215 	stw	r2,8(sp)
    4284:	180d883a 	mov	r6,r3
    4288:	01c00ec4 	movi	r7,59
    428c:	00019ac0 	call	19ac <setDefaultNumEditGroup>
    4290:	10803fcc 	andi	r2,r2,255
    4294:	10000226 	beq	r2,zero,42a0 <screenMainSettingInit+0x994>
    4298:	00800044 	movi	r2,1
    429c:	00000106 	br	42a4 <screenMainSettingInit+0x998>
    42a0:	0005883a 	mov	r2,zero
    42a4:	e0bfe405 	stb	r2,-112(fp)
    42a8:	e0bfe403 	ldbu	r2,-112(fp)
    42ac:	1080004c 	andi	r2,r2,1
    42b0:	e0bfe405 	stb	r2,-112(fp)

	//自动翻页定时的"秒"(默认为8秒)
	short trunPageSecMarginXL = staticTag2XMax+tag2NumSecondSpacingX;
    42b4:	e0ffed8b 	ldhu	r3,-74(fp)
    42b8:	e0bff30b 	ldhu	r2,-52(fp)
    42bc:	1885883a 	add	r2,r3,r2
    42c0:	e0bff48d 	sth	r2,-46(fp)
	status = status && setAreaRange( &(scrSettingInst->editTurnPageSecArea), trunPageSecMarginXL+1, trunPageSecMarginXL+numEditGrpWidth, \
    42c4:	e0bfe403 	ldbu	r2,-112(fp)
    42c8:	10002426 	beq	r2,zero,435c <screenMainSettingInit+0xa50>
    42cc:	e0bffd17 	ldw	r2,-12(fp)
    42d0:	1100be04 	addi	r4,r2,760
    42d4:	e0bff48b 	ldhu	r2,-46(fp)
    42d8:	10800044 	addi	r2,r2,1
    42dc:	117fffcc 	andi	r5,r2,65535
    42e0:	2960001c 	xori	r5,r5,32768
    42e4:	29600004 	addi	r5,r5,-32768
    42e8:	e0fff48b 	ldhu	r3,-46(fp)
    42ec:	e0bff10b 	ldhu	r2,-60(fp)
    42f0:	1885883a 	add	r2,r3,r2
    42f4:	11bfffcc 	andi	r6,r2,65535
    42f8:	31a0001c 	xori	r6,r6,32768
    42fc:	31a00004 	addi	r6,r6,-32768
    4300:	e0bfea0b 	ldhu	r2,-88(fp)
    4304:	e0fff18f 	ldh	r3,-58(fp)
    4308:	1807d07a 	srai	r3,r3,1
    430c:	10c5c83a 	sub	r2,r2,r3
    4310:	10800044 	addi	r2,r2,1
    4314:	10ffffcc 	andi	r3,r2,65535
    4318:	18e0001c 	xori	r3,r3,32768
    431c:	18e00004 	addi	r3,r3,-32768
    4320:	e0bff18f 	ldh	r2,-58(fp)
    4324:	1005d07a 	srai	r2,r2,1
    4328:	100f883a 	mov	r7,r2
    432c:	e0bfea0b 	ldhu	r2,-88(fp)
    4330:	3885883a 	add	r2,r7,r2
    4334:	10bfffcc 	andi	r2,r2,65535
    4338:	10a0001c 	xori	r2,r2,32768
    433c:	10a00004 	addi	r2,r2,-32768
    4340:	d8800015 	stw	r2,0(sp)
    4344:	180f883a 	mov	r7,r3
    4348:	000044c0 	call	44c <setAreaRange>
    434c:	10803fcc 	andi	r2,r2,255
    4350:	10000226 	beq	r2,zero,435c <screenMainSettingInit+0xa50>
    4354:	00800044 	movi	r2,1
    4358:	00000106 	br	4360 <screenMainSettingInit+0xa54>
    435c:	0005883a 	mov	r2,zero
    4360:	e0bfe405 	stb	r2,-112(fp)
    4364:	e0bfe403 	ldbu	r2,-112(fp)
    4368:	1080004c 	andi	r2,r2,1
    436c:	e0bfe405 	stb	r2,-112(fp)
				tag2CenterY - (numEditGrpHeight>>1)+1, tag2CenterY + (numEditGrpHeight>>1) );
	status = status && setDefaultNumEditGroup( &(scrSettingInst->editTurnPageSec), numEditGrpWidth, numEditGrpHeight, 30, 0, 8, "秒" );
    4370:	e0bfe403 	ldbu	r2,-112(fp)
    4374:	10001126 	beq	r2,zero,43bc <screenMainSettingInit+0xab0>
    4378:	e0bffd17 	ldw	r2,-12(fp)
    437c:	1100c004 	addi	r4,r2,768
    4380:	e17ff10f 	ldh	r5,-60(fp)
    4384:	e0fff18f 	ldh	r3,-58(fp)
    4388:	d8000015 	stw	zero,0(sp)
    438c:	00800204 	movi	r2,8
    4390:	d8800115 	stw	r2,4(sp)
    4394:	00800374 	movhi	r2,13
    4398:	1082a904 	addi	r2,r2,2724
    439c:	d8800215 	stw	r2,8(sp)
    43a0:	180d883a 	mov	r6,r3
    43a4:	01c00784 	movi	r7,30
    43a8:	00019ac0 	call	19ac <setDefaultNumEditGroup>
    43ac:	10803fcc 	andi	r2,r2,255
    43b0:	10000226 	beq	r2,zero,43bc <screenMainSettingInit+0xab0>
    43b4:	00800044 	movi	r2,1
    43b8:	00000106 	br	43c0 <screenMainSettingInit+0xab4>
    43bc:	0005883a 	mov	r2,zero
    43c0:	e0bfe405 	stb	r2,-112(fp)
    43c4:	e0bfe403 	ldbu	r2,-112(fp)
    43c8:	1080004c 	andi	r2,r2,1
    43cc:	e0bfe405 	stb	r2,-112(fp)


	return status;
    43d0:	e0bfe403 	ldbu	r2,-112(fp)
}
    43d4:	e037883a 	mov	sp,fp
    43d8:	dfc00117 	ldw	ra,4(sp)
    43dc:	df000017 	ldw	fp,0(sp)
    43e0:	dec00204 	addi	sp,sp,8
    43e4:	f800283a 	ret

000043e8 <screenMainColorPickerInit>:
bool screenMainColorPickerInit( ScreenColorPicker *scrColorPickerInst, short width, short height )
{
    43e8:	defff904 	addi	sp,sp,-28
    43ec:	dfc00615 	stw	ra,24(sp)
    43f0:	df000515 	stw	fp,20(sp)
    43f4:	df000504 	addi	fp,sp,20
    43f8:	e13ffd15 	stw	r4,-12(fp)
    43fc:	2807883a 	mov	r3,r5
    4400:	3005883a 	mov	r2,r6
    4404:	e0fffe0d 	sth	r3,-8(fp)
    4408:	e0bfff0d 	sth	r2,-4(fp)
	scrColorPickerInst->bkgBorderColor = defaultColorInfo;
    440c:	e0bffd17 	ldw	r2,-12(fp)
    4410:	d0e0040b 	ldhu	r3,-32752(gp)
    4414:	10c0000d 	sth	r3,0(r2)
    4418:	d0e00484 	addi	r3,gp,-32750
    441c:	18c0000b 	ldhu	r3,0(r3)
    4420:	10c0008d 	sth	r3,2(r2)
    4424:	d0e00504 	addi	r3,gp,-32748
    4428:	18c0000b 	ldhu	r3,0(r3)
    442c:	10c0010d 	sth	r3,4(r2)
    4430:	d0e00584 	addi	r3,gp,-32746
    4434:	18c0000b 	ldhu	r3,0(r3)
    4438:	10c0018d 	sth	r3,6(r2)


	bool status = true;
    443c:	00800044 	movi	r2,1
    4440:	e0bffc05 	stb	r2,-16(fp)
	if ( height < width )
    4444:	e0ffff0f 	ldh	r3,-4(fp)
    4448:	e0bffe0f 	ldh	r2,-8(fp)
    444c:	1880010e 	bge	r3,r2,4454 <screenMainColorPickerInit+0x6c>
	{
		status = false;
    4450:	e03ffc05 	stb	zero,-16(fp)
	}
	short marginYU = (height-width) >> 1;//上边距
    4454:	e0ffff0f 	ldh	r3,-4(fp)
    4458:	e0bffe0f 	ldh	r2,-8(fp)
    445c:	1885c83a 	sub	r2,r3,r2
    4460:	1005d07a 	srai	r2,r2,1
    4464:	e0bffc8d 	sth	r2,-14(fp)

	status = status && setAreaRange( &(scrColorPickerInst->colorPickerArea), 1, width, marginYU + 1, height - marginYU );
    4468:	e0bffc03 	ldbu	r2,-16(fp)
    446c:	10001526 	beq	r2,zero,44c4 <screenMainColorPickerInit+0xdc>
    4470:	e0bffd17 	ldw	r2,-12(fp)
    4474:	11000204 	addi	r4,r2,8
    4478:	e1bffe0f 	ldh	r6,-8(fp)
    447c:	e0bffc8b 	ldhu	r2,-14(fp)
    4480:	10800044 	addi	r2,r2,1
    4484:	11ffffcc 	andi	r7,r2,65535
    4488:	39e0001c 	xori	r7,r7,32768
    448c:	39e00004 	addi	r7,r7,-32768
    4490:	e0ffff0b 	ldhu	r3,-4(fp)
    4494:	e0bffc8b 	ldhu	r2,-14(fp)
    4498:	1885c83a 	sub	r2,r3,r2
    449c:	10bfffcc 	andi	r2,r2,65535
    44a0:	10a0001c 	xori	r2,r2,32768
    44a4:	10a00004 	addi	r2,r2,-32768
    44a8:	d8800015 	stw	r2,0(sp)
    44ac:	01400044 	movi	r5,1
    44b0:	000044c0 	call	44c <setAreaRange>
    44b4:	10803fcc 	andi	r2,r2,255
    44b8:	10000226 	beq	r2,zero,44c4 <screenMainColorPickerInit+0xdc>
    44bc:	00800044 	movi	r2,1
    44c0:	00000106 	br	44c8 <screenMainColorPickerInit+0xe0>
    44c4:	0005883a 	mov	r2,zero
    44c8:	e0bffc05 	stb	r2,-16(fp)
    44cc:	e0bffc03 	ldbu	r2,-16(fp)
    44d0:	1080004c 	andi	r2,r2,1
    44d4:	e0bffc05 	stb	r2,-16(fp)

	setDefaultColorBoard( &(scrColorPickerInst->colorPicker), (void*)0, width, width );
    44d8:	e0bffd17 	ldw	r2,-12(fp)
    44dc:	11000404 	addi	r4,r2,16
    44e0:	e0fffe0f 	ldh	r3,-8(fp)
    44e4:	e0bffe0f 	ldh	r2,-8(fp)
    44e8:	000b883a 	mov	r5,zero
    44ec:	180d883a 	mov	r6,r3
    44f0:	100f883a 	mov	r7,r2
    44f4:	000144c0 	call	144c <setDefaultColorBoard>

	return status;
    44f8:	e0bffc03 	ldbu	r2,-16(fp)
}
    44fc:	e037883a 	mov	sp,fp
    4500:	dfc00117 	ldw	ra,4(sp)
    4504:	df000017 	ldw	fp,0(sp)
    4508:	dec00204 	addi	sp,sp,8
    450c:	f800283a 	ret

00004510 <screenMainAreaInfo>:

void screenMainAreaInfo( ScrMainAreaInfo *mainAreaInfoInst )
{
    4510:	defffd04 	addi	sp,sp,-12
    4514:	df000215 	stw	fp,8(sp)
    4518:	df000204 	addi	fp,sp,8
    451c:	e13fff15 	stw	r4,-4(fp)
	//设置当前页面为第一页
	mainAreaInfoInst->curScrIndex = 0;
    4520:	e0bfff17 	ldw	r2,-4(fp)
    4524:	1000040d 	sth	zero,16(r2)
	//设置第一页为主页
	(mainAreaInfoInst->scrIDStack)[0] = SCR_HOME;
    4528:	e0bfff17 	ldw	r2,-4(fp)
    452c:	00c00044 	movi	r3,1
    4530:	10c00015 	stw	r3,0(r2)
	//清空后面的栈页（即后面不存在栈页）
	int i;
	for ( i = 1; i < 4; i ++ )
    4534:	00800044 	movi	r2,1
    4538:	e0bffe15 	stw	r2,-8(fp)
    453c:	00000906 	br	4564 <screenMainAreaInfo+0x54>
	{
		(mainAreaInfoInst->scrIDStack)[i] = SCR_NONE;
    4540:	e0ffff17 	ldw	r3,-4(fp)
    4544:	e0bffe17 	ldw	r2,-8(fp)
    4548:	1085883a 	add	r2,r2,r2
    454c:	1085883a 	add	r2,r2,r2
    4550:	1885883a 	add	r2,r3,r2
    4554:	10000015 	stw	zero,0(r2)
	mainAreaInfoInst->curScrIndex = 0;
	//设置第一页为主页
	(mainAreaInfoInst->scrIDStack)[0] = SCR_HOME;
	//清空后面的栈页（即后面不存在栈页）
	int i;
	for ( i = 1; i < 4; i ++ )
    4558:	e0bffe17 	ldw	r2,-8(fp)
    455c:	10800044 	addi	r2,r2,1
    4560:	e0bffe15 	stw	r2,-8(fp)
    4564:	e0bffe17 	ldw	r2,-8(fp)
    4568:	10800110 	cmplti	r2,r2,4
    456c:	103ff41e 	bne	r2,zero,4540 <__alt_data_end+0xf8004540>
	{
		(mainAreaInfoInst->scrIDStack)[i] = SCR_NONE;
	}
}
    4570:	e037883a 	mov	sp,fp
    4574:	df000017 	ldw	fp,0(sp)
    4578:	dec00104 	addi	sp,sp,4
    457c:	f800283a 	ret

00004580 <getAbsPos>:
//该数组用于临时测试屏幕显示效果，最后的工程会删除该数组
color_u16 screenShowSpace[SCR_HEIGHT][SCR_WIDTH];

//获取新的绝对位置
void getAbsPos( const AreaRange *baseAbsPos, const AreaRange *relativePos, AreaRange *newAbsPos )
{
    4580:	defffc04 	addi	sp,sp,-16
    4584:	df000315 	stw	fp,12(sp)
    4588:	df000304 	addi	fp,sp,12
    458c:	e13ffd15 	stw	r4,-12(fp)
    4590:	e17ffe15 	stw	r5,-8(fp)
    4594:	e1bfff15 	stw	r6,-4(fp)
	newAbsPos->x_min = baseAbsPos->x_min + relativePos->x_min - 1;
    4598:	e0bffd17 	ldw	r2,-12(fp)
    459c:	1080000b 	ldhu	r2,0(r2)
    45a0:	1007883a 	mov	r3,r2
    45a4:	e0bffe17 	ldw	r2,-8(fp)
    45a8:	1080000b 	ldhu	r2,0(r2)
    45ac:	1885883a 	add	r2,r3,r2
    45b0:	10bfffc4 	addi	r2,r2,-1
    45b4:	1007883a 	mov	r3,r2
    45b8:	e0bfff17 	ldw	r2,-4(fp)
    45bc:	10c0000d 	sth	r3,0(r2)
	newAbsPos->x_max = baseAbsPos->x_min + relativePos->x_max - 1;
    45c0:	e0bffd17 	ldw	r2,-12(fp)
    45c4:	1080000b 	ldhu	r2,0(r2)
    45c8:	1007883a 	mov	r3,r2
    45cc:	e0bffe17 	ldw	r2,-8(fp)
    45d0:	1080008b 	ldhu	r2,2(r2)
    45d4:	1885883a 	add	r2,r3,r2
    45d8:	10bfffc4 	addi	r2,r2,-1
    45dc:	1007883a 	mov	r3,r2
    45e0:	e0bfff17 	ldw	r2,-4(fp)
    45e4:	10c0008d 	sth	r3,2(r2)
	newAbsPos->y_min = baseAbsPos->y_min + relativePos->y_min - 1;
    45e8:	e0bffd17 	ldw	r2,-12(fp)
    45ec:	1080010b 	ldhu	r2,4(r2)
    45f0:	1007883a 	mov	r3,r2
    45f4:	e0bffe17 	ldw	r2,-8(fp)
    45f8:	1080010b 	ldhu	r2,4(r2)
    45fc:	1885883a 	add	r2,r3,r2
    4600:	10bfffc4 	addi	r2,r2,-1
    4604:	1007883a 	mov	r3,r2
    4608:	e0bfff17 	ldw	r2,-4(fp)
    460c:	10c0010d 	sth	r3,4(r2)
	newAbsPos->y_max = baseAbsPos->y_min + relativePos->y_max - 1;
    4610:	e0bffd17 	ldw	r2,-12(fp)
    4614:	1080010b 	ldhu	r2,4(r2)
    4618:	1007883a 	mov	r3,r2
    461c:	e0bffe17 	ldw	r2,-8(fp)
    4620:	1080018b 	ldhu	r2,6(r2)
    4624:	1885883a 	add	r2,r3,r2
    4628:	10bfffc4 	addi	r2,r2,-1
    462c:	1007883a 	mov	r3,r2
    4630:	e0bfff17 	ldw	r2,-4(fp)
    4634:	10c0018d 	sth	r3,6(r2)
}
    4638:	e037883a 	mov	sp,fp
    463c:	df000017 	ldw	fp,0(sp)
    4640:	dec00104 	addi	sp,sp,4
    4644:	f800283a 	ret

00004648 <getXVaildRange>:

//获取x方向的区域定位数组(返回数组大小）
short getXVaildRange( const char areaOccurInfo[], const AreaRange exceptAreaArray[], const short exceptAreaNum, \
		short *xMinArray, short *xMaxArray, const short width )
{
    4648:	defff304 	addi	sp,sp,-52
    464c:	dfc00c15 	stw	ra,48(sp)
    4650:	df000b15 	stw	fp,44(sp)
    4654:	df000b04 	addi	fp,sp,44
    4658:	e13ffb15 	stw	r4,-20(fp)
    465c:	e17ffc15 	stw	r5,-16(fp)
    4660:	3007883a 	mov	r3,r6
    4664:	e1fffe15 	stw	r7,-8(fp)
    4668:	e0800317 	ldw	r2,12(fp)
    466c:	e0fffd0d 	sth	r3,-12(fp)
    4670:	e0bfff0d 	sth	r2,-4(fp)

	char *exceptXposInRow = (char*)malloc( sizeof(char) * (width+1) );
    4674:	e0bfff0f 	ldh	r2,-4(fp)
    4678:	10800044 	addi	r2,r2,1
    467c:	1009883a 	mov	r4,r2
    4680:	0008a580 	call	8a58 <malloc>
    4684:	e0bff815 	stw	r2,-32(fp)

	int i;
	for ( i = 0; i < width; i ++ )
    4688:	e03ff515 	stw	zero,-44(fp)
    468c:	00000806 	br	46b0 <getXVaildRange+0x68>
	{
		exceptXposInRow[i] = 'b';
    4690:	e0bff517 	ldw	r2,-44(fp)
    4694:	e0fff817 	ldw	r3,-32(fp)
    4698:	1885883a 	add	r2,r3,r2
    469c:	00c01884 	movi	r3,98
    46a0:	10c00005 	stb	r3,0(r2)
{

	char *exceptXposInRow = (char*)malloc( sizeof(char) * (width+1) );

	int i;
	for ( i = 0; i < width; i ++ )
    46a4:	e0bff517 	ldw	r2,-44(fp)
    46a8:	10800044 	addi	r2,r2,1
    46ac:	e0bff515 	stw	r2,-44(fp)
    46b0:	e0bfff0f 	ldh	r2,-4(fp)
    46b4:	e0fff517 	ldw	r3,-44(fp)
    46b8:	18bff516 	blt	r3,r2,4690 <__alt_data_end+0xf8004690>
	{
		exceptXposInRow[i] = 'b';
	}
	exceptXposInRow[width] = 'e';
    46bc:	e0bfff0f 	ldh	r2,-4(fp)
    46c0:	e0fff817 	ldw	r3,-32(fp)
    46c4:	1885883a 	add	r2,r3,r2
    46c8:	00c01944 	movi	r3,101
    46cc:	10c00005 	stb	r3,0(r2)
	short xPos;
	const AreaRange *curExceptArea;
	for ( i = 0; i < exceptAreaNum; i ++ )
    46d0:	e03ff515 	stw	zero,-44(fp)
    46d4:	00002806 	br	4778 <getXVaildRange+0x130>
	{
		if ( areaOccurInfo[i] == 'e' )
    46d8:	e0bff517 	ldw	r2,-44(fp)
    46dc:	e0fffb17 	ldw	r3,-20(fp)
    46e0:	1885883a 	add	r2,r3,r2
    46e4:	10800003 	ldbu	r2,0(r2)
    46e8:	10803fcc 	andi	r2,r2,255
    46ec:	1080201c 	xori	r2,r2,128
    46f0:	10bfe004 	addi	r2,r2,-128
    46f4:	10801958 	cmpnei	r2,r2,101
    46f8:	10001c1e 	bne	r2,zero,476c <getXVaildRange+0x124>
		{
			curExceptArea = &(exceptAreaArray[i]);
    46fc:	e0bff517 	ldw	r2,-44(fp)
    4700:	100490fa 	slli	r2,r2,3
    4704:	e0fffc17 	ldw	r3,-16(fp)
    4708:	1885883a 	add	r2,r3,r2
    470c:	e0bff915 	stw	r2,-28(fp)

			for ( xPos = curExceptArea->x_min; xPos <= curExceptArea->x_max && xPos <= width; xPos ++ )
    4710:	e0bff917 	ldw	r2,-28(fp)
    4714:	1080000b 	ldhu	r2,0(r2)
    4718:	e0bff60d 	sth	r2,-40(fp)
    471c:	00000906 	br	4744 <getXVaildRange+0xfc>
			{
				exceptXposInRow[xPos-1] = 'e';//对非背景像素做作标记
    4720:	e0bff60f 	ldh	r2,-40(fp)
    4724:	10bfffc4 	addi	r2,r2,-1
    4728:	e0fff817 	ldw	r3,-32(fp)
    472c:	1885883a 	add	r2,r3,r2
    4730:	00c01944 	movi	r3,101
    4734:	10c00005 	stb	r3,0(r2)
	{
		if ( areaOccurInfo[i] == 'e' )
		{
			curExceptArea = &(exceptAreaArray[i]);

			for ( xPos = curExceptArea->x_min; xPos <= curExceptArea->x_max && xPos <= width; xPos ++ )
    4738:	e0bff60b 	ldhu	r2,-40(fp)
    473c:	10800044 	addi	r2,r2,1
    4740:	e0bff60d 	sth	r2,-40(fp)
    4744:	e0bff917 	ldw	r2,-28(fp)
    4748:	1080008b 	ldhu	r2,2(r2)
    474c:	10ffffcc 	andi	r3,r2,65535
    4750:	18e0001c 	xori	r3,r3,32768
    4754:	18e00004 	addi	r3,r3,-32768
    4758:	e0bff60f 	ldh	r2,-40(fp)
    475c:	18800316 	blt	r3,r2,476c <getXVaildRange+0x124>
    4760:	e0bff60f 	ldh	r2,-40(fp)
    4764:	e0ffff0f 	ldh	r3,-4(fp)
    4768:	18bfed0e 	bge	r3,r2,4720 <__alt_data_end+0xf8004720>
		exceptXposInRow[i] = 'b';
	}
	exceptXposInRow[width] = 'e';
	short xPos;
	const AreaRange *curExceptArea;
	for ( i = 0; i < exceptAreaNum; i ++ )
    476c:	e0bff517 	ldw	r2,-44(fp)
    4770:	10800044 	addi	r2,r2,1
    4774:	e0bff515 	stw	r2,-44(fp)
    4778:	e0bffd0f 	ldh	r2,-12(fp)
    477c:	e0fff517 	ldw	r3,-44(fp)
    4780:	18bfd516 	blt	r3,r2,46d8 <__alt_data_end+0xf80046d8>
			{
				exceptXposInRow[xPos-1] = 'e';//对非背景像素做作标记
			}
		}
	}
	short rangeIndex = 0;
    4784:	e03ff68d 	sth	zero,-38(fp)

	char preRowXType = 'e';
    4788:	00801944 	movi	r2,101
    478c:	e0bff705 	stb	r2,-36(fp)
	char curRowXType;
	for ( xPos = 1; xPos <= width + 1; xPos ++ )
    4790:	00800044 	movi	r2,1
    4794:	e0bff60d 	sth	r2,-40(fp)
    4798:	00002706 	br	4838 <getXVaildRange+0x1f0>
	{
		curRowXType = exceptXposInRow[xPos-1];
    479c:	e0bff60f 	ldh	r2,-40(fp)
    47a0:	10bfffc4 	addi	r2,r2,-1
    47a4:	e0fff817 	ldw	r3,-32(fp)
    47a8:	1885883a 	add	r2,r3,r2
    47ac:	10800003 	ldbu	r2,0(r2)
    47b0:	e0bffa05 	stb	r2,-24(fp)
		if ( curRowXType == 'b' )//当前为背景区
    47b4:	e0bffa07 	ldb	r2,-24(fp)
    47b8:	10801898 	cmpnei	r2,r2,98
    47bc:	10000b1e 	bne	r2,zero,47ec <getXVaildRange+0x1a4>
		{
			if ( preRowXType == 'e' )//前面为非背景区
    47c0:	e0bff707 	ldb	r2,-36(fp)
    47c4:	10801958 	cmpnei	r2,r2,101
    47c8:	1000161e 	bne	r2,zero,4824 <getXVaildRange+0x1dc>
			{
				xMinArray[rangeIndex] = xPos;
    47cc:	e0bff68f 	ldh	r2,-38(fp)
    47d0:	1085883a 	add	r2,r2,r2
    47d4:	1007883a 	mov	r3,r2
    47d8:	e0bffe17 	ldw	r2,-8(fp)
    47dc:	10c5883a 	add	r2,r2,r3
    47e0:	e0fff60b 	ldhu	r3,-40(fp)
    47e4:	10c0000d 	sth	r3,0(r2)
    47e8:	00000e06 	br	4824 <getXVaildRange+0x1dc>
			}
		}
		else//当前为非背景区
		{
			if ( preRowXType == 'b' )//前面为背景区
    47ec:	e0bff707 	ldb	r2,-36(fp)
    47f0:	10801898 	cmpnei	r2,r2,98
    47f4:	10000b1e 	bne	r2,zero,4824 <getXVaildRange+0x1dc>
			{
				xMinArray[rangeIndex] = xPos - 1;
    47f8:	e0bff68f 	ldh	r2,-38(fp)
    47fc:	1085883a 	add	r2,r2,r2
    4800:	1007883a 	mov	r3,r2
    4804:	e0bffe17 	ldw	r2,-8(fp)
    4808:	10c5883a 	add	r2,r2,r3
    480c:	e0fff60b 	ldhu	r3,-40(fp)
    4810:	18ffffc4 	addi	r3,r3,-1
    4814:	10c0000d 	sth	r3,0(r2)
				rangeIndex ++;
    4818:	e0bff68b 	ldhu	r2,-38(fp)
    481c:	10800044 	addi	r2,r2,1
    4820:	e0bff68d 	sth	r2,-38(fp)
			}
		}

		preRowXType = curRowXType;
    4824:	e0bffa03 	ldbu	r2,-24(fp)
    4828:	e0bff705 	stb	r2,-36(fp)
	}
	short rangeIndex = 0;

	char preRowXType = 'e';
	char curRowXType;
	for ( xPos = 1; xPos <= width + 1; xPos ++ )
    482c:	e0bff60b 	ldhu	r2,-40(fp)
    4830:	10800044 	addi	r2,r2,1
    4834:	e0bff60d 	sth	r2,-40(fp)
    4838:	e0bff60f 	ldh	r2,-40(fp)
    483c:	e0ffff0f 	ldh	r3,-4(fp)
    4840:	18c00044 	addi	r3,r3,1
    4844:	18bfd50e 	bge	r3,r2,479c <__alt_data_end+0xf800479c>
		}

		preRowXType = curRowXType;
	}

	return rangeIndex;
    4848:	e0bff68b 	ldhu	r2,-38(fp)
}
    484c:	e037883a 	mov	sp,fp
    4850:	dfc00117 	ldw	ra,4(sp)
    4854:	df000017 	ldw	fp,0(sp)
    4858:	dec00204 	addi	sp,sp,8
    485c:	f800283a 	ret

00004860 <showBorder>:

//画边界(就是画个长方形的边)
bool showBorder( const AreaRange *borderAbsPos, color_u16 borderColor )
{
    4860:	defffb04 	addi	sp,sp,-20
    4864:	df000415 	stw	fp,16(sp)
    4868:	df000404 	addi	fp,sp,16
    486c:	e13ffe15 	stw	r4,-8(fp)
    4870:	2805883a 	mov	r2,r5
    4874:	e0bfff0d 	sth	r2,-4(fp)
	if ( borderAbsPos->x_min > borderAbsPos->x_max || borderAbsPos->y_min > borderAbsPos->y_max )
    4878:	e0bffe17 	ldw	r2,-8(fp)
    487c:	1100000b 	ldhu	r4,0(r2)
    4880:	e0bffe17 	ldw	r2,-8(fp)
    4884:	10c0008b 	ldhu	r3,2(r2)
    4888:	20bfffcc 	andi	r2,r4,65535
    488c:	10a0001c 	xori	r2,r2,32768
    4890:	10a00004 	addi	r2,r2,-32768
    4894:	18ffffcc 	andi	r3,r3,65535
    4898:	18e0001c 	xori	r3,r3,32768
    489c:	18e00004 	addi	r3,r3,-32768
    48a0:	18800b16 	blt	r3,r2,48d0 <showBorder+0x70>
    48a4:	e0bffe17 	ldw	r2,-8(fp)
    48a8:	1100010b 	ldhu	r4,4(r2)
    48ac:	e0bffe17 	ldw	r2,-8(fp)
    48b0:	10c0018b 	ldhu	r3,6(r2)
    48b4:	20bfffcc 	andi	r2,r4,65535
    48b8:	10a0001c 	xori	r2,r2,32768
    48bc:	10a00004 	addi	r2,r2,-32768
    48c0:	18ffffcc 	andi	r3,r3,65535
    48c4:	18e0001c 	xori	r3,r3,32768
    48c8:	18e00004 	addi	r3,r3,-32768
    48cc:	1880020e 	bge	r3,r2,48d8 <showBorder+0x78>
	{
		return false;
    48d0:	0005883a 	mov	r2,zero
    48d4:	00008f06 	br	4b14 <showBorder+0x2b4>
	}

	int xPos, yPos;
	//横向
	yPos = borderAbsPos->y_min;
    48d8:	e0bffe17 	ldw	r2,-8(fp)
    48dc:	1080010b 	ldhu	r2,4(r2)
    48e0:	10bfffcc 	andi	r2,r2,65535
    48e4:	10a0001c 	xori	r2,r2,32768
    48e8:	10a00004 	addi	r2,r2,-32768
    48ec:	e0bffd15 	stw	r2,-12(fp)
	//x方向的边界
	for ( xPos = borderAbsPos->x_min; xPos <= borderAbsPos->x_max; xPos ++ )
    48f0:	e0bffe17 	ldw	r2,-8(fp)
    48f4:	1080000b 	ldhu	r2,0(r2)
    48f8:	10bfffcc 	andi	r2,r2,65535
    48fc:	10a0001c 	xori	r2,r2,32768
    4900:	10a00004 	addi	r2,r2,-32768
    4904:	e0bffc15 	stw	r2,-16(fp)
    4908:	00000f06 	br	4948 <showBorder+0xe8>
	{
		screenShowSpace[yPos-1][xPos-1] = borderColor;
    490c:	e0bffd17 	ldw	r2,-12(fp)
    4910:	113fffc4 	addi	r4,r2,-1
    4914:	e0bffc17 	ldw	r2,-16(fp)
    4918:	10ffffc4 	addi	r3,r2,-1
    491c:	00800374 	movhi	r2,13
    4920:	1093f204 	addi	r2,r2,20424
    4924:	21005024 	muli	r4,r4,320
    4928:	20c7883a 	add	r3,r4,r3
    492c:	18c7883a 	add	r3,r3,r3
    4930:	10c5883a 	add	r2,r2,r3
    4934:	e0ffff0b 	ldhu	r3,-4(fp)
    4938:	10c0000d 	sth	r3,0(r2)

	int xPos, yPos;
	//横向
	yPos = borderAbsPos->y_min;
	//x方向的边界
	for ( xPos = borderAbsPos->x_min; xPos <= borderAbsPos->x_max; xPos ++ )
    493c:	e0bffc17 	ldw	r2,-16(fp)
    4940:	10800044 	addi	r2,r2,1
    4944:	e0bffc15 	stw	r2,-16(fp)
    4948:	e0bffe17 	ldw	r2,-8(fp)
    494c:	1080008b 	ldhu	r2,2(r2)
    4950:	10ffffcc 	andi	r3,r2,65535
    4954:	18e0001c 	xori	r3,r3,32768
    4958:	18e00004 	addi	r3,r3,-32768
    495c:	e0bffc17 	ldw	r2,-16(fp)
    4960:	18bfea0e 	bge	r3,r2,490c <__alt_data_end+0xf800490c>
	{
		screenShowSpace[yPos-1][xPos-1] = borderColor;
	}
	yPos = borderAbsPos->y_max;
    4964:	e0bffe17 	ldw	r2,-8(fp)
    4968:	1080018b 	ldhu	r2,6(r2)
    496c:	10bfffcc 	andi	r2,r2,65535
    4970:	10a0001c 	xori	r2,r2,32768
    4974:	10a00004 	addi	r2,r2,-32768
    4978:	e0bffd15 	stw	r2,-12(fp)
	for ( xPos = borderAbsPos->x_min; xPos <= borderAbsPos->x_max; xPos ++ )
    497c:	e0bffe17 	ldw	r2,-8(fp)
    4980:	1080000b 	ldhu	r2,0(r2)
    4984:	10bfffcc 	andi	r2,r2,65535
    4988:	10a0001c 	xori	r2,r2,32768
    498c:	10a00004 	addi	r2,r2,-32768
    4990:	e0bffc15 	stw	r2,-16(fp)
    4994:	00000f06 	br	49d4 <showBorder+0x174>
	{
		screenShowSpace[yPos-1][xPos-1] = borderColor;
    4998:	e0bffd17 	ldw	r2,-12(fp)
    499c:	113fffc4 	addi	r4,r2,-1
    49a0:	e0bffc17 	ldw	r2,-16(fp)
    49a4:	10ffffc4 	addi	r3,r2,-1
    49a8:	00800374 	movhi	r2,13
    49ac:	1093f204 	addi	r2,r2,20424
    49b0:	21005024 	muli	r4,r4,320
    49b4:	20c7883a 	add	r3,r4,r3
    49b8:	18c7883a 	add	r3,r3,r3
    49bc:	10c5883a 	add	r2,r2,r3
    49c0:	e0ffff0b 	ldhu	r3,-4(fp)
    49c4:	10c0000d 	sth	r3,0(r2)
	for ( xPos = borderAbsPos->x_min; xPos <= borderAbsPos->x_max; xPos ++ )
	{
		screenShowSpace[yPos-1][xPos-1] = borderColor;
	}
	yPos = borderAbsPos->y_max;
	for ( xPos = borderAbsPos->x_min; xPos <= borderAbsPos->x_max; xPos ++ )
    49c8:	e0bffc17 	ldw	r2,-16(fp)
    49cc:	10800044 	addi	r2,r2,1
    49d0:	e0bffc15 	stw	r2,-16(fp)
    49d4:	e0bffe17 	ldw	r2,-8(fp)
    49d8:	1080008b 	ldhu	r2,2(r2)
    49dc:	10ffffcc 	andi	r3,r2,65535
    49e0:	18e0001c 	xori	r3,r3,32768
    49e4:	18e00004 	addi	r3,r3,-32768
    49e8:	e0bffc17 	ldw	r2,-16(fp)
    49ec:	18bfea0e 	bge	r3,r2,4998 <__alt_data_end+0xf8004998>
	{
		screenShowSpace[yPos-1][xPos-1] = borderColor;
	}

	//y方向的边界
	xPos = borderAbsPos->x_min;
    49f0:	e0bffe17 	ldw	r2,-8(fp)
    49f4:	1080000b 	ldhu	r2,0(r2)
    49f8:	10bfffcc 	andi	r2,r2,65535
    49fc:	10a0001c 	xori	r2,r2,32768
    4a00:	10a00004 	addi	r2,r2,-32768
    4a04:	e0bffc15 	stw	r2,-16(fp)
	for ( yPos = borderAbsPos->y_min + 1; yPos < borderAbsPos->y_max; yPos ++ )
    4a08:	e0bffe17 	ldw	r2,-8(fp)
    4a0c:	1080010b 	ldhu	r2,4(r2)
    4a10:	10bfffcc 	andi	r2,r2,65535
    4a14:	10a0001c 	xori	r2,r2,32768
    4a18:	10a00004 	addi	r2,r2,-32768
    4a1c:	10800044 	addi	r2,r2,1
    4a20:	e0bffd15 	stw	r2,-12(fp)
    4a24:	00000f06 	br	4a64 <showBorder+0x204>
	{
		screenShowSpace[yPos-1][xPos-1] = borderColor;
    4a28:	e0bffd17 	ldw	r2,-12(fp)
    4a2c:	113fffc4 	addi	r4,r2,-1
    4a30:	e0bffc17 	ldw	r2,-16(fp)
    4a34:	10ffffc4 	addi	r3,r2,-1
    4a38:	00800374 	movhi	r2,13
    4a3c:	1093f204 	addi	r2,r2,20424
    4a40:	21005024 	muli	r4,r4,320
    4a44:	20c7883a 	add	r3,r4,r3
    4a48:	18c7883a 	add	r3,r3,r3
    4a4c:	10c5883a 	add	r2,r2,r3
    4a50:	e0ffff0b 	ldhu	r3,-4(fp)
    4a54:	10c0000d 	sth	r3,0(r2)
		screenShowSpace[yPos-1][xPos-1] = borderColor;
	}

	//y方向的边界
	xPos = borderAbsPos->x_min;
	for ( yPos = borderAbsPos->y_min + 1; yPos < borderAbsPos->y_max; yPos ++ )
    4a58:	e0bffd17 	ldw	r2,-12(fp)
    4a5c:	10800044 	addi	r2,r2,1
    4a60:	e0bffd15 	stw	r2,-12(fp)
    4a64:	e0bffe17 	ldw	r2,-8(fp)
    4a68:	1080018b 	ldhu	r2,6(r2)
    4a6c:	10bfffcc 	andi	r2,r2,65535
    4a70:	10a0001c 	xori	r2,r2,32768
    4a74:	10a00004 	addi	r2,r2,-32768
    4a78:	e0fffd17 	ldw	r3,-12(fp)
    4a7c:	18bfea16 	blt	r3,r2,4a28 <__alt_data_end+0xf8004a28>
	{
		screenShowSpace[yPos-1][xPos-1] = borderColor;
	}
	xPos = borderAbsPos->x_max;
    4a80:	e0bffe17 	ldw	r2,-8(fp)
    4a84:	1080008b 	ldhu	r2,2(r2)
    4a88:	10bfffcc 	andi	r2,r2,65535
    4a8c:	10a0001c 	xori	r2,r2,32768
    4a90:	10a00004 	addi	r2,r2,-32768
    4a94:	e0bffc15 	stw	r2,-16(fp)
	for ( yPos = borderAbsPos->y_min + 1; yPos < borderAbsPos->y_max; yPos ++ )
    4a98:	e0bffe17 	ldw	r2,-8(fp)
    4a9c:	1080010b 	ldhu	r2,4(r2)
    4aa0:	10bfffcc 	andi	r2,r2,65535
    4aa4:	10a0001c 	xori	r2,r2,32768
    4aa8:	10a00004 	addi	r2,r2,-32768
    4aac:	10800044 	addi	r2,r2,1
    4ab0:	e0bffd15 	stw	r2,-12(fp)
    4ab4:	00000f06 	br	4af4 <showBorder+0x294>
	{
		screenShowSpace[yPos-1][xPos-1] = borderColor;
    4ab8:	e0bffd17 	ldw	r2,-12(fp)
    4abc:	113fffc4 	addi	r4,r2,-1
    4ac0:	e0bffc17 	ldw	r2,-16(fp)
    4ac4:	10ffffc4 	addi	r3,r2,-1
    4ac8:	00800374 	movhi	r2,13
    4acc:	1093f204 	addi	r2,r2,20424
    4ad0:	21005024 	muli	r4,r4,320
    4ad4:	20c7883a 	add	r3,r4,r3
    4ad8:	18c7883a 	add	r3,r3,r3
    4adc:	10c5883a 	add	r2,r2,r3
    4ae0:	e0ffff0b 	ldhu	r3,-4(fp)
    4ae4:	10c0000d 	sth	r3,0(r2)
	for ( yPos = borderAbsPos->y_min + 1; yPos < borderAbsPos->y_max; yPos ++ )
	{
		screenShowSpace[yPos-1][xPos-1] = borderColor;
	}
	xPos = borderAbsPos->x_max;
	for ( yPos = borderAbsPos->y_min + 1; yPos < borderAbsPos->y_max; yPos ++ )
    4ae8:	e0bffd17 	ldw	r2,-12(fp)
    4aec:	10800044 	addi	r2,r2,1
    4af0:	e0bffd15 	stw	r2,-12(fp)
    4af4:	e0bffe17 	ldw	r2,-8(fp)
    4af8:	1080018b 	ldhu	r2,6(r2)
    4afc:	10bfffcc 	andi	r2,r2,65535
    4b00:	10a0001c 	xori	r2,r2,32768
    4b04:	10a00004 	addi	r2,r2,-32768
    4b08:	e0fffd17 	ldw	r3,-12(fp)
    4b0c:	18bfea16 	blt	r3,r2,4ab8 <__alt_data_end+0xf8004ab8>
	{
		screenShowSpace[yPos-1][xPos-1] = borderColor;
	}

	return true;
    4b10:	00800044 	movi	r2,1
}
    4b14:	e037883a 	mov	sp,fp
    4b18:	df000017 	ldw	fp,0(sp)
    4b1c:	dec00104 	addi	sp,sp,4
    4b20:	f800283a 	ret

00004b24 <showBkgAndBorder>:
//exceptAreaArray[]是非背景区域构成的数组， exceptAreaNum为数组元素个数
//exceptAreaArray[]格式为相对区域位置
//absPos为绝对位置

bool showBkgAndBorder( const ColorInfo *bkgBorderColor, const AreaRange *absPos, const AreaRange exceptAreaArray[], const short exceptAreaNum )
{
    4b24:	deffed04 	addi	sp,sp,-76
    4b28:	dfc01215 	stw	ra,72(sp)
    4b2c:	df001115 	stw	fp,68(sp)
    4b30:	df001104 	addi	fp,sp,68
    4b34:	e13ffc15 	stw	r4,-16(fp)
    4b38:	e17ffd15 	stw	r5,-12(fp)
    4b3c:	e1bffe15 	stw	r6,-8(fp)
    4b40:	3805883a 	mov	r2,r7
    4b44:	e0bfff0d 	sth	r2,-4(fp)
	bool status = true;
    4b48:	00800044 	movi	r2,1
    4b4c:	e0bff105 	stb	r2,-60(fp)

	short width = absPos->x_max - absPos->x_min + 1;
    4b50:	e0bffd17 	ldw	r2,-12(fp)
    4b54:	1080008b 	ldhu	r2,2(r2)
    4b58:	1007883a 	mov	r3,r2
    4b5c:	e0bffd17 	ldw	r2,-12(fp)
    4b60:	1080000b 	ldhu	r2,0(r2)
    4b64:	1885c83a 	sub	r2,r3,r2
    4b68:	10800044 	addi	r2,r2,1
    4b6c:	e0bff18d 	sth	r2,-58(fp)
	short height = absPos->y_max - absPos->y_min + 1;
    4b70:	e0bffd17 	ldw	r2,-12(fp)
    4b74:	1080018b 	ldhu	r2,6(r2)
    4b78:	1007883a 	mov	r3,r2
    4b7c:	e0bffd17 	ldw	r2,-12(fp)
    4b80:	1080010b 	ldhu	r2,4(r2)
    4b84:	1885c83a 	sub	r2,r3,r2
    4b88:	10800044 	addi	r2,r2,1
    4b8c:	e0bff20d 	sth	r2,-56(fp)
	short xBasePos = absPos->x_min - 1;
    4b90:	e0bffd17 	ldw	r2,-12(fp)
    4b94:	1080000b 	ldhu	r2,0(r2)
    4b98:	10bfffc4 	addi	r2,r2,-1
    4b9c:	e0bff28d 	sth	r2,-54(fp)
	short yBasePos = absPos->y_min - 1;
    4ba0:	e0bffd17 	ldw	r2,-12(fp)
    4ba4:	1080010b 	ldhu	r2,4(r2)
    4ba8:	10bfffc4 	addi	r2,r2,-1
    4bac:	e0bff30d 	sth	r2,-52(fp)

	color_u16 bkgColor = bkgBorderColor->bkgColor;
    4bb0:	e0bffc17 	ldw	r2,-16(fp)
    4bb4:	1080008b 	ldhu	r2,2(r2)
    4bb8:	e0bff70d 	sth	r2,-36(fp)

	if ( bkgBorderColor->borderVisible )//边界可见
    4bbc:	e0bffc17 	ldw	r2,-16(fp)
    4bc0:	10800183 	ldbu	r2,6(r2)
    4bc4:	10803fcc 	andi	r2,r2,255
    4bc8:	10001d26 	beq	r2,zero,4c40 <showBkgAndBorder+0x11c>
	{
		//画边界
		status = status && showBorder( absPos, bkgBorderColor->borderColor );
    4bcc:	e0bff103 	ldbu	r2,-60(fp)
    4bd0:	10000a26 	beq	r2,zero,4bfc <showBkgAndBorder+0xd8>
    4bd4:	e0bffc17 	ldw	r2,-16(fp)
    4bd8:	1080000b 	ldhu	r2,0(r2)
    4bdc:	10bfffcc 	andi	r2,r2,65535
    4be0:	e13ffd17 	ldw	r4,-12(fp)
    4be4:	100b883a 	mov	r5,r2
    4be8:	00048600 	call	4860 <showBorder>
    4bec:	10803fcc 	andi	r2,r2,255
    4bf0:	10000226 	beq	r2,zero,4bfc <showBkgAndBorder+0xd8>
    4bf4:	00800044 	movi	r2,1
    4bf8:	00000106 	br	4c00 <showBkgAndBorder+0xdc>
    4bfc:	0005883a 	mov	r2,zero
    4c00:	e0bff105 	stb	r2,-60(fp)
    4c04:	e0bff103 	ldbu	r2,-60(fp)
    4c08:	1080004c 	andi	r2,r2,1
    4c0c:	e0bff105 	stb	r2,-60(fp)
		//将绝对区域缩小一圈，即除去刚画的边界
		width -= 2;
    4c10:	e0bff18b 	ldhu	r2,-58(fp)
    4c14:	10bfff84 	addi	r2,r2,-2
    4c18:	e0bff18d 	sth	r2,-58(fp)
		height -= 2;
    4c1c:	e0bff20b 	ldhu	r2,-56(fp)
    4c20:	10bfff84 	addi	r2,r2,-2
    4c24:	e0bff20d 	sth	r2,-56(fp)
		xBasePos += 1;
    4c28:	e0bff28b 	ldhu	r2,-54(fp)
    4c2c:	10800044 	addi	r2,r2,1
    4c30:	e0bff28d 	sth	r2,-54(fp)
		yBasePos += 1;
    4c34:	e0bff30b 	ldhu	r2,-52(fp)
    4c38:	10800044 	addi	r2,r2,1
    4c3c:	e0bff30d 	sth	r2,-52(fp)
	}

	//显示背景颜色
	//此处xPos,yPos为相对位置
	short xPos, yPos;
	char *areaOccurInfo = (char *)malloc( sizeof(char) * exceptAreaNum );
    4c40:	e0bfff0f 	ldh	r2,-4(fp)
    4c44:	1009883a 	mov	r4,r2
    4c48:	0008a580 	call	8a58 <malloc>
    4c4c:	e0bff815 	stw	r2,-32(fp)
	short *xMinArray = (short *)malloc( sizeof(short) * (exceptAreaNum+1) );;
    4c50:	e0bfff0f 	ldh	r2,-4(fp)
    4c54:	10800044 	addi	r2,r2,1
    4c58:	1085883a 	add	r2,r2,r2
    4c5c:	1009883a 	mov	r4,r2
    4c60:	0008a580 	call	8a58 <malloc>
    4c64:	e0bff915 	stw	r2,-28(fp)
	short *xMaxArray = (short *)malloc( sizeof(short) * (exceptAreaNum+1) );;
    4c68:	e0bfff0f 	ldh	r2,-4(fp)
    4c6c:	10800044 	addi	r2,r2,1
    4c70:	1085883a 	add	r2,r2,r2
    4c74:	1009883a 	mov	r4,r2
    4c78:	0008a580 	call	8a58 <malloc>
    4c7c:	e0bffa15 	stw	r2,-24(fp)
	int i;
	for ( i = 0; i < exceptAreaNum; i ++ )
    4c80:	e03ff515 	stw	zero,-44(fp)
    4c84:	00000706 	br	4ca4 <showBkgAndBorder+0x180>
	{
		areaOccurInfo[i] = 0;//清空
    4c88:	e0bff517 	ldw	r2,-44(fp)
    4c8c:	e0fff817 	ldw	r3,-32(fp)
    4c90:	1885883a 	add	r2,r3,r2
    4c94:	10000005 	stb	zero,0(r2)
	short xPos, yPos;
	char *areaOccurInfo = (char *)malloc( sizeof(char) * exceptAreaNum );
	short *xMinArray = (short *)malloc( sizeof(short) * (exceptAreaNum+1) );;
	short *xMaxArray = (short *)malloc( sizeof(short) * (exceptAreaNum+1) );;
	int i;
	for ( i = 0; i < exceptAreaNum; i ++ )
    4c98:	e0bff517 	ldw	r2,-44(fp)
    4c9c:	10800044 	addi	r2,r2,1
    4ca0:	e0bff515 	stw	r2,-44(fp)
    4ca4:	e0bfff0f 	ldh	r2,-4(fp)
    4ca8:	e0fff517 	ldw	r3,-44(fp)
    4cac:	18bff616 	blt	r3,r2,4c88 <__alt_data_end+0xf8004c88>
	{
		areaOccurInfo[i] = 0;//清空
	}
	short xRangeNum = 0;
    4cb0:	e03ff60d 	sth	zero,-40(fp)
	for ( yPos = 1; yPos <= height; yPos ++ )
    4cb4:	00800044 	movi	r2,1
    4cb8:	e0bff40d 	sth	r2,-48(fp)
    4cbc:	00007a06 	br	4ea8 <showBkgAndBorder+0x384>
	{
		//统计该行出现的非背景区
		bool changeOccur = false;
    4cc0:	e03ff685 	stb	zero,-38(fp)
		for ( i = 0; i < exceptAreaNum; i ++ )
    4cc4:	e03ff515 	stw	zero,-44(fp)
    4cc8:	00007106 	br	4e90 <showBkgAndBorder+0x36c>
		{
			const AreaRange *curExceptArea = &(exceptAreaArray[i]);
    4ccc:	e0bff517 	ldw	r2,-44(fp)
    4cd0:	100490fa 	slli	r2,r2,3
    4cd4:	e0fffe17 	ldw	r3,-8(fp)
    4cd8:	1885883a 	add	r2,r3,r2
    4cdc:	e0bffb15 	stw	r2,-20(fp)
			if ( yPos < curExceptArea->y_min || yPos > curExceptArea->y_max )
    4ce0:	e0bffb17 	ldw	r2,-20(fp)
    4ce4:	1080010b 	ldhu	r2,4(r2)
    4ce8:	10bfffcc 	andi	r2,r2,65535
    4cec:	10a0001c 	xori	r2,r2,32768
    4cf0:	10a00004 	addi	r2,r2,-32768
    4cf4:	e0fff40f 	ldh	r3,-48(fp)
    4cf8:	18800716 	blt	r3,r2,4d18 <showBkgAndBorder+0x1f4>
    4cfc:	e0bffb17 	ldw	r2,-20(fp)
    4d00:	1080018b 	ldhu	r2,6(r2)
    4d04:	10ffffcc 	andi	r3,r2,65535
    4d08:	18e0001c 	xori	r3,r3,32768
    4d0c:	18e00004 	addi	r3,r3,-32768
    4d10:	e0bff40f 	ldh	r2,-48(fp)
    4d14:	1880110e 	bge	r3,r2,4d5c <showBkgAndBorder+0x238>
			{
				if ( areaOccurInfo[i] != 'n' )
    4d18:	e0bff517 	ldw	r2,-44(fp)
    4d1c:	e0fff817 	ldw	r3,-32(fp)
    4d20:	1885883a 	add	r2,r3,r2
    4d24:	10800003 	ldbu	r2,0(r2)
    4d28:	10803fcc 	andi	r2,r2,255
    4d2c:	1080201c 	xori	r2,r2,128
    4d30:	10bfe004 	addi	r2,r2,-128
    4d34:	10801ba0 	cmpeqi	r2,r2,110
    4d38:	1000021e 	bne	r2,zero,4d44 <showBkgAndBorder+0x220>
				{
					changeOccur = true;
    4d3c:	00800044 	movi	r2,1
    4d40:	e0bff685 	stb	r2,-38(fp)
				}
				areaOccurInfo[i] = 'n';//非背景区
    4d44:	e0bff517 	ldw	r2,-44(fp)
    4d48:	e0fff817 	ldw	r3,-32(fp)
    4d4c:	1885883a 	add	r2,r3,r2
    4d50:	00c01b84 	movi	r3,110
    4d54:	10c00005 	stb	r3,0(r2)
				continue;
    4d58:	00004a06 	br	4e84 <showBkgAndBorder+0x360>
			}
			else
			{
				if ( areaOccurInfo[i] != 'e' )
    4d5c:	e0bff517 	ldw	r2,-44(fp)
    4d60:	e0fff817 	ldw	r3,-32(fp)
    4d64:	1885883a 	add	r2,r3,r2
    4d68:	10800003 	ldbu	r2,0(r2)
    4d6c:	10803fcc 	andi	r2,r2,255
    4d70:	1080201c 	xori	r2,r2,128
    4d74:	10bfe004 	addi	r2,r2,-128
    4d78:	10801960 	cmpeqi	r2,r2,101
    4d7c:	1000021e 	bne	r2,zero,4d88 <showBkgAndBorder+0x264>
				{
					changeOccur = true;
    4d80:	00800044 	movi	r2,1
    4d84:	e0bff685 	stb	r2,-38(fp)
				}
				//对非背景像素做作标记
				areaOccurInfo[i] = 'e';
    4d88:	e0bff517 	ldw	r2,-44(fp)
    4d8c:	e0fff817 	ldw	r3,-32(fp)
    4d90:	1885883a 	add	r2,r3,r2
    4d94:	00c01944 	movi	r3,101
    4d98:	10c00005 	stb	r3,0(r2)
			}
			//如果非背景区发生变化，则修改非背景的x定位数组
			if ( changeOccur )
    4d9c:	e0bff683 	ldbu	r2,-38(fp)
    4da0:	10000a26 	beq	r2,zero,4dcc <showBkgAndBorder+0x2a8>
			{
				xRangeNum = getXVaildRange( areaOccurInfo, exceptAreaArray, exceptAreaNum, xMinArray, xMaxArray, width );
    4da4:	e1bfff0f 	ldh	r6,-4(fp)
    4da8:	e0bff18f 	ldh	r2,-58(fp)
    4dac:	e0fffa17 	ldw	r3,-24(fp)
    4db0:	d8c00015 	stw	r3,0(sp)
    4db4:	d8800115 	stw	r2,4(sp)
    4db8:	e13ff817 	ldw	r4,-32(fp)
    4dbc:	e17ffe17 	ldw	r5,-8(fp)
    4dc0:	e1fff917 	ldw	r7,-28(fp)
    4dc4:	00046480 	call	4648 <getXVaildRange>
    4dc8:	e0bff60d 	sth	r2,-40(fp)
			}
			//画背景
			for ( i = 0; i < xRangeNum; i ++ )
    4dcc:	e03ff515 	stw	zero,-44(fp)
    4dd0:	00002906 	br	4e78 <showBkgAndBorder+0x354>
			{
				for ( xPos = xMinArray[i]; xPos <= xMaxArray[i]; xPos ++ )
    4dd4:	e0bff517 	ldw	r2,-44(fp)
    4dd8:	1085883a 	add	r2,r2,r2
    4ddc:	1007883a 	mov	r3,r2
    4de0:	e0bff917 	ldw	r2,-28(fp)
    4de4:	10c5883a 	add	r2,r2,r3
    4de8:	1080000b 	ldhu	r2,0(r2)
    4dec:	e0bff38d 	sth	r2,-50(fp)
    4df0:	00001306 	br	4e40 <showBkgAndBorder+0x31c>
				{
					screenShowSpace[yBasePos+yPos-1][xBasePos+xPos-1] = bkgColor;
    4df4:	e0fff30f 	ldh	r3,-52(fp)
    4df8:	e0bff40f 	ldh	r2,-48(fp)
    4dfc:	1885883a 	add	r2,r3,r2
    4e00:	113fffc4 	addi	r4,r2,-1
    4e04:	e0fff28f 	ldh	r3,-54(fp)
    4e08:	e0bff38f 	ldh	r2,-50(fp)
    4e0c:	1885883a 	add	r2,r3,r2
    4e10:	10ffffc4 	addi	r3,r2,-1
    4e14:	00800374 	movhi	r2,13
    4e18:	1093f204 	addi	r2,r2,20424
    4e1c:	21005024 	muli	r4,r4,320
    4e20:	20c7883a 	add	r3,r4,r3
    4e24:	18c7883a 	add	r3,r3,r3
    4e28:	10c5883a 	add	r2,r2,r3
    4e2c:	e0fff70b 	ldhu	r3,-36(fp)
    4e30:	10c0000d 	sth	r3,0(r2)
				xRangeNum = getXVaildRange( areaOccurInfo, exceptAreaArray, exceptAreaNum, xMinArray, xMaxArray, width );
			}
			//画背景
			for ( i = 0; i < xRangeNum; i ++ )
			{
				for ( xPos = xMinArray[i]; xPos <= xMaxArray[i]; xPos ++ )
    4e34:	e0bff38b 	ldhu	r2,-50(fp)
    4e38:	10800044 	addi	r2,r2,1
    4e3c:	e0bff38d 	sth	r2,-50(fp)
    4e40:	e0bff517 	ldw	r2,-44(fp)
    4e44:	1085883a 	add	r2,r2,r2
    4e48:	1007883a 	mov	r3,r2
    4e4c:	e0bffa17 	ldw	r2,-24(fp)
    4e50:	10c5883a 	add	r2,r2,r3
    4e54:	1080000b 	ldhu	r2,0(r2)
    4e58:	10ffffcc 	andi	r3,r2,65535
    4e5c:	18e0001c 	xori	r3,r3,32768
    4e60:	18e00004 	addi	r3,r3,-32768
    4e64:	e0bff38f 	ldh	r2,-50(fp)
    4e68:	18bfe20e 	bge	r3,r2,4df4 <__alt_data_end+0xf8004df4>
			if ( changeOccur )
			{
				xRangeNum = getXVaildRange( areaOccurInfo, exceptAreaArray, exceptAreaNum, xMinArray, xMaxArray, width );
			}
			//画背景
			for ( i = 0; i < xRangeNum; i ++ )
    4e6c:	e0bff517 	ldw	r2,-44(fp)
    4e70:	10800044 	addi	r2,r2,1
    4e74:	e0bff515 	stw	r2,-44(fp)
    4e78:	e0bff60f 	ldh	r2,-40(fp)
    4e7c:	e0fff517 	ldw	r3,-44(fp)
    4e80:	18bfd416 	blt	r3,r2,4dd4 <__alt_data_end+0xf8004dd4>
	short xRangeNum = 0;
	for ( yPos = 1; yPos <= height; yPos ++ )
	{
		//统计该行出现的非背景区
		bool changeOccur = false;
		for ( i = 0; i < exceptAreaNum; i ++ )
    4e84:	e0bff517 	ldw	r2,-44(fp)
    4e88:	10800044 	addi	r2,r2,1
    4e8c:	e0bff515 	stw	r2,-44(fp)
    4e90:	e0bfff0f 	ldh	r2,-4(fp)
    4e94:	e0fff517 	ldw	r3,-44(fp)
    4e98:	18bf8c16 	blt	r3,r2,4ccc <__alt_data_end+0xf8004ccc>
	for ( i = 0; i < exceptAreaNum; i ++ )
	{
		areaOccurInfo[i] = 0;//清空
	}
	short xRangeNum = 0;
	for ( yPos = 1; yPos <= height; yPos ++ )
    4e9c:	e0bff40b 	ldhu	r2,-48(fp)
    4ea0:	10800044 	addi	r2,r2,1
    4ea4:	e0bff40d 	sth	r2,-48(fp)
    4ea8:	e0bff40f 	ldh	r2,-48(fp)
    4eac:	e0fff20f 	ldh	r3,-56(fp)
    4eb0:	18bf830e 	bge	r3,r2,4cc0 <__alt_data_end+0xf8004cc0>
			}
		}

	}

	free(areaOccurInfo);
    4eb4:	e13ff817 	ldw	r4,-32(fp)
    4eb8:	0008a6c0 	call	8a6c <free>
	free(xMinArray);
    4ebc:	e13ff917 	ldw	r4,-28(fp)
    4ec0:	0008a6c0 	call	8a6c <free>
	free(xMaxArray);
    4ec4:	e13ffa17 	ldw	r4,-24(fp)
    4ec8:	0008a6c0 	call	8a6c <free>

	return status;
    4ecc:	e0bff103 	ldbu	r2,-60(fp)
}
    4ed0:	e037883a 	mov	sp,fp
    4ed4:	dfc00117 	ldw	ra,4(sp)
    4ed8:	df000017 	ldw	fp,0(sp)
    4edc:	dec00204 	addi	sp,sp,8
    4ee0:	f800283a 	ret

00004ee4 <showTextOrIcon>:


//显示icon或者text
bool showTextOrIcon( const AreaRange *absPos, const alt_u8 *objPicPtr, color_u16 bkgColor, color_u16 objColor, short objXSize, short objYSize )
{
    4ee4:	defff304 	addi	sp,sp,-52
    4ee8:	df000c15 	stw	fp,48(sp)
    4eec:	df000c04 	addi	fp,sp,48
    4ef0:	e13ffa15 	stw	r4,-24(fp)
    4ef4:	e17ffb15 	stw	r5,-20(fp)
    4ef8:	300b883a 	mov	r5,r6
    4efc:	3809883a 	mov	r4,r7
    4f00:	e0c00117 	ldw	r3,4(fp)
    4f04:	e0800217 	ldw	r2,8(fp)
    4f08:	e17ffc0d 	sth	r5,-16(fp)
    4f0c:	e13ffd0d 	sth	r4,-12(fp)
    4f10:	e0fffe0d 	sth	r3,-8(fp)
    4f14:	e0bfff0d 	sth	r2,-4(fp)
	bool status = true;
    4f18:	00800044 	movi	r2,1
    4f1c:	e0bff785 	stb	r2,-34(fp)


	short objXByte = (objXSize+7)>>3;//除8，向上取整
    4f20:	e0bffe0f 	ldh	r2,-8(fp)
    4f24:	108001c4 	addi	r2,r2,7
    4f28:	1005d0fa 	srai	r2,r2,3
    4f2c:	e0bff80d 	sth	r2,-32(fp)

	short width = absPos->x_max - absPos->x_min + 1;
    4f30:	e0bffa17 	ldw	r2,-24(fp)
    4f34:	1080008b 	ldhu	r2,2(r2)
    4f38:	1007883a 	mov	r3,r2
    4f3c:	e0bffa17 	ldw	r2,-24(fp)
    4f40:	1080000b 	ldhu	r2,0(r2)
    4f44:	1885c83a 	sub	r2,r3,r2
    4f48:	10800044 	addi	r2,r2,1
    4f4c:	e0bff40d 	sth	r2,-48(fp)
	short height = absPos->y_max - absPos->y_min + 1;
    4f50:	e0bffa17 	ldw	r2,-24(fp)
    4f54:	1080018b 	ldhu	r2,6(r2)
    4f58:	1007883a 	mov	r3,r2
    4f5c:	e0bffa17 	ldw	r2,-24(fp)
    4f60:	1080010b 	ldhu	r2,4(r2)
    4f64:	1885c83a 	sub	r2,r3,r2
    4f68:	10800044 	addi	r2,r2,1
    4f6c:	e0bff48d 	sth	r2,-46(fp)

	if ( width > objXSize )
    4f70:	e0bff40f 	ldh	r2,-48(fp)
    4f74:	e0fffe0f 	ldh	r3,-8(fp)
    4f78:	1880020e 	bge	r3,r2,4f84 <showTextOrIcon+0xa0>
	{
		width = objXSize;
    4f7c:	e0bffe0b 	ldhu	r2,-8(fp)
    4f80:	e0bff40d 	sth	r2,-48(fp)
	}
	if ( height > objYSize )
    4f84:	e0bff48f 	ldh	r2,-46(fp)
    4f88:	e0ffff0f 	ldh	r3,-4(fp)
    4f8c:	1880020e 	bge	r3,r2,4f98 <showTextOrIcon+0xb4>
	{
		height = objYSize;
    4f90:	e0bfff0b 	ldhu	r2,-4(fp)
    4f94:	e0bff48d 	sth	r2,-46(fp)
	}
	short xBasePos = absPos->x_min - 1;
    4f98:	e0bffa17 	ldw	r2,-24(fp)
    4f9c:	1080000b 	ldhu	r2,0(r2)
    4fa0:	10bfffc4 	addi	r2,r2,-1
    4fa4:	e0bff88d 	sth	r2,-30(fp)
	short yBasePos = absPos->y_min - 1;
    4fa8:	e0bffa17 	ldw	r2,-24(fp)
    4fac:	1080010b 	ldhu	r2,4(r2)
    4fb0:	10bfffc4 	addi	r2,r2,-1
    4fb4:	e0bff90d 	sth	r2,-28(fp)

	alt_u8 objPicRowPixel;//横向的像素

	//xPos,yPos为相对位置
	short xPos, yPos;
	short objPicRowBaseIndex = 0;
    4fb8:	e03ff68d 	sth	zero,-38(fp)
	for ( yPos = 1; yPos <= height; yPos ++ )
    4fbc:	00800044 	movi	r2,1
    4fc0:	e0bff60d 	sth	r2,-40(fp)
    4fc4:	00004c06 	br	50f8 <showTextOrIcon+0x214>
	{
		short objPicIndex = objPicRowBaseIndex;
    4fc8:	e0bff68b 	ldhu	r2,-38(fp)
    4fcc:	e0bff70d 	sth	r2,-36(fp)
		for ( xPos = 1; xPos <= width; xPos ++ )
    4fd0:	00800044 	movi	r2,1
    4fd4:	e0bff58d 	sth	r2,-42(fp)
    4fd8:	00003d06 	br	50d0 <showTextOrIcon+0x1ec>
		{
			if ( (xPos & 0x7) == 0x1 )//xPos低三位为001（等效为xPos % 8 == 1 )
    4fdc:	e0bff58b 	ldhu	r2,-42(fp)
    4fe0:	10bfffcc 	andi	r2,r2,65535
    4fe4:	108001cc 	andi	r2,r2,7
    4fe8:	10800058 	cmpnei	r2,r2,1
    4fec:	10000c1e 	bne	r2,zero,5020 <showTextOrIcon+0x13c>
			{
				objPicRowPixel = ( objPicPtr != NULL ) ? objPicPtr[objPicIndex] : 0x00;
    4ff0:	e0bffb17 	ldw	r2,-20(fp)
    4ff4:	10000526 	beq	r2,zero,500c <showTextOrIcon+0x128>
    4ff8:	e0bff70f 	ldh	r2,-36(fp)
    4ffc:	e0fffb17 	ldw	r3,-20(fp)
    5000:	1885883a 	add	r2,r3,r2
    5004:	10800003 	ldbu	r2,0(r2)
    5008:	00000106 	br	5010 <showTextOrIcon+0x12c>
    500c:	0005883a 	mov	r2,zero
    5010:	e0bff505 	stb	r2,-44(fp)

				objPicIndex ++;
    5014:	e0bff70b 	ldhu	r2,-36(fp)
    5018:	10800044 	addi	r2,r2,1
    501c:	e0bff70d 	sth	r2,-36(fp)
			}
			if ( (objPicRowPixel & 0x80) == 0x80 )//最高位为1
    5020:	e0bff503 	ldbu	r2,-44(fp)
    5024:	10803fcc 	andi	r2,r2,255
    5028:	1080201c 	xori	r2,r2,128
    502c:	10bfe004 	addi	r2,r2,-128
    5030:	1000110e 	bge	r2,zero,5078 <showTextOrIcon+0x194>
			{
				screenShowSpace[yBasePos+yPos-1][xBasePos+xPos-1] = objColor;
    5034:	e0fff90f 	ldh	r3,-28(fp)
    5038:	e0bff60f 	ldh	r2,-40(fp)
    503c:	1885883a 	add	r2,r3,r2
    5040:	113fffc4 	addi	r4,r2,-1
    5044:	e0fff88f 	ldh	r3,-30(fp)
    5048:	e0bff58f 	ldh	r2,-42(fp)
    504c:	1885883a 	add	r2,r3,r2
    5050:	10ffffc4 	addi	r3,r2,-1
    5054:	00800374 	movhi	r2,13
    5058:	1093f204 	addi	r2,r2,20424
    505c:	21005024 	muli	r4,r4,320
    5060:	20c7883a 	add	r3,r4,r3
    5064:	18c7883a 	add	r3,r3,r3
    5068:	10c5883a 	add	r2,r2,r3
    506c:	e0fffd0b 	ldhu	r3,-12(fp)
    5070:	10c0000d 	sth	r3,0(r2)
    5074:	00001006 	br	50b8 <showTextOrIcon+0x1d4>
			}
			else
			{
				screenShowSpace[yBasePos+yPos-1][xBasePos+xPos-1] = bkgColor;
    5078:	e0fff90f 	ldh	r3,-28(fp)
    507c:	e0bff60f 	ldh	r2,-40(fp)
    5080:	1885883a 	add	r2,r3,r2
    5084:	113fffc4 	addi	r4,r2,-1
    5088:	e0fff88f 	ldh	r3,-30(fp)
    508c:	e0bff58f 	ldh	r2,-42(fp)
    5090:	1885883a 	add	r2,r3,r2
    5094:	10ffffc4 	addi	r3,r2,-1
    5098:	00800374 	movhi	r2,13
    509c:	1093f204 	addi	r2,r2,20424
    50a0:	21005024 	muli	r4,r4,320
    50a4:	20c7883a 	add	r3,r4,r3
    50a8:	18c7883a 	add	r3,r3,r3
    50ac:	10c5883a 	add	r2,r2,r3
    50b0:	e0fffc0b 	ldhu	r3,-16(fp)
    50b4:	10c0000d 	sth	r3,0(r2)
			}
			objPicRowPixel = objPicRowPixel<<1;//左移一位，将新像素信息移至最高位
    50b8:	e0bff503 	ldbu	r2,-44(fp)
    50bc:	1085883a 	add	r2,r2,r2
    50c0:	e0bff505 	stb	r2,-44(fp)
	short xPos, yPos;
	short objPicRowBaseIndex = 0;
	for ( yPos = 1; yPos <= height; yPos ++ )
	{
		short objPicIndex = objPicRowBaseIndex;
		for ( xPos = 1; xPos <= width; xPos ++ )
    50c4:	e0bff58b 	ldhu	r2,-42(fp)
    50c8:	10800044 	addi	r2,r2,1
    50cc:	e0bff58d 	sth	r2,-42(fp)
    50d0:	e0bff58f 	ldh	r2,-42(fp)
    50d4:	e0fff40f 	ldh	r3,-48(fp)
    50d8:	18bfc00e 	bge	r3,r2,4fdc <__alt_data_end+0xf8004fdc>
			{
				screenShowSpace[yBasePos+yPos-1][xBasePos+xPos-1] = bkgColor;
			}
			objPicRowPixel = objPicRowPixel<<1;//左移一位，将新像素信息移至最高位
		}
		objPicRowBaseIndex = objPicRowBaseIndex + objXByte;
    50dc:	e0fff68b 	ldhu	r3,-38(fp)
    50e0:	e0bff80b 	ldhu	r2,-32(fp)
    50e4:	1885883a 	add	r2,r3,r2
    50e8:	e0bff68d 	sth	r2,-38(fp)
	alt_u8 objPicRowPixel;//横向的像素

	//xPos,yPos为相对位置
	short xPos, yPos;
	short objPicRowBaseIndex = 0;
	for ( yPos = 1; yPos <= height; yPos ++ )
    50ec:	e0bff60b 	ldhu	r2,-40(fp)
    50f0:	10800044 	addi	r2,r2,1
    50f4:	e0bff60d 	sth	r2,-40(fp)
    50f8:	e0bff60f 	ldh	r2,-40(fp)
    50fc:	e0fff48f 	ldh	r3,-46(fp)
    5100:	18bfb10e 	bge	r3,r2,4fc8 <__alt_data_end+0xf8004fc8>
			objPicRowPixel = objPicRowPixel<<1;//左移一位，将新像素信息移至最高位
		}
		objPicRowBaseIndex = objPicRowBaseIndex + objXByte;
	}

	return status;
    5104:	e0bff783 	ldbu	r2,-34(fp)
}
    5108:	e037883a 	mov	sp,fp
    510c:	df000017 	ldw	fp,0(sp)
    5110:	dec00104 	addi	sp,sp,4
    5114:	f800283a 	ret

00005118 <showTagBlock>:


//显示TagBlock
bool showTagBlock( const TagBlock *tagPtr, const AreaRange *absPos )
{
    5118:	deffec04 	addi	sp,sp,-80
    511c:	dfc01315 	stw	ra,76(sp)
    5120:	df001215 	stw	fp,72(sp)
    5124:	df001204 	addi	fp,sp,72
    5128:	e13ffe15 	stw	r4,-8(fp)
    512c:	e17fff15 	stw	r5,-4(fp)
	bool status = true;
    5130:	00800044 	movi	r2,1
    5134:	e0bff005 	stb	r2,-64(fp)

	//显示TagBlock的背景与边界
	bool textVisible = (tagPtr->tagColorInfo).objVisible;
    5138:	e0bffe17 	ldw	r2,-8(fp)
    513c:	108003c3 	ldbu	r2,15(r2)
    5140:	e0bff405 	stb	r2,-48(fp)

	if ( textVisible )//中间的文本需要显示
    5144:	e0bff403 	ldbu	r2,-48(fp)
    5148:	10018f26 	beq	r2,zero,5788 <showTagBlock+0x670>
	{
		//处理背景与边界（挖掉text显示区）
		status = status && showBkgAndBorder( &(tagPtr->tagColorInfo), absPos, &(tagPtr->textArea), 1 );
    514c:	e0bff003 	ldbu	r2,-64(fp)
    5150:	10000c26 	beq	r2,zero,5184 <showTagBlock+0x6c>
    5154:	e0bffe17 	ldw	r2,-8(fp)
    5158:	10c00204 	addi	r3,r2,8
    515c:	e0bffe17 	ldw	r2,-8(fp)
    5160:	1809883a 	mov	r4,r3
    5164:	e17fff17 	ldw	r5,-4(fp)
    5168:	100d883a 	mov	r6,r2
    516c:	01c00044 	movi	r7,1
    5170:	0004b240 	call	4b24 <showBkgAndBorder>
    5174:	10803fcc 	andi	r2,r2,255
    5178:	10000226 	beq	r2,zero,5184 <showTagBlock+0x6c>
    517c:	00800044 	movi	r2,1
    5180:	00000106 	br	5188 <showTagBlock+0x70>
    5184:	0005883a 	mov	r2,zero
    5188:	e0bff005 	stb	r2,-64(fp)
    518c:	e0bff003 	ldbu	r2,-64(fp)
    5190:	1080004c 	andi	r2,r2,1
    5194:	e0bff005 	stb	r2,-64(fp)

		//显示中间的text

		AreaRange textAbsPos;//text的绝对位置
		//获取text的绝对位置
		getAbsPos( absPos, &(tagPtr->textArea), &textAbsPos );
    5198:	e0fffe17 	ldw	r3,-8(fp)
    519c:	e0bffa04 	addi	r2,fp,-24
    51a0:	e13fff17 	ldw	r4,-4(fp)
    51a4:	180b883a 	mov	r5,r3
    51a8:	100d883a 	mov	r6,r2
    51ac:	00045800 	call	4580 <getAbsPos>

		AreaRange objAbsPos;//字符的绝对位置

		objAbsPos.y_max = textAbsPos.y_max;
    51b0:	e0bffb8b 	ldhu	r2,-18(fp)
    51b4:	e0bffd8d 	sth	r2,-10(fp)
		objAbsPos.y_min = textAbsPos.y_min;
    51b8:	e0bffb0b 	ldhu	r2,-20(fp)
    51bc:	e0bffd0d 	sth	r2,-12(fp)
		objAbsPos.x_min = textAbsPos.x_min;
    51c0:	e0bffa0b 	ldhu	r2,-24(fp)
    51c4:	e0bffc0d 	sth	r2,-16(fp)

		//获取文本中汉字与字母的分布表(中文"c",英文"e",结束标志0)(返回动态字符串，记得用完了要free掉)
		char *strType = getWordLetterArrange( (tagPtr->tagText).text, (tagPtr->tagText).textLen );
    51c8:	e0bffe17 	ldw	r2,-8(fp)
    51cc:	10c00717 	ldw	r3,28(r2)
    51d0:	e0bffe17 	ldw	r2,-8(fp)
    51d4:	1080080b 	ldhu	r2,32(r2)
    51d8:	10bfffcc 	andi	r2,r2,65535
    51dc:	10a0001c 	xori	r2,r2,32768
    51e0:	10a00004 	addi	r2,r2,-32768
    51e4:	1809883a 	mov	r4,r3
    51e8:	100b883a 	mov	r5,r2
    51ec:	00014ec0 	call	14ec <getWordLetterArrange>
    51f0:	e0bff515 	stw	r2,-44(fp)
		//显示第一个字符
		if ( strType == NULL || strType[0] == 0 )
    51f4:	e0bff517 	ldw	r2,-44(fp)
    51f8:	10000626 	beq	r2,zero,5214 <showTagBlock+0xfc>
    51fc:	e0bff517 	ldw	r2,-44(fp)
    5200:	10800003 	ldbu	r2,0(r2)
    5204:	10803fcc 	andi	r2,r2,255
    5208:	1080201c 	xori	r2,r2,128
    520c:	10bfe004 	addi	r2,r2,-128
    5210:	1000031e 	bne	r2,zero,5220 <showTagBlock+0x108>
		{
			free(strType);
    5214:	e13ff517 	ldw	r4,-44(fp)
    5218:	0008a6c0 	call	8a6c <free>
    521c:	00015706 	br	577c <showTagBlock+0x664>
		}
		else
		{
			short textLen = (tagPtr->tagText).textLen;
    5220:	e0bffe17 	ldw	r2,-8(fp)
    5224:	1080080b 	ldhu	r2,32(r2)
    5228:	e0bff60d 	sth	r2,-40(fp)
			char *text = (tagPtr->tagText).text;
    522c:	e0bffe17 	ldw	r2,-8(fp)
    5230:	10800717 	ldw	r2,28(r2)
    5234:	e0bff715 	stw	r2,-36(fp)
			short textIndex = 0;
    5238:	e03ff08d 	sth	zero,-62(fp)

			short bkgColor = (tagPtr->tagColorInfo).bkgColor;
    523c:	e0bffe17 	ldw	r2,-8(fp)
    5240:	1080028b 	ldhu	r2,10(r2)
    5244:	e0bff80d 	sth	r2,-32(fp)
			short objColor =  (tagPtr->tagColorInfo).objColor;
    5248:	e0bffe17 	ldw	r2,-8(fp)
    524c:	1080030b 	ldhu	r2,12(r2)
    5250:	e0bff88d 	sth	r2,-30(fp)

			short objYSize = tagPtr->objYSize;
    5254:	e0bffe17 	ldw	r2,-8(fp)
    5258:	1080068b 	ldhu	r2,26(r2)
    525c:	e0bff90d 	sth	r2,-28(fp)

			alt_u8 *objPicPtr;

			short objXSize;

			if ( strType[0] == 'e' )
    5260:	e0bff517 	ldw	r2,-44(fp)
    5264:	10800003 	ldbu	r2,0(r2)
    5268:	10803fcc 	andi	r2,r2,255
    526c:	1080201c 	xori	r2,r2,128
    5270:	10bfe004 	addi	r2,r2,-128
    5274:	10801958 	cmpnei	r2,r2,101
    5278:	10000c1e 	bne	r2,zero,52ac <showTagBlock+0x194>
			{
				objXSize = tagPtr->letterXSize;
    527c:	e0bffe17 	ldw	r2,-8(fp)
    5280:	1080060b 	ldhu	r2,24(r2)
    5284:	e0bff20d 	sth	r2,-56(fp)
				objPicPtr = getAsciiFont( text[0] );
    5288:	e0bff717 	ldw	r2,-36(fp)
    528c:	10800003 	ldbu	r2,0(r2)
    5290:	10803fcc 	andi	r2,r2,255
    5294:	1080201c 	xori	r2,r2,128
    5298:	10bfe004 	addi	r2,r2,-128
    529c:	1009883a 	mov	r4,r2
    52a0:	00002900 	call	290 <getAsciiFont>
    52a4:	e0bff115 	stw	r2,-60(fp)
    52a8:	00000e06 	br	52e4 <showTagBlock+0x1cc>
			}
			else
			{
				objXSize = tagPtr->wordXSize;
    52ac:	e0bffe17 	ldw	r2,-8(fp)
    52b0:	1080058b 	ldhu	r2,22(r2)
    52b4:	e0bff20d 	sth	r2,-56(fp)
				objPicPtr = getGbkFont( text[0], text[1] );
    52b8:	e0bff717 	ldw	r2,-36(fp)
    52bc:	10800003 	ldbu	r2,0(r2)
    52c0:	10c03fcc 	andi	r3,r2,255
    52c4:	e0bff717 	ldw	r2,-36(fp)
    52c8:	10800044 	addi	r2,r2,1
    52cc:	10800003 	ldbu	r2,0(r2)
    52d0:	10803fcc 	andi	r2,r2,255
    52d4:	1809883a 	mov	r4,r3
    52d8:	100b883a 	mov	r5,r2
    52dc:	00002dc0 	call	2dc <getGbkFont>
    52e0:	e0bff115 	stw	r2,-60(fp)
			}
			objAbsPos.x_max = objAbsPos.x_min - 1 + objXSize;
    52e4:	e0bffc0b 	ldhu	r2,-16(fp)
    52e8:	1007883a 	mov	r3,r2
    52ec:	e0bff20b 	ldhu	r2,-56(fp)
    52f0:	1885883a 	add	r2,r3,r2
    52f4:	10bfffc4 	addi	r2,r2,-1
    52f8:	e0bffc8d 	sth	r2,-14(fp)
			status = status && showTextOrIcon( &objAbsPos, objPicPtr, bkgColor, objColor, objXSize, objYSize );
    52fc:	e0bff003 	ldbu	r2,-64(fp)
    5300:	10000f26 	beq	r2,zero,5340 <showTagBlock+0x228>
    5304:	e0bff80b 	ldhu	r2,-32(fp)
    5308:	11bfffcc 	andi	r6,r2,65535
    530c:	e0bff88b 	ldhu	r2,-30(fp)
    5310:	11ffffcc 	andi	r7,r2,65535
    5314:	e0fff20f 	ldh	r3,-56(fp)
    5318:	e0bff90f 	ldh	r2,-28(fp)
    531c:	e13ffc04 	addi	r4,fp,-16
    5320:	d8c00015 	stw	r3,0(sp)
    5324:	d8800115 	stw	r2,4(sp)
    5328:	e17ff117 	ldw	r5,-60(fp)
    532c:	0004ee40 	call	4ee4 <showTextOrIcon>
    5330:	10803fcc 	andi	r2,r2,255
    5334:	10000226 	beq	r2,zero,5340 <showTagBlock+0x228>
    5338:	00800044 	movi	r2,1
    533c:	00000106 	br	5344 <showTagBlock+0x22c>
    5340:	0005883a 	mov	r2,zero
    5344:	e0bff005 	stb	r2,-64(fp)
    5348:	e0bff003 	ldbu	r2,-64(fp)
    534c:	1080004c 	andi	r2,r2,1
    5350:	e0bff005 	stb	r2,-64(fp)

			int i;

			for ( i = 1; strType[i] != 0 && textIndex < textLen; i ++ )
    5354:	00800044 	movi	r2,1
    5358:	e0bff315 	stw	r2,-52(fp)
    535c:	00009d06 	br	55d4 <showTagBlock+0x4bc>
			{
				//显示间隔
				objAbsPos.x_min = objAbsPos.x_max + 1;
    5360:	e0bffc8b 	ldhu	r2,-14(fp)
    5364:	10800044 	addi	r2,r2,1
    5368:	e0bffc0d 	sth	r2,-16(fp)
				if( objAbsPos.x_min > textAbsPos.x_max )//超出文本显示右边界
    536c:	e0bffc0b 	ldhu	r2,-16(fp)
    5370:	e0fffa8b 	ldhu	r3,-22(fp)
    5374:	10bfffcc 	andi	r2,r2,65535
    5378:	10a0001c 	xori	r2,r2,32768
    537c:	10a00004 	addi	r2,r2,-32768
    5380:	18ffffcc 	andi	r3,r3,65535
    5384:	18e0001c 	xori	r3,r3,32768
    5388:	18e00004 	addi	r3,r3,-32768
    538c:	1880010e 	bge	r3,r2,5394 <showTagBlock+0x27c>
				{
					break;
    5390:	00009b06 	br	5600 <showTagBlock+0x4e8>
				}
				if( strType[i] == 'e' && strType[i-1] == 'e' )//当前字符为英文字母&&前一个为英文字母
    5394:	e0bff317 	ldw	r2,-52(fp)
    5398:	e0fff517 	ldw	r3,-44(fp)
    539c:	1885883a 	add	r2,r3,r2
    53a0:	10800003 	ldbu	r2,0(r2)
    53a4:	10803fcc 	andi	r2,r2,255
    53a8:	1080201c 	xori	r2,r2,128
    53ac:	10bfe004 	addi	r2,r2,-128
    53b0:	10801958 	cmpnei	r2,r2,101
    53b4:	10000e1e 	bne	r2,zero,53f0 <showTagBlock+0x2d8>
    53b8:	e0bff317 	ldw	r2,-52(fp)
    53bc:	10bfffc4 	addi	r2,r2,-1
    53c0:	e0fff517 	ldw	r3,-44(fp)
    53c4:	1885883a 	add	r2,r3,r2
    53c8:	10800003 	ldbu	r2,0(r2)
    53cc:	10803fcc 	andi	r2,r2,255
    53d0:	1080201c 	xori	r2,r2,128
    53d4:	10bfe004 	addi	r2,r2,-128
    53d8:	10801958 	cmpnei	r2,r2,101
    53dc:	1000041e 	bne	r2,zero,53f0 <showTagBlock+0x2d8>
				{
					objXSize = tagPtr->letterSpacing;
    53e0:	e0bffe17 	ldw	r2,-8(fp)
    53e4:	1080048b 	ldhu	r2,18(r2)
    53e8:	e0bff20d 	sth	r2,-56(fp)
    53ec:	00000306 	br	53fc <showTagBlock+0x2e4>
				}
				else
				{
					objXSize = tagPtr->wordSpacing;
    53f0:	e0bffe17 	ldw	r2,-8(fp)
    53f4:	1080040b 	ldhu	r2,16(r2)
    53f8:	e0bff20d 	sth	r2,-56(fp)
				}
				objAbsPos.x_max = objAbsPos.x_min - 1 + objXSize;
    53fc:	e0bffc0b 	ldhu	r2,-16(fp)
    5400:	1007883a 	mov	r3,r2
    5404:	e0bff20b 	ldhu	r2,-56(fp)
    5408:	1885883a 	add	r2,r3,r2
    540c:	10bfffc4 	addi	r2,r2,-1
    5410:	e0bffc8d 	sth	r2,-14(fp)


				status = status && showTextOrIcon( &objAbsPos, NULL, bkgColor, objColor, objXSize, objYSize );
    5414:	e0bff003 	ldbu	r2,-64(fp)
    5418:	10000f26 	beq	r2,zero,5458 <showTagBlock+0x340>
    541c:	e0bff80b 	ldhu	r2,-32(fp)
    5420:	11bfffcc 	andi	r6,r2,65535
    5424:	e0bff88b 	ldhu	r2,-30(fp)
    5428:	11ffffcc 	andi	r7,r2,65535
    542c:	e0fff20f 	ldh	r3,-56(fp)
    5430:	e0bff90f 	ldh	r2,-28(fp)
    5434:	e13ffc04 	addi	r4,fp,-16
    5438:	d8c00015 	stw	r3,0(sp)
    543c:	d8800115 	stw	r2,4(sp)
    5440:	000b883a 	mov	r5,zero
    5444:	0004ee40 	call	4ee4 <showTextOrIcon>
    5448:	10803fcc 	andi	r2,r2,255
    544c:	10000226 	beq	r2,zero,5458 <showTagBlock+0x340>
    5450:	00800044 	movi	r2,1
    5454:	00000106 	br	545c <showTagBlock+0x344>
    5458:	0005883a 	mov	r2,zero
    545c:	e0bff005 	stb	r2,-64(fp)
    5460:	e0bff003 	ldbu	r2,-64(fp)
    5464:	1080004c 	andi	r2,r2,1
    5468:	e0bff005 	stb	r2,-64(fp)

				//显示文本
				objAbsPos.x_min = objAbsPos.x_max + 1;
    546c:	e0bffc8b 	ldhu	r2,-14(fp)
    5470:	10800044 	addi	r2,r2,1
    5474:	e0bffc0d 	sth	r2,-16(fp)
				if( objAbsPos.x_min > textAbsPos.x_max )//超出文本显示右边界
    5478:	e0bffc0b 	ldhu	r2,-16(fp)
    547c:	e0fffa8b 	ldhu	r3,-22(fp)
    5480:	10bfffcc 	andi	r2,r2,65535
    5484:	10a0001c 	xori	r2,r2,32768
    5488:	10a00004 	addi	r2,r2,-32768
    548c:	18ffffcc 	andi	r3,r3,65535
    5490:	18e0001c 	xori	r3,r3,32768
    5494:	18e00004 	addi	r3,r3,-32768
    5498:	1880010e 	bge	r3,r2,54a0 <showTagBlock+0x388>
				{
					break;
    549c:	00005806 	br	5600 <showTagBlock+0x4e8>
				}
				if( strType[i] == 'e' )//当前字符为英文字母
    54a0:	e0bff317 	ldw	r2,-52(fp)
    54a4:	e0fff517 	ldw	r3,-44(fp)
    54a8:	1885883a 	add	r2,r3,r2
    54ac:	10800003 	ldbu	r2,0(r2)
    54b0:	10803fcc 	andi	r2,r2,255
    54b4:	1080201c 	xori	r2,r2,128
    54b8:	10bfe004 	addi	r2,r2,-128
    54bc:	10801958 	cmpnei	r2,r2,101
    54c0:	1000111e 	bne	r2,zero,5508 <showTagBlock+0x3f0>
				{
					objXSize = tagPtr->letterXSize;
    54c4:	e0bffe17 	ldw	r2,-8(fp)
    54c8:	1080060b 	ldhu	r2,24(r2)
    54cc:	e0bff20d 	sth	r2,-56(fp)
					objPicPtr = getAsciiFont( text[textIndex] );
    54d0:	e0bff08f 	ldh	r2,-62(fp)
    54d4:	e0fff717 	ldw	r3,-36(fp)
    54d8:	1885883a 	add	r2,r3,r2
    54dc:	10800003 	ldbu	r2,0(r2)
    54e0:	10803fcc 	andi	r2,r2,255
    54e4:	1080201c 	xori	r2,r2,128
    54e8:	10bfe004 	addi	r2,r2,-128
    54ec:	1009883a 	mov	r4,r2
    54f0:	00002900 	call	290 <getAsciiFont>
    54f4:	e0bff115 	stw	r2,-60(fp)
					textIndex += 1;
    54f8:	e0bff08b 	ldhu	r2,-62(fp)
    54fc:	10800044 	addi	r2,r2,1
    5500:	e0bff08d 	sth	r2,-62(fp)
    5504:	00001406 	br	5558 <showTagBlock+0x440>
				}
				else
				{
					objXSize = tagPtr->wordXSize;
    5508:	e0bffe17 	ldw	r2,-8(fp)
    550c:	1080058b 	ldhu	r2,22(r2)
    5510:	e0bff20d 	sth	r2,-56(fp)
					objPicPtr = getGbkFont( text[textIndex], text[textIndex+1] );
    5514:	e0bff08f 	ldh	r2,-62(fp)
    5518:	e0fff717 	ldw	r3,-36(fp)
    551c:	1885883a 	add	r2,r3,r2
    5520:	10800003 	ldbu	r2,0(r2)
    5524:	11003fcc 	andi	r4,r2,255
    5528:	e0bff08f 	ldh	r2,-62(fp)
    552c:	10800044 	addi	r2,r2,1
    5530:	e0fff717 	ldw	r3,-36(fp)
    5534:	1885883a 	add	r2,r3,r2
    5538:	10800003 	ldbu	r2,0(r2)
    553c:	10803fcc 	andi	r2,r2,255
    5540:	100b883a 	mov	r5,r2
    5544:	00002dc0 	call	2dc <getGbkFont>
    5548:	e0bff115 	stw	r2,-60(fp)
					textIndex += 2;
    554c:	e0bff08b 	ldhu	r2,-62(fp)
    5550:	10800084 	addi	r2,r2,2
    5554:	e0bff08d 	sth	r2,-62(fp)
				}
				objAbsPos.x_max = objAbsPos.x_min - 1 + objXSize;
    5558:	e0bffc0b 	ldhu	r2,-16(fp)
    555c:	1007883a 	mov	r3,r2
    5560:	e0bff20b 	ldhu	r2,-56(fp)
    5564:	1885883a 	add	r2,r3,r2
    5568:	10bfffc4 	addi	r2,r2,-1
    556c:	e0bffc8d 	sth	r2,-14(fp)

				status = status && showTextOrIcon( &objAbsPos, objPicPtr, bkgColor, objColor, objXSize, objYSize );
    5570:	e0bff003 	ldbu	r2,-64(fp)
    5574:	10000f26 	beq	r2,zero,55b4 <showTagBlock+0x49c>
    5578:	e0bff80b 	ldhu	r2,-32(fp)
    557c:	11bfffcc 	andi	r6,r2,65535
    5580:	e0bff88b 	ldhu	r2,-30(fp)
    5584:	11ffffcc 	andi	r7,r2,65535
    5588:	e0fff20f 	ldh	r3,-56(fp)
    558c:	e0bff90f 	ldh	r2,-28(fp)
    5590:	e13ffc04 	addi	r4,fp,-16
    5594:	d8c00015 	stw	r3,0(sp)
    5598:	d8800115 	stw	r2,4(sp)
    559c:	e17ff117 	ldw	r5,-60(fp)
    55a0:	0004ee40 	call	4ee4 <showTextOrIcon>
    55a4:	10803fcc 	andi	r2,r2,255
    55a8:	10000226 	beq	r2,zero,55b4 <showTagBlock+0x49c>
    55ac:	00800044 	movi	r2,1
    55b0:	00000106 	br	55b8 <showTagBlock+0x4a0>
    55b4:	0005883a 	mov	r2,zero
    55b8:	e0bff005 	stb	r2,-64(fp)
    55bc:	e0bff003 	ldbu	r2,-64(fp)
    55c0:	1080004c 	andi	r2,r2,1
    55c4:	e0bff005 	stb	r2,-64(fp)
			objAbsPos.x_max = objAbsPos.x_min - 1 + objXSize;
			status = status && showTextOrIcon( &objAbsPos, objPicPtr, bkgColor, objColor, objXSize, objYSize );

			int i;

			for ( i = 1; strType[i] != 0 && textIndex < textLen; i ++ )
    55c8:	e0bff317 	ldw	r2,-52(fp)
    55cc:	10800044 	addi	r2,r2,1
    55d0:	e0bff315 	stw	r2,-52(fp)
    55d4:	e0bff317 	ldw	r2,-52(fp)
    55d8:	e0fff517 	ldw	r3,-44(fp)
    55dc:	1885883a 	add	r2,r3,r2
    55e0:	10800003 	ldbu	r2,0(r2)
    55e4:	10803fcc 	andi	r2,r2,255
    55e8:	1080201c 	xori	r2,r2,128
    55ec:	10bfe004 	addi	r2,r2,-128
    55f0:	10000326 	beq	r2,zero,5600 <showTagBlock+0x4e8>
    55f4:	e0fff08f 	ldh	r3,-62(fp)
    55f8:	e0bff60f 	ldh	r2,-40(fp)
    55fc:	18bf5816 	blt	r3,r2,5360 <__alt_data_end+0xf8005360>
				objAbsPos.x_max = objAbsPos.x_min - 1 + objXSize;

				status = status && showTextOrIcon( &objAbsPos, objPicPtr, bkgColor, objColor, objXSize, objYSize );
			}
			//如果文本区右边界还有余留空间，就填充背景颜色
			objAbsPos.x_min = objAbsPos.x_max + 1;
    5600:	e0bffc8b 	ldhu	r2,-14(fp)
    5604:	10800044 	addi	r2,r2,1
    5608:	e0bffc0d 	sth	r2,-16(fp)
			if ( objAbsPos.x_min <= textAbsPos.x_max )
    560c:	e0bffc0b 	ldhu	r2,-16(fp)
    5610:	e0fffa8b 	ldhu	r3,-22(fp)
    5614:	10bfffcc 	andi	r2,r2,65535
    5618:	10a0001c 	xori	r2,r2,32768
    561c:	10a00004 	addi	r2,r2,-32768
    5620:	18ffffcc 	andi	r3,r3,65535
    5624:	18e0001c 	xori	r3,r3,32768
    5628:	18e00004 	addi	r3,r3,-32768
    562c:	18801f16 	blt	r3,r2,56ac <showTagBlock+0x594>
			{
				objAbsPos.x_max = textAbsPos.x_max;
    5630:	e0bffa8b 	ldhu	r2,-22(fp)
    5634:	e0bffc8d 	sth	r2,-14(fp)
				status = status && showTextOrIcon( &objAbsPos, objPicPtr, bkgColor, objColor, objAbsPos.x_max - objAbsPos.x_min + 1, objYSize );
    5638:	e0bff003 	ldbu	r2,-64(fp)
    563c:	10001626 	beq	r2,zero,5698 <showTagBlock+0x580>
    5640:	e0bff80b 	ldhu	r2,-32(fp)
    5644:	11bfffcc 	andi	r6,r2,65535
    5648:	e0bff88b 	ldhu	r2,-30(fp)
    564c:	11ffffcc 	andi	r7,r2,65535
    5650:	e0bffc8b 	ldhu	r2,-14(fp)
    5654:	1007883a 	mov	r3,r2
    5658:	e0bffc0b 	ldhu	r2,-16(fp)
    565c:	1885c83a 	sub	r2,r3,r2
    5660:	10800044 	addi	r2,r2,1
    5664:	10ffffcc 	andi	r3,r2,65535
    5668:	18e0001c 	xori	r3,r3,32768
    566c:	18e00004 	addi	r3,r3,-32768
    5670:	e0bff90f 	ldh	r2,-28(fp)
    5674:	e13ffc04 	addi	r4,fp,-16
    5678:	d8c00015 	stw	r3,0(sp)
    567c:	d8800115 	stw	r2,4(sp)
    5680:	e17ff117 	ldw	r5,-60(fp)
    5684:	0004ee40 	call	4ee4 <showTextOrIcon>
    5688:	10803fcc 	andi	r2,r2,255
    568c:	10000226 	beq	r2,zero,5698 <showTagBlock+0x580>
    5690:	00800044 	movi	r2,1
    5694:	00000106 	br	569c <showTagBlock+0x584>
    5698:	0005883a 	mov	r2,zero
    569c:	e0bff005 	stb	r2,-64(fp)
    56a0:	e0bff003 	ldbu	r2,-64(fp)
    56a4:	1080004c 	andi	r2,r2,1
    56a8:	e0bff005 	stb	r2,-64(fp)
			}
			//如果文本区下方有余留空间，就填充背景颜色
			short objAreaYdiff = objAbsPos.y_max - objAbsPos.y_min + 1 - objYSize;
    56ac:	e0bffd8b 	ldhu	r2,-10(fp)
    56b0:	1007883a 	mov	r3,r2
    56b4:	e0bffd0b 	ldhu	r2,-12(fp)
    56b8:	1885c83a 	sub	r2,r3,r2
    56bc:	1007883a 	mov	r3,r2
    56c0:	e0bff90b 	ldhu	r2,-28(fp)
    56c4:	1885c83a 	sub	r2,r3,r2
    56c8:	10800044 	addi	r2,r2,1
    56cc:	e0bff98d 	sth	r2,-26(fp)
			if ( objAreaYdiff > 0 )
    56d0:	e0bff98f 	ldh	r2,-26(fp)
    56d4:	0080290e 	bge	zero,r2,577c <showTagBlock+0x664>
			{
				objAbsPos.x_min = textAbsPos.x_min;
    56d8:	e0bffa0b 	ldhu	r2,-24(fp)
    56dc:	e0bffc0d 	sth	r2,-16(fp)
				objAbsPos.x_max = textAbsPos.x_max;
    56e0:	e0bffa8b 	ldhu	r2,-22(fp)
    56e4:	e0bffc8d 	sth	r2,-14(fp)
				objAbsPos.y_min = textAbsPos.y_max - objAreaYdiff + 1;
    56e8:	e0bffb8b 	ldhu	r2,-18(fp)
    56ec:	1007883a 	mov	r3,r2
    56f0:	e0bff98b 	ldhu	r2,-26(fp)
    56f4:	1885c83a 	sub	r2,r3,r2
    56f8:	10800044 	addi	r2,r2,1
    56fc:	e0bffd0d 	sth	r2,-12(fp)
				objAbsPos.y_max = textAbsPos.y_max;
    5700:	e0bffb8b 	ldhu	r2,-18(fp)
    5704:	e0bffd8d 	sth	r2,-10(fp)
				status = status && showTextOrIcon( &objAbsPos, NULL, bkgColor, objColor, objAbsPos.x_max - objAbsPos.x_min + 1, objAreaYdiff );
    5708:	e0bff003 	ldbu	r2,-64(fp)
    570c:	10001626 	beq	r2,zero,5768 <showTagBlock+0x650>
    5710:	e0bff80b 	ldhu	r2,-32(fp)
    5714:	11bfffcc 	andi	r6,r2,65535
    5718:	e0bff88b 	ldhu	r2,-30(fp)
    571c:	11ffffcc 	andi	r7,r2,65535
    5720:	e0bffc8b 	ldhu	r2,-14(fp)
    5724:	1007883a 	mov	r3,r2
    5728:	e0bffc0b 	ldhu	r2,-16(fp)
    572c:	1885c83a 	sub	r2,r3,r2
    5730:	10800044 	addi	r2,r2,1
    5734:	10ffffcc 	andi	r3,r2,65535
    5738:	18e0001c 	xori	r3,r3,32768
    573c:	18e00004 	addi	r3,r3,-32768
    5740:	e0bff98f 	ldh	r2,-26(fp)
    5744:	e13ffc04 	addi	r4,fp,-16
    5748:	d8c00015 	stw	r3,0(sp)
    574c:	d8800115 	stw	r2,4(sp)
    5750:	000b883a 	mov	r5,zero
    5754:	0004ee40 	call	4ee4 <showTextOrIcon>
    5758:	10803fcc 	andi	r2,r2,255
    575c:	10000226 	beq	r2,zero,5768 <showTagBlock+0x650>
    5760:	00800044 	movi	r2,1
    5764:	00000106 	br	576c <showTagBlock+0x654>
    5768:	0005883a 	mov	r2,zero
    576c:	e0bff005 	stb	r2,-64(fp)
    5770:	e0bff003 	ldbu	r2,-64(fp)
    5774:	1080004c 	andi	r2,r2,1
    5778:	e0bff005 	stb	r2,-64(fp)
			}
		}
		free(strType);
    577c:	e13ff517 	ldw	r4,-44(fp)
    5780:	0008a6c0 	call	8a6c <free>
    5784:	00001206 	br	57d0 <showTagBlock+0x6b8>
	}
	else//中间的icon不需要显示
	{
		//只处理背景与边界颜色
		status = status && showBkgAndBorder( &(tagPtr->tagColorInfo), absPos, NULL, 0 );
    5788:	e0bff003 	ldbu	r2,-64(fp)
    578c:	10000b26 	beq	r2,zero,57bc <showTagBlock+0x6a4>
    5790:	e0bffe17 	ldw	r2,-8(fp)
    5794:	10800204 	addi	r2,r2,8
    5798:	1009883a 	mov	r4,r2
    579c:	e17fff17 	ldw	r5,-4(fp)
    57a0:	000d883a 	mov	r6,zero
    57a4:	000f883a 	mov	r7,zero
    57a8:	0004b240 	call	4b24 <showBkgAndBorder>
    57ac:	10803fcc 	andi	r2,r2,255
    57b0:	10000226 	beq	r2,zero,57bc <showTagBlock+0x6a4>
    57b4:	00800044 	movi	r2,1
    57b8:	00000106 	br	57c0 <showTagBlock+0x6a8>
    57bc:	0005883a 	mov	r2,zero
    57c0:	e0bff005 	stb	r2,-64(fp)
    57c4:	e0bff003 	ldbu	r2,-64(fp)
    57c8:	1080004c 	andi	r2,r2,1
    57cc:	e0bff005 	stb	r2,-64(fp)
	}

	return status;
    57d0:	e0bff003 	ldbu	r2,-64(fp)
}
    57d4:	e037883a 	mov	sp,fp
    57d8:	dfc00117 	ldw	ra,4(sp)
    57dc:	df000017 	ldw	fp,0(sp)
    57e0:	dec00204 	addi	sp,sp,8
    57e4:	f800283a 	ret

000057e8 <showTagWithYOffset>:

//显示TagBlock(带纵向基区上偏移)
bool showTagWithYOffset( const TagBlock *tagPtr, const AreaRange *absPos, const short yOffset )
{
    57e8:	deffe304 	addi	sp,sp,-116
    57ec:	dfc01c15 	stw	ra,112(sp)
    57f0:	df001b15 	stw	fp,108(sp)
    57f4:	df001b04 	addi	fp,sp,108
    57f8:	e13ffd15 	stw	r4,-12(fp)
    57fc:	e17ffe15 	stw	r5,-8(fp)
    5800:	3005883a 	mov	r2,r6
    5804:	e0bfff0d 	sth	r2,-4(fp)
	bool status = true;
    5808:	00800044 	movi	r2,1
    580c:	e0bfe705 	stb	r2,-100(fp)

	//显示TagBlock的背景与边界
	bool textVisible = (tagPtr->tagColorInfo).objVisible;
    5810:	e0bffd17 	ldw	r2,-12(fp)
    5814:	108003c3 	ldbu	r2,15(r2)
    5818:	e0bfec05 	stb	r2,-80(fp)


	short wordPicPtrOffset = 0;
    581c:	e03fe78d 	sth	zero,-98(fp)
	short letterPicPtrOffset = 0;
    5820:	e03fe80d 	sth	zero,-96(fp)
	short diffY = 0;//文本区域纵向削减的高度
    5824:	e03fec8d 	sth	zero,-78(fp)

	if ( yOffset >= (tagPtr->textArea).y_min )
    5828:	e0bffd17 	ldw	r2,-12(fp)
    582c:	1080010b 	ldhu	r2,4(r2)
    5830:	10bfffcc 	andi	r2,r2,65535
    5834:	10a0001c 	xori	r2,r2,32768
    5838:	10a00004 	addi	r2,r2,-32768
    583c:	e0ffff0f 	ldh	r3,-4(fp)
    5840:	18801e16 	blt	r3,r2,58bc <showTagWithYOffset+0xd4>
	{
		short diffY = yOffset - (tagPtr->textArea).y_min + 1;
    5844:	e0bfff0b 	ldhu	r2,-4(fp)
    5848:	e0fffd17 	ldw	r3,-12(fp)
    584c:	18c0010b 	ldhu	r3,4(r3)
    5850:	10c5c83a 	sub	r2,r2,r3
    5854:	10800044 	addi	r2,r2,1
    5858:	e0bfed0d 	sth	r2,-76(fp)
		short objXByte = ((tagPtr->wordXSize)+7)>>3;//除8，向上取整
    585c:	e0bffd17 	ldw	r2,-12(fp)
    5860:	1080058b 	ldhu	r2,22(r2)
    5864:	10bfffcc 	andi	r2,r2,65535
    5868:	10a0001c 	xori	r2,r2,32768
    586c:	10a00004 	addi	r2,r2,-32768
    5870:	108001c4 	addi	r2,r2,7
    5874:	1005d0fa 	srai	r2,r2,3
    5878:	e0bfed8d 	sth	r2,-74(fp)
		wordPicPtrOffset = diffY * objXByte;
    587c:	e0ffed0b 	ldhu	r3,-76(fp)
    5880:	e0bfed8b 	ldhu	r2,-74(fp)
    5884:	1885383a 	mul	r2,r3,r2
    5888:	e0bfe78d 	sth	r2,-98(fp)
		objXByte = ((tagPtr->letterXSize)+7)>>3;//除8，向上取整
    588c:	e0bffd17 	ldw	r2,-12(fp)
    5890:	1080060b 	ldhu	r2,24(r2)
    5894:	10bfffcc 	andi	r2,r2,65535
    5898:	10a0001c 	xori	r2,r2,32768
    589c:	10a00004 	addi	r2,r2,-32768
    58a0:	108001c4 	addi	r2,r2,7
    58a4:	1005d0fa 	srai	r2,r2,3
    58a8:	e0bfed8d 	sth	r2,-74(fp)
		letterPicPtrOffset = diffY * objXByte;
    58ac:	e0ffed0b 	ldhu	r3,-76(fp)
    58b0:	e0bfed8b 	ldhu	r2,-74(fp)
    58b4:	1885383a 	mul	r2,r3,r2
    58b8:	e0bfe80d 	sth	r2,-96(fp)
	}

	//absPos被yOffset削减后的区域
	AreaRange absNewPos = *absPos;
    58bc:	e0bffe17 	ldw	r2,-8(fp)
    58c0:	10c0000b 	ldhu	r3,0(r2)
    58c4:	e0fff30d 	sth	r3,-52(fp)
    58c8:	10c0008b 	ldhu	r3,2(r2)
    58cc:	e0fff38d 	sth	r3,-50(fp)
    58d0:	10c0010b 	ldhu	r3,4(r2)
    58d4:	e0fff40d 	sth	r3,-48(fp)
    58d8:	1080018b 	ldhu	r2,6(r2)
    58dc:	e0bff48d 	sth	r2,-46(fp)
	absNewPos.y_min += yOffset;
    58e0:	e0bff40b 	ldhu	r2,-48(fp)
    58e4:	1007883a 	mov	r3,r2
    58e8:	e0bfff0b 	ldhu	r2,-4(fp)
    58ec:	1885883a 	add	r2,r3,r2
    58f0:	e0bff40d 	sth	r2,-48(fp)

	if ( textVisible )//中间的文本需要显示
    58f4:	e0bfec03 	ldbu	r2,-80(fp)
    58f8:	1001b826 	beq	r2,zero,5fdc <showTagWithYOffset+0x7f4>
	{
		//处理背景与边界（挖掉text显示区）
		status = status && showBkgAndBorder( &(tagPtr->tagColorInfo), &absNewPos, &(tagPtr->textArea), 1 );
    58fc:	e0bfe703 	ldbu	r2,-100(fp)
    5900:	10000c26 	beq	r2,zero,5934 <showTagWithYOffset+0x14c>
    5904:	e0bffd17 	ldw	r2,-12(fp)
    5908:	11000204 	addi	r4,r2,8
    590c:	e0bffd17 	ldw	r2,-12(fp)
    5910:	e0fff304 	addi	r3,fp,-52
    5914:	180b883a 	mov	r5,r3
    5918:	100d883a 	mov	r6,r2
    591c:	01c00044 	movi	r7,1
    5920:	0004b240 	call	4b24 <showBkgAndBorder>
    5924:	10803fcc 	andi	r2,r2,255
    5928:	10000226 	beq	r2,zero,5934 <showTagWithYOffset+0x14c>
    592c:	00800044 	movi	r2,1
    5930:	00000106 	br	5938 <showTagWithYOffset+0x150>
    5934:	0005883a 	mov	r2,zero
    5938:	e0bfe705 	stb	r2,-100(fp)
    593c:	e0bfe703 	ldbu	r2,-100(fp)
    5940:	1080004c 	andi	r2,r2,1
    5944:	e0bfe705 	stb	r2,-100(fp)
		//用背景颜色覆盖掉上边界颜色
		if ( (tagPtr->tagColorInfo).borderVisible && yOffset > 0 )
    5948:	e0bffd17 	ldw	r2,-12(fp)
    594c:	10800383 	ldbu	r2,14(r2)
    5950:	10803fcc 	andi	r2,r2,255
    5954:	10001c26 	beq	r2,zero,59c8 <showTagWithYOffset+0x1e0>
    5958:	e0bfff0f 	ldh	r2,-4(fp)
    595c:	00801a0e 	bge	zero,r2,59c8 <showTagWithYOffset+0x1e0>
		{
			AreaRange borderPos;
			borderPos.x_min = absNewPos.x_min;
    5960:	e0bff30b 	ldhu	r2,-52(fp)
    5964:	e0bff90d 	sth	r2,-28(fp)
			borderPos.x_max = absNewPos.x_max;
    5968:	e0bff38b 	ldhu	r2,-50(fp)
    596c:	e0bff98d 	sth	r2,-26(fp)
			borderPos.y_min = borderPos.y_max = absNewPos.y_min;
    5970:	e0bff40b 	ldhu	r2,-48(fp)
    5974:	e0bffa8d 	sth	r2,-22(fp)
    5978:	e0bffa8b 	ldhu	r2,-22(fp)
    597c:	e0bffa0d 	sth	r2,-24(fp)
			status = status && showBorder( &borderPos, (tagPtr->tagColorInfo).bkgColor );
    5980:	e0bfe703 	ldbu	r2,-100(fp)
    5984:	10000b26 	beq	r2,zero,59b4 <showTagWithYOffset+0x1cc>
    5988:	e0bffd17 	ldw	r2,-12(fp)
    598c:	1080028b 	ldhu	r2,10(r2)
    5990:	10bfffcc 	andi	r2,r2,65535
    5994:	e0fff904 	addi	r3,fp,-28
    5998:	1809883a 	mov	r4,r3
    599c:	100b883a 	mov	r5,r2
    59a0:	00048600 	call	4860 <showBorder>
    59a4:	10803fcc 	andi	r2,r2,255
    59a8:	10000226 	beq	r2,zero,59b4 <showTagWithYOffset+0x1cc>
    59ac:	00800044 	movi	r2,1
    59b0:	00000106 	br	59b8 <showTagWithYOffset+0x1d0>
    59b4:	0005883a 	mov	r2,zero
    59b8:	e0bfe705 	stb	r2,-100(fp)
    59bc:	e0bfe703 	ldbu	r2,-100(fp)
    59c0:	1080004c 	andi	r2,r2,1
    59c4:	e0bfe705 	stb	r2,-100(fp)

		//显示中间的text

		AreaRange textAbsPos;//text的绝对位置
		//获取text的绝对位置
		getAbsPos( absPos, &(tagPtr->textArea), &textAbsPos );
    59c8:	e0fffd17 	ldw	r3,-12(fp)
    59cc:	e0bff504 	addi	r2,fp,-44
    59d0:	e13ffe17 	ldw	r4,-8(fp)
    59d4:	180b883a 	mov	r5,r3
    59d8:	100d883a 	mov	r6,r2
    59dc:	00045800 	call	4580 <getAbsPos>

		AreaRange objAbsPos;//字符的绝对位置

		objAbsPos.y_max = textAbsPos.y_max;
    59e0:	e0bff68b 	ldhu	r2,-38(fp)
    59e4:	e0bff88d 	sth	r2,-30(fp)
		objAbsPos.y_min = textAbsPos.y_min + diffY;
    59e8:	e0bff60b 	ldhu	r2,-40(fp)
    59ec:	1007883a 	mov	r3,r2
    59f0:	e0bfec8b 	ldhu	r2,-78(fp)
    59f4:	1885883a 	add	r2,r3,r2
    59f8:	e0bff80d 	sth	r2,-32(fp)
		objAbsPos.x_min = textAbsPos.x_min;
    59fc:	e0bff50b 	ldhu	r2,-44(fp)
    5a00:	e0bff70d 	sth	r2,-36(fp)

		//获取文本中汉字与字母的分布表(中文"c",英文"e",结束标志0)(返回动态字符串，记得用完了要free掉)
		char *strType = getWordLetterArrange( (tagPtr->tagText).text, (tagPtr->tagText).textLen );
    5a04:	e0bffd17 	ldw	r2,-12(fp)
    5a08:	10c00717 	ldw	r3,28(r2)
    5a0c:	e0bffd17 	ldw	r2,-12(fp)
    5a10:	1080080b 	ldhu	r2,32(r2)
    5a14:	10bfffcc 	andi	r2,r2,65535
    5a18:	10a0001c 	xori	r2,r2,32768
    5a1c:	10a00004 	addi	r2,r2,-32768
    5a20:	1809883a 	mov	r4,r3
    5a24:	100b883a 	mov	r5,r2
    5a28:	00014ec0 	call	14ec <getWordLetterArrange>
    5a2c:	e0bfee15 	stw	r2,-72(fp)
		//显示第一个字符
		if ( strType == NULL || strType[0] == 0 )
    5a30:	e0bfee17 	ldw	r2,-72(fp)
    5a34:	10000626 	beq	r2,zero,5a50 <showTagWithYOffset+0x268>
    5a38:	e0bfee17 	ldw	r2,-72(fp)
    5a3c:	10800003 	ldbu	r2,0(r2)
    5a40:	10803fcc 	andi	r2,r2,255
    5a44:	1080201c 	xori	r2,r2,128
    5a48:	10bfe004 	addi	r2,r2,-128
    5a4c:	1000031e 	bne	r2,zero,5a5c <showTagWithYOffset+0x274>
		{
			free(strType);
    5a50:	e13fee17 	ldw	r4,-72(fp)
    5a54:	0008a6c0 	call	8a6c <free>
    5a58:	00015d06 	br	5fd0 <showTagWithYOffset+0x7e8>
		}
		else
		{
			short textLen = (tagPtr->tagText).textLen;
    5a5c:	e0bffd17 	ldw	r2,-12(fp)
    5a60:	1080080b 	ldhu	r2,32(r2)
    5a64:	e0bfef0d 	sth	r2,-68(fp)
			char *text = (tagPtr->tagText).text;
    5a68:	e0bffd17 	ldw	r2,-12(fp)
    5a6c:	10800717 	ldw	r2,28(r2)
    5a70:	e0bff015 	stw	r2,-64(fp)
			short textIndex = 0;
    5a74:	e03fe88d 	sth	zero,-94(fp)

			short bkgColor = (tagPtr->tagColorInfo).bkgColor;
    5a78:	e0bffd17 	ldw	r2,-12(fp)
    5a7c:	1080028b 	ldhu	r2,10(r2)
    5a80:	e0bff10d 	sth	r2,-60(fp)
			short objColor =  (tagPtr->tagColorInfo).objColor;
    5a84:	e0bffd17 	ldw	r2,-12(fp)
    5a88:	1080030b 	ldhu	r2,12(r2)
    5a8c:	e0bff18d 	sth	r2,-58(fp)

			short objYSize = tagPtr->objYSize;
    5a90:	e0bffd17 	ldw	r2,-12(fp)
    5a94:	1080068b 	ldhu	r2,26(r2)
    5a98:	e0bff20d 	sth	r2,-56(fp)
			alt_u8 *objPicPtr;


			short objXSize;

			if ( strType[0] == 'e' )
    5a9c:	e0bfee17 	ldw	r2,-72(fp)
    5aa0:	10800003 	ldbu	r2,0(r2)
    5aa4:	10803fcc 	andi	r2,r2,255
    5aa8:	1080201c 	xori	r2,r2,128
    5aac:	10bfe004 	addi	r2,r2,-128
    5ab0:	10801958 	cmpnei	r2,r2,101
    5ab4:	10000f1e 	bne	r2,zero,5af4 <showTagWithYOffset+0x30c>
			{
				objXSize = tagPtr->letterXSize;
    5ab8:	e0bffd17 	ldw	r2,-12(fp)
    5abc:	1080060b 	ldhu	r2,24(r2)
    5ac0:	e0bfea0d 	sth	r2,-88(fp)
				objPicPtr = getAsciiFont( text[0] ) + letterPicPtrOffset;
    5ac4:	e0bff017 	ldw	r2,-64(fp)
    5ac8:	10800003 	ldbu	r2,0(r2)
    5acc:	10803fcc 	andi	r2,r2,255
    5ad0:	1080201c 	xori	r2,r2,128
    5ad4:	10bfe004 	addi	r2,r2,-128
    5ad8:	1009883a 	mov	r4,r2
    5adc:	00002900 	call	290 <getAsciiFont>
    5ae0:	1007883a 	mov	r3,r2
    5ae4:	e0bfe80f 	ldh	r2,-96(fp)
    5ae8:	1885883a 	add	r2,r3,r2
    5aec:	e0bfe915 	stw	r2,-92(fp)
    5af0:	00001106 	br	5b38 <showTagWithYOffset+0x350>
			}
			else
			{
				objXSize = tagPtr->wordXSize;
    5af4:	e0bffd17 	ldw	r2,-12(fp)
    5af8:	1080058b 	ldhu	r2,22(r2)
    5afc:	e0bfea0d 	sth	r2,-88(fp)
				objPicPtr = getGbkFont( text[0], text[1] ) + wordPicPtrOffset;
    5b00:	e0bff017 	ldw	r2,-64(fp)
    5b04:	10800003 	ldbu	r2,0(r2)
    5b08:	10c03fcc 	andi	r3,r2,255
    5b0c:	e0bff017 	ldw	r2,-64(fp)
    5b10:	10800044 	addi	r2,r2,1
    5b14:	10800003 	ldbu	r2,0(r2)
    5b18:	10803fcc 	andi	r2,r2,255
    5b1c:	1809883a 	mov	r4,r3
    5b20:	100b883a 	mov	r5,r2
    5b24:	00002dc0 	call	2dc <getGbkFont>
    5b28:	1007883a 	mov	r3,r2
    5b2c:	e0bfe78f 	ldh	r2,-98(fp)
    5b30:	1885883a 	add	r2,r3,r2
    5b34:	e0bfe915 	stw	r2,-92(fp)
			}
			objAbsPos.x_max = objAbsPos.x_min - 1 + objXSize;
    5b38:	e0bff70b 	ldhu	r2,-36(fp)
    5b3c:	1007883a 	mov	r3,r2
    5b40:	e0bfea0b 	ldhu	r2,-88(fp)
    5b44:	1885883a 	add	r2,r3,r2
    5b48:	10bfffc4 	addi	r2,r2,-1
    5b4c:	e0bff78d 	sth	r2,-34(fp)
			status = status && showTextOrIcon( &objAbsPos, objPicPtr, bkgColor, objColor, objXSize, objYSize );
    5b50:	e0bfe703 	ldbu	r2,-100(fp)
    5b54:	10000f26 	beq	r2,zero,5b94 <showTagWithYOffset+0x3ac>
    5b58:	e0bff10b 	ldhu	r2,-60(fp)
    5b5c:	11bfffcc 	andi	r6,r2,65535
    5b60:	e0bff18b 	ldhu	r2,-58(fp)
    5b64:	11ffffcc 	andi	r7,r2,65535
    5b68:	e0ffea0f 	ldh	r3,-88(fp)
    5b6c:	e0bff20f 	ldh	r2,-56(fp)
    5b70:	e13ff704 	addi	r4,fp,-36
    5b74:	d8c00015 	stw	r3,0(sp)
    5b78:	d8800115 	stw	r2,4(sp)
    5b7c:	e17fe917 	ldw	r5,-92(fp)
    5b80:	0004ee40 	call	4ee4 <showTextOrIcon>
    5b84:	10803fcc 	andi	r2,r2,255
    5b88:	10000226 	beq	r2,zero,5b94 <showTagWithYOffset+0x3ac>
    5b8c:	00800044 	movi	r2,1
    5b90:	00000106 	br	5b98 <showTagWithYOffset+0x3b0>
    5b94:	0005883a 	mov	r2,zero
    5b98:	e0bfe705 	stb	r2,-100(fp)
    5b9c:	e0bfe703 	ldbu	r2,-100(fp)
    5ba0:	1080004c 	andi	r2,r2,1
    5ba4:	e0bfe705 	stb	r2,-100(fp)

			int i;

			for ( i = 1; strType[i] != 0 && textIndex < textLen; i ++ )
    5ba8:	00800044 	movi	r2,1
    5bac:	e0bfeb15 	stw	r2,-84(fp)
    5bb0:	00009d06 	br	5e28 <showTagWithYOffset+0x640>
			{
				//显示间隔
				objAbsPos.x_min = objAbsPos.x_max + 1;
    5bb4:	e0bff78b 	ldhu	r2,-34(fp)
    5bb8:	10800044 	addi	r2,r2,1
    5bbc:	e0bff70d 	sth	r2,-36(fp)
				if( objAbsPos.x_min > textAbsPos.x_max )//超出文本显示右边界
    5bc0:	e0bff70b 	ldhu	r2,-36(fp)
    5bc4:	e0fff58b 	ldhu	r3,-42(fp)
    5bc8:	10bfffcc 	andi	r2,r2,65535
    5bcc:	10a0001c 	xori	r2,r2,32768
    5bd0:	10a00004 	addi	r2,r2,-32768
    5bd4:	18ffffcc 	andi	r3,r3,65535
    5bd8:	18e0001c 	xori	r3,r3,32768
    5bdc:	18e00004 	addi	r3,r3,-32768
    5be0:	1880010e 	bge	r3,r2,5be8 <showTagWithYOffset+0x400>
				{
					break;
    5be4:	00009b06 	br	5e54 <showTagWithYOffset+0x66c>
				}
				if( strType[i] == 'e' && strType[i-1] == 'e' )//当前字符为英文字母&&前一个为英文字母
    5be8:	e0bfeb17 	ldw	r2,-84(fp)
    5bec:	e0ffee17 	ldw	r3,-72(fp)
    5bf0:	1885883a 	add	r2,r3,r2
    5bf4:	10800003 	ldbu	r2,0(r2)
    5bf8:	10803fcc 	andi	r2,r2,255
    5bfc:	1080201c 	xori	r2,r2,128
    5c00:	10bfe004 	addi	r2,r2,-128
    5c04:	10801958 	cmpnei	r2,r2,101
    5c08:	10000e1e 	bne	r2,zero,5c44 <showTagWithYOffset+0x45c>
    5c0c:	e0bfeb17 	ldw	r2,-84(fp)
    5c10:	10bfffc4 	addi	r2,r2,-1
    5c14:	e0ffee17 	ldw	r3,-72(fp)
    5c18:	1885883a 	add	r2,r3,r2
    5c1c:	10800003 	ldbu	r2,0(r2)
    5c20:	10803fcc 	andi	r2,r2,255
    5c24:	1080201c 	xori	r2,r2,128
    5c28:	10bfe004 	addi	r2,r2,-128
    5c2c:	10801958 	cmpnei	r2,r2,101
    5c30:	1000041e 	bne	r2,zero,5c44 <showTagWithYOffset+0x45c>
				{
					objXSize = tagPtr->letterSpacing;
    5c34:	e0bffd17 	ldw	r2,-12(fp)
    5c38:	1080048b 	ldhu	r2,18(r2)
    5c3c:	e0bfea0d 	sth	r2,-88(fp)
    5c40:	00000306 	br	5c50 <showTagWithYOffset+0x468>
				}
				else
				{
					objXSize = tagPtr->wordSpacing;
    5c44:	e0bffd17 	ldw	r2,-12(fp)
    5c48:	1080040b 	ldhu	r2,16(r2)
    5c4c:	e0bfea0d 	sth	r2,-88(fp)
				}
				objAbsPos.x_max = objAbsPos.x_min - 1 + objXSize;
    5c50:	e0bff70b 	ldhu	r2,-36(fp)
    5c54:	1007883a 	mov	r3,r2
    5c58:	e0bfea0b 	ldhu	r2,-88(fp)
    5c5c:	1885883a 	add	r2,r3,r2
    5c60:	10bfffc4 	addi	r2,r2,-1
    5c64:	e0bff78d 	sth	r2,-34(fp)


				status = status && showTextOrIcon( &objAbsPos, NULL, bkgColor, objColor, objXSize, objYSize );
    5c68:	e0bfe703 	ldbu	r2,-100(fp)
    5c6c:	10000f26 	beq	r2,zero,5cac <showTagWithYOffset+0x4c4>
    5c70:	e0bff10b 	ldhu	r2,-60(fp)
    5c74:	11bfffcc 	andi	r6,r2,65535
    5c78:	e0bff18b 	ldhu	r2,-58(fp)
    5c7c:	11ffffcc 	andi	r7,r2,65535
    5c80:	e0ffea0f 	ldh	r3,-88(fp)
    5c84:	e0bff20f 	ldh	r2,-56(fp)
    5c88:	e13ff704 	addi	r4,fp,-36
    5c8c:	d8c00015 	stw	r3,0(sp)
    5c90:	d8800115 	stw	r2,4(sp)
    5c94:	000b883a 	mov	r5,zero
    5c98:	0004ee40 	call	4ee4 <showTextOrIcon>
    5c9c:	10803fcc 	andi	r2,r2,255
    5ca0:	10000226 	beq	r2,zero,5cac <showTagWithYOffset+0x4c4>
    5ca4:	00800044 	movi	r2,1
    5ca8:	00000106 	br	5cb0 <showTagWithYOffset+0x4c8>
    5cac:	0005883a 	mov	r2,zero
    5cb0:	e0bfe705 	stb	r2,-100(fp)
    5cb4:	e0bfe703 	ldbu	r2,-100(fp)
    5cb8:	1080004c 	andi	r2,r2,1
    5cbc:	e0bfe705 	stb	r2,-100(fp)

				//显示文本
				objAbsPos.x_min = objAbsPos.x_max + 1;
    5cc0:	e0bff78b 	ldhu	r2,-34(fp)
    5cc4:	10800044 	addi	r2,r2,1
    5cc8:	e0bff70d 	sth	r2,-36(fp)
				if( objAbsPos.x_min > textAbsPos.x_max )//超出文本显示右边界
    5ccc:	e0bff70b 	ldhu	r2,-36(fp)
    5cd0:	e0fff58b 	ldhu	r3,-42(fp)
    5cd4:	10bfffcc 	andi	r2,r2,65535
    5cd8:	10a0001c 	xori	r2,r2,32768
    5cdc:	10a00004 	addi	r2,r2,-32768
    5ce0:	18ffffcc 	andi	r3,r3,65535
    5ce4:	18e0001c 	xori	r3,r3,32768
    5ce8:	18e00004 	addi	r3,r3,-32768
    5cec:	1880010e 	bge	r3,r2,5cf4 <showTagWithYOffset+0x50c>
				{
					break;
    5cf0:	00005806 	br	5e54 <showTagWithYOffset+0x66c>
				}
				if( strType[i] == 'e' )//当前字符为英文字母
    5cf4:	e0bfeb17 	ldw	r2,-84(fp)
    5cf8:	e0ffee17 	ldw	r3,-72(fp)
    5cfc:	1885883a 	add	r2,r3,r2
    5d00:	10800003 	ldbu	r2,0(r2)
    5d04:	10803fcc 	andi	r2,r2,255
    5d08:	1080201c 	xori	r2,r2,128
    5d0c:	10bfe004 	addi	r2,r2,-128
    5d10:	10801958 	cmpnei	r2,r2,101
    5d14:	1000111e 	bne	r2,zero,5d5c <showTagWithYOffset+0x574>
				{
					objXSize = tagPtr->letterXSize;
    5d18:	e0bffd17 	ldw	r2,-12(fp)
    5d1c:	1080060b 	ldhu	r2,24(r2)
    5d20:	e0bfea0d 	sth	r2,-88(fp)
					objPicPtr = getAsciiFont( text[textIndex] );
    5d24:	e0bfe88f 	ldh	r2,-94(fp)
    5d28:	e0fff017 	ldw	r3,-64(fp)
    5d2c:	1885883a 	add	r2,r3,r2
    5d30:	10800003 	ldbu	r2,0(r2)
    5d34:	10803fcc 	andi	r2,r2,255
    5d38:	1080201c 	xori	r2,r2,128
    5d3c:	10bfe004 	addi	r2,r2,-128
    5d40:	1009883a 	mov	r4,r2
    5d44:	00002900 	call	290 <getAsciiFont>
    5d48:	e0bfe915 	stw	r2,-92(fp)
					textIndex += 1;
    5d4c:	e0bfe88b 	ldhu	r2,-94(fp)
    5d50:	10800044 	addi	r2,r2,1
    5d54:	e0bfe88d 	sth	r2,-94(fp)
    5d58:	00001406 	br	5dac <showTagWithYOffset+0x5c4>
				}
				else
				{
					objXSize = tagPtr->wordXSize;
    5d5c:	e0bffd17 	ldw	r2,-12(fp)
    5d60:	1080058b 	ldhu	r2,22(r2)
    5d64:	e0bfea0d 	sth	r2,-88(fp)
					objPicPtr = getGbkFont( text[textIndex], text[textIndex+1] );
    5d68:	e0bfe88f 	ldh	r2,-94(fp)
    5d6c:	e0fff017 	ldw	r3,-64(fp)
    5d70:	1885883a 	add	r2,r3,r2
    5d74:	10800003 	ldbu	r2,0(r2)
    5d78:	11003fcc 	andi	r4,r2,255
    5d7c:	e0bfe88f 	ldh	r2,-94(fp)
    5d80:	10800044 	addi	r2,r2,1
    5d84:	e0fff017 	ldw	r3,-64(fp)
    5d88:	1885883a 	add	r2,r3,r2
    5d8c:	10800003 	ldbu	r2,0(r2)
    5d90:	10803fcc 	andi	r2,r2,255
    5d94:	100b883a 	mov	r5,r2
    5d98:	00002dc0 	call	2dc <getGbkFont>
    5d9c:	e0bfe915 	stw	r2,-92(fp)
					textIndex += 2;
    5da0:	e0bfe88b 	ldhu	r2,-94(fp)
    5da4:	10800084 	addi	r2,r2,2
    5da8:	e0bfe88d 	sth	r2,-94(fp)
				}
				objAbsPos.x_max = objAbsPos.x_min - 1 + objXSize;
    5dac:	e0bff70b 	ldhu	r2,-36(fp)
    5db0:	1007883a 	mov	r3,r2
    5db4:	e0bfea0b 	ldhu	r2,-88(fp)
    5db8:	1885883a 	add	r2,r3,r2
    5dbc:	10bfffc4 	addi	r2,r2,-1
    5dc0:	e0bff78d 	sth	r2,-34(fp)

				status = status && showTextOrIcon( &objAbsPos, objPicPtr, bkgColor, objColor, objXSize, objYSize );
    5dc4:	e0bfe703 	ldbu	r2,-100(fp)
    5dc8:	10000f26 	beq	r2,zero,5e08 <showTagWithYOffset+0x620>
    5dcc:	e0bff10b 	ldhu	r2,-60(fp)
    5dd0:	11bfffcc 	andi	r6,r2,65535
    5dd4:	e0bff18b 	ldhu	r2,-58(fp)
    5dd8:	11ffffcc 	andi	r7,r2,65535
    5ddc:	e0ffea0f 	ldh	r3,-88(fp)
    5de0:	e0bff20f 	ldh	r2,-56(fp)
    5de4:	e13ff704 	addi	r4,fp,-36
    5de8:	d8c00015 	stw	r3,0(sp)
    5dec:	d8800115 	stw	r2,4(sp)
    5df0:	e17fe917 	ldw	r5,-92(fp)
    5df4:	0004ee40 	call	4ee4 <showTextOrIcon>
    5df8:	10803fcc 	andi	r2,r2,255
    5dfc:	10000226 	beq	r2,zero,5e08 <showTagWithYOffset+0x620>
    5e00:	00800044 	movi	r2,1
    5e04:	00000106 	br	5e0c <showTagWithYOffset+0x624>
    5e08:	0005883a 	mov	r2,zero
    5e0c:	e0bfe705 	stb	r2,-100(fp)
    5e10:	e0bfe703 	ldbu	r2,-100(fp)
    5e14:	1080004c 	andi	r2,r2,1
    5e18:	e0bfe705 	stb	r2,-100(fp)
			objAbsPos.x_max = objAbsPos.x_min - 1 + objXSize;
			status = status && showTextOrIcon( &objAbsPos, objPicPtr, bkgColor, objColor, objXSize, objYSize );

			int i;

			for ( i = 1; strType[i] != 0 && textIndex < textLen; i ++ )
    5e1c:	e0bfeb17 	ldw	r2,-84(fp)
    5e20:	10800044 	addi	r2,r2,1
    5e24:	e0bfeb15 	stw	r2,-84(fp)
    5e28:	e0bfeb17 	ldw	r2,-84(fp)
    5e2c:	e0ffee17 	ldw	r3,-72(fp)
    5e30:	1885883a 	add	r2,r3,r2
    5e34:	10800003 	ldbu	r2,0(r2)
    5e38:	10803fcc 	andi	r2,r2,255
    5e3c:	1080201c 	xori	r2,r2,128
    5e40:	10bfe004 	addi	r2,r2,-128
    5e44:	10000326 	beq	r2,zero,5e54 <showTagWithYOffset+0x66c>
    5e48:	e0ffe88f 	ldh	r3,-94(fp)
    5e4c:	e0bfef0f 	ldh	r2,-68(fp)
    5e50:	18bf5816 	blt	r3,r2,5bb4 <__alt_data_end+0xf8005bb4>
				objAbsPos.x_max = objAbsPos.x_min - 1 + objXSize;

				status = status && showTextOrIcon( &objAbsPos, objPicPtr, bkgColor, objColor, objXSize, objYSize );
			}
			//如果文本区右边界还有余留空间，就填充背景颜色
			objAbsPos.x_min = objAbsPos.x_max + 1;
    5e54:	e0bff78b 	ldhu	r2,-34(fp)
    5e58:	10800044 	addi	r2,r2,1
    5e5c:	e0bff70d 	sth	r2,-36(fp)
			if ( objAbsPos.x_min <= textAbsPos.x_max )
    5e60:	e0bff70b 	ldhu	r2,-36(fp)
    5e64:	e0fff58b 	ldhu	r3,-42(fp)
    5e68:	10bfffcc 	andi	r2,r2,65535
    5e6c:	10a0001c 	xori	r2,r2,32768
    5e70:	10a00004 	addi	r2,r2,-32768
    5e74:	18ffffcc 	andi	r3,r3,65535
    5e78:	18e0001c 	xori	r3,r3,32768
    5e7c:	18e00004 	addi	r3,r3,-32768
    5e80:	18801f16 	blt	r3,r2,5f00 <showTagWithYOffset+0x718>
			{
				objAbsPos.x_max = textAbsPos.x_max;
    5e84:	e0bff58b 	ldhu	r2,-42(fp)
    5e88:	e0bff78d 	sth	r2,-34(fp)
				status = status && showTextOrIcon( &objAbsPos, objPicPtr, bkgColor, objColor, objAbsPos.x_max - objAbsPos.x_min + 1, objYSize );
    5e8c:	e0bfe703 	ldbu	r2,-100(fp)
    5e90:	10001626 	beq	r2,zero,5eec <showTagWithYOffset+0x704>
    5e94:	e0bff10b 	ldhu	r2,-60(fp)
    5e98:	11bfffcc 	andi	r6,r2,65535
    5e9c:	e0bff18b 	ldhu	r2,-58(fp)
    5ea0:	11ffffcc 	andi	r7,r2,65535
    5ea4:	e0bff78b 	ldhu	r2,-34(fp)
    5ea8:	1007883a 	mov	r3,r2
    5eac:	e0bff70b 	ldhu	r2,-36(fp)
    5eb0:	1885c83a 	sub	r2,r3,r2
    5eb4:	10800044 	addi	r2,r2,1
    5eb8:	10ffffcc 	andi	r3,r2,65535
    5ebc:	18e0001c 	xori	r3,r3,32768
    5ec0:	18e00004 	addi	r3,r3,-32768
    5ec4:	e0bff20f 	ldh	r2,-56(fp)
    5ec8:	e13ff704 	addi	r4,fp,-36
    5ecc:	d8c00015 	stw	r3,0(sp)
    5ed0:	d8800115 	stw	r2,4(sp)
    5ed4:	e17fe917 	ldw	r5,-92(fp)
    5ed8:	0004ee40 	call	4ee4 <showTextOrIcon>
    5edc:	10803fcc 	andi	r2,r2,255
    5ee0:	10000226 	beq	r2,zero,5eec <showTagWithYOffset+0x704>
    5ee4:	00800044 	movi	r2,1
    5ee8:	00000106 	br	5ef0 <showTagWithYOffset+0x708>
    5eec:	0005883a 	mov	r2,zero
    5ef0:	e0bfe705 	stb	r2,-100(fp)
    5ef4:	e0bfe703 	ldbu	r2,-100(fp)
    5ef8:	1080004c 	andi	r2,r2,1
    5efc:	e0bfe705 	stb	r2,-100(fp)
			}
			//如果文本区下方有余留空间，就填充背景颜色
			short objAreaYdiff = objAbsPos.y_max - objAbsPos.y_min + 1 - objYSize;
    5f00:	e0bff88b 	ldhu	r2,-30(fp)
    5f04:	1007883a 	mov	r3,r2
    5f08:	e0bff80b 	ldhu	r2,-32(fp)
    5f0c:	1885c83a 	sub	r2,r3,r2
    5f10:	1007883a 	mov	r3,r2
    5f14:	e0bff20b 	ldhu	r2,-56(fp)
    5f18:	1885c83a 	sub	r2,r3,r2
    5f1c:	10800044 	addi	r2,r2,1
    5f20:	e0bff28d 	sth	r2,-54(fp)
			if ( objAreaYdiff > 0 )
    5f24:	e0bff28f 	ldh	r2,-54(fp)
    5f28:	0080290e 	bge	zero,r2,5fd0 <showTagWithYOffset+0x7e8>
			{
				objAbsPos.x_min = textAbsPos.x_min;
    5f2c:	e0bff50b 	ldhu	r2,-44(fp)
    5f30:	e0bff70d 	sth	r2,-36(fp)
				objAbsPos.x_max = textAbsPos.x_max;
    5f34:	e0bff58b 	ldhu	r2,-42(fp)
    5f38:	e0bff78d 	sth	r2,-34(fp)
				objAbsPos.y_min = textAbsPos.y_max - objAreaYdiff + 1;
    5f3c:	e0bff68b 	ldhu	r2,-38(fp)
    5f40:	1007883a 	mov	r3,r2
    5f44:	e0bff28b 	ldhu	r2,-54(fp)
    5f48:	1885c83a 	sub	r2,r3,r2
    5f4c:	10800044 	addi	r2,r2,1
    5f50:	e0bff80d 	sth	r2,-32(fp)
				objAbsPos.y_max = textAbsPos.y_max;
    5f54:	e0bff68b 	ldhu	r2,-38(fp)
    5f58:	e0bff88d 	sth	r2,-30(fp)
				status = status && showTextOrIcon( &objAbsPos, NULL, bkgColor, objColor, objAbsPos.x_max - objAbsPos.x_min + 1, objAreaYdiff );
    5f5c:	e0bfe703 	ldbu	r2,-100(fp)
    5f60:	10001626 	beq	r2,zero,5fbc <showTagWithYOffset+0x7d4>
    5f64:	e0bff10b 	ldhu	r2,-60(fp)
    5f68:	11bfffcc 	andi	r6,r2,65535
    5f6c:	e0bff18b 	ldhu	r2,-58(fp)
    5f70:	11ffffcc 	andi	r7,r2,65535
    5f74:	e0bff78b 	ldhu	r2,-34(fp)
    5f78:	1007883a 	mov	r3,r2
    5f7c:	e0bff70b 	ldhu	r2,-36(fp)
    5f80:	1885c83a 	sub	r2,r3,r2
    5f84:	10800044 	addi	r2,r2,1
    5f88:	10ffffcc 	andi	r3,r2,65535
    5f8c:	18e0001c 	xori	r3,r3,32768
    5f90:	18e00004 	addi	r3,r3,-32768
    5f94:	e0bff28f 	ldh	r2,-54(fp)
    5f98:	e13ff704 	addi	r4,fp,-36
    5f9c:	d8c00015 	stw	r3,0(sp)
    5fa0:	d8800115 	stw	r2,4(sp)
    5fa4:	000b883a 	mov	r5,zero
    5fa8:	0004ee40 	call	4ee4 <showTextOrIcon>
    5fac:	10803fcc 	andi	r2,r2,255
    5fb0:	10000226 	beq	r2,zero,5fbc <showTagWithYOffset+0x7d4>
    5fb4:	00800044 	movi	r2,1
    5fb8:	00000106 	br	5fc0 <showTagWithYOffset+0x7d8>
    5fbc:	0005883a 	mov	r2,zero
    5fc0:	e0bfe705 	stb	r2,-100(fp)
    5fc4:	e0bfe703 	ldbu	r2,-100(fp)
    5fc8:	1080004c 	andi	r2,r2,1
    5fcc:	e0bfe705 	stb	r2,-100(fp)
			}
		}
		free(strType);
    5fd0:	e13fee17 	ldw	r4,-72(fp)
    5fd4:	0008a6c0 	call	8a6c <free>
    5fd8:	00003306 	br	60a8 <showTagWithYOffset+0x8c0>
	}
	else//中间的icon不需要显示
	{
		//只处理背景与边界颜色
		status = status && showBkgAndBorder( &(tagPtr->tagColorInfo), &absNewPos, NULL, 0 );
    5fdc:	e0bfe703 	ldbu	r2,-100(fp)
    5fe0:	10000c26 	beq	r2,zero,6014 <showTagWithYOffset+0x82c>
    5fe4:	e0bffd17 	ldw	r2,-12(fp)
    5fe8:	10c00204 	addi	r3,r2,8
    5fec:	e0bff304 	addi	r2,fp,-52
    5ff0:	1809883a 	mov	r4,r3
    5ff4:	100b883a 	mov	r5,r2
    5ff8:	000d883a 	mov	r6,zero
    5ffc:	000f883a 	mov	r7,zero
    6000:	0004b240 	call	4b24 <showBkgAndBorder>
    6004:	10803fcc 	andi	r2,r2,255
    6008:	10000226 	beq	r2,zero,6014 <showTagWithYOffset+0x82c>
    600c:	00800044 	movi	r2,1
    6010:	00000106 	br	6018 <showTagWithYOffset+0x830>
    6014:	0005883a 	mov	r2,zero
    6018:	e0bfe705 	stb	r2,-100(fp)
    601c:	e0bfe703 	ldbu	r2,-100(fp)
    6020:	1080004c 	andi	r2,r2,1
    6024:	e0bfe705 	stb	r2,-100(fp)
		//用背景颜色覆盖掉上边界颜色
		if ( (tagPtr->tagColorInfo).borderVisible && yOffset > 0 )
    6028:	e0bffd17 	ldw	r2,-12(fp)
    602c:	10800383 	ldbu	r2,14(r2)
    6030:	10803fcc 	andi	r2,r2,255
    6034:	10001c26 	beq	r2,zero,60a8 <showTagWithYOffset+0x8c0>
    6038:	e0bfff0f 	ldh	r2,-4(fp)
    603c:	00801a0e 	bge	zero,r2,60a8 <showTagWithYOffset+0x8c0>
		{
			AreaRange borderPos;
			borderPos.x_min = absNewPos.x_min;
    6040:	e0bff30b 	ldhu	r2,-52(fp)
    6044:	e0bffb0d 	sth	r2,-20(fp)
			borderPos.x_max = absNewPos.x_max;
    6048:	e0bff38b 	ldhu	r2,-50(fp)
    604c:	e0bffb8d 	sth	r2,-18(fp)
			borderPos.y_min = borderPos.y_max = absNewPos.y_min;
    6050:	e0bff40b 	ldhu	r2,-48(fp)
    6054:	e0bffc8d 	sth	r2,-14(fp)
    6058:	e0bffc8b 	ldhu	r2,-14(fp)
    605c:	e0bffc0d 	sth	r2,-16(fp)
			status = status && showBorder( &borderPos, (tagPtr->tagColorInfo).bkgColor );
    6060:	e0bfe703 	ldbu	r2,-100(fp)
    6064:	10000b26 	beq	r2,zero,6094 <showTagWithYOffset+0x8ac>
    6068:	e0bffd17 	ldw	r2,-12(fp)
    606c:	1080028b 	ldhu	r2,10(r2)
    6070:	10bfffcc 	andi	r2,r2,65535
    6074:	e0fffb04 	addi	r3,fp,-20
    6078:	1809883a 	mov	r4,r3
    607c:	100b883a 	mov	r5,r2
    6080:	00048600 	call	4860 <showBorder>
    6084:	10803fcc 	andi	r2,r2,255
    6088:	10000226 	beq	r2,zero,6094 <showTagWithYOffset+0x8ac>
    608c:	00800044 	movi	r2,1
    6090:	00000106 	br	6098 <showTagWithYOffset+0x8b0>
    6094:	0005883a 	mov	r2,zero
    6098:	e0bfe705 	stb	r2,-100(fp)
    609c:	e0bfe703 	ldbu	r2,-100(fp)
    60a0:	1080004c 	andi	r2,r2,1
    60a4:	e0bfe705 	stb	r2,-100(fp)
		}
	}

	return status;
    60a8:	e0bfe703 	ldbu	r2,-100(fp)
}
    60ac:	e037883a 	mov	sp,fp
    60b0:	dfc00117 	ldw	ra,4(sp)
    60b4:	df000017 	ldw	fp,0(sp)
    60b8:	dec00204 	addi	sp,sp,8
    60bc:	f800283a 	ret

000060c0 <showIconBlock>:

//显示IconBlock
bool showIconBlock( const IconBlock *iconPtr, const AreaRange *absPos )
{
    60c0:	defff704 	addi	sp,sp,-36
    60c4:	dfc00815 	stw	ra,32(sp)
    60c8:	df000715 	stw	fp,28(sp)
    60cc:	df000704 	addi	fp,sp,28
    60d0:	e13ffe15 	stw	r4,-8(fp)
    60d4:	e17fff15 	stw	r5,-4(fp)
	bool status = true;
    60d8:	00800044 	movi	r2,1
    60dc:	e0bffb05 	stb	r2,-20(fp)

	//显示IconBlock的背景与边界
	bool iconPicVisible = (iconPtr->iconColorInfo).objVisible;
    60e0:	e0bffe17 	ldw	r2,-8(fp)
    60e4:	108003c3 	ldbu	r2,15(r2)
    60e8:	e0bffb45 	stb	r2,-19(fp)

	if ( iconPicVisible )//中间的icon需要显示
    60ec:	e0bffb43 	ldbu	r2,-19(fp)
    60f0:	10003b26 	beq	r2,zero,61e0 <showIconBlock+0x120>
	{
		//处理背景与边界（挖掉iconPic显示区）
		status = status && showBkgAndBorder( &(iconPtr->iconColorInfo), absPos, &(iconPtr->picArea), 1 );
    60f4:	e0bffb03 	ldbu	r2,-20(fp)
    60f8:	10000c26 	beq	r2,zero,612c <showIconBlock+0x6c>
    60fc:	e0bffe17 	ldw	r2,-8(fp)
    6100:	10c00204 	addi	r3,r2,8
    6104:	e0bffe17 	ldw	r2,-8(fp)
    6108:	1809883a 	mov	r4,r3
    610c:	e17fff17 	ldw	r5,-4(fp)
    6110:	100d883a 	mov	r6,r2
    6114:	01c00044 	movi	r7,1
    6118:	0004b240 	call	4b24 <showBkgAndBorder>
    611c:	10803fcc 	andi	r2,r2,255
    6120:	10000226 	beq	r2,zero,612c <showIconBlock+0x6c>
    6124:	00800044 	movi	r2,1
    6128:	00000106 	br	6130 <showIconBlock+0x70>
    612c:	0005883a 	mov	r2,zero
    6130:	e0bffb05 	stb	r2,-20(fp)
    6134:	e0bffb03 	ldbu	r2,-20(fp)
    6138:	1080004c 	andi	r2,r2,1
    613c:	e0bffb05 	stb	r2,-20(fp)

		//显示中间的icon图片

		AreaRange iconPicAbsPos;//iconPic的绝对位置
		//获取iconPic的绝对位置
		getAbsPos( absPos, &(iconPtr->picArea), &iconPicAbsPos );
    6140:	e0fffe17 	ldw	r3,-8(fp)
    6144:	e0bffb84 	addi	r2,fp,-18
    6148:	e13fff17 	ldw	r4,-4(fp)
    614c:	180b883a 	mov	r5,r3
    6150:	100d883a 	mov	r6,r2
    6154:	00045800 	call	4580 <getAbsPos>
		//显示icon
		status = status && showTextOrIcon( &iconPicAbsPos, iconPtr->iconPic, (iconPtr->iconColorInfo).bkgColor, (iconPtr->iconColorInfo).objColor,\
    6158:	e0bffb03 	ldbu	r2,-20(fp)
    615c:	10001a26 	beq	r2,zero,61c8 <showIconBlock+0x108>
    6160:	e0bffe17 	ldw	r2,-8(fp)
    6164:	11400417 	ldw	r5,16(r2)
    6168:	e0bffe17 	ldw	r2,-8(fp)
    616c:	1080028b 	ldhu	r2,10(r2)
    6170:	11bfffcc 	andi	r6,r2,65535
    6174:	e0bffe17 	ldw	r2,-8(fp)
    6178:	1080030b 	ldhu	r2,12(r2)
    617c:	11ffffcc 	andi	r7,r2,65535
				iconPtr->iconXSize, iconPtr->iconYSize );
    6180:	e0bffe17 	ldw	r2,-8(fp)
    6184:	1080050b 	ldhu	r2,20(r2)

		AreaRange iconPicAbsPos;//iconPic的绝对位置
		//获取iconPic的绝对位置
		getAbsPos( absPos, &(iconPtr->picArea), &iconPicAbsPos );
		//显示icon
		status = status && showTextOrIcon( &iconPicAbsPos, iconPtr->iconPic, (iconPtr->iconColorInfo).bkgColor, (iconPtr->iconColorInfo).objColor,\
    6188:	10ffffcc 	andi	r3,r2,65535
    618c:	18e0001c 	xori	r3,r3,32768
    6190:	18e00004 	addi	r3,r3,-32768
				iconPtr->iconXSize, iconPtr->iconYSize );
    6194:	e0bffe17 	ldw	r2,-8(fp)
    6198:	1080058b 	ldhu	r2,22(r2)

		AreaRange iconPicAbsPos;//iconPic的绝对位置
		//获取iconPic的绝对位置
		getAbsPos( absPos, &(iconPtr->picArea), &iconPicAbsPos );
		//显示icon
		status = status && showTextOrIcon( &iconPicAbsPos, iconPtr->iconPic, (iconPtr->iconColorInfo).bkgColor, (iconPtr->iconColorInfo).objColor,\
    619c:	10bfffcc 	andi	r2,r2,65535
    61a0:	10a0001c 	xori	r2,r2,32768
    61a4:	10a00004 	addi	r2,r2,-32768
    61a8:	e13ffb84 	addi	r4,fp,-18
    61ac:	d8c00015 	stw	r3,0(sp)
    61b0:	d8800115 	stw	r2,4(sp)
    61b4:	0004ee40 	call	4ee4 <showTextOrIcon>
    61b8:	10803fcc 	andi	r2,r2,255
    61bc:	10000226 	beq	r2,zero,61c8 <showIconBlock+0x108>
    61c0:	00800044 	movi	r2,1
    61c4:	00000106 	br	61cc <showIconBlock+0x10c>
    61c8:	0005883a 	mov	r2,zero
    61cc:	e0bffb05 	stb	r2,-20(fp)
    61d0:	e0bffb03 	ldbu	r2,-20(fp)
    61d4:	1080004c 	andi	r2,r2,1
    61d8:	e0bffb05 	stb	r2,-20(fp)
    61dc:	00001206 	br	6228 <showIconBlock+0x168>
				iconPtr->iconXSize, iconPtr->iconYSize );
	}
	else//中间的icon不需要显示
	{
		//只处理背景与边界颜色
		status = status && showBkgAndBorder( &(iconPtr->iconColorInfo), absPos, NULL, 0 );
    61e0:	e0bffb03 	ldbu	r2,-20(fp)
    61e4:	10000b26 	beq	r2,zero,6214 <showIconBlock+0x154>
    61e8:	e0bffe17 	ldw	r2,-8(fp)
    61ec:	10800204 	addi	r2,r2,8
    61f0:	1009883a 	mov	r4,r2
    61f4:	e17fff17 	ldw	r5,-4(fp)
    61f8:	000d883a 	mov	r6,zero
    61fc:	000f883a 	mov	r7,zero
    6200:	0004b240 	call	4b24 <showBkgAndBorder>
    6204:	10803fcc 	andi	r2,r2,255
    6208:	10000226 	beq	r2,zero,6214 <showIconBlock+0x154>
    620c:	00800044 	movi	r2,1
    6210:	00000106 	br	6218 <showIconBlock+0x158>
    6214:	0005883a 	mov	r2,zero
    6218:	e0bffb05 	stb	r2,-20(fp)
    621c:	e0bffb03 	ldbu	r2,-20(fp)
    6220:	1080004c 	andi	r2,r2,1
    6224:	e0bffb05 	stb	r2,-20(fp)
	}

	return status;
    6228:	e0bffb03 	ldbu	r2,-20(fp)
}
    622c:	e037883a 	mov	sp,fp
    6230:	dfc00117 	ldw	ra,4(sp)
    6234:	df000017 	ldw	fp,0(sp)
    6238:	dec00204 	addi	sp,sp,8
    623c:	f800283a 	ret

00006240 <showTagGroup>:
//显示TagGroup
bool showTagGroup( const TagGroup *tagGroupInst, const AreaRange *absPos )
{
    6240:	defff504 	addi	sp,sp,-44
    6244:	dfc00a15 	stw	ra,40(sp)
    6248:	df000915 	stw	fp,36(sp)
    624c:	df000904 	addi	fp,sp,36
    6250:	e13ffe15 	stw	r4,-8(fp)
    6254:	e17fff15 	stw	r5,-4(fp)
	bool status = true;
    6258:	00800044 	movi	r2,1
    625c:	e0bff705 	stb	r2,-36(fp)

	//显示TagGroup的背景与边界
	AreaRange AreaArray[2] = { tagGroupInst->staticTagArea, tagGroupInst->varTagArea };
    6260:	e0bffe17 	ldw	r2,-8(fp)
    6264:	10c0020b 	ldhu	r3,8(r2)
    6268:	e0fff78d 	sth	r3,-34(fp)
    626c:	10c0028b 	ldhu	r3,10(r2)
    6270:	e0fff80d 	sth	r3,-32(fp)
    6274:	10c0030b 	ldhu	r3,12(r2)
    6278:	e0fff88d 	sth	r3,-30(fp)
    627c:	1080038b 	ldhu	r2,14(r2)
    6280:	e0bff90d 	sth	r2,-28(fp)
    6284:	e0bffe17 	ldw	r2,-8(fp)
    6288:	10c00d0b 	ldhu	r3,52(r2)
    628c:	e0fff98d 	sth	r3,-26(fp)
    6290:	10c00d8b 	ldhu	r3,54(r2)
    6294:	e0fffa0d 	sth	r3,-24(fp)
    6298:	10c00e0b 	ldhu	r3,56(r2)
    629c:	e0fffa8d 	sth	r3,-22(fp)
    62a0:	10800e8b 	ldhu	r2,58(r2)
    62a4:	e0bffb0d 	sth	r2,-20(fp)
	status = status && showBkgAndBorder( &(tagGroupInst->bkgBorderColor), absPos, AreaArray, 2 );
    62a8:	e0bff703 	ldbu	r2,-36(fp)
    62ac:	10000b26 	beq	r2,zero,62dc <showTagGroup+0x9c>
    62b0:	e0fffe17 	ldw	r3,-8(fp)
    62b4:	e0bff784 	addi	r2,fp,-34
    62b8:	1809883a 	mov	r4,r3
    62bc:	e17fff17 	ldw	r5,-4(fp)
    62c0:	100d883a 	mov	r6,r2
    62c4:	01c00084 	movi	r7,2
    62c8:	0004b240 	call	4b24 <showBkgAndBorder>
    62cc:	10803fcc 	andi	r2,r2,255
    62d0:	10000226 	beq	r2,zero,62dc <showTagGroup+0x9c>
    62d4:	00800044 	movi	r2,1
    62d8:	00000106 	br	62e0 <showTagGroup+0xa0>
    62dc:	0005883a 	mov	r2,zero
    62e0:	e0bff705 	stb	r2,-36(fp)
    62e4:	e0bff703 	ldbu	r2,-36(fp)
    62e8:	1080004c 	andi	r2,r2,1
    62ec:	e0bff705 	stb	r2,-36(fp)

	//标签绝对位置
	AreaRange tagAbsPos;

	//显示静态标签
	getAbsPos( absPos, &(tagGroupInst->staticTagArea), &tagAbsPos );
    62f0:	e0bffe17 	ldw	r2,-8(fp)
    62f4:	10c00204 	addi	r3,r2,8
    62f8:	e0bffb84 	addi	r2,fp,-18
    62fc:	e13fff17 	ldw	r4,-4(fp)
    6300:	180b883a 	mov	r5,r3
    6304:	100d883a 	mov	r6,r2
    6308:	00045800 	call	4580 <getAbsPos>
	status = status && showTagBlock( &(tagGroupInst->staticTag), &tagAbsPos );
    630c:	e0bff703 	ldbu	r2,-36(fp)
    6310:	10000a26 	beq	r2,zero,633c <showTagGroup+0xfc>
    6314:	e0bffe17 	ldw	r2,-8(fp)
    6318:	10c00404 	addi	r3,r2,16
    631c:	e0bffb84 	addi	r2,fp,-18
    6320:	1809883a 	mov	r4,r3
    6324:	100b883a 	mov	r5,r2
    6328:	00051180 	call	5118 <showTagBlock>
    632c:	10803fcc 	andi	r2,r2,255
    6330:	10000226 	beq	r2,zero,633c <showTagGroup+0xfc>
    6334:	00800044 	movi	r2,1
    6338:	00000106 	br	6340 <showTagGroup+0x100>
    633c:	0005883a 	mov	r2,zero
    6340:	e0bff705 	stb	r2,-36(fp)
    6344:	e0bff703 	ldbu	r2,-36(fp)
    6348:	1080004c 	andi	r2,r2,1
    634c:	e0bff705 	stb	r2,-36(fp)

	//显示动态标签
	getAbsPos( absPos, &(tagGroupInst->varTagArea), &tagAbsPos );
    6350:	e0bffe17 	ldw	r2,-8(fp)
    6354:	10c00d04 	addi	r3,r2,52
    6358:	e0bffb84 	addi	r2,fp,-18
    635c:	e13fff17 	ldw	r4,-4(fp)
    6360:	180b883a 	mov	r5,r3
    6364:	100d883a 	mov	r6,r2
    6368:	00045800 	call	4580 <getAbsPos>
	status = status && showTagBlock( &(tagGroupInst->varTag), &tagAbsPos );
    636c:	e0bff703 	ldbu	r2,-36(fp)
    6370:	10000a26 	beq	r2,zero,639c <showTagGroup+0x15c>
    6374:	e0bffe17 	ldw	r2,-8(fp)
    6378:	10c00f04 	addi	r3,r2,60
    637c:	e0bffb84 	addi	r2,fp,-18
    6380:	1809883a 	mov	r4,r3
    6384:	100b883a 	mov	r5,r2
    6388:	00051180 	call	5118 <showTagBlock>
    638c:	10803fcc 	andi	r2,r2,255
    6390:	10000226 	beq	r2,zero,639c <showTagGroup+0x15c>
    6394:	00800044 	movi	r2,1
    6398:	00000106 	br	63a0 <showTagGroup+0x160>
    639c:	0005883a 	mov	r2,zero
    63a0:	e0bff705 	stb	r2,-36(fp)
    63a4:	e0bff703 	ldbu	r2,-36(fp)
    63a8:	1080004c 	andi	r2,r2,1
    63ac:	e0bff705 	stb	r2,-36(fp)

	return status;
    63b0:	e0bff703 	ldbu	r2,-36(fp)
}
    63b4:	e037883a 	mov	sp,fp
    63b8:	dfc00117 	ldw	ra,4(sp)
    63bc:	df000017 	ldw	fp,0(sp)
    63c0:	dec00204 	addi	sp,sp,8
    63c4:	f800283a 	ret

000063c8 <showTagIconGroup>:

//显示TagIconGroup
bool showTagIconGroup( const TagIconGroup *tagIconGpInst, const AreaRange *absPos )
{
    63c8:	defff104 	addi	sp,sp,-60
    63cc:	dfc00e15 	stw	ra,56(sp)
    63d0:	df000d15 	stw	fp,52(sp)
    63d4:	df000d04 	addi	fp,sp,52
    63d8:	e13ffe15 	stw	r4,-8(fp)
    63dc:	e17fff15 	stw	r5,-4(fp)
	bool status = true;
    63e0:	00800044 	movi	r2,1
    63e4:	e0bff305 	stb	r2,-52(fp)

	//显示TagIconGroup的背景与边界
	AreaRange AreaArray[4] = { tagIconGpInst->plusIconArea, tagIconGpInst->valueTagArea,\
    63e8:	e0bffe17 	ldw	r2,-8(fp)
    63ec:	10c0020b 	ldhu	r3,8(r2)
    63f0:	e0fff38d 	sth	r3,-50(fp)
    63f4:	10c0028b 	ldhu	r3,10(r2)
    63f8:	e0fff40d 	sth	r3,-48(fp)
    63fc:	10c0030b 	ldhu	r3,12(r2)
    6400:	e0fff48d 	sth	r3,-46(fp)
    6404:	1080038b 	ldhu	r2,14(r2)
    6408:	e0bff50d 	sth	r2,-44(fp)
    640c:	e0bffe17 	ldw	r2,-8(fp)
    6410:	10c0120b 	ldhu	r3,72(r2)
    6414:	e0fff58d 	sth	r3,-42(fp)
    6418:	10c0128b 	ldhu	r3,74(r2)
    641c:	e0fff60d 	sth	r3,-40(fp)
    6420:	10c0130b 	ldhu	r3,76(r2)
    6424:	e0fff68d 	sth	r3,-38(fp)
    6428:	1080138b 	ldhu	r2,78(r2)
    642c:	e0bff70d 	sth	r2,-36(fp)
    6430:	e0bffe17 	ldw	r2,-8(fp)
    6434:	10c01d0b 	ldhu	r3,116(r2)
    6438:	e0fff78d 	sth	r3,-34(fp)
    643c:	10c01d8b 	ldhu	r3,118(r2)
    6440:	e0fff80d 	sth	r3,-32(fp)
    6444:	10c01e0b 	ldhu	r3,120(r2)
    6448:	e0fff88d 	sth	r3,-30(fp)
    644c:	10801e8b 	ldhu	r2,122(r2)
    6450:	e0bff90d 	sth	r2,-28(fp)
    6454:	e0bffe17 	ldw	r2,-8(fp)
    6458:	10c00a0b 	ldhu	r3,40(r2)
    645c:	e0fff98d 	sth	r3,-26(fp)
    6460:	10c00a8b 	ldhu	r3,42(r2)
    6464:	e0fffa0d 	sth	r3,-24(fp)
    6468:	10c00b0b 	ldhu	r3,44(r2)
    646c:	e0fffa8d 	sth	r3,-22(fp)
    6470:	10800b8b 	ldhu	r2,46(r2)
    6474:	e0bffb0d 	sth	r2,-20(fp)
					tagIconGpInst->unitTagArea,tagIconGpInst->minusIconArea };
	status = status && showBkgAndBorder( &(tagIconGpInst->bkgBorderColor), absPos, AreaArray, 4 );
    6478:	e0bff303 	ldbu	r2,-52(fp)
    647c:	10000b26 	beq	r2,zero,64ac <showTagIconGroup+0xe4>
    6480:	e0fffe17 	ldw	r3,-8(fp)
    6484:	e0bff384 	addi	r2,fp,-50
    6488:	1809883a 	mov	r4,r3
    648c:	e17fff17 	ldw	r5,-4(fp)
    6490:	100d883a 	mov	r6,r2
    6494:	01c00104 	movi	r7,4
    6498:	0004b240 	call	4b24 <showBkgAndBorder>
    649c:	10803fcc 	andi	r2,r2,255
    64a0:	10000226 	beq	r2,zero,64ac <showTagIconGroup+0xe4>
    64a4:	00800044 	movi	r2,1
    64a8:	00000106 	br	64b0 <showTagIconGroup+0xe8>
    64ac:	0005883a 	mov	r2,zero
    64b0:	e0bff305 	stb	r2,-52(fp)
    64b4:	e0bff303 	ldbu	r2,-52(fp)
    64b8:	1080004c 	andi	r2,r2,1
    64bc:	e0bff305 	stb	r2,-52(fp)

	//子模块绝对位置
	AreaRange subModuAbsPos;

	//显示数字加键
	getAbsPos( absPos, &(tagIconGpInst->plusIconArea), &subModuAbsPos );
    64c0:	e0bffe17 	ldw	r2,-8(fp)
    64c4:	10c00204 	addi	r3,r2,8
    64c8:	e0bffb84 	addi	r2,fp,-18
    64cc:	e13fff17 	ldw	r4,-4(fp)
    64d0:	180b883a 	mov	r5,r3
    64d4:	100d883a 	mov	r6,r2
    64d8:	00045800 	call	4580 <getAbsPos>
	status = status && showIconBlock( &(tagIconGpInst->plusIcon), &subModuAbsPos );
    64dc:	e0bff303 	ldbu	r2,-52(fp)
    64e0:	10000a26 	beq	r2,zero,650c <showTagIconGroup+0x144>
    64e4:	e0bffe17 	ldw	r2,-8(fp)
    64e8:	10c00404 	addi	r3,r2,16
    64ec:	e0bffb84 	addi	r2,fp,-18
    64f0:	1809883a 	mov	r4,r3
    64f4:	100b883a 	mov	r5,r2
    64f8:	00060c00 	call	60c0 <showIconBlock>
    64fc:	10803fcc 	andi	r2,r2,255
    6500:	10000226 	beq	r2,zero,650c <showTagIconGroup+0x144>
    6504:	00800044 	movi	r2,1
    6508:	00000106 	br	6510 <showTagIconGroup+0x148>
    650c:	0005883a 	mov	r2,zero
    6510:	e0bff305 	stb	r2,-52(fp)
    6514:	e0bff303 	ldbu	r2,-52(fp)
    6518:	1080004c 	andi	r2,r2,1
    651c:	e0bff305 	stb	r2,-52(fp)

	//显示数字减键
	getAbsPos( absPos, &(tagIconGpInst->minusIconArea), &subModuAbsPos );
    6520:	e0bffe17 	ldw	r2,-8(fp)
    6524:	10c00a04 	addi	r3,r2,40
    6528:	e0bffb84 	addi	r2,fp,-18
    652c:	e13fff17 	ldw	r4,-4(fp)
    6530:	180b883a 	mov	r5,r3
    6534:	100d883a 	mov	r6,r2
    6538:	00045800 	call	4580 <getAbsPos>
	status = status && showIconBlock( &(tagIconGpInst->minusIcon), &subModuAbsPos );
    653c:	e0bff303 	ldbu	r2,-52(fp)
    6540:	10000a26 	beq	r2,zero,656c <showTagIconGroup+0x1a4>
    6544:	e0bffe17 	ldw	r2,-8(fp)
    6548:	10c00c04 	addi	r3,r2,48
    654c:	e0bffb84 	addi	r2,fp,-18
    6550:	1809883a 	mov	r4,r3
    6554:	100b883a 	mov	r5,r2
    6558:	00060c00 	call	60c0 <showIconBlock>
    655c:	10803fcc 	andi	r2,r2,255
    6560:	10000226 	beq	r2,zero,656c <showTagIconGroup+0x1a4>
    6564:	00800044 	movi	r2,1
    6568:	00000106 	br	6570 <showTagIconGroup+0x1a8>
    656c:	0005883a 	mov	r2,zero
    6570:	e0bff305 	stb	r2,-52(fp)
    6574:	e0bff303 	ldbu	r2,-52(fp)
    6578:	1080004c 	andi	r2,r2,1
    657c:	e0bff305 	stb	r2,-52(fp)

	//数字显示标签
	getAbsPos( absPos, &(tagIconGpInst->valueTagArea), &subModuAbsPos );
    6580:	e0bffe17 	ldw	r2,-8(fp)
    6584:	10c01204 	addi	r3,r2,72
    6588:	e0bffb84 	addi	r2,fp,-18
    658c:	e13fff17 	ldw	r4,-4(fp)
    6590:	180b883a 	mov	r5,r3
    6594:	100d883a 	mov	r6,r2
    6598:	00045800 	call	4580 <getAbsPos>
	status = status && showTagBlock( &(tagIconGpInst->valueTag), &subModuAbsPos );
    659c:	e0bff303 	ldbu	r2,-52(fp)
    65a0:	10000a26 	beq	r2,zero,65cc <showTagIconGroup+0x204>
    65a4:	e0bffe17 	ldw	r2,-8(fp)
    65a8:	10c01404 	addi	r3,r2,80
    65ac:	e0bffb84 	addi	r2,fp,-18
    65b0:	1809883a 	mov	r4,r3
    65b4:	100b883a 	mov	r5,r2
    65b8:	00051180 	call	5118 <showTagBlock>
    65bc:	10803fcc 	andi	r2,r2,255
    65c0:	10000226 	beq	r2,zero,65cc <showTagIconGroup+0x204>
    65c4:	00800044 	movi	r2,1
    65c8:	00000106 	br	65d0 <showTagIconGroup+0x208>
    65cc:	0005883a 	mov	r2,zero
    65d0:	e0bff305 	stb	r2,-52(fp)
    65d4:	e0bff303 	ldbu	r2,-52(fp)
    65d8:	1080004c 	andi	r2,r2,1
    65dc:	e0bff305 	stb	r2,-52(fp)

	//数字单位标签
	getAbsPos( absPos, &(tagIconGpInst->unitTagArea), &subModuAbsPos );
    65e0:	e0bffe17 	ldw	r2,-8(fp)
    65e4:	10c01d04 	addi	r3,r2,116
    65e8:	e0bffb84 	addi	r2,fp,-18
    65ec:	e13fff17 	ldw	r4,-4(fp)
    65f0:	180b883a 	mov	r5,r3
    65f4:	100d883a 	mov	r6,r2
    65f8:	00045800 	call	4580 <getAbsPos>
	status = status && showTagBlock( &(tagIconGpInst->unitTag), &subModuAbsPos );
    65fc:	e0bff303 	ldbu	r2,-52(fp)
    6600:	10000a26 	beq	r2,zero,662c <showTagIconGroup+0x264>
    6604:	e0bffe17 	ldw	r2,-8(fp)
    6608:	10c01f04 	addi	r3,r2,124
    660c:	e0bffb84 	addi	r2,fp,-18
    6610:	1809883a 	mov	r4,r3
    6614:	100b883a 	mov	r5,r2
    6618:	00051180 	call	5118 <showTagBlock>
    661c:	10803fcc 	andi	r2,r2,255
    6620:	10000226 	beq	r2,zero,662c <showTagIconGroup+0x264>
    6624:	00800044 	movi	r2,1
    6628:	00000106 	br	6630 <showTagIconGroup+0x268>
    662c:	0005883a 	mov	r2,zero
    6630:	e0bff305 	stb	r2,-52(fp)
    6634:	e0bff303 	ldbu	r2,-52(fp)
    6638:	1080004c 	andi	r2,r2,1
    663c:	e0bff305 	stb	r2,-52(fp)

	return status;
    6640:	e0bff303 	ldbu	r2,-52(fp)
}
    6644:	e037883a 	mov	sp,fp
    6648:	dfc00117 	ldw	ra,4(sp)
    664c:	df000017 	ldw	fp,0(sp)
    6650:	dec00204 	addi	sp,sp,8
    6654:	f800283a 	ret

00006658 <showTagList>:

//显示TagList
bool showTagList( const TagList *TagListInst, const AreaRange *absPos, const short tagListYOffset )
{
    6658:	defff304 	addi	sp,sp,-52
    665c:	dfc00c15 	stw	ra,48(sp)
    6660:	df000b15 	stw	fp,44(sp)
    6664:	df000b04 	addi	fp,sp,44
    6668:	e13ffd15 	stw	r4,-12(fp)
    666c:	e17ffe15 	stw	r5,-8(fp)
    6670:	3005883a 	mov	r2,r6
    6674:	e0bfff0d 	sth	r2,-4(fp)
	bool status = true;
    6678:	00800044 	movi	r2,1
    667c:	e0bff505 	stb	r2,-44(fp)

	//列表显示空间absPos的高度
	short listShowHeight = absPos->y_max - absPos->y_min + 1;
    6680:	e0bffe17 	ldw	r2,-8(fp)
    6684:	1080018b 	ldhu	r2,6(r2)
    6688:	1007883a 	mov	r3,r2
    668c:	e0bffe17 	ldw	r2,-8(fp)
    6690:	1080010b 	ldhu	r2,4(r2)
    6694:	1885c83a 	sub	r2,r3,r2
    6698:	10800044 	addi	r2,r2,1
    669c:	e0bff68d 	sth	r2,-38(fp)
	//列表显示空间absPos在列表TagListInst中的纵向位置
	short listShowYMin = tagListYOffset + 1;
    66a0:	e0bfff0b 	ldhu	r2,-4(fp)
    66a4:	10800044 	addi	r2,r2,1
    66a8:	e0bff70d 	sth	r2,-36(fp)
	short listShowYMax = tagListYOffset + listShowHeight;
    66ac:	e0ffff0b 	ldhu	r3,-4(fp)
    66b0:	e0bff68b 	ldhu	r2,-38(fp)
    66b4:	1885883a 	add	r2,r3,r2
    66b8:	e0bff78d 	sth	r2,-34(fp)

	short elemHeight = (TagListInst->elemBaseArea).y_max;
    66bc:	e0bffd17 	ldw	r2,-12(fp)
    66c0:	1080018b 	ldhu	r2,6(r2)
    66c4:	e0bff80d 	sth	r2,-32(fp)

	short listShowIndexMin = (listShowYMin-1) / elemHeight;//列表中需要显示tag的最小行数下标（从0开始）
    66c8:	e0bff70f 	ldh	r2,-36(fp)
    66cc:	10ffffc4 	addi	r3,r2,-1
    66d0:	e0bff80f 	ldh	r2,-32(fp)
    66d4:	1809883a 	mov	r4,r3
    66d8:	100b883a 	mov	r5,r2
    66dc:	00083640 	call	8364 <__divsi3>
    66e0:	e0bff88d 	sth	r2,-30(fp)
	short listShowIndexMax = (listShowYMax-1) / elemHeight;//列表中需要显示tag的最大行数下标（从0开始）
    66e4:	e0bff78f 	ldh	r2,-34(fp)
    66e8:	10ffffc4 	addi	r3,r2,-1
    66ec:	e0bff80f 	ldh	r2,-32(fp)
    66f0:	1809883a 	mov	r4,r3
    66f4:	100b883a 	mov	r5,r2
    66f8:	00083640 	call	8364 <__divsi3>
    66fc:	e0bff58d 	sth	r2,-42(fp)

	short elemNum = TagListInst->elemNum;//列表元素总个数
    6700:	e0bffd17 	ldw	r2,-12(fp)
    6704:	1080070b 	ldhu	r2,28(r2)
    6708:	e0bff90d 	sth	r2,-28(fp)


	if ( listShowIndexMax >= elemNum )
    670c:	e0fff58f 	ldh	r3,-42(fp)
    6710:	e0bff90f 	ldh	r2,-28(fp)
    6714:	18800316 	blt	r3,r2,6724 <showTagList+0xcc>
	{
		listShowIndexMax = elemNum - 1;
    6718:	e0bff90b 	ldhu	r2,-28(fp)
    671c:	10bfffc4 	addi	r2,r2,-1
    6720:	e0bff58d 	sth	r2,-42(fp)
	}
	//显示TagList列表中每一个落在显示域中的TagBlock
	short elemCurIndex;
	AreaRange curElemAbsPos;
	//计算偏移量tagListYOffset为0时基本模块的绝对位置
	getAbsPos( absPos, &(TagListInst->elemBaseArea), &curElemAbsPos );
    6724:	e0fffd17 	ldw	r3,-12(fp)
    6728:	e0bffb04 	addi	r2,fp,-20
    672c:	e13ffe17 	ldw	r4,-8(fp)
    6730:	180b883a 	mov	r5,r3
    6734:	100d883a 	mov	r6,r2
    6738:	00045800 	call	4580 <getAbsPos>
	//计算最小下标模块的绝对位置（叠加偏移量tagListYOffset与最小下标模块的下标elemCurIndex
	short diffY = listShowIndexMin * elemHeight - tagListYOffset;
    673c:	e0fff88b 	ldhu	r3,-30(fp)
    6740:	e0bff80b 	ldhu	r2,-32(fp)
    6744:	1885383a 	mul	r2,r3,r2
    6748:	1007883a 	mov	r3,r2
    674c:	e0bfff0b 	ldhu	r2,-4(fp)
    6750:	1885c83a 	sub	r2,r3,r2
    6754:	e0bff98d 	sth	r2,-26(fp)
	curElemAbsPos.y_min += diffY;
    6758:	e0bffc0b 	ldhu	r2,-16(fp)
    675c:	1007883a 	mov	r3,r2
    6760:	e0bff98b 	ldhu	r2,-26(fp)
    6764:	1885883a 	add	r2,r3,r2
    6768:	e0bffc0d 	sth	r2,-16(fp)
	curElemAbsPos.y_max += diffY;
    676c:	e0bffc8b 	ldhu	r2,-14(fp)
    6770:	1007883a 	mov	r3,r2
    6774:	e0bff98b 	ldhu	r2,-26(fp)
    6778:	1885883a 	add	r2,r3,r2
    677c:	e0bffc8d 	sth	r2,-14(fp)

	TagBlock * const tagBlockArray = TagListInst->elemBlock;
    6780:	e0bffd17 	ldw	r2,-12(fp)
    6784:	10800817 	ldw	r2,32(r2)
    6788:	e0bffa15 	stw	r2,-24(fp)

	//显示第一个TagBlock
	elemCurIndex = listShowIndexMin;
    678c:	e0bff88b 	ldhu	r2,-30(fp)
    6790:	e0bff60d 	sth	r2,-40(fp)
	if ( elemCurIndex <= listShowIndexMax )
    6794:	e0bff60f 	ldh	r2,-40(fp)
    6798:	e0fff58f 	ldh	r3,-42(fp)
    679c:	18802516 	blt	r3,r2,6834 <showTagList+0x1dc>
	{
		status = status && showTagWithYOffset( &(tagBlockArray[elemCurIndex]), &curElemAbsPos, absPos->y_min - curElemAbsPos.y_min );
    67a0:	e0bff503 	ldbu	r2,-44(fp)
    67a4:	10001426 	beq	r2,zero,67f8 <showTagList+0x1a0>
    67a8:	e0bff60f 	ldh	r2,-40(fp)
    67ac:	10800924 	muli	r2,r2,36
    67b0:	e0fffa17 	ldw	r3,-24(fp)
    67b4:	1889883a 	add	r4,r3,r2
    67b8:	e0bffe17 	ldw	r2,-8(fp)
    67bc:	1080010b 	ldhu	r2,4(r2)
    67c0:	1007883a 	mov	r3,r2
    67c4:	e0bffc0b 	ldhu	r2,-16(fp)
    67c8:	1885c83a 	sub	r2,r3,r2
    67cc:	10bfffcc 	andi	r2,r2,65535
    67d0:	10a0001c 	xori	r2,r2,32768
    67d4:	10a00004 	addi	r2,r2,-32768
    67d8:	e0fffb04 	addi	r3,fp,-20
    67dc:	180b883a 	mov	r5,r3
    67e0:	100d883a 	mov	r6,r2
    67e4:	00057e80 	call	57e8 <showTagWithYOffset>
    67e8:	10803fcc 	andi	r2,r2,255
    67ec:	10000226 	beq	r2,zero,67f8 <showTagList+0x1a0>
    67f0:	00800044 	movi	r2,1
    67f4:	00000106 	br	67fc <showTagList+0x1a4>
    67f8:	0005883a 	mov	r2,zero
    67fc:	e0bff505 	stb	r2,-44(fp)
    6800:	e0bff503 	ldbu	r2,-44(fp)
    6804:	1080004c 	andi	r2,r2,1
    6808:	e0bff505 	stb	r2,-44(fp)
		//纵向移动位置
		curElemAbsPos.y_min += elemHeight;
    680c:	e0bffc0b 	ldhu	r2,-16(fp)
    6810:	1007883a 	mov	r3,r2
    6814:	e0bff80b 	ldhu	r2,-32(fp)
    6818:	1885883a 	add	r2,r3,r2
    681c:	e0bffc0d 	sth	r2,-16(fp)
		curElemAbsPos.y_max += elemHeight;
    6820:	e0bffc8b 	ldhu	r2,-14(fp)
    6824:	1007883a 	mov	r3,r2
    6828:	e0bff80b 	ldhu	r2,-32(fp)
    682c:	1885883a 	add	r2,r3,r2
    6830:	e0bffc8d 	sth	r2,-14(fp)
	}


	for ( elemCurIndex = listShowIndexMin + 1; elemCurIndex <= listShowIndexMax; elemCurIndex ++ )
    6834:	e0bff88b 	ldhu	r2,-30(fp)
    6838:	10800044 	addi	r2,r2,1
    683c:	e0bff60d 	sth	r2,-40(fp)
    6840:	00002006 	br	68c4 <showTagList+0x26c>
	{
		//显示其他的TagBlock
		status = status && showTagBlock( &(tagBlockArray[elemCurIndex]), &curElemAbsPos );
    6844:	e0bff503 	ldbu	r2,-44(fp)
    6848:	10000c26 	beq	r2,zero,687c <showTagList+0x224>
    684c:	e0bff60f 	ldh	r2,-40(fp)
    6850:	10800924 	muli	r2,r2,36
    6854:	e0fffa17 	ldw	r3,-24(fp)
    6858:	1887883a 	add	r3,r3,r2
    685c:	e0bffb04 	addi	r2,fp,-20
    6860:	1809883a 	mov	r4,r3
    6864:	100b883a 	mov	r5,r2
    6868:	00051180 	call	5118 <showTagBlock>
    686c:	10803fcc 	andi	r2,r2,255
    6870:	10000226 	beq	r2,zero,687c <showTagList+0x224>
    6874:	00800044 	movi	r2,1
    6878:	00000106 	br	6880 <showTagList+0x228>
    687c:	0005883a 	mov	r2,zero
    6880:	e0bff505 	stb	r2,-44(fp)
    6884:	e0bff503 	ldbu	r2,-44(fp)
    6888:	1080004c 	andi	r2,r2,1
    688c:	e0bff505 	stb	r2,-44(fp)
		//纵向移动位置
		curElemAbsPos.y_min += elemHeight;
    6890:	e0bffc0b 	ldhu	r2,-16(fp)
    6894:	1007883a 	mov	r3,r2
    6898:	e0bff80b 	ldhu	r2,-32(fp)
    689c:	1885883a 	add	r2,r3,r2
    68a0:	e0bffc0d 	sth	r2,-16(fp)
		curElemAbsPos.y_max += elemHeight;
    68a4:	e0bffc8b 	ldhu	r2,-14(fp)
    68a8:	1007883a 	mov	r3,r2
    68ac:	e0bff80b 	ldhu	r2,-32(fp)
    68b0:	1885883a 	add	r2,r3,r2
    68b4:	e0bffc8d 	sth	r2,-14(fp)
		curElemAbsPos.y_min += elemHeight;
		curElemAbsPos.y_max += elemHeight;
	}


	for ( elemCurIndex = listShowIndexMin + 1; elemCurIndex <= listShowIndexMax; elemCurIndex ++ )
    68b8:	e0bff60b 	ldhu	r2,-40(fp)
    68bc:	10800044 	addi	r2,r2,1
    68c0:	e0bff60d 	sth	r2,-40(fp)
    68c4:	e0bff60f 	ldh	r2,-40(fp)
    68c8:	e0fff58f 	ldh	r3,-42(fp)
    68cc:	18bfdd0e 	bge	r3,r2,6844 <__alt_data_end+0xf8006844>
		curElemAbsPos.y_min += elemHeight;
		curElemAbsPos.y_max += elemHeight;
	}

	//显示背景区域（直接用变量curElemAbsPos）
	if ( curElemAbsPos.y_min <= absPos->y_max )
    68d0:	e13ffc0b 	ldhu	r4,-16(fp)
    68d4:	e0bffe17 	ldw	r2,-8(fp)
    68d8:	10c0018b 	ldhu	r3,6(r2)
    68dc:	20bfffcc 	andi	r2,r4,65535
    68e0:	10a0001c 	xori	r2,r2,32768
    68e4:	10a00004 	addi	r2,r2,-32768
    68e8:	18ffffcc 	andi	r3,r3,65535
    68ec:	18e0001c 	xori	r3,r3,32768
    68f0:	18e00004 	addi	r3,r3,-32768
    68f4:	18801616 	blt	r3,r2,6950 <showTagList+0x2f8>
	{
		curElemAbsPos.y_max = absPos->y_max;
    68f8:	e0bffe17 	ldw	r2,-8(fp)
    68fc:	1080018b 	ldhu	r2,6(r2)
    6900:	e0bffc8d 	sth	r2,-14(fp)
		status = status && showBkgAndBorder( &(TagListInst->elemColorInfo), &curElemAbsPos, NULL, 0 );
    6904:	e0bff503 	ldbu	r2,-44(fp)
    6908:	10000c26 	beq	r2,zero,693c <showTagList+0x2e4>
    690c:	e0bffd17 	ldw	r2,-12(fp)
    6910:	10c00504 	addi	r3,r2,20
    6914:	e0bffb04 	addi	r2,fp,-20
    6918:	1809883a 	mov	r4,r3
    691c:	100b883a 	mov	r5,r2
    6920:	000d883a 	mov	r6,zero
    6924:	000f883a 	mov	r7,zero
    6928:	0004b240 	call	4b24 <showBkgAndBorder>
    692c:	10803fcc 	andi	r2,r2,255
    6930:	10000226 	beq	r2,zero,693c <showTagList+0x2e4>
    6934:	00800044 	movi	r2,1
    6938:	00000106 	br	6940 <showTagList+0x2e8>
    693c:	0005883a 	mov	r2,zero
    6940:	e0bff505 	stb	r2,-44(fp)
    6944:	e0bff503 	ldbu	r2,-44(fp)
    6948:	1080004c 	andi	r2,r2,1
    694c:	e0bff505 	stb	r2,-44(fp)
	}

	return status;
    6950:	e0bff503 	ldbu	r2,-44(fp)
}
    6954:	e037883a 	mov	sp,fp
    6958:	dfc00117 	ldw	ra,4(sp)
    695c:	df000017 	ldw	fp,0(sp)
    6960:	dec00204 	addi	sp,sp,8
    6964:	f800283a 	ret

00006968 <showScrollBarY>:
//显示ScrollBarY
bool showScrollBarY( const ScrollBarY *scrollBarYInst, const AreaRange *absPos )
{
    6968:	deffec04 	addi	sp,sp,-80
    696c:	dfc01315 	stw	ra,76(sp)
    6970:	df001215 	stw	fp,72(sp)
    6974:	df001204 	addi	fp,sp,72
    6978:	e13ffe15 	stw	r4,-8(fp)
    697c:	e17fff15 	stw	r5,-4(fp)
	bool status = true;
    6980:	00800044 	movi	r2,1
    6984:	e0bfee05 	stb	r2,-72(fp)
	//子模块绝对位置临时存储变量
	AreaRange subModuAbsPos;


	//如果滚动条可见
	if ( scrollBarYInst->iconBarVisible )
    6988:	e0bffe17 	ldw	r2,-8(fp)
    698c:	10801d83 	ldbu	r2,118(r2)
    6990:	10803fcc 	andi	r2,r2,255
    6994:	10005026 	beq	r2,zero,6ad8 <showScrollBarY+0x170>
	{

		//滚动条纵向偏移量
		short barYoffset = scrollBarYInst->barYoffset;
    6998:	e0bffe17 	ldw	r2,-8(fp)
    699c:	10801c0b 	ldhu	r2,112(r2)
    69a0:	e0bfee8d 	sth	r2,-70(fp)

		//计算滚动条偏移后的位置
		const AreaRange *barBaseAreaPtr = &(scrollBarYInst->barBaseArea);
    69a4:	e0bffe17 	ldw	r2,-8(fp)
    69a8:	10801204 	addi	r2,r2,72
    69ac:	e0bfef15 	stw	r2,-68(fp)
		AreaRange barRealArea;

		barRealArea.x_min = barBaseAreaPtr->x_min;
    69b0:	e0bfef17 	ldw	r2,-68(fp)
    69b4:	1080000b 	ldhu	r2,0(r2)
    69b8:	e0bff20d 	sth	r2,-56(fp)
		barRealArea.x_max = barBaseAreaPtr->x_max;
    69bc:	e0bfef17 	ldw	r2,-68(fp)
    69c0:	1080008b 	ldhu	r2,2(r2)
    69c4:	e0bff28d 	sth	r2,-54(fp)
		barRealArea.y_min = barBaseAreaPtr->y_min + barYoffset;
    69c8:	e0bfef17 	ldw	r2,-68(fp)
    69cc:	1080010b 	ldhu	r2,4(r2)
    69d0:	1007883a 	mov	r3,r2
    69d4:	e0bfee8b 	ldhu	r2,-70(fp)
    69d8:	1885883a 	add	r2,r3,r2
    69dc:	e0bff30d 	sth	r2,-52(fp)
		barRealArea.y_max = barBaseAreaPtr->y_max + barYoffset;
    69e0:	e0bfef17 	ldw	r2,-68(fp)
    69e4:	1080018b 	ldhu	r2,6(r2)
    69e8:	1007883a 	mov	r3,r2
    69ec:	e0bfee8b 	ldhu	r2,-70(fp)
    69f0:	1885883a 	add	r2,r3,r2
    69f4:	e0bff38d 	sth	r2,-50(fp)


		//显示ScrollBarY的背景与边界
		AreaRange AreaArray[3] = { scrollBarYInst->iconMoveUpArea, barRealArea, scrollBarYInst->iconMoveDownArea };
    69f8:	e0bffe17 	ldw	r2,-8(fp)
    69fc:	10c00217 	ldw	r3,8(r2)
    6a00:	e0fff415 	stw	r3,-48(fp)
    6a04:	10800317 	ldw	r2,12(r2)
    6a08:	e0bff515 	stw	r2,-44(fp)
    6a0c:	e0bff217 	ldw	r2,-56(fp)
    6a10:	e0bff615 	stw	r2,-40(fp)
    6a14:	e0bff317 	ldw	r2,-52(fp)
    6a18:	e0bff715 	stw	r2,-36(fp)
    6a1c:	e0bffe17 	ldw	r2,-8(fp)
    6a20:	10c00a17 	ldw	r3,40(r2)
    6a24:	e0fff815 	stw	r3,-32(fp)
    6a28:	10800b17 	ldw	r2,44(r2)
    6a2c:	e0bff915 	stw	r2,-28(fp)
		status = status && showBkgAndBorder( &(scrollBarYInst->barYColorInfo), absPos, AreaArray, 3 );
    6a30:	e0bfee03 	ldbu	r2,-72(fp)
    6a34:	10000b26 	beq	r2,zero,6a64 <showScrollBarY+0xfc>
    6a38:	e0fffe17 	ldw	r3,-8(fp)
    6a3c:	e0bff404 	addi	r2,fp,-48
    6a40:	1809883a 	mov	r4,r3
    6a44:	e17fff17 	ldw	r5,-4(fp)
    6a48:	100d883a 	mov	r6,r2
    6a4c:	01c000c4 	movi	r7,3
    6a50:	0004b240 	call	4b24 <showBkgAndBorder>
    6a54:	10803fcc 	andi	r2,r2,255
    6a58:	10000226 	beq	r2,zero,6a64 <showScrollBarY+0xfc>
    6a5c:	00800044 	movi	r2,1
    6a60:	00000106 	br	6a68 <showScrollBarY+0x100>
    6a64:	0005883a 	mov	r2,zero
    6a68:	e0bfee05 	stb	r2,-72(fp)
    6a6c:	e0bfee03 	ldbu	r2,-72(fp)
    6a70:	1080004c 	andi	r2,r2,1
    6a74:	e0bfee05 	stb	r2,-72(fp)


		//显示滚动条
		getAbsPos( absPos, &barRealArea, &subModuAbsPos );
    6a78:	e0fff204 	addi	r3,fp,-56
    6a7c:	e0bff004 	addi	r2,fp,-64
    6a80:	e13fff17 	ldw	r4,-4(fp)
    6a84:	180b883a 	mov	r5,r3
    6a88:	100d883a 	mov	r6,r2
    6a8c:	00045800 	call	4580 <getAbsPos>
		status = status && showIconBlock( &(scrollBarYInst->iconBar), &subModuAbsPos );
    6a90:	e0bfee03 	ldbu	r2,-72(fp)
    6a94:	10000a26 	beq	r2,zero,6ac0 <showScrollBarY+0x158>
    6a98:	e0bffe17 	ldw	r2,-8(fp)
    6a9c:	10c01404 	addi	r3,r2,80
    6aa0:	e0bff004 	addi	r2,fp,-64
    6aa4:	1809883a 	mov	r4,r3
    6aa8:	100b883a 	mov	r5,r2
    6aac:	00060c00 	call	60c0 <showIconBlock>
    6ab0:	10803fcc 	andi	r2,r2,255
    6ab4:	10000226 	beq	r2,zero,6ac0 <showScrollBarY+0x158>
    6ab8:	00800044 	movi	r2,1
    6abc:	00000106 	br	6ac4 <showScrollBarY+0x15c>
    6ac0:	0005883a 	mov	r2,zero
    6ac4:	e0bfee05 	stb	r2,-72(fp)
    6ac8:	e0bfee03 	ldbu	r2,-72(fp)
    6acc:	1080004c 	andi	r2,r2,1
    6ad0:	e0bfee05 	stb	r2,-72(fp)
    6ad4:	00001c06 	br	6b48 <showScrollBarY+0x1e0>
	}
	else
	{
		//显示ScrollBarY的背景与边界
		AreaRange AreaArray[2] = { scrollBarYInst->iconMoveUpArea, scrollBarYInst->iconMoveDownArea };
    6ad8:	e0bffe17 	ldw	r2,-8(fp)
    6adc:	10c00217 	ldw	r3,8(r2)
    6ae0:	e0fffa15 	stw	r3,-24(fp)
    6ae4:	10800317 	ldw	r2,12(r2)
    6ae8:	e0bffb15 	stw	r2,-20(fp)
    6aec:	e0bffe17 	ldw	r2,-8(fp)
    6af0:	10c00a17 	ldw	r3,40(r2)
    6af4:	e0fffc15 	stw	r3,-16(fp)
    6af8:	10800b17 	ldw	r2,44(r2)
    6afc:	e0bffd15 	stw	r2,-12(fp)
		status = status && showBkgAndBorder( &(scrollBarYInst->barYColorInfo), absPos, AreaArray, 2 );
    6b00:	e0bfee03 	ldbu	r2,-72(fp)
    6b04:	10000b26 	beq	r2,zero,6b34 <showScrollBarY+0x1cc>
    6b08:	e0fffe17 	ldw	r3,-8(fp)
    6b0c:	e0bffa04 	addi	r2,fp,-24
    6b10:	1809883a 	mov	r4,r3
    6b14:	e17fff17 	ldw	r5,-4(fp)
    6b18:	100d883a 	mov	r6,r2
    6b1c:	01c00084 	movi	r7,2
    6b20:	0004b240 	call	4b24 <showBkgAndBorder>
    6b24:	10803fcc 	andi	r2,r2,255
    6b28:	10000226 	beq	r2,zero,6b34 <showScrollBarY+0x1cc>
    6b2c:	00800044 	movi	r2,1
    6b30:	00000106 	br	6b38 <showScrollBarY+0x1d0>
    6b34:	0005883a 	mov	r2,zero
    6b38:	e0bfee05 	stb	r2,-72(fp)
    6b3c:	e0bfee03 	ldbu	r2,-72(fp)
    6b40:	1080004c 	andi	r2,r2,1
    6b44:	e0bfee05 	stb	r2,-72(fp)
	}

	//显示上移键
	getAbsPos( absPos, &(scrollBarYInst->iconMoveUpArea), &subModuAbsPos );
    6b48:	e0bffe17 	ldw	r2,-8(fp)
    6b4c:	10c00204 	addi	r3,r2,8
    6b50:	e0bff004 	addi	r2,fp,-64
    6b54:	e13fff17 	ldw	r4,-4(fp)
    6b58:	180b883a 	mov	r5,r3
    6b5c:	100d883a 	mov	r6,r2
    6b60:	00045800 	call	4580 <getAbsPos>
	status = status && showIconBlock( &(scrollBarYInst->iconMoveUp), &subModuAbsPos );
    6b64:	e0bfee03 	ldbu	r2,-72(fp)
    6b68:	10000a26 	beq	r2,zero,6b94 <showScrollBarY+0x22c>
    6b6c:	e0bffe17 	ldw	r2,-8(fp)
    6b70:	10c00404 	addi	r3,r2,16
    6b74:	e0bff004 	addi	r2,fp,-64
    6b78:	1809883a 	mov	r4,r3
    6b7c:	100b883a 	mov	r5,r2
    6b80:	00060c00 	call	60c0 <showIconBlock>
    6b84:	10803fcc 	andi	r2,r2,255
    6b88:	10000226 	beq	r2,zero,6b94 <showScrollBarY+0x22c>
    6b8c:	00800044 	movi	r2,1
    6b90:	00000106 	br	6b98 <showScrollBarY+0x230>
    6b94:	0005883a 	mov	r2,zero
    6b98:	e0bfee05 	stb	r2,-72(fp)
    6b9c:	e0bfee03 	ldbu	r2,-72(fp)
    6ba0:	1080004c 	andi	r2,r2,1
    6ba4:	e0bfee05 	stb	r2,-72(fp)

	//显示下移键
	getAbsPos( absPos, &(scrollBarYInst->iconMoveDownArea), &subModuAbsPos );
    6ba8:	e0bffe17 	ldw	r2,-8(fp)
    6bac:	10c00a04 	addi	r3,r2,40
    6bb0:	e0bff004 	addi	r2,fp,-64
    6bb4:	e13fff17 	ldw	r4,-4(fp)
    6bb8:	180b883a 	mov	r5,r3
    6bbc:	100d883a 	mov	r6,r2
    6bc0:	00045800 	call	4580 <getAbsPos>
	status = status && showIconBlock( &(scrollBarYInst->iconMoveDown), &subModuAbsPos );
    6bc4:	e0bfee03 	ldbu	r2,-72(fp)
    6bc8:	10000a26 	beq	r2,zero,6bf4 <showScrollBarY+0x28c>
    6bcc:	e0bffe17 	ldw	r2,-8(fp)
    6bd0:	10c00c04 	addi	r3,r2,48
    6bd4:	e0bff004 	addi	r2,fp,-64
    6bd8:	1809883a 	mov	r4,r3
    6bdc:	100b883a 	mov	r5,r2
    6be0:	00060c00 	call	60c0 <showIconBlock>
    6be4:	10803fcc 	andi	r2,r2,255
    6be8:	10000226 	beq	r2,zero,6bf4 <showScrollBarY+0x28c>
    6bec:	00800044 	movi	r2,1
    6bf0:	00000106 	br	6bf8 <showScrollBarY+0x290>
    6bf4:	0005883a 	mov	r2,zero
    6bf8:	e0bfee05 	stb	r2,-72(fp)
    6bfc:	e0bfee03 	ldbu	r2,-72(fp)
    6c00:	1080004c 	andi	r2,r2,1
    6c04:	e0bfee05 	stb	r2,-72(fp)


	return status;
    6c08:	e0bfee03 	ldbu	r2,-72(fp)
}
    6c0c:	e037883a 	mov	sp,fp
    6c10:	dfc00117 	ldw	ra,4(sp)
    6c14:	df000017 	ldw	fp,0(sp)
    6c18:	dec00204 	addi	sp,sp,8
    6c1c:	f800283a 	ret

00006c20 <showScreenPageInfo>:

//显示ScreenPageInfo
bool showScreenPageInfo( const ScreenPageInfo *scrPageInfoInst, const AreaRange *absPos )
{
    6c20:	defff304 	addi	sp,sp,-52
    6c24:	dfc00c15 	stw	ra,48(sp)
    6c28:	df000b15 	stw	fp,44(sp)
    6c2c:	df000b04 	addi	fp,sp,44
    6c30:	e13ffe15 	stw	r4,-8(fp)
    6c34:	e17fff15 	stw	r5,-4(fp)
	bool status = true;
    6c38:	00800044 	movi	r2,1
    6c3c:	e0bff505 	stb	r2,-44(fp)

	//显示ScreenPageInfo的背景与边界
	AreaRange AreaArray[3] = { scrPageInfoInst->prgBarArea, scrPageInfoInst->tagPagePercTageArea,\
    6c40:	e0bffe17 	ldw	r2,-8(fp)
    6c44:	10c0020b 	ldhu	r3,8(r2)
    6c48:	e0fff58d 	sth	r3,-42(fp)
    6c4c:	10c0028b 	ldhu	r3,10(r2)
    6c50:	e0fff60d 	sth	r3,-40(fp)
    6c54:	10c0030b 	ldhu	r3,12(r2)
    6c58:	e0fff68d 	sth	r3,-38(fp)
    6c5c:	1080038b 	ldhu	r2,14(r2)
    6c60:	e0bff70d 	sth	r2,-36(fp)
    6c64:	e0bffe17 	ldw	r2,-8(fp)
    6c68:	10c0190b 	ldhu	r3,100(r2)
    6c6c:	e0fff78d 	sth	r3,-34(fp)
    6c70:	10c0198b 	ldhu	r3,102(r2)
    6c74:	e0fff80d 	sth	r3,-32(fp)
    6c78:	10c01a0b 	ldhu	r3,104(r2)
    6c7c:	e0fff88d 	sth	r3,-30(fp)
    6c80:	10801a8b 	ldhu	r2,106(r2)
    6c84:	e0bff90d 	sth	r2,-28(fp)
    6c88:	e0bffe17 	ldw	r2,-8(fp)
    6c8c:	10c0240b 	ldhu	r3,144(r2)
    6c90:	e0fff98d 	sth	r3,-26(fp)
    6c94:	10c0248b 	ldhu	r3,146(r2)
    6c98:	e0fffa0d 	sth	r3,-24(fp)
    6c9c:	10c0250b 	ldhu	r3,148(r2)
    6ca0:	e0fffa8d 	sth	r3,-22(fp)
    6ca4:	1080258b 	ldhu	r2,150(r2)
    6ca8:	e0bffb0d 	sth	r2,-20(fp)
					scrPageInfoInst->tagPageNumArea };
	status = status && showBkgAndBorder( &(scrPageInfoInst->bkgBorderColor), absPos, AreaArray, 3 );
    6cac:	e0bff503 	ldbu	r2,-44(fp)
    6cb0:	10000b26 	beq	r2,zero,6ce0 <showScreenPageInfo+0xc0>
    6cb4:	e0fffe17 	ldw	r3,-8(fp)
    6cb8:	e0bff584 	addi	r2,fp,-42
    6cbc:	1809883a 	mov	r4,r3
    6cc0:	e17fff17 	ldw	r5,-4(fp)
    6cc4:	100d883a 	mov	r6,r2
    6cc8:	01c000c4 	movi	r7,3
    6ccc:	0004b240 	call	4b24 <showBkgAndBorder>
    6cd0:	10803fcc 	andi	r2,r2,255
    6cd4:	10000226 	beq	r2,zero,6ce0 <showScreenPageInfo+0xc0>
    6cd8:	00800044 	movi	r2,1
    6cdc:	00000106 	br	6ce4 <showScreenPageInfo+0xc4>
    6ce0:	0005883a 	mov	r2,zero
    6ce4:	e0bff505 	stb	r2,-44(fp)
    6ce8:	e0bff503 	ldbu	r2,-44(fp)
    6cec:	1080004c 	andi	r2,r2,1
    6cf0:	e0bff505 	stb	r2,-44(fp)

	//子模块绝对位置
	AreaRange subModuAbsPos;

	//显示水平进度条
	getAbsPos( absPos, &(scrPageInfoInst->prgBarArea), &subModuAbsPos );
    6cf4:	e0bffe17 	ldw	r2,-8(fp)
    6cf8:	10c00204 	addi	r3,r2,8
    6cfc:	e0bffb84 	addi	r2,fp,-18
    6d00:	e13fff17 	ldw	r4,-4(fp)
    6d04:	180b883a 	mov	r5,r3
    6d08:	100d883a 	mov	r6,r2
    6d0c:	00045800 	call	4580 <getAbsPos>
	status = status && showProgressBarX( &(scrPageInfoInst->prgBarX), &subModuAbsPos );
    6d10:	e0bff503 	ldbu	r2,-44(fp)
    6d14:	10000a26 	beq	r2,zero,6d40 <showScreenPageInfo+0x120>
    6d18:	e0bffe17 	ldw	r2,-8(fp)
    6d1c:	10c00404 	addi	r3,r2,16
    6d20:	e0bffb84 	addi	r2,fp,-18
    6d24:	1809883a 	mov	r4,r3
    6d28:	100b883a 	mov	r5,r2
    6d2c:	0006e2c0 	call	6e2c <showProgressBarX>
    6d30:	10803fcc 	andi	r2,r2,255
    6d34:	10000226 	beq	r2,zero,6d40 <showScreenPageInfo+0x120>
    6d38:	00800044 	movi	r2,1
    6d3c:	00000106 	br	6d44 <showScreenPageInfo+0x124>
    6d40:	0005883a 	mov	r2,zero
    6d44:	e0bff505 	stb	r2,-44(fp)
    6d48:	e0bff503 	ldbu	r2,-44(fp)
    6d4c:	1080004c 	andi	r2,r2,1
    6d50:	e0bff505 	stb	r2,-44(fp)

	//显示百分数进度
	getAbsPos( absPos, &(scrPageInfoInst->tagPagePercTageArea), &subModuAbsPos );
    6d54:	e0bffe17 	ldw	r2,-8(fp)
    6d58:	10c01904 	addi	r3,r2,100
    6d5c:	e0bffb84 	addi	r2,fp,-18
    6d60:	e13fff17 	ldw	r4,-4(fp)
    6d64:	180b883a 	mov	r5,r3
    6d68:	100d883a 	mov	r6,r2
    6d6c:	00045800 	call	4580 <getAbsPos>
	status = status && showTagBlock( &(scrPageInfoInst->tagPagePercTage), &subModuAbsPos );
    6d70:	e0bff503 	ldbu	r2,-44(fp)
    6d74:	10000a26 	beq	r2,zero,6da0 <showScreenPageInfo+0x180>
    6d78:	e0bffe17 	ldw	r2,-8(fp)
    6d7c:	10c01b04 	addi	r3,r2,108
    6d80:	e0bffb84 	addi	r2,fp,-18
    6d84:	1809883a 	mov	r4,r3
    6d88:	100b883a 	mov	r5,r2
    6d8c:	00051180 	call	5118 <showTagBlock>
    6d90:	10803fcc 	andi	r2,r2,255
    6d94:	10000226 	beq	r2,zero,6da0 <showScreenPageInfo+0x180>
    6d98:	00800044 	movi	r2,1
    6d9c:	00000106 	br	6da4 <showScreenPageInfo+0x184>
    6da0:	0005883a 	mov	r2,zero
    6da4:	e0bff505 	stb	r2,-44(fp)
    6da8:	e0bff503 	ldbu	r2,-44(fp)
    6dac:	1080004c 	andi	r2,r2,1
    6db0:	e0bff505 	stb	r2,-44(fp)

	//显示页数与总页数（格式为：" 1234/99999", 1234为当前页数，99999为总页数）
	getAbsPos( absPos, &(scrPageInfoInst->tagPageNumArea), &subModuAbsPos );
    6db4:	e0bffe17 	ldw	r2,-8(fp)
    6db8:	10c02404 	addi	r3,r2,144
    6dbc:	e0bffb84 	addi	r2,fp,-18
    6dc0:	e13fff17 	ldw	r4,-4(fp)
    6dc4:	180b883a 	mov	r5,r3
    6dc8:	100d883a 	mov	r6,r2
    6dcc:	00045800 	call	4580 <getAbsPos>
	status = status && showTagBlock( &(scrPageInfoInst->tagPageNum), &subModuAbsPos );
    6dd0:	e0bff503 	ldbu	r2,-44(fp)
    6dd4:	10000a26 	beq	r2,zero,6e00 <showScreenPageInfo+0x1e0>
    6dd8:	e0bffe17 	ldw	r2,-8(fp)
    6ddc:	10c02604 	addi	r3,r2,152
    6de0:	e0bffb84 	addi	r2,fp,-18
    6de4:	1809883a 	mov	r4,r3
    6de8:	100b883a 	mov	r5,r2
    6dec:	00051180 	call	5118 <showTagBlock>
    6df0:	10803fcc 	andi	r2,r2,255
    6df4:	10000226 	beq	r2,zero,6e00 <showScreenPageInfo+0x1e0>
    6df8:	00800044 	movi	r2,1
    6dfc:	00000106 	br	6e04 <showScreenPageInfo+0x1e4>
    6e00:	0005883a 	mov	r2,zero
    6e04:	e0bff505 	stb	r2,-44(fp)
    6e08:	e0bff503 	ldbu	r2,-44(fp)
    6e0c:	1080004c 	andi	r2,r2,1
    6e10:	e0bff505 	stb	r2,-44(fp)

	return status;
    6e14:	e0bff503 	ldbu	r2,-44(fp)
}
    6e18:	e037883a 	mov	sp,fp
    6e1c:	dfc00117 	ldw	ra,4(sp)
    6e20:	df000017 	ldw	fp,0(sp)
    6e24:	dec00204 	addi	sp,sp,8
    6e28:	f800283a 	ret

00006e2c <showProgressBarX>:

//显示ProgressBarX
bool showProgressBarX( const ProgressBarX *prgBarXInst, const AreaRange *absPos )
{
    6e2c:	defff504 	addi	sp,sp,-44
    6e30:	dfc00a15 	stw	ra,40(sp)
    6e34:	df000915 	stw	fp,36(sp)
    6e38:	df000904 	addi	fp,sp,36
    6e3c:	e13ffe15 	stw	r4,-8(fp)
    6e40:	e17fff15 	stw	r5,-4(fp)
	bool status = true;
    6e44:	00800044 	movi	r2,1
    6e48:	e0bff705 	stb	r2,-36(fp)

	//进度点基本区域（偏移量为0）
	const AreaRange *dotBaseAreaPtr = &(prgBarXInst->dotBaseArea);
    6e4c:	e0bffe17 	ldw	r2,-8(fp)
    6e50:	10800a04 	addi	r2,r2,40
    6e54:	e0bff815 	stw	r2,-32(fp)
	//进度点横向偏移量
	short dotXoffset = prgBarXInst->xOffset;
    6e58:	e0bffe17 	ldw	r2,-8(fp)
    6e5c:	1080140b 	ldhu	r2,80(r2)
    6e60:	e0bff90d 	sth	r2,-28(fp)

	//计算滚动条偏移后的位置
	AreaRange dotRealArea;

	dotRealArea.x_min = dotBaseAreaPtr->x_min + dotXoffset;
    6e64:	e0bff817 	ldw	r2,-32(fp)
    6e68:	1080000b 	ldhu	r2,0(r2)
    6e6c:	1007883a 	mov	r3,r2
    6e70:	e0bff90b 	ldhu	r2,-28(fp)
    6e74:	1885883a 	add	r2,r3,r2
    6e78:	e0bff98d 	sth	r2,-26(fp)
	dotRealArea.x_max = dotBaseAreaPtr->x_max + dotXoffset;
    6e7c:	e0bff817 	ldw	r2,-32(fp)
    6e80:	1080008b 	ldhu	r2,2(r2)
    6e84:	1007883a 	mov	r3,r2
    6e88:	e0bff90b 	ldhu	r2,-28(fp)
    6e8c:	1885883a 	add	r2,r3,r2
    6e90:	e0bffa0d 	sth	r2,-24(fp)
	dotRealArea.y_min = dotBaseAreaPtr->y_min;
    6e94:	e0bff817 	ldw	r2,-32(fp)
    6e98:	1080010b 	ldhu	r2,4(r2)
    6e9c:	e0bffa8d 	sth	r2,-22(fp)
	dotRealArea.y_max = dotBaseAreaPtr->y_max;
    6ea0:	e0bff817 	ldw	r2,-32(fp)
    6ea4:	1080018b 	ldhu	r2,6(r2)
    6ea8:	e0bffb0d 	sth	r2,-20(fp)


	//显示ProgressBarX的背景与边界（由于点非常小，所以把点的区域例外去掉了）
//	AreaRange AreaArray[2] = { prgBarXInst->axisArea, dotRealArea };
//	status = status && showBkgAndBorder( &(prgBarXInst->bkgBorderColor), absPos, AreaArray, 2 );
	status = status && showBkgAndBorder( &(prgBarXInst->bkgBorderColor), absPos, &(prgBarXInst->axisArea), 1 );
    6eac:	e0bff703 	ldbu	r2,-36(fp)
    6eb0:	10000c26 	beq	r2,zero,6ee4 <showProgressBarX+0xb8>
    6eb4:	e0fffe17 	ldw	r3,-8(fp)
    6eb8:	e0bffe17 	ldw	r2,-8(fp)
    6ebc:	10800204 	addi	r2,r2,8
    6ec0:	1809883a 	mov	r4,r3
    6ec4:	e17fff17 	ldw	r5,-4(fp)
    6ec8:	100d883a 	mov	r6,r2
    6ecc:	01c00044 	movi	r7,1
    6ed0:	0004b240 	call	4b24 <showBkgAndBorder>
    6ed4:	10803fcc 	andi	r2,r2,255
    6ed8:	10000226 	beq	r2,zero,6ee4 <showProgressBarX+0xb8>
    6edc:	00800044 	movi	r2,1
    6ee0:	00000106 	br	6ee8 <showProgressBarX+0xbc>
    6ee4:	0005883a 	mov	r2,zero
    6ee8:	e0bff705 	stb	r2,-36(fp)
    6eec:	e0bff703 	ldbu	r2,-36(fp)
    6ef0:	1080004c 	andi	r2,r2,1
    6ef4:	e0bff705 	stb	r2,-36(fp)

	//子模块绝对位置
	AreaRange subModuAbsPos;

	//显示运动轴
	getAbsPos( absPos, &(prgBarXInst->axisArea), &subModuAbsPos );
    6ef8:	e0bffe17 	ldw	r2,-8(fp)
    6efc:	10c00204 	addi	r3,r2,8
    6f00:	e0bffb84 	addi	r2,fp,-18
    6f04:	e13fff17 	ldw	r4,-4(fp)
    6f08:	180b883a 	mov	r5,r3
    6f0c:	100d883a 	mov	r6,r2
    6f10:	00045800 	call	4580 <getAbsPos>
	status = status && showIconBlock( &(prgBarXInst->axis), &subModuAbsPos );
    6f14:	e0bff703 	ldbu	r2,-36(fp)
    6f18:	10000a26 	beq	r2,zero,6f44 <showProgressBarX+0x118>
    6f1c:	e0bffe17 	ldw	r2,-8(fp)
    6f20:	10c00404 	addi	r3,r2,16
    6f24:	e0bffb84 	addi	r2,fp,-18
    6f28:	1809883a 	mov	r4,r3
    6f2c:	100b883a 	mov	r5,r2
    6f30:	00060c00 	call	60c0 <showIconBlock>
    6f34:	10803fcc 	andi	r2,r2,255
    6f38:	10000226 	beq	r2,zero,6f44 <showProgressBarX+0x118>
    6f3c:	00800044 	movi	r2,1
    6f40:	00000106 	br	6f48 <showProgressBarX+0x11c>
    6f44:	0005883a 	mov	r2,zero
    6f48:	e0bff705 	stb	r2,-36(fp)
    6f4c:	e0bff703 	ldbu	r2,-36(fp)
    6f50:	1080004c 	andi	r2,r2,1
    6f54:	e0bff705 	stb	r2,-36(fp)

	//显示进度点
	getAbsPos( absPos, &dotRealArea, &subModuAbsPos );
    6f58:	e0fff984 	addi	r3,fp,-26
    6f5c:	e0bffb84 	addi	r2,fp,-18
    6f60:	e13fff17 	ldw	r4,-4(fp)
    6f64:	180b883a 	mov	r5,r3
    6f68:	100d883a 	mov	r6,r2
    6f6c:	00045800 	call	4580 <getAbsPos>
	status = status && showIconBlock( &(prgBarXInst->dot), &subModuAbsPos );
    6f70:	e0bff703 	ldbu	r2,-36(fp)
    6f74:	10000a26 	beq	r2,zero,6fa0 <showProgressBarX+0x174>
    6f78:	e0bffe17 	ldw	r2,-8(fp)
    6f7c:	10c00c04 	addi	r3,r2,48
    6f80:	e0bffb84 	addi	r2,fp,-18
    6f84:	1809883a 	mov	r4,r3
    6f88:	100b883a 	mov	r5,r2
    6f8c:	00060c00 	call	60c0 <showIconBlock>
    6f90:	10803fcc 	andi	r2,r2,255
    6f94:	10000226 	beq	r2,zero,6fa0 <showProgressBarX+0x174>
    6f98:	00800044 	movi	r2,1
    6f9c:	00000106 	br	6fa4 <showProgressBarX+0x178>
    6fa0:	0005883a 	mov	r2,zero
    6fa4:	e0bff705 	stb	r2,-36(fp)
    6fa8:	e0bff703 	ldbu	r2,-36(fp)
    6fac:	1080004c 	andi	r2,r2,1
    6fb0:	e0bff705 	stb	r2,-36(fp)

	return status;
    6fb4:	e0bff703 	ldbu	r2,-36(fp)
}
    6fb8:	e037883a 	mov	sp,fp
    6fbc:	dfc00117 	ldw	ra,4(sp)
    6fc0:	df000017 	ldw	fp,0(sp)
    6fc4:	dec00204 	addi	sp,sp,8
    6fc8:	f800283a 	ret

00006fcc <showColorBoard>:

//显示颜色板
bool showColorBoard( const ColorBoard *colorTableInst, const AreaRange *absPos )
{
    6fcc:	deffed04 	addi	sp,sp,-76
    6fd0:	dfc01215 	stw	ra,72(sp)
    6fd4:	df001115 	stw	fp,68(sp)
    6fd8:	df001104 	addi	fp,sp,68
    6fdc:	e13ffe15 	stw	r4,-8(fp)
    6fe0:	e17fff15 	stw	r5,-4(fp)
	bool status = true;
    6fe4:	00800044 	movi	r2,1
    6fe8:	e0bfef05 	stb	r2,-68(fp)

	//每个色块
	const short colorXSize = colorTableInst->colorXSize;//横向长度
    6fec:	e0bffe17 	ldw	r2,-8(fp)
    6ff0:	1080000b 	ldhu	r2,0(r2)
    6ff4:	e0bff28d 	sth	r2,-54(fp)
	const short colorYSize = colorTableInst->colorYSize;//纵向长度
    6ff8:	e0bffe17 	ldw	r2,-8(fp)
    6ffc:	1080008b 	ldhu	r2,2(r2)
    7000:	e0bff30d 	sth	r2,-52(fp)
	//色块个数
	const short colorXNum = colorTableInst->colorXNum;//横向颜色个数
    7004:	e0bffe17 	ldw	r2,-8(fp)
    7008:	1080010b 	ldhu	r2,4(r2)
    700c:	e0bff38d 	sth	r2,-50(fp)
	const short colorYNum = colorTableInst->colorYNum;//纵向颜色个数
    7010:	e0bffe17 	ldw	r2,-8(fp)
    7014:	1080018b 	ldhu	r2,6(r2)
    7018:	e0bff40d 	sth	r2,-48(fp)
	const short colorSNum = colorXNum * colorYNum;//颜色总个数
    701c:	e0fff38b 	ldhu	r3,-50(fp)
    7020:	e0bff40b 	ldhu	r2,-48(fp)
    7024:	1885383a 	mul	r2,r3,r2
    7028:	e0bff48d 	sth	r2,-46(fp)
	//颜色映射表
	const color_u16 *const colorSpace = colorTableInst->colorSpace;
    702c:	e0bffe17 	ldw	r2,-8(fp)
    7030:	10800217 	ldw	r2,8(r2)
    7034:	e0bff515 	stw	r2,-44(fp)

	//区域尺寸
	short xBasePos = absPos->x_min - 1;
    7038:	e0bfff17 	ldw	r2,-4(fp)
    703c:	1080000b 	ldhu	r2,0(r2)
    7040:	10bfffc4 	addi	r2,r2,-1
    7044:	e0bff60d 	sth	r2,-40(fp)
	short yBasePos = absPos->y_min - 1;
    7048:	e0bfff17 	ldw	r2,-4(fp)
    704c:	1080010b 	ldhu	r2,4(r2)
    7050:	10bfffc4 	addi	r2,r2,-1
    7054:	e0bff68d 	sth	r2,-38(fp)
	short width = absPos->x_max - xBasePos;
    7058:	e0bfff17 	ldw	r2,-4(fp)
    705c:	1080008b 	ldhu	r2,2(r2)
    7060:	1007883a 	mov	r3,r2
    7064:	e0bff60b 	ldhu	r2,-40(fp)
    7068:	1885c83a 	sub	r2,r3,r2
    706c:	e0bff70d 	sth	r2,-36(fp)
	short height = absPos->y_max - yBasePos;
    7070:	e0bfff17 	ldw	r2,-4(fp)
    7074:	1080018b 	ldhu	r2,6(r2)
    7078:	1007883a 	mov	r3,r2
    707c:	e0bff68b 	ldhu	r2,-38(fp)
    7080:	1885c83a 	sub	r2,r3,r2
    7084:	e0bff78d 	sth	r2,-34(fp)

	short curColorBaseIndex= 0;
    7088:	e03fef8d 	sth	zero,-66(fp)
	short curColorIndex = 0;
    708c:	e03ff00d 	sth	zero,-64(fp)

	//xPos,yPos为相对位置
	short xPos, yPos;
	short colorYoffset = 0;
    7090:	e03ff18d 	sth	zero,-58(fp)
	short colorXoffset = 0;
    7094:	e03ff20d 	sth	zero,-56(fp)
	//显示色板
	for ( yPos = 1; yPos <= height; yPos ++ )
    7098:	00800044 	movi	r2,1
    709c:	e0bff10d 	sth	r2,-60(fp)
    70a0:	00004006 	br	71a4 <showColorBoard+0x1d8>
	{
		if ( colorYoffset == colorYSize )
    70a4:	e0fff18f 	ldh	r3,-58(fp)
    70a8:	e0bff30f 	ldh	r2,-52(fp)
    70ac:	1880071e 	bne	r3,r2,70cc <showColorBoard+0x100>
		{
			colorYoffset = 1;
    70b0:	00800044 	movi	r2,1
    70b4:	e0bff18d 	sth	r2,-58(fp)
			curColorBaseIndex += colorXNum;
    70b8:	e0ffef8b 	ldhu	r3,-66(fp)
    70bc:	e0bff38b 	ldhu	r2,-50(fp)
    70c0:	1885883a 	add	r2,r3,r2
    70c4:	e0bfef8d 	sth	r2,-66(fp)
    70c8:	00000306 	br	70d8 <showColorBoard+0x10c>
		}
		else
		{
			colorYoffset ++;
    70cc:	e0bff18b 	ldhu	r2,-58(fp)
    70d0:	10800044 	addi	r2,r2,1
    70d4:	e0bff18d 	sth	r2,-58(fp)
		}
		curColorIndex = curColorBaseIndex;
    70d8:	e0bfef8b 	ldhu	r2,-66(fp)
    70dc:	e0bff00d 	sth	r2,-64(fp)

		colorXoffset = 0;
    70e0:	e03ff20d 	sth	zero,-56(fp)

		for( xPos = 1; xPos <= width && curColorIndex < colorSNum; xPos ++ )
    70e4:	00800044 	movi	r2,1
    70e8:	e0bff08d 	sth	r2,-62(fp)
    70ec:	00002406 	br	7180 <showColorBoard+0x1b4>
		{
			screenShowSpace[yBasePos + yPos-1][xBasePos+xPos-1] = colorSpace[curColorIndex];
    70f0:	e0fff68f 	ldh	r3,-38(fp)
    70f4:	e0bff10f 	ldh	r2,-60(fp)
    70f8:	1885883a 	add	r2,r3,r2
    70fc:	117fffc4 	addi	r5,r2,-1
    7100:	e0fff60f 	ldh	r3,-40(fp)
    7104:	e0bff08f 	ldh	r2,-62(fp)
    7108:	1885883a 	add	r2,r3,r2
    710c:	10ffffc4 	addi	r3,r2,-1
    7110:	e0bff00f 	ldh	r2,-64(fp)
    7114:	1085883a 	add	r2,r2,r2
    7118:	1009883a 	mov	r4,r2
    711c:	e0bff517 	ldw	r2,-44(fp)
    7120:	1105883a 	add	r2,r2,r4
    7124:	1100000b 	ldhu	r4,0(r2)
    7128:	00800374 	movhi	r2,13
    712c:	1093f204 	addi	r2,r2,20424
    7130:	29405024 	muli	r5,r5,320
    7134:	28c7883a 	add	r3,r5,r3
    7138:	18c7883a 	add	r3,r3,r3
    713c:	10c5883a 	add	r2,r2,r3
    7140:	1100000d 	sth	r4,0(r2)

			if ( colorXoffset == colorXSize )
    7144:	e0fff20f 	ldh	r3,-56(fp)
    7148:	e0bff28f 	ldh	r2,-54(fp)
    714c:	1880061e 	bne	r3,r2,7168 <showColorBoard+0x19c>
			{
				colorXoffset = 1;
    7150:	00800044 	movi	r2,1
    7154:	e0bff20d 	sth	r2,-56(fp)
				curColorIndex ++;
    7158:	e0bff00b 	ldhu	r2,-64(fp)
    715c:	10800044 	addi	r2,r2,1
    7160:	e0bff00d 	sth	r2,-64(fp)
    7164:	00000306 	br	7174 <showColorBoard+0x1a8>
			}
			else
			{
				colorXoffset ++;
    7168:	e0bff20b 	ldhu	r2,-56(fp)
    716c:	10800044 	addi	r2,r2,1
    7170:	e0bff20d 	sth	r2,-56(fp)
		}
		curColorIndex = curColorBaseIndex;

		colorXoffset = 0;

		for( xPos = 1; xPos <= width && curColorIndex < colorSNum; xPos ++ )
    7174:	e0bff08b 	ldhu	r2,-62(fp)
    7178:	10800044 	addi	r2,r2,1
    717c:	e0bff08d 	sth	r2,-62(fp)
    7180:	e0bff08f 	ldh	r2,-62(fp)
    7184:	e0fff70f 	ldh	r3,-36(fp)
    7188:	18800316 	blt	r3,r2,7198 <showColorBoard+0x1cc>
    718c:	e0fff00f 	ldh	r3,-64(fp)
    7190:	e0bff48f 	ldh	r2,-46(fp)
    7194:	18bfd616 	blt	r3,r2,70f0 <__alt_data_end+0xf80070f0>
	//xPos,yPos为相对位置
	short xPos, yPos;
	short colorYoffset = 0;
	short colorXoffset = 0;
	//显示色板
	for ( yPos = 1; yPos <= height; yPos ++ )
    7198:	e0bff10b 	ldhu	r2,-60(fp)
    719c:	10800044 	addi	r2,r2,1
    71a0:	e0bff10d 	sth	r2,-60(fp)
    71a4:	e0bff10f 	ldh	r2,-60(fp)
    71a8:	e0fff78f 	ldh	r3,-34(fp)
    71ac:	18bfbd0e 	bge	r3,r2,70a4 <__alt_data_end+0xf80070a4>
	}


	//突出选中颜色的边界

	if ( colorTableInst->colorIndex != NULL )
    71b0:	e0bffe17 	ldw	r2,-8(fp)
    71b4:	10800317 	ldw	r2,12(r2)
    71b8:	10007526 	beq	r2,zero,7390 <showColorBoard+0x3c4>
	{
		AreaRange colorBorderPos;//相对位置
		short colorIndex = *(colorTableInst->colorIndex);
    71bc:	e0bffe17 	ldw	r2,-8(fp)
    71c0:	10800317 	ldw	r2,12(r2)
    71c4:	10800003 	ldbu	r2,0(r2)
    71c8:	10803fcc 	andi	r2,r2,255
    71cc:	e0bff80d 	sth	r2,-32(fp)
		color_u16 borderColor = colorSpace[colorIndex];
    71d0:	e0bff80f 	ldh	r2,-32(fp)
    71d4:	1085883a 	add	r2,r2,r2
    71d8:	1007883a 	mov	r3,r2
    71dc:	e0bff517 	ldw	r2,-44(fp)
    71e0:	10c5883a 	add	r2,r2,r3
    71e4:	1080000b 	ldhu	r2,0(r2)
    71e8:	e0bff88d 	sth	r2,-30(fp)
		short colorYIndex = ( colorIndex + colorXNum ) / colorXNum;
    71ec:	e0fff80f 	ldh	r3,-32(fp)
    71f0:	e0bff38f 	ldh	r2,-50(fp)
    71f4:	1887883a 	add	r3,r3,r2
    71f8:	e0bff38f 	ldh	r2,-50(fp)
    71fc:	1809883a 	mov	r4,r3
    7200:	100b883a 	mov	r5,r2
    7204:	00083640 	call	8364 <__divsi3>
    7208:	e0bff90d 	sth	r2,-28(fp)
		short colorXIndex = colorIndex - (colorYIndex-1) * colorXNum + 1;
    720c:	e0bff90f 	ldh	r2,-28(fp)
    7210:	00c00044 	movi	r3,1
    7214:	1885c83a 	sub	r2,r3,r2
    7218:	1007883a 	mov	r3,r2
    721c:	e0bff38b 	ldhu	r2,-50(fp)
    7220:	1885383a 	mul	r2,r3,r2
    7224:	1007883a 	mov	r3,r2
    7228:	e0bff80b 	ldhu	r2,-32(fp)
    722c:	1885883a 	add	r2,r3,r2
    7230:	10800044 	addi	r2,r2,1
    7234:	e0bff98d 	sth	r2,-26(fp)
		//首先计算选中颜色块的外边界
		colorBorderPos.x_min = colorXIndex * (colorXSize-1);
    7238:	e0bff28f 	ldh	r2,-54(fp)
    723c:	10bfffc4 	addi	r2,r2,-1
    7240:	1007883a 	mov	r3,r2
    7244:	e0bff98b 	ldhu	r2,-26(fp)
    7248:	1885383a 	mul	r2,r3,r2
    724c:	e0bffa0d 	sth	r2,-24(fp)
		colorBorderPos.x_max = colorXIndex * colorXSize + 1;
    7250:	e0fff98b 	ldhu	r3,-26(fp)
    7254:	e0bff28b 	ldhu	r2,-54(fp)
    7258:	1885383a 	mul	r2,r3,r2
    725c:	10800044 	addi	r2,r2,1
    7260:	e0bffa8d 	sth	r2,-22(fp)
		colorBorderPos.y_min = colorYIndex * (colorYSize-1);
    7264:	e0bff30f 	ldh	r2,-52(fp)
    7268:	10bfffc4 	addi	r2,r2,-1
    726c:	1007883a 	mov	r3,r2
    7270:	e0bff90b 	ldhu	r2,-28(fp)
    7274:	1885383a 	mul	r2,r3,r2
    7278:	e0bffb0d 	sth	r2,-20(fp)
		colorBorderPos.y_max = colorYIndex * colorYSize + 1;
    727c:	e0fff90b 	ldhu	r3,-28(fp)
    7280:	e0bff30b 	ldhu	r2,-52(fp)
    7284:	1885383a 	mul	r2,r3,r2
    7288:	10800044 	addi	r2,r2,1
    728c:	e0bffb8d 	sth	r2,-18(fp)

		//选中颜色块的外边界在显示域absPos内
		if ( colorBorderPos.x_min <= width && colorBorderPos.y_min <= height )
    7290:	e0bffa0b 	ldhu	r2,-24(fp)
    7294:	10bfffcc 	andi	r2,r2,65535
    7298:	10a0001c 	xori	r2,r2,32768
    729c:	10a00004 	addi	r2,r2,-32768
    72a0:	e0fff70f 	ldh	r3,-36(fp)
    72a4:	18803a16 	blt	r3,r2,7390 <showColorBoard+0x3c4>
    72a8:	e0bffb0b 	ldhu	r2,-20(fp)
    72ac:	10bfffcc 	andi	r2,r2,65535
    72b0:	10a0001c 	xori	r2,r2,32768
    72b4:	10a00004 	addi	r2,r2,-32768
    72b8:	e0fff78f 	ldh	r3,-34(fp)
    72bc:	18803416 	blt	r3,r2,7390 <showColorBoard+0x3c4>
		{
			if ( colorBorderPos.x_min < 1 )
    72c0:	e0bffa0b 	ldhu	r2,-24(fp)
    72c4:	10bfffcc 	andi	r2,r2,65535
    72c8:	10a0001c 	xori	r2,r2,32768
    72cc:	10a00004 	addi	r2,r2,-32768
    72d0:	00800216 	blt	zero,r2,72dc <showColorBoard+0x310>
			{
				colorBorderPos.x_min = 1;
    72d4:	00800044 	movi	r2,1
    72d8:	e0bffa0d 	sth	r2,-24(fp)
			}
			if ( colorBorderPos.y_min < 1 )
    72dc:	e0bffb0b 	ldhu	r2,-20(fp)
    72e0:	10bfffcc 	andi	r2,r2,65535
    72e4:	10a0001c 	xori	r2,r2,32768
    72e8:	10a00004 	addi	r2,r2,-32768
    72ec:	00800216 	blt	zero,r2,72f8 <showColorBoard+0x32c>
			{
				colorBorderPos.y_min = 1;
    72f0:	00800044 	movi	r2,1
    72f4:	e0bffb0d 	sth	r2,-20(fp)
			}
			if ( colorBorderPos.x_max > width )
    72f8:	e0bffa8b 	ldhu	r2,-22(fp)
    72fc:	10bfffcc 	andi	r2,r2,65535
    7300:	10a0001c 	xori	r2,r2,32768
    7304:	10a00004 	addi	r2,r2,-32768
    7308:	e0fff70f 	ldh	r3,-36(fp)
    730c:	1880020e 	bge	r3,r2,7318 <showColorBoard+0x34c>
			{
				colorBorderPos.x_max = width;
    7310:	e0bff70b 	ldhu	r2,-36(fp)
    7314:	e0bffa8d 	sth	r2,-22(fp)
			}
			if ( colorBorderPos.y_max > height )
    7318:	e0bffb8b 	ldhu	r2,-18(fp)
    731c:	10bfffcc 	andi	r2,r2,65535
    7320:	10a0001c 	xori	r2,r2,32768
    7324:	10a00004 	addi	r2,r2,-32768
    7328:	e0fff78f 	ldh	r3,-34(fp)
    732c:	1880020e 	bge	r3,r2,7338 <showColorBoard+0x36c>
			{
				colorBorderPos.y_max = height;
    7330:	e0bff78b 	ldhu	r2,-34(fp)
    7334:	e0bffb8d 	sth	r2,-18(fp)
			}
			AreaRange colorBorderAbsPos;
			getAbsPos( absPos, &colorBorderPos, &colorBorderAbsPos );
    7338:	e0fffa04 	addi	r3,fp,-24
    733c:	e0bffc04 	addi	r2,fp,-16
    7340:	e13fff17 	ldw	r4,-4(fp)
    7344:	180b883a 	mov	r5,r3
    7348:	100d883a 	mov	r6,r2
    734c:	00045800 	call	4580 <getAbsPos>
			status = status && showBorder( &colorBorderAbsPos, borderColor );
    7350:	e0bfef03 	ldbu	r2,-68(fp)
    7354:	10000926 	beq	r2,zero,737c <showColorBoard+0x3b0>
    7358:	e0bff88b 	ldhu	r2,-30(fp)
    735c:	e0fffc04 	addi	r3,fp,-16
    7360:	1809883a 	mov	r4,r3
    7364:	100b883a 	mov	r5,r2
    7368:	00048600 	call	4860 <showBorder>
    736c:	10803fcc 	andi	r2,r2,255
    7370:	10000226 	beq	r2,zero,737c <showColorBoard+0x3b0>
    7374:	00800044 	movi	r2,1
    7378:	00000106 	br	7380 <showColorBoard+0x3b4>
    737c:	0005883a 	mov	r2,zero
    7380:	e0bfef05 	stb	r2,-68(fp)
    7384:	e0bfef03 	ldbu	r2,-68(fp)
    7388:	1080004c 	andi	r2,r2,1
    738c:	e0bfef05 	stb	r2,-68(fp)
		}
	}

	return status;
    7390:	e0bfef03 	ldbu	r2,-68(fp)
}
    7394:	e037883a 	mov	sp,fp
    7398:	dfc00117 	ldw	ra,4(sp)
    739c:	df000017 	ldw	fp,0(sp)
    73a0:	dec00204 	addi	sp,sp,8
    73a4:	f800283a 	ret

000073a8 <showScreenHeader>:


//显示screen_header
bool showScreenHeader( const ScreenHeaderTime *scrHeaderInst, const AreaRange *scrHeaderAbsPos )
{
    73a8:	defff904 	addi	sp,sp,-28
    73ac:	dfc00615 	stw	ra,24(sp)
    73b0:	df000515 	stw	fp,20(sp)
    73b4:	df000504 	addi	fp,sp,20
    73b8:	e13ffe15 	stw	r4,-8(fp)
    73bc:	e17fff15 	stw	r5,-4(fp)
	bool status = true;
    73c0:	00800044 	movi	r2,1
    73c4:	e0bffb05 	stb	r2,-20(fp)

	//显示screen_header的背景与边界
	status = status && showBkgAndBorder( &(scrHeaderInst->bkgBorderColor), scrHeaderAbsPos, &(scrHeaderInst->tagTimeArea), 1 );
    73c8:	e0bffb03 	ldbu	r2,-20(fp)
    73cc:	10000c26 	beq	r2,zero,7400 <showScreenHeader+0x58>
    73d0:	e0fffe17 	ldw	r3,-8(fp)
    73d4:	e0bffe17 	ldw	r2,-8(fp)
    73d8:	10800204 	addi	r2,r2,8
    73dc:	1809883a 	mov	r4,r3
    73e0:	e17fff17 	ldw	r5,-4(fp)
    73e4:	100d883a 	mov	r6,r2
    73e8:	01c00044 	movi	r7,1
    73ec:	0004b240 	call	4b24 <showBkgAndBorder>
    73f0:	10803fcc 	andi	r2,r2,255
    73f4:	10000226 	beq	r2,zero,7400 <showScreenHeader+0x58>
    73f8:	00800044 	movi	r2,1
    73fc:	00000106 	br	7404 <showScreenHeader+0x5c>
    7400:	0005883a 	mov	r2,zero
    7404:	e0bffb05 	stb	r2,-20(fp)
    7408:	e0bffb03 	ldbu	r2,-20(fp)
    740c:	1080004c 	andi	r2,r2,1
    7410:	e0bffb05 	stb	r2,-20(fp)

	//显示时间标签
	AreaRange tagTimeAbsPos;//时间标签绝对位置
	//计算绝对位置
	getAbsPos( scrHeaderAbsPos, &(scrHeaderInst->tagTimeArea), &tagTimeAbsPos );
    7414:	e0bffe17 	ldw	r2,-8(fp)
    7418:	10c00204 	addi	r3,r2,8
    741c:	e0bffb84 	addi	r2,fp,-18
    7420:	e13fff17 	ldw	r4,-4(fp)
    7424:	180b883a 	mov	r5,r3
    7428:	100d883a 	mov	r6,r2
    742c:	00045800 	call	4580 <getAbsPos>
	//显示Tag
	status = status && showTagBlock( &(scrHeaderInst->tagTime), &tagTimeAbsPos );
    7430:	e0bffb03 	ldbu	r2,-20(fp)
    7434:	10000a26 	beq	r2,zero,7460 <showScreenHeader+0xb8>
    7438:	e0bffe17 	ldw	r2,-8(fp)
    743c:	10c00404 	addi	r3,r2,16
    7440:	e0bffb84 	addi	r2,fp,-18
    7444:	1809883a 	mov	r4,r3
    7448:	100b883a 	mov	r5,r2
    744c:	00051180 	call	5118 <showTagBlock>
    7450:	10803fcc 	andi	r2,r2,255
    7454:	10000226 	beq	r2,zero,7460 <showScreenHeader+0xb8>
    7458:	00800044 	movi	r2,1
    745c:	00000106 	br	7464 <showScreenHeader+0xbc>
    7460:	0005883a 	mov	r2,zero
    7464:	e0bffb05 	stb	r2,-20(fp)
    7468:	e0bffb03 	ldbu	r2,-20(fp)
    746c:	1080004c 	andi	r2,r2,1
    7470:	e0bffb05 	stb	r2,-20(fp)


	return status;
    7474:	e0bffb03 	ldbu	r2,-20(fp)
}
    7478:	e037883a 	mov	sp,fp
    747c:	dfc00117 	ldw	ra,4(sp)
    7480:	df000017 	ldw	fp,0(sp)
    7484:	dec00204 	addi	sp,sp,8
    7488:	f800283a 	ret

0000748c <showScreenFooter>:
//显示screen_footer
bool showScreenFooter( const ScreenFooterBtn *scrFooterInst, const AreaRange *scrFooterAbsPos )
{
    748c:	defff304 	addi	sp,sp,-52
    7490:	dfc00c15 	stw	ra,48(sp)
    7494:	df000b15 	stw	fp,44(sp)
    7498:	df000b04 	addi	fp,sp,44
    749c:	e13ffe15 	stw	r4,-8(fp)
    74a0:	e17fff15 	stw	r5,-4(fp)
	bool status = true;
    74a4:	00800044 	movi	r2,1
    74a8:	e0bff505 	stb	r2,-44(fp)

	//显示screen_footer的背景与边界
	AreaRange AreaArray[3] = { scrFooterInst->iconSettingArea, scrFooterInst->iconHomeArea, scrFooterInst->iconBackArea };
    74ac:	e0bffe17 	ldw	r2,-8(fp)
    74b0:	10c0020b 	ldhu	r3,8(r2)
    74b4:	e0fff58d 	sth	r3,-42(fp)
    74b8:	10c0028b 	ldhu	r3,10(r2)
    74bc:	e0fff60d 	sth	r3,-40(fp)
    74c0:	10c0030b 	ldhu	r3,12(r2)
    74c4:	e0fff68d 	sth	r3,-38(fp)
    74c8:	1080038b 	ldhu	r2,14(r2)
    74cc:	e0bff70d 	sth	r2,-36(fp)
    74d0:	e0bffe17 	ldw	r2,-8(fp)
    74d4:	10c00a0b 	ldhu	r3,40(r2)
    74d8:	e0fff78d 	sth	r3,-34(fp)
    74dc:	10c00a8b 	ldhu	r3,42(r2)
    74e0:	e0fff80d 	sth	r3,-32(fp)
    74e4:	10c00b0b 	ldhu	r3,44(r2)
    74e8:	e0fff88d 	sth	r3,-30(fp)
    74ec:	10800b8b 	ldhu	r2,46(r2)
    74f0:	e0bff90d 	sth	r2,-28(fp)
    74f4:	e0bffe17 	ldw	r2,-8(fp)
    74f8:	10c0120b 	ldhu	r3,72(r2)
    74fc:	e0fff98d 	sth	r3,-26(fp)
    7500:	10c0128b 	ldhu	r3,74(r2)
    7504:	e0fffa0d 	sth	r3,-24(fp)
    7508:	10c0130b 	ldhu	r3,76(r2)
    750c:	e0fffa8d 	sth	r3,-22(fp)
    7510:	1080138b 	ldhu	r2,78(r2)
    7514:	e0bffb0d 	sth	r2,-20(fp)
	status = status && showBkgAndBorder( &(scrFooterInst->bkgBorderColor), scrFooterAbsPos, AreaArray, 3 );
    7518:	e0bff503 	ldbu	r2,-44(fp)
    751c:	10000b26 	beq	r2,zero,754c <showScreenFooter+0xc0>
    7520:	e0fffe17 	ldw	r3,-8(fp)
    7524:	e0bff584 	addi	r2,fp,-42
    7528:	1809883a 	mov	r4,r3
    752c:	e17fff17 	ldw	r5,-4(fp)
    7530:	100d883a 	mov	r6,r2
    7534:	01c000c4 	movi	r7,3
    7538:	0004b240 	call	4b24 <showBkgAndBorder>
    753c:	10803fcc 	andi	r2,r2,255
    7540:	10000226 	beq	r2,zero,754c <showScreenFooter+0xc0>
    7544:	00800044 	movi	r2,1
    7548:	00000106 	br	7550 <showScreenFooter+0xc4>
    754c:	0005883a 	mov	r2,zero
    7550:	e0bff505 	stb	r2,-44(fp)
    7554:	e0bff503 	ldbu	r2,-44(fp)
    7558:	1080004c 	andi	r2,r2,1
    755c:	e0bff505 	stb	r2,-44(fp)
	//显示3个按键
	AreaRange iconAbsPos;//图标绝对位置


	//显示编辑键
	getAbsPos( scrFooterAbsPos, &(scrFooterInst->iconSettingArea), &iconAbsPos );
    7560:	e0bffe17 	ldw	r2,-8(fp)
    7564:	10c00204 	addi	r3,r2,8
    7568:	e0bffb84 	addi	r2,fp,-18
    756c:	e13fff17 	ldw	r4,-4(fp)
    7570:	180b883a 	mov	r5,r3
    7574:	100d883a 	mov	r6,r2
    7578:	00045800 	call	4580 <getAbsPos>
	status = status && showIconBlock( &(scrFooterInst->iconSetting), &iconAbsPos );
    757c:	e0bff503 	ldbu	r2,-44(fp)
    7580:	10000a26 	beq	r2,zero,75ac <showScreenFooter+0x120>
    7584:	e0bffe17 	ldw	r2,-8(fp)
    7588:	10c00404 	addi	r3,r2,16
    758c:	e0bffb84 	addi	r2,fp,-18
    7590:	1809883a 	mov	r4,r3
    7594:	100b883a 	mov	r5,r2
    7598:	00060c00 	call	60c0 <showIconBlock>
    759c:	10803fcc 	andi	r2,r2,255
    75a0:	10000226 	beq	r2,zero,75ac <showScreenFooter+0x120>
    75a4:	00800044 	movi	r2,1
    75a8:	00000106 	br	75b0 <showScreenFooter+0x124>
    75ac:	0005883a 	mov	r2,zero
    75b0:	e0bff505 	stb	r2,-44(fp)
    75b4:	e0bff503 	ldbu	r2,-44(fp)
    75b8:	1080004c 	andi	r2,r2,1
    75bc:	e0bff505 	stb	r2,-44(fp)

	//显示主页键
	getAbsPos( scrFooterAbsPos, &(scrFooterInst->iconHomeArea), &iconAbsPos );
    75c0:	e0bffe17 	ldw	r2,-8(fp)
    75c4:	10c00a04 	addi	r3,r2,40
    75c8:	e0bffb84 	addi	r2,fp,-18
    75cc:	e13fff17 	ldw	r4,-4(fp)
    75d0:	180b883a 	mov	r5,r3
    75d4:	100d883a 	mov	r6,r2
    75d8:	00045800 	call	4580 <getAbsPos>
	status = status && showIconBlock( &(scrFooterInst->iconHome), &iconAbsPos );
    75dc:	e0bff503 	ldbu	r2,-44(fp)
    75e0:	10000a26 	beq	r2,zero,760c <showScreenFooter+0x180>
    75e4:	e0bffe17 	ldw	r2,-8(fp)
    75e8:	10c00c04 	addi	r3,r2,48
    75ec:	e0bffb84 	addi	r2,fp,-18
    75f0:	1809883a 	mov	r4,r3
    75f4:	100b883a 	mov	r5,r2
    75f8:	00060c00 	call	60c0 <showIconBlock>
    75fc:	10803fcc 	andi	r2,r2,255
    7600:	10000226 	beq	r2,zero,760c <showScreenFooter+0x180>
    7604:	00800044 	movi	r2,1
    7608:	00000106 	br	7610 <showScreenFooter+0x184>
    760c:	0005883a 	mov	r2,zero
    7610:	e0bff505 	stb	r2,-44(fp)
    7614:	e0bff503 	ldbu	r2,-44(fp)
    7618:	1080004c 	andi	r2,r2,1
    761c:	e0bff505 	stb	r2,-44(fp)

	//显示返回键
	getAbsPos( scrFooterAbsPos, &(scrFooterInst->iconBackArea), &iconAbsPos );
    7620:	e0bffe17 	ldw	r2,-8(fp)
    7624:	10c01204 	addi	r3,r2,72
    7628:	e0bffb84 	addi	r2,fp,-18
    762c:	e13fff17 	ldw	r4,-4(fp)
    7630:	180b883a 	mov	r5,r3
    7634:	100d883a 	mov	r6,r2
    7638:	00045800 	call	4580 <getAbsPos>
	status = status && showIconBlock( &(scrFooterInst->iconBack), &iconAbsPos );
    763c:	e0bff503 	ldbu	r2,-44(fp)
    7640:	10000a26 	beq	r2,zero,766c <showScreenFooter+0x1e0>
    7644:	e0bffe17 	ldw	r2,-8(fp)
    7648:	10c01404 	addi	r3,r2,80
    764c:	e0bffb84 	addi	r2,fp,-18
    7650:	1809883a 	mov	r4,r3
    7654:	100b883a 	mov	r5,r2
    7658:	00060c00 	call	60c0 <showIconBlock>
    765c:	10803fcc 	andi	r2,r2,255
    7660:	10000226 	beq	r2,zero,766c <showScreenFooter+0x1e0>
    7664:	00800044 	movi	r2,1
    7668:	00000106 	br	7670 <showScreenFooter+0x1e4>
    766c:	0005883a 	mov	r2,zero
    7670:	e0bff505 	stb	r2,-44(fp)
    7674:	e0bff503 	ldbu	r2,-44(fp)
    7678:	1080004c 	andi	r2,r2,1
    767c:	e0bff505 	stb	r2,-44(fp)

	return status;
    7680:	e0bff503 	ldbu	r2,-44(fp)
}
    7684:	e037883a 	mov	sp,fp
    7688:	dfc00117 	ldw	ra,4(sp)
    768c:	df000017 	ldw	fp,0(sp)
    7690:	dec00204 	addi	sp,sp,8
    7694:	f800283a 	ret

00007698 <showScreenMainHome>:
//显示screen_main_home
bool showScreenMainHome( const ScreenHome *scrHomeInst, const AreaRange *scrMainAbsPos )
{
    7698:	defff304 	addi	sp,sp,-52
    769c:	dfc00c15 	stw	ra,48(sp)
    76a0:	df000b15 	stw	fp,44(sp)
    76a4:	df000b04 	addi	fp,sp,44
    76a8:	e13ffe15 	stw	r4,-8(fp)
    76ac:	e17fff15 	stw	r5,-4(fp)
	bool status = true;
    76b0:	00800044 	movi	r2,1
    76b4:	e0bff505 	stb	r2,-44(fp)

	//显示背景与边界
	AreaRange AreaArray[3] = { scrHomeInst->numBarArea, scrHomeInst->txtCatalogArea, scrHomeInst->turnCatalogBarArea };
    76b8:	e0bffe17 	ldw	r2,-8(fp)
    76bc:	10c0060b 	ldhu	r3,24(r2)
    76c0:	e0fff58d 	sth	r3,-42(fp)
    76c4:	10c0068b 	ldhu	r3,26(r2)
    76c8:	e0fff60d 	sth	r3,-40(fp)
    76cc:	10c0070b 	ldhu	r3,28(r2)
    76d0:	e0fff68d 	sth	r3,-38(fp)
    76d4:	1080078b 	ldhu	r2,30(r2)
    76d8:	e0bff70d 	sth	r2,-36(fp)
    76dc:	e0bffe17 	ldw	r2,-8(fp)
    76e0:	10c0110b 	ldhu	r3,68(r2)
    76e4:	e0fff78d 	sth	r3,-34(fp)
    76e8:	10c0118b 	ldhu	r3,70(r2)
    76ec:	e0fff80d 	sth	r3,-32(fp)
    76f0:	10c0120b 	ldhu	r3,72(r2)
    76f4:	e0fff88d 	sth	r3,-30(fp)
    76f8:	1080128b 	ldhu	r2,74(r2)
    76fc:	e0bff90d 	sth	r2,-28(fp)
    7700:	e0bffe17 	ldw	r2,-8(fp)
    7704:	10c01f0b 	ldhu	r3,124(r2)
    7708:	e0fff98d 	sth	r3,-26(fp)
    770c:	10c01f8b 	ldhu	r3,126(r2)
    7710:	e0fffa0d 	sth	r3,-24(fp)
    7714:	10c0200b 	ldhu	r3,128(r2)
    7718:	e0fffa8d 	sth	r3,-22(fp)
    771c:	1080208b 	ldhu	r2,130(r2)
    7720:	e0bffb0d 	sth	r2,-20(fp)
	status = status && showBkgAndBorder( &(scrHomeInst->bkgBorderColor), scrMainAbsPos, AreaArray, 3 );
    7724:	e0bff503 	ldbu	r2,-44(fp)
    7728:	10000b26 	beq	r2,zero,7758 <showScreenMainHome+0xc0>
    772c:	e0fffe17 	ldw	r3,-8(fp)
    7730:	e0bff584 	addi	r2,fp,-42
    7734:	1809883a 	mov	r4,r3
    7738:	e17fff17 	ldw	r5,-4(fp)
    773c:	100d883a 	mov	r6,r2
    7740:	01c000c4 	movi	r7,3
    7744:	0004b240 	call	4b24 <showBkgAndBorder>
    7748:	10803fcc 	andi	r2,r2,255
    774c:	10000226 	beq	r2,zero,7758 <showScreenMainHome+0xc0>
    7750:	00800044 	movi	r2,1
    7754:	00000106 	br	775c <showScreenMainHome+0xc4>
    7758:	0005883a 	mov	r2,zero
    775c:	e0bff505 	stb	r2,-44(fp)
    7760:	e0bff503 	ldbu	r2,-44(fp)
    7764:	1080004c 	andi	r2,r2,1
    7768:	e0bff505 	stb	r2,-44(fp)

	//子模块绝对位置
	AreaRange subModuAbsPos;

	//显示数字编号条（列表）
	getAbsPos( scrMainAbsPos, &(scrHomeInst->numBarArea), &subModuAbsPos );
    776c:	e0bffe17 	ldw	r2,-8(fp)
    7770:	10c00604 	addi	r3,r2,24
    7774:	e0bffb84 	addi	r2,fp,-18
    7778:	e13fff17 	ldw	r4,-4(fp)
    777c:	180b883a 	mov	r5,r3
    7780:	100d883a 	mov	r6,r2
    7784:	00045800 	call	4580 <getAbsPos>
	status = status && showTagList( &(scrHomeInst->numBar), &subModuAbsPos, scrHomeInst->listYOffset );
    7788:	e0bff503 	ldbu	r2,-44(fp)
    778c:	10000f26 	beq	r2,zero,77cc <showScreenMainHome+0x134>
    7790:	e0bffe17 	ldw	r2,-8(fp)
    7794:	11000804 	addi	r4,r2,32
    7798:	e0bffe17 	ldw	r2,-8(fp)
    779c:	1080020b 	ldhu	r2,8(r2)
    77a0:	10bfffcc 	andi	r2,r2,65535
    77a4:	10a0001c 	xori	r2,r2,32768
    77a8:	10a00004 	addi	r2,r2,-32768
    77ac:	e0fffb84 	addi	r3,fp,-18
    77b0:	180b883a 	mov	r5,r3
    77b4:	100d883a 	mov	r6,r2
    77b8:	00066580 	call	6658 <showTagList>
    77bc:	10803fcc 	andi	r2,r2,255
    77c0:	10000226 	beq	r2,zero,77cc <showScreenMainHome+0x134>
    77c4:	00800044 	movi	r2,1
    77c8:	00000106 	br	77d0 <showScreenMainHome+0x138>
    77cc:	0005883a 	mov	r2,zero
    77d0:	e0bff505 	stb	r2,-44(fp)
    77d4:	e0bff503 	ldbu	r2,-44(fp)
    77d8:	1080004c 	andi	r2,r2,1
    77dc:	e0bff505 	stb	r2,-44(fp)

	//显示txt文本文件名列表
	getAbsPos( scrMainAbsPos, &(scrHomeInst->txtCatalogArea), &subModuAbsPos );
    77e0:	e0bffe17 	ldw	r2,-8(fp)
    77e4:	10c01104 	addi	r3,r2,68
    77e8:	e0bffb84 	addi	r2,fp,-18
    77ec:	e13fff17 	ldw	r4,-4(fp)
    77f0:	180b883a 	mov	r5,r3
    77f4:	100d883a 	mov	r6,r2
    77f8:	00045800 	call	4580 <getAbsPos>
	status = status && showTagList( &(scrHomeInst->txtCatalog), &subModuAbsPos, scrHomeInst->listYOffset );
    77fc:	e0bff503 	ldbu	r2,-44(fp)
    7800:	10000f26 	beq	r2,zero,7840 <showScreenMainHome+0x1a8>
    7804:	e0bffe17 	ldw	r2,-8(fp)
    7808:	11001304 	addi	r4,r2,76
    780c:	e0bffe17 	ldw	r2,-8(fp)
    7810:	1080020b 	ldhu	r2,8(r2)
    7814:	10bfffcc 	andi	r2,r2,65535
    7818:	10a0001c 	xori	r2,r2,32768
    781c:	10a00004 	addi	r2,r2,-32768
    7820:	e0fffb84 	addi	r3,fp,-18
    7824:	180b883a 	mov	r5,r3
    7828:	100d883a 	mov	r6,r2
    782c:	00066580 	call	6658 <showTagList>
    7830:	10803fcc 	andi	r2,r2,255
    7834:	10000226 	beq	r2,zero,7840 <showScreenMainHome+0x1a8>
    7838:	00800044 	movi	r2,1
    783c:	00000106 	br	7844 <showScreenMainHome+0x1ac>
    7840:	0005883a 	mov	r2,zero
    7844:	e0bff505 	stb	r2,-44(fp)
    7848:	e0bff503 	ldbu	r2,-44(fp)
    784c:	1080004c 	andi	r2,r2,1
    7850:	e0bff505 	stb	r2,-44(fp)

	//显示上下翻滚动条
	getAbsPos( scrMainAbsPos, &(scrHomeInst->turnCatalogBarArea), &subModuAbsPos );
    7854:	e0bffe17 	ldw	r2,-8(fp)
    7858:	10c01f04 	addi	r3,r2,124
    785c:	e0bffb84 	addi	r2,fp,-18
    7860:	e13fff17 	ldw	r4,-4(fp)
    7864:	180b883a 	mov	r5,r3
    7868:	100d883a 	mov	r6,r2
    786c:	00045800 	call	4580 <getAbsPos>
	status = status && showScrollBarY( &(scrHomeInst->turnCatalogBarY), &subModuAbsPos );
    7870:	e0bff503 	ldbu	r2,-44(fp)
    7874:	10000a26 	beq	r2,zero,78a0 <showScreenMainHome+0x208>
    7878:	e0bffe17 	ldw	r2,-8(fp)
    787c:	10c02104 	addi	r3,r2,132
    7880:	e0bffb84 	addi	r2,fp,-18
    7884:	1809883a 	mov	r4,r3
    7888:	100b883a 	mov	r5,r2
    788c:	00069680 	call	6968 <showScrollBarY>
    7890:	10803fcc 	andi	r2,r2,255
    7894:	10000226 	beq	r2,zero,78a0 <showScreenMainHome+0x208>
    7898:	00800044 	movi	r2,1
    789c:	00000106 	br	78a4 <showScreenMainHome+0x20c>
    78a0:	0005883a 	mov	r2,zero
    78a4:	e0bff505 	stb	r2,-44(fp)
    78a8:	e0bff503 	ldbu	r2,-44(fp)
    78ac:	1080004c 	andi	r2,r2,1
    78b0:	e0bff505 	stb	r2,-44(fp)

	return status;
    78b4:	e0bff503 	ldbu	r2,-44(fp)
}
    78b8:	e037883a 	mov	sp,fp
    78bc:	dfc00117 	ldw	ra,4(sp)
    78c0:	df000017 	ldw	fp,0(sp)
    78c4:	dec00204 	addi	sp,sp,8
    78c8:	f800283a 	ret

000078cc <showScreenMainBook>:
//显示screen_main_book
bool showScreenMainBook( const ScreenBook *scrBookInst, const AreaRange *scrMainAbsPos )
{
    78cc:	defff304 	addi	sp,sp,-52
    78d0:	dfc00c15 	stw	ra,48(sp)
    78d4:	df000b15 	stw	fp,44(sp)
    78d8:	df000b04 	addi	fp,sp,44
    78dc:	e13ffe15 	stw	r4,-8(fp)
    78e0:	e17fff15 	stw	r5,-4(fp)
	bool status = true;
    78e4:	00800044 	movi	r2,1
    78e8:	e0bff505 	stb	r2,-44(fp)

	//如果页面阅读进度信息可见
	if ( scrBookInst->pageInfoVisible )
    78ec:	e0bffe17 	ldw	r2,-8(fp)
    78f0:	10804903 	ldbu	r2,292(r2)
    78f4:	10803fcc 	andi	r2,r2,255
    78f8:	10005626 	beq	r2,zero,7a54 <showScreenMainBook+0x188>
	{
		//显示背景与边界
		AreaRange AreaArray[2] = { scrBookInst->txtBookArea, scrBookInst->pageInfoArea };
    78fc:	e0bffe17 	ldw	r2,-8(fp)
    7900:	10c0020b 	ldhu	r3,8(r2)
    7904:	e0fff58d 	sth	r3,-42(fp)
    7908:	10c0028b 	ldhu	r3,10(r2)
    790c:	e0fff60d 	sth	r3,-40(fp)
    7910:	10c0030b 	ldhu	r3,12(r2)
    7914:	e0fff68d 	sth	r3,-38(fp)
    7918:	1080038b 	ldhu	r2,14(r2)
    791c:	e0bff70d 	sth	r2,-36(fp)
    7920:	e0bffe17 	ldw	r2,-8(fp)
    7924:	10c0150b 	ldhu	r3,84(r2)
    7928:	e0fff78d 	sth	r3,-34(fp)
    792c:	10c0158b 	ldhu	r3,86(r2)
    7930:	e0fff80d 	sth	r3,-32(fp)
    7934:	10c0160b 	ldhu	r3,88(r2)
    7938:	e0fff88d 	sth	r3,-30(fp)
    793c:	1080168b 	ldhu	r2,90(r2)
    7940:	e0bff90d 	sth	r2,-28(fp)
		status = status && showBkgAndBorder( &(scrBookInst->bookColorInfo), scrMainAbsPos, AreaArray, 2 );
    7944:	e0bff503 	ldbu	r2,-44(fp)
    7948:	10000b26 	beq	r2,zero,7978 <showScreenMainBook+0xac>
    794c:	e0fffe17 	ldw	r3,-8(fp)
    7950:	e0bff584 	addi	r2,fp,-42
    7954:	1809883a 	mov	r4,r3
    7958:	e17fff17 	ldw	r5,-4(fp)
    795c:	100d883a 	mov	r6,r2
    7960:	01c00084 	movi	r7,2
    7964:	0004b240 	call	4b24 <showBkgAndBorder>
    7968:	10803fcc 	andi	r2,r2,255
    796c:	10000226 	beq	r2,zero,7978 <showScreenMainBook+0xac>
    7970:	00800044 	movi	r2,1
    7974:	00000106 	br	797c <showScreenMainBook+0xb0>
    7978:	0005883a 	mov	r2,zero
    797c:	e0bff505 	stb	r2,-44(fp)
    7980:	e0bff503 	ldbu	r2,-44(fp)
    7984:	1080004c 	andi	r2,r2,1
    7988:	e0bff505 	stb	r2,-44(fp)

		//子模块绝对位置
		AreaRange subModuAbsPos;

		//显示电子书区域(因为下方被下面弹出的阅读进度信息覆盖，所以区域变窄
		getAbsPos( scrMainAbsPos, &(scrBookInst->txtBookNarrowArea), &subModuAbsPos );
    798c:	e0bffe17 	ldw	r2,-8(fp)
    7990:	10c00404 	addi	r3,r2,16
    7994:	e0bff984 	addi	r2,fp,-26
    7998:	e13fff17 	ldw	r4,-4(fp)
    799c:	180b883a 	mov	r5,r3
    79a0:	100d883a 	mov	r6,r2
    79a4:	00045800 	call	4580 <getAbsPos>
		status = status && showTagList( &(scrBookInst->txtBook), &subModuAbsPos, 0 );
    79a8:	e0bff503 	ldbu	r2,-44(fp)
    79ac:	10000b26 	beq	r2,zero,79dc <showScreenMainBook+0x110>
    79b0:	e0bffe17 	ldw	r2,-8(fp)
    79b4:	10c00604 	addi	r3,r2,24
    79b8:	e0bff984 	addi	r2,fp,-26
    79bc:	1809883a 	mov	r4,r3
    79c0:	100b883a 	mov	r5,r2
    79c4:	000d883a 	mov	r6,zero
    79c8:	00066580 	call	6658 <showTagList>
    79cc:	10803fcc 	andi	r2,r2,255
    79d0:	10000226 	beq	r2,zero,79dc <showScreenMainBook+0x110>
    79d4:	00800044 	movi	r2,1
    79d8:	00000106 	br	79e0 <showScreenMainBook+0x114>
    79dc:	0005883a 	mov	r2,zero
    79e0:	e0bff505 	stb	r2,-44(fp)
    79e4:	e0bff503 	ldbu	r2,-44(fp)
    79e8:	1080004c 	andi	r2,r2,1
    79ec:	e0bff505 	stb	r2,-44(fp)

		//显示电子书阅读进度信息
		getAbsPos( scrMainAbsPos, &(scrBookInst->pageInfoArea), &subModuAbsPos );
    79f0:	e0bffe17 	ldw	r2,-8(fp)
    79f4:	10c01504 	addi	r3,r2,84
    79f8:	e0bff984 	addi	r2,fp,-26
    79fc:	e13fff17 	ldw	r4,-4(fp)
    7a00:	180b883a 	mov	r5,r3
    7a04:	100d883a 	mov	r6,r2
    7a08:	00045800 	call	4580 <getAbsPos>
		status = status && showScreenPageInfo( &(scrBookInst->pageInfo), &subModuAbsPos );
    7a0c:	e0bff503 	ldbu	r2,-44(fp)
    7a10:	10000a26 	beq	r2,zero,7a3c <showScreenMainBook+0x170>
    7a14:	e0bffe17 	ldw	r2,-8(fp)
    7a18:	10c01704 	addi	r3,r2,92
    7a1c:	e0bff984 	addi	r2,fp,-26
    7a20:	1809883a 	mov	r4,r3
    7a24:	100b883a 	mov	r5,r2
    7a28:	0006c200 	call	6c20 <showScreenPageInfo>
    7a2c:	10803fcc 	andi	r2,r2,255
    7a30:	10000226 	beq	r2,zero,7a3c <showScreenMainBook+0x170>
    7a34:	00800044 	movi	r2,1
    7a38:	00000106 	br	7a40 <showScreenMainBook+0x174>
    7a3c:	0005883a 	mov	r2,zero
    7a40:	e0bff505 	stb	r2,-44(fp)
    7a44:	e0bff503 	ldbu	r2,-44(fp)
    7a48:	1080004c 	andi	r2,r2,1
    7a4c:	e0bff505 	stb	r2,-44(fp)
    7a50:	00002c06 	br	7b04 <showScreenMainBook+0x238>
	}
	else
	{
		//显示背景与边界
		status = status && showBkgAndBorder( &(scrBookInst->bookColorInfo), scrMainAbsPos, &(scrBookInst->txtBookArea), 1 );
    7a54:	e0bff503 	ldbu	r2,-44(fp)
    7a58:	10000c26 	beq	r2,zero,7a8c <showScreenMainBook+0x1c0>
    7a5c:	e0fffe17 	ldw	r3,-8(fp)
    7a60:	e0bffe17 	ldw	r2,-8(fp)
    7a64:	10800204 	addi	r2,r2,8
    7a68:	1809883a 	mov	r4,r3
    7a6c:	e17fff17 	ldw	r5,-4(fp)
    7a70:	100d883a 	mov	r6,r2
    7a74:	01c00044 	movi	r7,1
    7a78:	0004b240 	call	4b24 <showBkgAndBorder>
    7a7c:	10803fcc 	andi	r2,r2,255
    7a80:	10000226 	beq	r2,zero,7a8c <showScreenMainBook+0x1c0>
    7a84:	00800044 	movi	r2,1
    7a88:	00000106 	br	7a90 <showScreenMainBook+0x1c4>
    7a8c:	0005883a 	mov	r2,zero
    7a90:	e0bff505 	stb	r2,-44(fp)
    7a94:	e0bff503 	ldbu	r2,-44(fp)
    7a98:	1080004c 	andi	r2,r2,1
    7a9c:	e0bff505 	stb	r2,-44(fp)

		//显示电子书区域
		AreaRange subModuAbsPos;
		getAbsPos( scrMainAbsPos, &(scrBookInst->txtBookArea), &subModuAbsPos );
    7aa0:	e0bffe17 	ldw	r2,-8(fp)
    7aa4:	10c00204 	addi	r3,r2,8
    7aa8:	e0bffb84 	addi	r2,fp,-18
    7aac:	e13fff17 	ldw	r4,-4(fp)
    7ab0:	180b883a 	mov	r5,r3
    7ab4:	100d883a 	mov	r6,r2
    7ab8:	00045800 	call	4580 <getAbsPos>
		status = status && showTagList( &(scrBookInst->txtBook), &subModuAbsPos, 0 );
    7abc:	e0bff503 	ldbu	r2,-44(fp)
    7ac0:	10000b26 	beq	r2,zero,7af0 <showScreenMainBook+0x224>
    7ac4:	e0bffe17 	ldw	r2,-8(fp)
    7ac8:	10c00604 	addi	r3,r2,24
    7acc:	e0bffb84 	addi	r2,fp,-18
    7ad0:	1809883a 	mov	r4,r3
    7ad4:	100b883a 	mov	r5,r2
    7ad8:	000d883a 	mov	r6,zero
    7adc:	00066580 	call	6658 <showTagList>
    7ae0:	10803fcc 	andi	r2,r2,255
    7ae4:	10000226 	beq	r2,zero,7af0 <showScreenMainBook+0x224>
    7ae8:	00800044 	movi	r2,1
    7aec:	00000106 	br	7af4 <showScreenMainBook+0x228>
    7af0:	0005883a 	mov	r2,zero
    7af4:	e0bff505 	stb	r2,-44(fp)
    7af8:	e0bff503 	ldbu	r2,-44(fp)
    7afc:	1080004c 	andi	r2,r2,1
    7b00:	e0bff505 	stb	r2,-44(fp)
	}

	return status;
    7b04:	e0bff503 	ldbu	r2,-44(fp)
}
    7b08:	e037883a 	mov	sp,fp
    7b0c:	dfc00117 	ldw	ra,4(sp)
    7b10:	df000017 	ldw	fp,0(sp)
    7b14:	dec00204 	addi	sp,sp,8
    7b18:	f800283a 	ret

00007b1c <showScreenMainSetting>:
//显示screen_main_setting
bool showScreenMainSetting( const ScreenSetting *scrSettingInst, const AreaRange *scrMainAbsPos )
{
    7b1c:	deffe904 	addi	sp,sp,-92
    7b20:	dfc01615 	stw	ra,88(sp)
    7b24:	df001515 	stw	fp,84(sp)
    7b28:	df001504 	addi	fp,sp,84
    7b2c:	e13ffe15 	stw	r4,-8(fp)
    7b30:	e17fff15 	stw	r5,-4(fp)
	bool status = true;
    7b34:	00800044 	movi	r2,1
    7b38:	e0bfeb05 	stb	r2,-84(fp)

	//显示screen_footer的背景与边界
	AreaRange AreaArray[8] = { scrSettingInst->tag1Area, scrSettingInst->editAlarmHourArea, scrSettingInst->editAlarmMinuteArea,\
    7b3c:	e0bffe17 	ldw	r2,-8(fp)
    7b40:	10c0020b 	ldhu	r3,8(r2)
    7b44:	e0ffeb8d 	sth	r3,-82(fp)
    7b48:	10c0028b 	ldhu	r3,10(r2)
    7b4c:	e0ffec0d 	sth	r3,-80(fp)
    7b50:	10c0030b 	ldhu	r3,12(r2)
    7b54:	e0ffec8d 	sth	r3,-78(fp)
    7b58:	1080038b 	ldhu	r2,14(r2)
    7b5c:	e0bfed0d 	sth	r2,-76(fp)
    7b60:	e0bffe17 	ldw	r2,-8(fp)
    7b64:	10c00d0b 	ldhu	r3,52(r2)
    7b68:	e0ffed8d 	sth	r3,-74(fp)
    7b6c:	10c00d8b 	ldhu	r3,54(r2)
    7b70:	e0ffee0d 	sth	r3,-72(fp)
    7b74:	10c00e0b 	ldhu	r3,56(r2)
    7b78:	e0ffee8d 	sth	r3,-70(fp)
    7b7c:	10800e8b 	ldhu	r2,58(r2)
    7b80:	e0bfef0d 	sth	r2,-68(fp)
    7b84:	e0bffe17 	ldw	r2,-8(fp)
    7b88:	10c0390b 	ldhu	r3,228(r2)
    7b8c:	e0ffef8d 	sth	r3,-66(fp)
    7b90:	10c0398b 	ldhu	r3,230(r2)
    7b94:	e0fff00d 	sth	r3,-64(fp)
    7b98:	10c03a0b 	ldhu	r3,232(r2)
    7b9c:	e0fff08d 	sth	r3,-62(fp)
    7ba0:	10803a8b 	ldhu	r2,234(r2)
    7ba4:	e0bff10d 	sth	r2,-60(fp)
    7ba8:	e0bffe17 	ldw	r2,-8(fp)
    7bac:	10c0650b 	ldhu	r3,404(r2)
    7bb0:	e0fff18d 	sth	r3,-58(fp)
    7bb4:	10c0658b 	ldhu	r3,406(r2)
    7bb8:	e0fff20d 	sth	r3,-56(fp)
    7bbc:	10c0660b 	ldhu	r3,408(r2)
    7bc0:	e0fff28d 	sth	r3,-54(fp)
    7bc4:	1080668b 	ldhu	r2,410(r2)
    7bc8:	e0bff30d 	sth	r2,-52(fp)
    7bcc:	e0bffe17 	ldw	r2,-8(fp)
    7bd0:	10c07f0b 	ldhu	r3,508(r2)
    7bd4:	e0fff38d 	sth	r3,-50(fp)
    7bd8:	10c07f8b 	ldhu	r3,510(r2)
    7bdc:	e0fff40d 	sth	r3,-48(fp)
    7be0:	10c0800b 	ldhu	r3,512(r2)
    7be4:	e0fff48d 	sth	r3,-46(fp)
    7be8:	1080808b 	ldhu	r2,514(r2)
    7bec:	e0bff50d 	sth	r2,-44(fp)
    7bf0:	e0bffe17 	ldw	r2,-8(fp)
    7bf4:	10c0990b 	ldhu	r3,612(r2)
    7bf8:	e0fff58d 	sth	r3,-42(fp)
    7bfc:	10c0998b 	ldhu	r3,614(r2)
    7c00:	e0fff60d 	sth	r3,-40(fp)
    7c04:	10c09a0b 	ldhu	r3,616(r2)
    7c08:	e0fff68d 	sth	r3,-38(fp)
    7c0c:	10809a8b 	ldhu	r2,618(r2)
    7c10:	e0bff70d 	sth	r2,-36(fp)
    7c14:	e0bffe17 	ldw	r2,-8(fp)
    7c18:	10c0b30b 	ldhu	r3,716(r2)
    7c1c:	e0fff78d 	sth	r3,-34(fp)
    7c20:	10c0b38b 	ldhu	r3,718(r2)
    7c24:	e0fff80d 	sth	r3,-32(fp)
    7c28:	10c0b40b 	ldhu	r3,720(r2)
    7c2c:	e0fff88d 	sth	r3,-30(fp)
    7c30:	1080b48b 	ldhu	r2,722(r2)
    7c34:	e0bff90d 	sth	r2,-28(fp)
    7c38:	e0bffe17 	ldw	r2,-8(fp)
    7c3c:	10c0be0b 	ldhu	r3,760(r2)
    7c40:	e0fff98d 	sth	r3,-26(fp)
    7c44:	10c0be8b 	ldhu	r3,762(r2)
    7c48:	e0fffa0d 	sth	r3,-24(fp)
    7c4c:	10c0bf0b 	ldhu	r3,764(r2)
    7c50:	e0fffa8d 	sth	r3,-22(fp)
    7c54:	1080bf8b 	ldhu	r2,766(r2)
    7c58:	e0bffb0d 	sth	r2,-20(fp)
			scrSettingInst->editBkgColorArea, scrSettingInst->editWordColorArea, scrSettingInst->editTurnPageModArea,\
			scrSettingInst->tag2Area, scrSettingInst->editTurnPageSecArea };
	status = status && showBkgAndBorder( &(scrSettingInst->bkgBorderColor), scrMainAbsPos, AreaArray, 8 );
    7c5c:	e0bfeb03 	ldbu	r2,-84(fp)
    7c60:	10000b26 	beq	r2,zero,7c90 <showScreenMainSetting+0x174>
    7c64:	e0fffe17 	ldw	r3,-8(fp)
    7c68:	e0bfeb84 	addi	r2,fp,-82
    7c6c:	1809883a 	mov	r4,r3
    7c70:	e17fff17 	ldw	r5,-4(fp)
    7c74:	100d883a 	mov	r6,r2
    7c78:	01c00204 	movi	r7,8
    7c7c:	0004b240 	call	4b24 <showBkgAndBorder>
    7c80:	10803fcc 	andi	r2,r2,255
    7c84:	10000226 	beq	r2,zero,7c90 <showScreenMainSetting+0x174>
    7c88:	00800044 	movi	r2,1
    7c8c:	00000106 	br	7c94 <showScreenMainSetting+0x178>
    7c90:	0005883a 	mov	r2,zero
    7c94:	e0bfeb05 	stb	r2,-84(fp)
    7c98:	e0bfeb03 	ldbu	r2,-84(fp)
    7c9c:	1080004c 	andi	r2,r2,1
    7ca0:	e0bfeb05 	stb	r2,-84(fp)

	//子模块绝对位置
	AreaRange subModuAbsPos;

	//显示静态标签："休息定时"
	getAbsPos( scrMainAbsPos, &(scrSettingInst->tag1Area), &subModuAbsPos );
    7ca4:	e0bffe17 	ldw	r2,-8(fp)
    7ca8:	10c00204 	addi	r3,r2,8
    7cac:	e0bffb84 	addi	r2,fp,-18
    7cb0:	e13fff17 	ldw	r4,-4(fp)
    7cb4:	180b883a 	mov	r5,r3
    7cb8:	100d883a 	mov	r6,r2
    7cbc:	00045800 	call	4580 <getAbsPos>
	status = status && showTagBlock( &(scrSettingInst->tag1), &subModuAbsPos );
    7cc0:	e0bfeb03 	ldbu	r2,-84(fp)
    7cc4:	10000a26 	beq	r2,zero,7cf0 <showScreenMainSetting+0x1d4>
    7cc8:	e0bffe17 	ldw	r2,-8(fp)
    7ccc:	10c00404 	addi	r3,r2,16
    7cd0:	e0bffb84 	addi	r2,fp,-18
    7cd4:	1809883a 	mov	r4,r3
    7cd8:	100b883a 	mov	r5,r2
    7cdc:	00051180 	call	5118 <showTagBlock>
    7ce0:	10803fcc 	andi	r2,r2,255
    7ce4:	10000226 	beq	r2,zero,7cf0 <showScreenMainSetting+0x1d4>
    7ce8:	00800044 	movi	r2,1
    7cec:	00000106 	br	7cf4 <showScreenMainSetting+0x1d8>
    7cf0:	0005883a 	mov	r2,zero
    7cf4:	e0bfeb05 	stb	r2,-84(fp)
    7cf8:	e0bfeb03 	ldbu	r2,-84(fp)
    7cfc:	1080004c 	andi	r2,r2,1
    7d00:	e0bfeb05 	stb	r2,-84(fp)

	//显示可编辑的数字标签图标组：编辑休息定时：时
	getAbsPos( scrMainAbsPos, &(scrSettingInst->editAlarmHourArea), &subModuAbsPos );
    7d04:	e0bffe17 	ldw	r2,-8(fp)
    7d08:	10c00d04 	addi	r3,r2,52
    7d0c:	e0bffb84 	addi	r2,fp,-18
    7d10:	e13fff17 	ldw	r4,-4(fp)
    7d14:	180b883a 	mov	r5,r3
    7d18:	100d883a 	mov	r6,r2
    7d1c:	00045800 	call	4580 <getAbsPos>
	status = status && showTagIconGroup( &(scrSettingInst->editAlarmHour), &subModuAbsPos );
    7d20:	e0bfeb03 	ldbu	r2,-84(fp)
    7d24:	10000a26 	beq	r2,zero,7d50 <showScreenMainSetting+0x234>
    7d28:	e0bffe17 	ldw	r2,-8(fp)
    7d2c:	10c00f04 	addi	r3,r2,60
    7d30:	e0bffb84 	addi	r2,fp,-18
    7d34:	1809883a 	mov	r4,r3
    7d38:	100b883a 	mov	r5,r2
    7d3c:	00063c80 	call	63c8 <showTagIconGroup>
    7d40:	10803fcc 	andi	r2,r2,255
    7d44:	10000226 	beq	r2,zero,7d50 <showScreenMainSetting+0x234>
    7d48:	00800044 	movi	r2,1
    7d4c:	00000106 	br	7d54 <showScreenMainSetting+0x238>
    7d50:	0005883a 	mov	r2,zero
    7d54:	e0bfeb05 	stb	r2,-84(fp)
    7d58:	e0bfeb03 	ldbu	r2,-84(fp)
    7d5c:	1080004c 	andi	r2,r2,1
    7d60:	e0bfeb05 	stb	r2,-84(fp)

	//显示可编辑的数字标签图标组：编辑休息定时：分
	getAbsPos( scrMainAbsPos, &(scrSettingInst->editAlarmMinuteArea), &subModuAbsPos );
    7d64:	e0bffe17 	ldw	r2,-8(fp)
    7d68:	10c03904 	addi	r3,r2,228
    7d6c:	e0bffb84 	addi	r2,fp,-18
    7d70:	e13fff17 	ldw	r4,-4(fp)
    7d74:	180b883a 	mov	r5,r3
    7d78:	100d883a 	mov	r6,r2
    7d7c:	00045800 	call	4580 <getAbsPos>
	status = status && showTagIconGroup( &(scrSettingInst->editAlarmMinute), &subModuAbsPos );
    7d80:	e0bfeb03 	ldbu	r2,-84(fp)
    7d84:	10000a26 	beq	r2,zero,7db0 <showScreenMainSetting+0x294>
    7d88:	e0bffe17 	ldw	r2,-8(fp)
    7d8c:	10c03b04 	addi	r3,r2,236
    7d90:	e0bffb84 	addi	r2,fp,-18
    7d94:	1809883a 	mov	r4,r3
    7d98:	100b883a 	mov	r5,r2
    7d9c:	00063c80 	call	63c8 <showTagIconGroup>
    7da0:	10803fcc 	andi	r2,r2,255
    7da4:	10000226 	beq	r2,zero,7db0 <showScreenMainSetting+0x294>
    7da8:	00800044 	movi	r2,1
    7dac:	00000106 	br	7db4 <showScreenMainSetting+0x298>
    7db0:	0005883a 	mov	r2,zero
    7db4:	e0bfeb05 	stb	r2,-84(fp)
    7db8:	e0bfeb03 	ldbu	r2,-84(fp)
    7dbc:	1080004c 	andi	r2,r2,1
    7dc0:	e0bfeb05 	stb	r2,-84(fp)

	//显示标签组：编辑背景颜色
	getAbsPos( scrMainAbsPos, &(scrSettingInst->editBkgColorArea), &subModuAbsPos );
    7dc4:	e0bffe17 	ldw	r2,-8(fp)
    7dc8:	10c06504 	addi	r3,r2,404
    7dcc:	e0bffb84 	addi	r2,fp,-18
    7dd0:	e13fff17 	ldw	r4,-4(fp)
    7dd4:	180b883a 	mov	r5,r3
    7dd8:	100d883a 	mov	r6,r2
    7ddc:	00045800 	call	4580 <getAbsPos>
	status = status && showTagGroup( &(scrSettingInst->editBkgColor), &subModuAbsPos );
    7de0:	e0bfeb03 	ldbu	r2,-84(fp)
    7de4:	10000a26 	beq	r2,zero,7e10 <showScreenMainSetting+0x2f4>
    7de8:	e0bffe17 	ldw	r2,-8(fp)
    7dec:	10c06704 	addi	r3,r2,412
    7df0:	e0bffb84 	addi	r2,fp,-18
    7df4:	1809883a 	mov	r4,r3
    7df8:	100b883a 	mov	r5,r2
    7dfc:	00062400 	call	6240 <showTagGroup>
    7e00:	10803fcc 	andi	r2,r2,255
    7e04:	10000226 	beq	r2,zero,7e10 <showScreenMainSetting+0x2f4>
    7e08:	00800044 	movi	r2,1
    7e0c:	00000106 	br	7e14 <showScreenMainSetting+0x2f8>
    7e10:	0005883a 	mov	r2,zero
    7e14:	e0bfeb05 	stb	r2,-84(fp)
    7e18:	e0bfeb03 	ldbu	r2,-84(fp)
    7e1c:	1080004c 	andi	r2,r2,1
    7e20:	e0bfeb05 	stb	r2,-84(fp)

	//显示标签组：编辑文本颜色
	getAbsPos( scrMainAbsPos, &(scrSettingInst->editWordColorArea), &subModuAbsPos );
    7e24:	e0bffe17 	ldw	r2,-8(fp)
    7e28:	10c07f04 	addi	r3,r2,508
    7e2c:	e0bffb84 	addi	r2,fp,-18
    7e30:	e13fff17 	ldw	r4,-4(fp)
    7e34:	180b883a 	mov	r5,r3
    7e38:	100d883a 	mov	r6,r2
    7e3c:	00045800 	call	4580 <getAbsPos>
	status = status && showTagGroup( &(scrSettingInst->editWordColor), &subModuAbsPos );
    7e40:	e0bfeb03 	ldbu	r2,-84(fp)
    7e44:	10000a26 	beq	r2,zero,7e70 <showScreenMainSetting+0x354>
    7e48:	e0bffe17 	ldw	r2,-8(fp)
    7e4c:	10c08104 	addi	r3,r2,516
    7e50:	e0bffb84 	addi	r2,fp,-18
    7e54:	1809883a 	mov	r4,r3
    7e58:	100b883a 	mov	r5,r2
    7e5c:	00062400 	call	6240 <showTagGroup>
    7e60:	10803fcc 	andi	r2,r2,255
    7e64:	10000226 	beq	r2,zero,7e70 <showScreenMainSetting+0x354>
    7e68:	00800044 	movi	r2,1
    7e6c:	00000106 	br	7e74 <showScreenMainSetting+0x358>
    7e70:	0005883a 	mov	r2,zero
    7e74:	e0bfeb05 	stb	r2,-84(fp)
    7e78:	e0bfeb03 	ldbu	r2,-84(fp)
    7e7c:	1080004c 	andi	r2,r2,1
    7e80:	e0bfeb05 	stb	r2,-84(fp)

	//显示标签组：自动翻页与手动翻页切换
	getAbsPos( scrMainAbsPos, &(scrSettingInst->editTurnPageModArea), &subModuAbsPos );
    7e84:	e0bffe17 	ldw	r2,-8(fp)
    7e88:	10c09904 	addi	r3,r2,612
    7e8c:	e0bffb84 	addi	r2,fp,-18
    7e90:	e13fff17 	ldw	r4,-4(fp)
    7e94:	180b883a 	mov	r5,r3
    7e98:	100d883a 	mov	r6,r2
    7e9c:	00045800 	call	4580 <getAbsPos>
	status = status && showTagGroup( &(scrSettingInst->editTurnPageMod), &subModuAbsPos );
    7ea0:	e0bfeb03 	ldbu	r2,-84(fp)
    7ea4:	10000a26 	beq	r2,zero,7ed0 <showScreenMainSetting+0x3b4>
    7ea8:	e0bffe17 	ldw	r2,-8(fp)
    7eac:	10c09b04 	addi	r3,r2,620
    7eb0:	e0bffb84 	addi	r2,fp,-18
    7eb4:	1809883a 	mov	r4,r3
    7eb8:	100b883a 	mov	r5,r2
    7ebc:	00062400 	call	6240 <showTagGroup>
    7ec0:	10803fcc 	andi	r2,r2,255
    7ec4:	10000226 	beq	r2,zero,7ed0 <showScreenMainSetting+0x3b4>
    7ec8:	00800044 	movi	r2,1
    7ecc:	00000106 	br	7ed4 <showScreenMainSetting+0x3b8>
    7ed0:	0005883a 	mov	r2,zero
    7ed4:	e0bfeb05 	stb	r2,-84(fp)
    7ed8:	e0bfeb03 	ldbu	r2,-84(fp)
    7edc:	1080004c 	andi	r2,r2,1
    7ee0:	e0bfeb05 	stb	r2,-84(fp)

	//显示静态标签："翻页定时"
	getAbsPos( scrMainAbsPos, &(scrSettingInst->tag2Area), &subModuAbsPos );
    7ee4:	e0bffe17 	ldw	r2,-8(fp)
    7ee8:	10c0b304 	addi	r3,r2,716
    7eec:	e0bffb84 	addi	r2,fp,-18
    7ef0:	e13fff17 	ldw	r4,-4(fp)
    7ef4:	180b883a 	mov	r5,r3
    7ef8:	100d883a 	mov	r6,r2
    7efc:	00045800 	call	4580 <getAbsPos>
	status = status && showTagBlock( &(scrSettingInst->tag2), &subModuAbsPos );
    7f00:	e0bfeb03 	ldbu	r2,-84(fp)
    7f04:	10000a26 	beq	r2,zero,7f30 <showScreenMainSetting+0x414>
    7f08:	e0bffe17 	ldw	r2,-8(fp)
    7f0c:	10c0b504 	addi	r3,r2,724
    7f10:	e0bffb84 	addi	r2,fp,-18
    7f14:	1809883a 	mov	r4,r3
    7f18:	100b883a 	mov	r5,r2
    7f1c:	00051180 	call	5118 <showTagBlock>
    7f20:	10803fcc 	andi	r2,r2,255
    7f24:	10000226 	beq	r2,zero,7f30 <showScreenMainSetting+0x414>
    7f28:	00800044 	movi	r2,1
    7f2c:	00000106 	br	7f34 <showScreenMainSetting+0x418>
    7f30:	0005883a 	mov	r2,zero
    7f34:	e0bfeb05 	stb	r2,-84(fp)
    7f38:	e0bfeb03 	ldbu	r2,-84(fp)
    7f3c:	1080004c 	andi	r2,r2,1
    7f40:	e0bfeb05 	stb	r2,-84(fp)

	//显示可编辑的数字标签图标组：编辑翻页定时：秒
	getAbsPos( scrMainAbsPos, &(scrSettingInst->editTurnPageSecArea), &subModuAbsPos );
    7f44:	e0bffe17 	ldw	r2,-8(fp)
    7f48:	10c0be04 	addi	r3,r2,760
    7f4c:	e0bffb84 	addi	r2,fp,-18
    7f50:	e13fff17 	ldw	r4,-4(fp)
    7f54:	180b883a 	mov	r5,r3
    7f58:	100d883a 	mov	r6,r2
    7f5c:	00045800 	call	4580 <getAbsPos>
	status = status && showTagIconGroup( &(scrSettingInst->editTurnPageSec), &subModuAbsPos );
    7f60:	e0bfeb03 	ldbu	r2,-84(fp)
    7f64:	10000a26 	beq	r2,zero,7f90 <showScreenMainSetting+0x474>
    7f68:	e0bffe17 	ldw	r2,-8(fp)
    7f6c:	10c0c004 	addi	r3,r2,768
    7f70:	e0bffb84 	addi	r2,fp,-18
    7f74:	1809883a 	mov	r4,r3
    7f78:	100b883a 	mov	r5,r2
    7f7c:	00063c80 	call	63c8 <showTagIconGroup>
    7f80:	10803fcc 	andi	r2,r2,255
    7f84:	10000226 	beq	r2,zero,7f90 <showScreenMainSetting+0x474>
    7f88:	00800044 	movi	r2,1
    7f8c:	00000106 	br	7f94 <showScreenMainSetting+0x478>
    7f90:	0005883a 	mov	r2,zero
    7f94:	e0bfeb05 	stb	r2,-84(fp)
    7f98:	e0bfeb03 	ldbu	r2,-84(fp)
    7f9c:	1080004c 	andi	r2,r2,1
    7fa0:	e0bfeb05 	stb	r2,-84(fp)

	return status;
    7fa4:	e0bfeb03 	ldbu	r2,-84(fp)
}
    7fa8:	e037883a 	mov	sp,fp
    7fac:	dfc00117 	ldw	ra,4(sp)
    7fb0:	df000017 	ldw	fp,0(sp)
    7fb4:	dec00204 	addi	sp,sp,8
    7fb8:	f800283a 	ret

00007fbc <showScreenMainColorPicker>:
//显示screen_main_color_picker
bool showScreenMainColorPicker( const ScreenColorPicker *scrColorPickerInst, const AreaRange *scrMainAbsPos )
{
    7fbc:	defff904 	addi	sp,sp,-28
    7fc0:	dfc00615 	stw	ra,24(sp)
    7fc4:	df000515 	stw	fp,20(sp)
    7fc8:	df000504 	addi	fp,sp,20
    7fcc:	e13ffe15 	stw	r4,-8(fp)
    7fd0:	e17fff15 	stw	r5,-4(fp)
	bool status = true;
    7fd4:	00800044 	movi	r2,1
    7fd8:	e0bffb05 	stb	r2,-20(fp)

	//画边界与背景
	//显示边界与背景
	status = status && showBkgAndBorder( &(scrColorPickerInst->bkgBorderColor), scrMainAbsPos, &(scrColorPickerInst->colorPickerArea), 1 );
    7fdc:	e0bffb03 	ldbu	r2,-20(fp)
    7fe0:	10000c26 	beq	r2,zero,8014 <showScreenMainColorPicker+0x58>
    7fe4:	e0fffe17 	ldw	r3,-8(fp)
    7fe8:	e0bffe17 	ldw	r2,-8(fp)
    7fec:	10800204 	addi	r2,r2,8
    7ff0:	1809883a 	mov	r4,r3
    7ff4:	e17fff17 	ldw	r5,-4(fp)
    7ff8:	100d883a 	mov	r6,r2
    7ffc:	01c00044 	movi	r7,1
    8000:	0004b240 	call	4b24 <showBkgAndBorder>
    8004:	10803fcc 	andi	r2,r2,255
    8008:	10000226 	beq	r2,zero,8014 <showScreenMainColorPicker+0x58>
    800c:	00800044 	movi	r2,1
    8010:	00000106 	br	8018 <showScreenMainColorPicker+0x5c>
    8014:	0005883a 	mov	r2,zero
    8018:	e0bffb05 	stb	r2,-20(fp)
    801c:	e0bffb03 	ldbu	r2,-20(fp)
    8020:	1080004c 	andi	r2,r2,1
    8024:	e0bffb05 	stb	r2,-20(fp)

	//显示取色板
	AreaRange colorTableAbsPos;//色板绝对位置
	getAbsPos( scrMainAbsPos, &(scrColorPickerInst->colorPickerArea), &colorTableAbsPos );
    8028:	e0bffe17 	ldw	r2,-8(fp)
    802c:	10c00204 	addi	r3,r2,8
    8030:	e0bffb84 	addi	r2,fp,-18
    8034:	e13fff17 	ldw	r4,-4(fp)
    8038:	180b883a 	mov	r5,r3
    803c:	100d883a 	mov	r6,r2
    8040:	00045800 	call	4580 <getAbsPos>
	status = status && showColorBoard( &(scrColorPickerInst->colorPicker), &colorTableAbsPos );
    8044:	e0bffb03 	ldbu	r2,-20(fp)
    8048:	10000a26 	beq	r2,zero,8074 <showScreenMainColorPicker+0xb8>
    804c:	e0bffe17 	ldw	r2,-8(fp)
    8050:	10c00404 	addi	r3,r2,16
    8054:	e0bffb84 	addi	r2,fp,-18
    8058:	1809883a 	mov	r4,r3
    805c:	100b883a 	mov	r5,r2
    8060:	0006fcc0 	call	6fcc <showColorBoard>
    8064:	10803fcc 	andi	r2,r2,255
    8068:	10000226 	beq	r2,zero,8074 <showScreenMainColorPicker+0xb8>
    806c:	00800044 	movi	r2,1
    8070:	00000106 	br	8078 <showScreenMainColorPicker+0xbc>
    8074:	0005883a 	mov	r2,zero
    8078:	e0bffb05 	stb	r2,-20(fp)
    807c:	e0bffb03 	ldbu	r2,-20(fp)
    8080:	1080004c 	andi	r2,r2,1
    8084:	e0bffb05 	stb	r2,-20(fp)

	return status;
    8088:	e0bffb03 	ldbu	r2,-20(fp)
}
    808c:	e037883a 	mov	sp,fp
    8090:	dfc00117 	ldw	ra,4(sp)
    8094:	df000017 	ldw	fp,0(sp)
    8098:	dec00204 	addi	sp,sp,8
    809c:	f800283a 	ret

000080a0 <showScreen>:


//显示screen
bool showScreen( )
{
    80a0:	defffb04 	addi	sp,sp,-20
    80a4:	dfc00415 	stw	ra,16(sp)
    80a8:	df000315 	stw	fp,12(sp)
    80ac:	df000304 	addi	fp,sp,12
	bool status = true;
    80b0:	00800044 	movi	r2,1
    80b4:	e0bffd05 	stb	r2,-12(fp)

	const ScreenContainer *tftlcdScreenPtr = &tftlcdScreenInst;
    80b8:	00800374 	movhi	r2,13
    80bc:	10924004 	addi	r2,r2,18688
    80c0:	e0bffe15 	stw	r2,-8(fp)

	//显示screen_header
	status = status && showScreenHeader( &(tftlcdScreenPtr->scrHeader), &(tftlcdScreenPtr->headerArea) );
    80c4:	e0bffd03 	ldbu	r2,-12(fp)
    80c8:	10000b26 	beq	r2,zero,80f8 <showScreen+0x58>
    80cc:	e0bffe17 	ldw	r2,-8(fp)
    80d0:	10c00404 	addi	r3,r2,16
    80d4:	e0bffe17 	ldw	r2,-8(fp)
    80d8:	10800204 	addi	r2,r2,8
    80dc:	1809883a 	mov	r4,r3
    80e0:	100b883a 	mov	r5,r2
    80e4:	00073a80 	call	73a8 <showScreenHeader>
    80e8:	10803fcc 	andi	r2,r2,255
    80ec:	10000226 	beq	r2,zero,80f8 <showScreen+0x58>
    80f0:	00800044 	movi	r2,1
    80f4:	00000106 	br	80fc <showScreen+0x5c>
    80f8:	0005883a 	mov	r2,zero
    80fc:	e0bffd05 	stb	r2,-12(fp)
    8100:	e0bffd03 	ldbu	r2,-12(fp)
    8104:	1080004c 	andi	r2,r2,1
    8108:	e0bffd05 	stb	r2,-12(fp)
	//显示screen_footer
	status = status && showScreenFooter( &(tftlcdScreenPtr->scrFooter), &(tftlcdScreenPtr->footerArea) );
    810c:	e0bffd03 	ldbu	r2,-12(fp)
    8110:	10000b26 	beq	r2,zero,8140 <showScreen+0xa0>
    8114:	e0bffe17 	ldw	r2,-8(fp)
    8118:	10c01504 	addi	r3,r2,84
    811c:	e0bffe17 	ldw	r2,-8(fp)
    8120:	10801304 	addi	r2,r2,76
    8124:	1809883a 	mov	r4,r3
    8128:	100b883a 	mov	r5,r2
    812c:	000748c0 	call	748c <showScreenFooter>
    8130:	10803fcc 	andi	r2,r2,255
    8134:	10000226 	beq	r2,zero,8140 <showScreen+0xa0>
    8138:	00800044 	movi	r2,1
    813c:	00000106 	br	8144 <showScreen+0xa4>
    8140:	0005883a 	mov	r2,zero
    8144:	e0bffd05 	stb	r2,-12(fp)
    8148:	e0bffd03 	ldbu	r2,-12(fp)
    814c:	1080004c 	andi	r2,r2,1
    8150:	e0bffd05 	stb	r2,-12(fp)

	//显示screen_main
	short curScreenIndex = (tftlcdScreenPtr->mainAreaInfo).curScrIndex;
    8154:	e0bffe17 	ldw	r2,-8(fp)
    8158:	1081b10b 	ldhu	r2,1732(r2)
    815c:	e0bfff0d 	sth	r2,-4(fp)
	switch( ((tftlcdScreenPtr->mainAreaInfo).scrIDStack)[curScreenIndex] )
    8160:	e0bfff0f 	ldh	r2,-4(fp)
    8164:	e0fffe17 	ldw	r3,-8(fp)
    8168:	10806b44 	addi	r2,r2,429
    816c:	1085883a 	add	r2,r2,r2
    8170:	1085883a 	add	r2,r2,r2
    8174:	1885883a 	add	r2,r3,r2
    8178:	10800017 	ldw	r2,0(r2)
    817c:	10c000a0 	cmpeqi	r3,r2,2
    8180:	18001d1e 	bne	r3,zero,81f8 <showScreen+0x158>
    8184:	10c000e8 	cmpgeui	r3,r2,3
    8188:	1800031e 	bne	r3,zero,8198 <showScreen+0xf8>
    818c:	10800060 	cmpeqi	r2,r2,1
    8190:	1000061e 	bne	r2,zero,81ac <showScreen+0x10c>
    8194:	00005106 	br	82dc <showScreen+0x23c>
    8198:	10c000e0 	cmpeqi	r3,r2,3
    819c:	1800291e 	bne	r3,zero,8244 <showScreen+0x1a4>
    81a0:	10800120 	cmpeqi	r2,r2,4
    81a4:	10003a1e 	bne	r2,zero,8290 <showScreen+0x1f0>
    81a8:	00004c06 	br	82dc <showScreen+0x23c>
	{
		case SCR_HOME:
			status = status && showScreenMainHome( &(tftlcdScreenPtr->scrHome), &(tftlcdScreenPtr->mainArea) );
    81ac:	e0bffd03 	ldbu	r2,-12(fp)
    81b0:	10000b26 	beq	r2,zero,81e0 <showScreen+0x140>
    81b4:	e0bffe17 	ldw	r2,-8(fp)
    81b8:	10c03104 	addi	r3,r2,196
    81bc:	e0bffe17 	ldw	r2,-8(fp)
    81c0:	10802f04 	addi	r2,r2,188
    81c4:	1809883a 	mov	r4,r3
    81c8:	100b883a 	mov	r5,r2
    81cc:	00076980 	call	7698 <showScreenMainHome>
    81d0:	10803fcc 	andi	r2,r2,255
    81d4:	10000226 	beq	r2,zero,81e0 <showScreen+0x140>
    81d8:	00800044 	movi	r2,1
    81dc:	00000106 	br	81e4 <showScreen+0x144>
    81e0:	0005883a 	mov	r2,zero
    81e4:	e0bffd05 	stb	r2,-12(fp)
    81e8:	e0bffd03 	ldbu	r2,-12(fp)
    81ec:	1080004c 	andi	r2,r2,1
    81f0:	e0bffd05 	stb	r2,-12(fp)
			break;
    81f4:	00003a06 	br	82e0 <showScreen+0x240>
		case SCR_BOOK:
			status = status && showScreenMainBook( &(tftlcdScreenPtr->scrBook), &(tftlcdScreenPtr->mainArea) );
    81f8:	e0bffd03 	ldbu	r2,-12(fp)
    81fc:	10000b26 	beq	r2,zero,822c <showScreen+0x18c>
    8200:	e0bffe17 	ldw	r2,-8(fp)
    8204:	10c07004 	addi	r3,r2,448
    8208:	e0bffe17 	ldw	r2,-8(fp)
    820c:	10802f04 	addi	r2,r2,188
    8210:	1809883a 	mov	r4,r3
    8214:	100b883a 	mov	r5,r2
    8218:	00078cc0 	call	78cc <showScreenMainBook>
    821c:	10803fcc 	andi	r2,r2,255
    8220:	10000226 	beq	r2,zero,822c <showScreen+0x18c>
    8224:	00800044 	movi	r2,1
    8228:	00000106 	br	8230 <showScreen+0x190>
    822c:	0005883a 	mov	r2,zero
    8230:	e0bffd05 	stb	r2,-12(fp)
    8234:	e0bffd03 	ldbu	r2,-12(fp)
    8238:	1080004c 	andi	r2,r2,1
    823c:	e0bffd05 	stb	r2,-12(fp)
			break;
    8240:	00002706 	br	82e0 <showScreen+0x240>
		case SCR_SETTING:
			status = status && showScreenMainSetting( &(tftlcdScreenPtr->scrSetting), &(tftlcdScreenPtr->mainArea) );
    8244:	e0bffd03 	ldbu	r2,-12(fp)
    8248:	10000b26 	beq	r2,zero,8278 <showScreen+0x1d8>
    824c:	e0bffe17 	ldw	r2,-8(fp)
    8250:	10c0ba04 	addi	r3,r2,744
    8254:	e0bffe17 	ldw	r2,-8(fp)
    8258:	10802f04 	addi	r2,r2,188
    825c:	1809883a 	mov	r4,r3
    8260:	100b883a 	mov	r5,r2
    8264:	0007b1c0 	call	7b1c <showScreenMainSetting>
    8268:	10803fcc 	andi	r2,r2,255
    826c:	10000226 	beq	r2,zero,8278 <showScreen+0x1d8>
    8270:	00800044 	movi	r2,1
    8274:	00000106 	br	827c <showScreen+0x1dc>
    8278:	0005883a 	mov	r2,zero
    827c:	e0bffd05 	stb	r2,-12(fp)
    8280:	e0bffd03 	ldbu	r2,-12(fp)
    8284:	1080004c 	andi	r2,r2,1
    8288:	e0bffd05 	stb	r2,-12(fp)
			break;
    828c:	00001406 	br	82e0 <showScreen+0x240>
		case SCR_COLOR_PICKER:
			status = status && showScreenMainColorPicker( &(tftlcdScreenPtr->scrColorPicker), &(tftlcdScreenPtr->mainArea) );
    8290:	e0bffd03 	ldbu	r2,-12(fp)
    8294:	10000b26 	beq	r2,zero,82c4 <showScreen+0x224>
    8298:	e0bffe17 	ldw	r2,-8(fp)
    829c:	10c1a504 	addi	r3,r2,1684
    82a0:	e0bffe17 	ldw	r2,-8(fp)
    82a4:	10802f04 	addi	r2,r2,188
    82a8:	1809883a 	mov	r4,r3
    82ac:	100b883a 	mov	r5,r2
    82b0:	0007fbc0 	call	7fbc <showScreenMainColorPicker>
    82b4:	10803fcc 	andi	r2,r2,255
    82b8:	10000226 	beq	r2,zero,82c4 <showScreen+0x224>
    82bc:	00800044 	movi	r2,1
    82c0:	00000106 	br	82c8 <showScreen+0x228>
    82c4:	0005883a 	mov	r2,zero
    82c8:	e0bffd05 	stb	r2,-12(fp)
    82cc:	e0bffd03 	ldbu	r2,-12(fp)
    82d0:	1080004c 	andi	r2,r2,1
    82d4:	e0bffd05 	stb	r2,-12(fp)
			break;
    82d8:	00000106 	br	82e0 <showScreen+0x240>
		default:
			status = false;
    82dc:	e03ffd05 	stb	zero,-12(fp)
	}


	return status;
    82e0:	e0bffd03 	ldbu	r2,-12(fp)
}
    82e4:	e037883a 	mov	sp,fp
    82e8:	dfc00117 	ldw	ra,4(sp)
    82ec:	df000017 	ldw	fp,0(sp)
    82f0:	dec00204 	addi	sp,sp,8
    82f4:	f800283a 	ret

000082f8 <udivmodsi4>:
    82f8:	2900182e 	bgeu	r5,r4,835c <udivmodsi4+0x64>
    82fc:	28001716 	blt	r5,zero,835c <udivmodsi4+0x64>
    8300:	00800804 	movi	r2,32
    8304:	00c00044 	movi	r3,1
    8308:	00000206 	br	8314 <udivmodsi4+0x1c>
    830c:	10001126 	beq	r2,zero,8354 <udivmodsi4+0x5c>
    8310:	28000516 	blt	r5,zero,8328 <udivmodsi4+0x30>
    8314:	294b883a 	add	r5,r5,r5
    8318:	10bfffc4 	addi	r2,r2,-1
    831c:	18c7883a 	add	r3,r3,r3
    8320:	293ffa36 	bltu	r5,r4,830c <__alt_data_end+0xf800830c>
    8324:	18000b26 	beq	r3,zero,8354 <udivmodsi4+0x5c>
    8328:	0005883a 	mov	r2,zero
    832c:	21400236 	bltu	r4,r5,8338 <udivmodsi4+0x40>
    8330:	2149c83a 	sub	r4,r4,r5
    8334:	10c4b03a 	or	r2,r2,r3
    8338:	1806d07a 	srli	r3,r3,1
    833c:	280ad07a 	srli	r5,r5,1
    8340:	183ffa1e 	bne	r3,zero,832c <__alt_data_end+0xf800832c>
    8344:	3000011e 	bne	r6,zero,834c <udivmodsi4+0x54>
    8348:	f800283a 	ret
    834c:	2005883a 	mov	r2,r4
    8350:	f800283a 	ret
    8354:	0005883a 	mov	r2,zero
    8358:	003ffa06 	br	8344 <__alt_data_end+0xf8008344>
    835c:	00c00044 	movi	r3,1
    8360:	003ff106 	br	8328 <__alt_data_end+0xf8008328>

00008364 <__divsi3>:
    8364:	defffe04 	addi	sp,sp,-8
    8368:	dfc00115 	stw	ra,4(sp)
    836c:	dc000015 	stw	r16,0(sp)
    8370:	20000b16 	blt	r4,zero,83a0 <__divsi3+0x3c>
    8374:	0021883a 	mov	r16,zero
    8378:	28000c16 	blt	r5,zero,83ac <__divsi3+0x48>
    837c:	000d883a 	mov	r6,zero
    8380:	00082f80 	call	82f8 <udivmodsi4>
    8384:	0407c83a 	sub	r3,zero,r16
    8388:	1884f03a 	xor	r2,r3,r2
    838c:	1405883a 	add	r2,r2,r16
    8390:	dfc00117 	ldw	ra,4(sp)
    8394:	dc000017 	ldw	r16,0(sp)
    8398:	dec00204 	addi	sp,sp,8
    839c:	f800283a 	ret
    83a0:	0109c83a 	sub	r4,zero,r4
    83a4:	04000044 	movi	r16,1
    83a8:	283ff40e 	bge	r5,zero,837c <__alt_data_end+0xf800837c>
    83ac:	014bc83a 	sub	r5,zero,r5
    83b0:	8400005c 	xori	r16,r16,1
    83b4:	003ff106 	br	837c <__alt_data_end+0xf800837c>

000083b8 <__modsi3>:
    83b8:	defffd04 	addi	sp,sp,-12
    83bc:	dfc00215 	stw	ra,8(sp)
    83c0:	dc400115 	stw	r17,4(sp)
    83c4:	dc000015 	stw	r16,0(sp)
    83c8:	20000c16 	blt	r4,zero,83fc <__modsi3+0x44>
    83cc:	0023883a 	mov	r17,zero
    83d0:	0021883a 	mov	r16,zero
    83d4:	28000d16 	blt	r5,zero,840c <__modsi3+0x54>
    83d8:	01800044 	movi	r6,1
    83dc:	00082f80 	call	82f8 <udivmodsi4>
    83e0:	1404f03a 	xor	r2,r2,r16
    83e4:	8885883a 	add	r2,r17,r2
    83e8:	dfc00217 	ldw	ra,8(sp)
    83ec:	dc400117 	ldw	r17,4(sp)
    83f0:	dc000017 	ldw	r16,0(sp)
    83f4:	dec00304 	addi	sp,sp,12
    83f8:	f800283a 	ret
    83fc:	0109c83a 	sub	r4,zero,r4
    8400:	04400044 	movi	r17,1
    8404:	043fffc4 	movi	r16,-1
    8408:	283ff30e 	bge	r5,zero,83d8 <__alt_data_end+0xf80083d8>
    840c:	014bc83a 	sub	r5,zero,r5
    8410:	003ff106 	br	83d8 <__alt_data_end+0xf80083d8>

00008414 <__udivsi3>:
    8414:	000d883a 	mov	r6,zero
    8418:	00082f81 	jmpi	82f8 <udivmodsi4>

0000841c <__umodsi3>:
    841c:	01800044 	movi	r6,1
    8420:	00082f81 	jmpi	82f8 <udivmodsi4>

00008424 <__mulsf3>:
    8424:	defff504 	addi	sp,sp,-44
    8428:	dc400215 	stw	r17,8(sp)
    842c:	2022d5fa 	srli	r17,r4,23
    8430:	dd400615 	stw	r21,24(sp)
    8434:	202ad7fa 	srli	r21,r4,31
    8438:	dc000115 	stw	r16,4(sp)
    843c:	04002034 	movhi	r16,128
    8440:	df000915 	stw	fp,36(sp)
    8444:	dd000515 	stw	r20,20(sp)
    8448:	843fffc4 	addi	r16,r16,-1
    844c:	dfc00a15 	stw	ra,40(sp)
    8450:	ddc00815 	stw	r23,32(sp)
    8454:	dd800715 	stw	r22,28(sp)
    8458:	dcc00415 	stw	r19,16(sp)
    845c:	dc800315 	stw	r18,12(sp)
    8460:	8c403fcc 	andi	r17,r17,255
    8464:	8120703a 	and	r16,r16,r4
    8468:	a829883a 	mov	r20,r21
    846c:	af003fcc 	andi	fp,r21,255
    8470:	88005026 	beq	r17,zero,85b4 <__mulsf3+0x190>
    8474:	00803fc4 	movi	r2,255
    8478:	88802f26 	beq	r17,r2,8538 <__mulsf3+0x114>
    847c:	84002034 	orhi	r16,r16,128
    8480:	802090fa 	slli	r16,r16,3
    8484:	8c7fe044 	addi	r17,r17,-127
    8488:	0025883a 	mov	r18,zero
    848c:	002f883a 	mov	r23,zero
    8490:	2804d5fa 	srli	r2,r5,23
    8494:	282cd7fa 	srli	r22,r5,31
    8498:	01002034 	movhi	r4,128
    849c:	213fffc4 	addi	r4,r4,-1
    84a0:	10803fcc 	andi	r2,r2,255
    84a4:	2166703a 	and	r19,r4,r5
    84a8:	b1803fcc 	andi	r6,r22,255
    84ac:	10004926 	beq	r2,zero,85d4 <__mulsf3+0x1b0>
    84b0:	00c03fc4 	movi	r3,255
    84b4:	10c04326 	beq	r2,r3,85c4 <__mulsf3+0x1a0>
    84b8:	99402034 	orhi	r5,r19,128
    84bc:	282690fa 	slli	r19,r5,3
    84c0:	10bfe044 	addi	r2,r2,-127
    84c4:	000b883a 	mov	r5,zero
    84c8:	8885883a 	add	r2,r17,r2
    84cc:	2c86b03a 	or	r3,r5,r18
    84d0:	010003c4 	movi	r4,15
    84d4:	adaaf03a 	xor	r21,r21,r22
    84d8:	12000044 	addi	r8,r2,1
    84dc:	20c06536 	bltu	r4,r3,8674 <__mulsf3+0x250>
    84e0:	180690ba 	slli	r3,r3,2
    84e4:	01000074 	movhi	r4,1
    84e8:	21213e04 	addi	r4,r4,-31496
    84ec:	1907883a 	add	r3,r3,r4
    84f0:	18c00017 	ldw	r3,0(r3)
    84f4:	1800683a 	jmp	r3
    84f8:	00008674 	movhi	zero,537
    84fc:	00008740 	call	874 <setAreaRangeCentered+0x34>
    8500:	00008740 	call	874 <setAreaRangeCentered+0x34>
    8504:	00008750 	cmplti	zero,zero,541
    8508:	00008548 	cmpgei	zero,zero,533
    850c:	00008548 	cmpgei	zero,zero,533
    8510:	00008660 	cmpeqi	zero,zero,537
    8514:	00008750 	cmplti	zero,zero,541
    8518:	00008548 	cmpgei	zero,zero,533
    851c:	00008660 	cmpeqi	zero,zero,537
    8520:	00008548 	cmpgei	zero,zero,533
    8524:	00008750 	cmplti	zero,zero,541
    8528:	0000854c 	andi	zero,zero,533
    852c:	0000854c 	andi	zero,zero,533
    8530:	0000854c 	andi	zero,zero,533
    8534:	00008760 	cmpeqi	zero,zero,541
    8538:	8000311e 	bne	r16,zero,8600 <__mulsf3+0x1dc>
    853c:	04800204 	movi	r18,8
    8540:	05c00084 	movi	r23,2
    8544:	003fd206 	br	8490 <__alt_data_end+0xf8008490>
    8548:	a839883a 	mov	fp,r21
    854c:	00800084 	movi	r2,2
    8550:	b880231e 	bne	r23,r2,85e0 <__mulsf3+0x1bc>
    8554:	e500004c 	andi	r20,fp,1
    8558:	00ffffc4 	movi	r3,-1
    855c:	0009883a 	mov	r4,zero
    8560:	18c03fcc 	andi	r3,r3,255
    8564:	180695fa 	slli	r3,r3,23
    8568:	a0803fcc 	andi	r2,r20,255
    856c:	04002034 	movhi	r16,128
    8570:	100497fa 	slli	r2,r2,31
    8574:	843fffc4 	addi	r16,r16,-1
    8578:	2420703a 	and	r16,r4,r16
    857c:	80e0b03a 	or	r16,r16,r3
    8580:	8084b03a 	or	r2,r16,r2
    8584:	dfc00a17 	ldw	ra,40(sp)
    8588:	df000917 	ldw	fp,36(sp)
    858c:	ddc00817 	ldw	r23,32(sp)
    8590:	dd800717 	ldw	r22,28(sp)
    8594:	dd400617 	ldw	r21,24(sp)
    8598:	dd000517 	ldw	r20,20(sp)
    859c:	dcc00417 	ldw	r19,16(sp)
    85a0:	dc800317 	ldw	r18,12(sp)
    85a4:	dc400217 	ldw	r17,8(sp)
    85a8:	dc000117 	ldw	r16,4(sp)
    85ac:	dec00b04 	addi	sp,sp,44
    85b0:	f800283a 	ret
    85b4:	8000151e 	bne	r16,zero,860c <__mulsf3+0x1e8>
    85b8:	04800104 	movi	r18,4
    85bc:	05c00044 	movi	r23,1
    85c0:	003fb306 	br	8490 <__alt_data_end+0xf8008490>
    85c4:	980b003a 	cmpeq	r5,r19,zero
    85c8:	00c000c4 	movi	r3,3
    85cc:	194bc83a 	sub	r5,r3,r5
    85d0:	003fbd06 	br	84c8 <__alt_data_end+0xf80084c8>
    85d4:	9800181e 	bne	r19,zero,8638 <__mulsf3+0x214>
    85d8:	01400044 	movi	r5,1
    85dc:	003fba06 	br	84c8 <__alt_data_end+0xf80084c8>
    85e0:	008000c4 	movi	r2,3
    85e4:	b8809226 	beq	r23,r2,8830 <__mulsf3+0x40c>
    85e8:	00800044 	movi	r2,1
    85ec:	b880771e 	bne	r23,r2,87cc <__mulsf3+0x3a8>
    85f0:	e0a8703a 	and	r20,fp,r2
    85f4:	0007883a 	mov	r3,zero
    85f8:	0009883a 	mov	r4,zero
    85fc:	003fd806 	br	8560 <__alt_data_end+0xf8008560>
    8600:	04800304 	movi	r18,12
    8604:	05c000c4 	movi	r23,3
    8608:	003fa106 	br	8490 <__alt_data_end+0xf8008490>
    860c:	8009883a 	mov	r4,r16
    8610:	d9400015 	stw	r5,0(sp)
    8614:	00089f40 	call	89f4 <__clzsi2>
    8618:	10fffec4 	addi	r3,r2,-5
    861c:	047fe284 	movi	r17,-118
    8620:	80e0983a 	sll	r16,r16,r3
    8624:	88a3c83a 	sub	r17,r17,r2
    8628:	0025883a 	mov	r18,zero
    862c:	002f883a 	mov	r23,zero
    8630:	d9400017 	ldw	r5,0(sp)
    8634:	003f9606 	br	8490 <__alt_data_end+0xf8008490>
    8638:	9809883a 	mov	r4,r19
    863c:	d9800015 	stw	r6,0(sp)
    8640:	00089f40 	call	89f4 <__clzsi2>
    8644:	10fffec4 	addi	r3,r2,-5
    8648:	98e6983a 	sll	r19,r19,r3
    864c:	00ffe284 	movi	r3,-118
    8650:	1885c83a 	sub	r2,r3,r2
    8654:	000b883a 	mov	r5,zero
    8658:	d9800017 	ldw	r6,0(sp)
    865c:	003f9a06 	br	84c8 <__alt_data_end+0xf80084c8>
    8660:	01002034 	movhi	r4,128
    8664:	0029883a 	mov	r20,zero
    8668:	213fffc4 	addi	r4,r4,-1
    866c:	00ffffc4 	movi	r3,-1
    8670:	003fbb06 	br	8560 <__alt_data_end+0xf8008560>
    8674:	8006d43a 	srli	r3,r16,16
    8678:	9812d43a 	srli	r9,r19,16
    867c:	843fffcc 	andi	r16,r16,65535
    8680:	997fffcc 	andi	r5,r19,65535
    8684:	2c0f383a 	mul	r7,r5,r16
    8688:	28cb383a 	mul	r5,r5,r3
    868c:	4c21383a 	mul	r16,r9,r16
    8690:	380cd43a 	srli	r6,r7,16
    8694:	48d3383a 	mul	r9,r9,r3
    8698:	2c21883a 	add	r16,r5,r16
    869c:	8187883a 	add	r3,r16,r6
    86a0:	1940022e 	bgeu	r3,r5,86ac <__mulsf3+0x288>
    86a4:	01000074 	movhi	r4,1
    86a8:	4913883a 	add	r9,r9,r4
    86ac:	1808943a 	slli	r4,r3,16
    86b0:	39ffffcc 	andi	r7,r7,65535
    86b4:	1806d43a 	srli	r3,r3,16
    86b8:	21c9883a 	add	r4,r4,r7
    86bc:	202091ba 	slli	r16,r4,6
    86c0:	48c7883a 	add	r3,r9,r3
    86c4:	2008d6ba 	srli	r4,r4,26
    86c8:	180691ba 	slli	r3,r3,6
    86cc:	8020c03a 	cmpne	r16,r16,zero
    86d0:	8120b03a 	or	r16,r16,r4
    86d4:	80e0b03a 	or	r16,r16,r3
    86d8:	80c2002c 	andhi	r3,r16,2048
    86dc:	18000426 	beq	r3,zero,86f0 <__mulsf3+0x2cc>
    86e0:	8006d07a 	srli	r3,r16,1
    86e4:	8400004c 	andi	r16,r16,1
    86e8:	4005883a 	mov	r2,r8
    86ec:	80e0b03a 	or	r16,r16,r3
    86f0:	10c01fc4 	addi	r3,r2,127
    86f4:	00c02d0e 	bge	zero,r3,87ac <__mulsf3+0x388>
    86f8:	810001cc 	andi	r4,r16,7
    86fc:	20000426 	beq	r4,zero,8710 <__mulsf3+0x2ec>
    8700:	814003cc 	andi	r5,r16,15
    8704:	01000104 	movi	r4,4
    8708:	29000126 	beq	r5,r4,8710 <__mulsf3+0x2ec>
    870c:	8121883a 	add	r16,r16,r4
    8710:	8102002c 	andhi	r4,r16,2048
    8714:	20000426 	beq	r4,zero,8728 <__mulsf3+0x304>
    8718:	10c02004 	addi	r3,r2,128
    871c:	00be0034 	movhi	r2,63488
    8720:	10bfffc4 	addi	r2,r2,-1
    8724:	80a0703a 	and	r16,r16,r2
    8728:	00803f84 	movi	r2,254
    872c:	10c01b0e 	bge	r2,r3,879c <__mulsf3+0x378>
    8730:	ad00004c 	andi	r20,r21,1
    8734:	00ffffc4 	movi	r3,-1
    8738:	0009883a 	mov	r4,zero
    873c:	003f8806 	br	8560 <__alt_data_end+0xf8008560>
    8740:	9821883a 	mov	r16,r19
    8744:	a839883a 	mov	fp,r21
    8748:	282f883a 	mov	r23,r5
    874c:	003f7f06 	br	854c <__alt_data_end+0xf800854c>
    8750:	9821883a 	mov	r16,r19
    8754:	3039883a 	mov	fp,r6
    8758:	282f883a 	mov	r23,r5
    875c:	003f7b06 	br	854c <__alt_data_end+0xf800854c>
    8760:	8080102c 	andhi	r2,r16,64
    8764:	10000826 	beq	r2,zero,8788 <__mulsf3+0x364>
    8768:	9880102c 	andhi	r2,r19,64
    876c:	1000061e 	bne	r2,zero,8788 <__mulsf3+0x364>
    8770:	00802034 	movhi	r2,128
    8774:	99001034 	orhi	r4,r19,64
    8778:	10bfffc4 	addi	r2,r2,-1
    877c:	b029883a 	mov	r20,r22
    8780:	2088703a 	and	r4,r4,r2
    8784:	003fb906 	br	866c <__alt_data_end+0xf800866c>
    8788:	00802034 	movhi	r2,128
    878c:	81001034 	orhi	r4,r16,64
    8790:	10bfffc4 	addi	r2,r2,-1
    8794:	2088703a 	and	r4,r4,r2
    8798:	003fb406 	br	866c <__alt_data_end+0xf800866c>
    879c:	802091ba 	slli	r16,r16,6
    87a0:	ad00004c 	andi	r20,r21,1
    87a4:	8008d27a 	srli	r4,r16,9
    87a8:	003f6d06 	br	8560 <__alt_data_end+0xf8008560>
    87ac:	00ffe084 	movi	r3,-126
    87b0:	1887c83a 	sub	r3,r3,r2
    87b4:	010006c4 	movi	r4,27
    87b8:	20c0070e 	bge	r4,r3,87d8 <__mulsf3+0x3b4>
    87bc:	ad00004c 	andi	r20,r21,1
    87c0:	0007883a 	mov	r3,zero
    87c4:	0009883a 	mov	r4,zero
    87c8:	003f6506 	br	8560 <__alt_data_end+0xf8008560>
    87cc:	4005883a 	mov	r2,r8
    87d0:	e02b883a 	mov	r21,fp
    87d4:	003fc606 	br	86f0 <__alt_data_end+0xf80086f0>
    87d8:	10802784 	addi	r2,r2,158
    87dc:	8084983a 	sll	r2,r16,r2
    87e0:	80e0d83a 	srl	r16,r16,r3
    87e4:	1004c03a 	cmpne	r2,r2,zero
    87e8:	1404b03a 	or	r2,r2,r16
    87ec:	10c001cc 	andi	r3,r2,7
    87f0:	18000426 	beq	r3,zero,8804 <__mulsf3+0x3e0>
    87f4:	110003cc 	andi	r4,r2,15
    87f8:	00c00104 	movi	r3,4
    87fc:	20c00126 	beq	r4,r3,8804 <__mulsf3+0x3e0>
    8800:	10c5883a 	add	r2,r2,r3
    8804:	10c1002c 	andhi	r3,r2,1024
    8808:	18000426 	beq	r3,zero,881c <__mulsf3+0x3f8>
    880c:	ad00004c 	andi	r20,r21,1
    8810:	00c00044 	movi	r3,1
    8814:	0009883a 	mov	r4,zero
    8818:	003f5106 	br	8560 <__alt_data_end+0xf8008560>
    881c:	100491ba 	slli	r2,r2,6
    8820:	ad00004c 	andi	r20,r21,1
    8824:	0007883a 	mov	r3,zero
    8828:	1008d27a 	srli	r4,r2,9
    882c:	003f4c06 	br	8560 <__alt_data_end+0xf8008560>
    8830:	00802034 	movhi	r2,128
    8834:	81001034 	orhi	r4,r16,64
    8838:	10bfffc4 	addi	r2,r2,-1
    883c:	e500004c 	andi	r20,fp,1
    8840:	2088703a 	and	r4,r4,r2
    8844:	003f8906 	br	866c <__alt_data_end+0xf800866c>

00008848 <__fixsfsi>:
    8848:	2006d5fa 	srli	r3,r4,23
    884c:	00802034 	movhi	r2,128
    8850:	10bfffc4 	addi	r2,r2,-1
    8854:	18c03fcc 	andi	r3,r3,255
    8858:	01401f84 	movi	r5,126
    885c:	1104703a 	and	r2,r2,r4
    8860:	2008d7fa 	srli	r4,r4,31
    8864:	28c0110e 	bge	r5,r3,88ac <__fixsfsi+0x64>
    8868:	01402744 	movi	r5,157
    886c:	28c00b16 	blt	r5,r3,889c <__fixsfsi+0x54>
    8870:	01402544 	movi	r5,149
    8874:	10802034 	orhi	r2,r2,128
    8878:	28c00e16 	blt	r5,r3,88b4 <__fixsfsi+0x6c>
    887c:	01402584 	movi	r5,150
    8880:	28c7c83a 	sub	r3,r5,r3
    8884:	10c6d83a 	srl	r3,r2,r3
    8888:	21003fcc 	andi	r4,r4,255
    888c:	0105c83a 	sub	r2,zero,r4
    8890:	1886f03a 	xor	r3,r3,r2
    8894:	1905883a 	add	r2,r3,r4
    8898:	f800283a 	ret
    889c:	00a00034 	movhi	r2,32768
    88a0:	10bfffc4 	addi	r2,r2,-1
    88a4:	2085883a 	add	r2,r4,r2
    88a8:	f800283a 	ret
    88ac:	0005883a 	mov	r2,zero
    88b0:	f800283a 	ret
    88b4:	18ffda84 	addi	r3,r3,-150
    88b8:	10c6983a 	sll	r3,r2,r3
    88bc:	003ff206 	br	8888 <__alt_data_end+0xf8008888>

000088c0 <__floatsisf>:
    88c0:	defffd04 	addi	sp,sp,-12
    88c4:	dc000015 	stw	r16,0(sp)
    88c8:	dfc00215 	stw	ra,8(sp)
    88cc:	dc400115 	stw	r17,4(sp)
    88d0:	2021883a 	mov	r16,r4
    88d4:	20003a26 	beq	r4,zero,89c0 <__floatsisf+0x100>
    88d8:	2022d7fa 	srli	r17,r4,31
    88dc:	88000126 	beq	r17,zero,88e4 <__floatsisf+0x24>
    88e0:	0121c83a 	sub	r16,zero,r4
    88e4:	8009883a 	mov	r4,r16
    88e8:	00089f40 	call	89f4 <__clzsi2>
    88ec:	00c02784 	movi	r3,158
    88f0:	1887c83a 	sub	r3,r3,r2
    88f4:	01802584 	movi	r6,150
    88f8:	800b883a 	mov	r5,r16
    88fc:	30c01616 	blt	r6,r3,8958 <__floatsisf+0x98>
    8900:	01000204 	movi	r4,8
    8904:	2080020e 	bge	r4,r2,8910 <__floatsisf+0x50>
    8908:	10bffe04 	addi	r2,r2,-8
    890c:	80a0983a 	sll	r16,r16,r2
    8910:	00802034 	movhi	r2,128
    8914:	10bfffc4 	addi	r2,r2,-1
    8918:	8809883a 	mov	r4,r17
    891c:	80a0703a 	and	r16,r16,r2
    8920:	18803fcc 	andi	r2,r3,255
    8924:	100695fa 	slli	r3,r2,23
    8928:	20803fcc 	andi	r2,r4,255
    892c:	100897fa 	slli	r4,r2,31
    8930:	00802034 	movhi	r2,128
    8934:	10bfffc4 	addi	r2,r2,-1
    8938:	8084703a 	and	r2,r16,r2
    893c:	10c4b03a 	or	r2,r2,r3
    8940:	1104b03a 	or	r2,r2,r4
    8944:	dfc00217 	ldw	ra,8(sp)
    8948:	dc400117 	ldw	r17,4(sp)
    894c:	dc000017 	ldw	r16,0(sp)
    8950:	dec00304 	addi	sp,sp,12
    8954:	f800283a 	ret
    8958:	01002644 	movi	r4,153
    895c:	20c01c16 	blt	r4,r3,89d0 <__floatsisf+0x110>
    8960:	01000144 	movi	r4,5
    8964:	2080020e 	bge	r4,r2,8970 <__floatsisf+0xb0>
    8968:	113ffec4 	addi	r4,r2,-5
    896c:	290a983a 	sll	r5,r5,r4
    8970:	043f0034 	movhi	r16,64512
    8974:	843fffc4 	addi	r16,r16,-1
    8978:	298001cc 	andi	r6,r5,7
    897c:	2c20703a 	and	r16,r5,r16
    8980:	30000426 	beq	r6,zero,8994 <__floatsisf+0xd4>
    8984:	294003cc 	andi	r5,r5,15
    8988:	01000104 	movi	r4,4
    898c:	29000126 	beq	r5,r4,8994 <__floatsisf+0xd4>
    8990:	8121883a 	add	r16,r16,r4
    8994:	8101002c 	andhi	r4,r16,1024
    8998:	20000526 	beq	r4,zero,89b0 <__floatsisf+0xf0>
    899c:	00c027c4 	movi	r3,159
    89a0:	1887c83a 	sub	r3,r3,r2
    89a4:	00bf0034 	movhi	r2,64512
    89a8:	10bfffc4 	addi	r2,r2,-1
    89ac:	80a0703a 	and	r16,r16,r2
    89b0:	802091ba 	slli	r16,r16,6
    89b4:	8809883a 	mov	r4,r17
    89b8:	8020d27a 	srli	r16,r16,9
    89bc:	003fd806 	br	8920 <__alt_data_end+0xf8008920>
    89c0:	0009883a 	mov	r4,zero
    89c4:	0007883a 	mov	r3,zero
    89c8:	0021883a 	mov	r16,zero
    89cc:	003fd406 	br	8920 <__alt_data_end+0xf8008920>
    89d0:	01800144 	movi	r6,5
    89d4:	110006c4 	addi	r4,r2,27
    89d8:	8108983a 	sll	r4,r16,r4
    89dc:	308fc83a 	sub	r7,r6,r2
    89e0:	81cad83a 	srl	r5,r16,r7
    89e4:	2008c03a 	cmpne	r4,r4,zero
    89e8:	214ab03a 	or	r5,r4,r5
    89ec:	30bfe00e 	bge	r6,r2,8970 <__alt_data_end+0xf8008970>
    89f0:	003fdd06 	br	8968 <__alt_data_end+0xf8008968>

000089f4 <__clzsi2>:
    89f4:	00bfffd4 	movui	r2,65535
    89f8:	11000b36 	bltu	r2,r4,8a28 <__clzsi2+0x34>
    89fc:	00803fc4 	movi	r2,255
    8a00:	1100122e 	bgeu	r2,r4,8a4c <__clzsi2+0x58>
    8a04:	00c00204 	movi	r3,8
    8a08:	01400604 	movi	r5,24
    8a0c:	20c8d83a 	srl	r4,r4,r3
    8a10:	00800374 	movhi	r2,13
    8a14:	1082aa04 	addi	r2,r2,2728
    8a18:	1109883a 	add	r4,r2,r4
    8a1c:	20800003 	ldbu	r2,0(r4)
    8a20:	2885c83a 	sub	r2,r5,r2
    8a24:	f800283a 	ret
    8a28:	00804034 	movhi	r2,256
    8a2c:	10bfffc4 	addi	r2,r2,-1
    8a30:	11000336 	bltu	r2,r4,8a40 <__clzsi2+0x4c>
    8a34:	00c00404 	movi	r3,16
    8a38:	180b883a 	mov	r5,r3
    8a3c:	003ff306 	br	8a0c <__alt_data_end+0xf8008a0c>
    8a40:	00c00604 	movi	r3,24
    8a44:	01400204 	movi	r5,8
    8a48:	003ff006 	br	8a0c <__alt_data_end+0xf8008a0c>
    8a4c:	0007883a 	mov	r3,zero
    8a50:	01400804 	movi	r5,32
    8a54:	003fed06 	br	8a0c <__alt_data_end+0xf8008a0c>

00008a58 <malloc>:
    8a58:	00800374 	movhi	r2,13
    8a5c:	108a8e04 	addi	r2,r2,10808
    8a60:	200b883a 	mov	r5,r4
    8a64:	11000017 	ldw	r4,0(r2)
    8a68:	0008a801 	jmpi	8a80 <_malloc_r>

00008a6c <free>:
    8a6c:	00800374 	movhi	r2,13
    8a70:	108a8e04 	addi	r2,r2,10808
    8a74:	200b883a 	mov	r5,r4
    8a78:	11000017 	ldw	r4,0(r2)
    8a7c:	000cdb41 	jmpi	cdb4 <_free_r>

00008a80 <_malloc_r>:
    8a80:	defff504 	addi	sp,sp,-44
    8a84:	dc800315 	stw	r18,12(sp)
    8a88:	dfc00a15 	stw	ra,40(sp)
    8a8c:	df000915 	stw	fp,36(sp)
    8a90:	ddc00815 	stw	r23,32(sp)
    8a94:	dd800715 	stw	r22,28(sp)
    8a98:	dd400615 	stw	r21,24(sp)
    8a9c:	dd000515 	stw	r20,20(sp)
    8aa0:	dcc00415 	stw	r19,16(sp)
    8aa4:	dc400215 	stw	r17,8(sp)
    8aa8:	dc000115 	stw	r16,4(sp)
    8aac:	288002c4 	addi	r2,r5,11
    8ab0:	00c00584 	movi	r3,22
    8ab4:	2025883a 	mov	r18,r4
    8ab8:	18802a2e 	bgeu	r3,r2,8b64 <_malloc_r+0xe4>
    8abc:	047ffe04 	movi	r17,-8
    8ac0:	1462703a 	and	r17,r2,r17
    8ac4:	88009e16 	blt	r17,zero,8d40 <_malloc_r+0x2c0>
    8ac8:	89409d36 	bltu	r17,r5,8d40 <_malloc_r+0x2c0>
    8acc:	00131a40 	call	131a4 <__malloc_lock>
    8ad0:	00807dc4 	movi	r2,503
    8ad4:	14402736 	bltu	r2,r17,8b74 <_malloc_r+0xf4>
    8ad8:	8806d0fa 	srli	r3,r17,3
    8adc:	04c00374 	movhi	r19,13
    8ae0:	9cc38c04 	addi	r19,r19,3632
    8ae4:	18c5883a 	add	r2,r3,r3
    8ae8:	1085883a 	add	r2,r2,r2
    8aec:	1085883a 	add	r2,r2,r2
    8af0:	9885883a 	add	r2,r19,r2
    8af4:	14000317 	ldw	r16,12(r2)
    8af8:	80814a26 	beq	r16,r2,9024 <_malloc_r+0x5a4>
    8afc:	80c00117 	ldw	r3,4(r16)
    8b00:	81000317 	ldw	r4,12(r16)
    8b04:	00bfff04 	movi	r2,-4
    8b08:	1884703a 	and	r2,r3,r2
    8b0c:	81400217 	ldw	r5,8(r16)
    8b10:	8085883a 	add	r2,r16,r2
    8b14:	10c00117 	ldw	r3,4(r2)
    8b18:	29000315 	stw	r4,12(r5)
    8b1c:	21400215 	stw	r5,8(r4)
    8b20:	18c00054 	ori	r3,r3,1
    8b24:	10c00115 	stw	r3,4(r2)
    8b28:	9009883a 	mov	r4,r18
    8b2c:	00131c40 	call	131c4 <__malloc_unlock>
    8b30:	80800204 	addi	r2,r16,8
    8b34:	dfc00a17 	ldw	ra,40(sp)
    8b38:	df000917 	ldw	fp,36(sp)
    8b3c:	ddc00817 	ldw	r23,32(sp)
    8b40:	dd800717 	ldw	r22,28(sp)
    8b44:	dd400617 	ldw	r21,24(sp)
    8b48:	dd000517 	ldw	r20,20(sp)
    8b4c:	dcc00417 	ldw	r19,16(sp)
    8b50:	dc800317 	ldw	r18,12(sp)
    8b54:	dc400217 	ldw	r17,8(sp)
    8b58:	dc000117 	ldw	r16,4(sp)
    8b5c:	dec00b04 	addi	sp,sp,44
    8b60:	f800283a 	ret
    8b64:	04400404 	movi	r17,16
    8b68:	89407536 	bltu	r17,r5,8d40 <_malloc_r+0x2c0>
    8b6c:	00131a40 	call	131a4 <__malloc_lock>
    8b70:	003fd906 	br	8ad8 <__alt_data_end+0xf8008ad8>
    8b74:	8806d27a 	srli	r3,r17,9
    8b78:	18007526 	beq	r3,zero,8d50 <_malloc_r+0x2d0>
    8b7c:	00800104 	movi	r2,4
    8b80:	10c0ef36 	bltu	r2,r3,8f40 <_malloc_r+0x4c0>
    8b84:	8806d1ba 	srli	r3,r17,6
    8b88:	19c00e04 	addi	r7,r3,56
    8b8c:	39cb883a 	add	r5,r7,r7
    8b90:	04c00374 	movhi	r19,13
    8b94:	294b883a 	add	r5,r5,r5
    8b98:	9cc38c04 	addi	r19,r19,3632
    8b9c:	294b883a 	add	r5,r5,r5
    8ba0:	994b883a 	add	r5,r19,r5
    8ba4:	2c000317 	ldw	r16,12(r5)
    8ba8:	2c000e26 	beq	r5,r16,8be4 <_malloc_r+0x164>
    8bac:	80800117 	ldw	r2,4(r16)
    8bb0:	01bfff04 	movi	r6,-4
    8bb4:	010003c4 	movi	r4,15
    8bb8:	1184703a 	and	r2,r2,r6
    8bbc:	1447c83a 	sub	r3,r2,r17
    8bc0:	20c00716 	blt	r4,r3,8be0 <_malloc_r+0x160>
    8bc4:	1800650e 	bge	r3,zero,8d5c <_malloc_r+0x2dc>
    8bc8:	84000317 	ldw	r16,12(r16)
    8bcc:	2c000526 	beq	r5,r16,8be4 <_malloc_r+0x164>
    8bd0:	80800117 	ldw	r2,4(r16)
    8bd4:	1184703a 	and	r2,r2,r6
    8bd8:	1447c83a 	sub	r3,r2,r17
    8bdc:	20fff90e 	bge	r4,r3,8bc4 <__alt_data_end+0xf8008bc4>
    8be0:	39ffffc4 	addi	r7,r7,-1
    8be4:	38c00044 	addi	r3,r7,1
    8be8:	01800374 	movhi	r6,13
    8bec:	9c000417 	ldw	r16,16(r19)
    8bf0:	31838c04 	addi	r6,r6,3632
    8bf4:	32400204 	addi	r9,r6,8
    8bf8:	82410326 	beq	r16,r9,9008 <_malloc_r+0x588>
    8bfc:	81000117 	ldw	r4,4(r16)
    8c00:	00bfff04 	movi	r2,-4
    8c04:	208e703a 	and	r7,r4,r2
    8c08:	3c45c83a 	sub	r2,r7,r17
    8c0c:	010003c4 	movi	r4,15
    8c10:	2080ee16 	blt	r4,r2,8fcc <_malloc_r+0x54c>
    8c14:	32400515 	stw	r9,20(r6)
    8c18:	32400415 	stw	r9,16(r6)
    8c1c:	1000510e 	bge	r2,zero,8d64 <_malloc_r+0x2e4>
    8c20:	00807fc4 	movi	r2,511
    8c24:	11c0ce36 	bltu	r2,r7,8f60 <_malloc_r+0x4e0>
    8c28:	3808d0fa 	srli	r4,r7,3
    8c2c:	01c00044 	movi	r7,1
    8c30:	30800117 	ldw	r2,4(r6)
    8c34:	210b883a 	add	r5,r4,r4
    8c38:	294b883a 	add	r5,r5,r5
    8c3c:	2009d0ba 	srai	r4,r4,2
    8c40:	294b883a 	add	r5,r5,r5
    8c44:	298b883a 	add	r5,r5,r6
    8c48:	2a000217 	ldw	r8,8(r5)
    8c4c:	3908983a 	sll	r4,r7,r4
    8c50:	81400315 	stw	r5,12(r16)
    8c54:	82000215 	stw	r8,8(r16)
    8c58:	2088b03a 	or	r4,r4,r2
    8c5c:	2c000215 	stw	r16,8(r5)
    8c60:	31000115 	stw	r4,4(r6)
    8c64:	44000315 	stw	r16,12(r8)
    8c68:	1805d0ba 	srai	r2,r3,2
    8c6c:	01400044 	movi	r5,1
    8c70:	288a983a 	sll	r5,r5,r2
    8c74:	21404336 	bltu	r4,r5,8d84 <_malloc_r+0x304>
    8c78:	2144703a 	and	r2,r4,r5
    8c7c:	10000a1e 	bne	r2,zero,8ca8 <_malloc_r+0x228>
    8c80:	00bfff04 	movi	r2,-4
    8c84:	294b883a 	add	r5,r5,r5
    8c88:	1886703a 	and	r3,r3,r2
    8c8c:	2144703a 	and	r2,r4,r5
    8c90:	18c00104 	addi	r3,r3,4
    8c94:	1000041e 	bne	r2,zero,8ca8 <_malloc_r+0x228>
    8c98:	294b883a 	add	r5,r5,r5
    8c9c:	2144703a 	and	r2,r4,r5
    8ca0:	18c00104 	addi	r3,r3,4
    8ca4:	103ffc26 	beq	r2,zero,8c98 <__alt_data_end+0xf8008c98>
    8ca8:	023fff04 	movi	r8,-4
    8cac:	01c003c4 	movi	r7,15
    8cb0:	18c5883a 	add	r2,r3,r3
    8cb4:	1085883a 	add	r2,r2,r2
    8cb8:	1085883a 	add	r2,r2,r2
    8cbc:	9895883a 	add	r10,r19,r2
    8cc0:	52c00304 	addi	r11,r10,12
    8cc4:	1819883a 	mov	r12,r3
    8cc8:	5c000017 	ldw	r16,0(r11)
    8ccc:	59bffd04 	addi	r6,r11,-12
    8cd0:	8180041e 	bne	r16,r6,8ce4 <_malloc_r+0x264>
    8cd4:	0000ce06 	br	9010 <_malloc_r+0x590>
    8cd8:	2000d70e 	bge	r4,zero,9038 <_malloc_r+0x5b8>
    8cdc:	84000317 	ldw	r16,12(r16)
    8ce0:	8180cb26 	beq	r16,r6,9010 <_malloc_r+0x590>
    8ce4:	80800117 	ldw	r2,4(r16)
    8ce8:	1204703a 	and	r2,r2,r8
    8cec:	1449c83a 	sub	r4,r2,r17
    8cf0:	393ff90e 	bge	r7,r4,8cd8 <__alt_data_end+0xf8008cd8>
    8cf4:	80800317 	ldw	r2,12(r16)
    8cf8:	80c00217 	ldw	r3,8(r16)
    8cfc:	89400054 	ori	r5,r17,1
    8d00:	81400115 	stw	r5,4(r16)
    8d04:	18800315 	stw	r2,12(r3)
    8d08:	10c00215 	stw	r3,8(r2)
    8d0c:	8463883a 	add	r17,r16,r17
    8d10:	9c400515 	stw	r17,20(r19)
    8d14:	9c400415 	stw	r17,16(r19)
    8d18:	20800054 	ori	r2,r4,1
    8d1c:	88800115 	stw	r2,4(r17)
    8d20:	8a400315 	stw	r9,12(r17)
    8d24:	8a400215 	stw	r9,8(r17)
    8d28:	8923883a 	add	r17,r17,r4
    8d2c:	89000015 	stw	r4,0(r17)
    8d30:	9009883a 	mov	r4,r18
    8d34:	00131c40 	call	131c4 <__malloc_unlock>
    8d38:	80800204 	addi	r2,r16,8
    8d3c:	003f7d06 	br	8b34 <__alt_data_end+0xf8008b34>
    8d40:	00800304 	movi	r2,12
    8d44:	90800015 	stw	r2,0(r18)
    8d48:	0005883a 	mov	r2,zero
    8d4c:	003f7906 	br	8b34 <__alt_data_end+0xf8008b34>
    8d50:	01401f84 	movi	r5,126
    8d54:	01c00fc4 	movi	r7,63
    8d58:	003f8d06 	br	8b90 <__alt_data_end+0xf8008b90>
    8d5c:	81000317 	ldw	r4,12(r16)
    8d60:	003f6a06 	br	8b0c <__alt_data_end+0xf8008b0c>
    8d64:	81c5883a 	add	r2,r16,r7
    8d68:	10c00117 	ldw	r3,4(r2)
    8d6c:	9009883a 	mov	r4,r18
    8d70:	18c00054 	ori	r3,r3,1
    8d74:	10c00115 	stw	r3,4(r2)
    8d78:	00131c40 	call	131c4 <__malloc_unlock>
    8d7c:	80800204 	addi	r2,r16,8
    8d80:	003f6c06 	br	8b34 <__alt_data_end+0xf8008b34>
    8d84:	9c000217 	ldw	r16,8(r19)
    8d88:	00bfff04 	movi	r2,-4
    8d8c:	85800117 	ldw	r22,4(r16)
    8d90:	b0ac703a 	and	r22,r22,r2
    8d94:	b4400336 	bltu	r22,r17,8da4 <_malloc_r+0x324>
    8d98:	b445c83a 	sub	r2,r22,r17
    8d9c:	00c003c4 	movi	r3,15
    8da0:	18805d16 	blt	r3,r2,8f18 <_malloc_r+0x498>
    8da4:	05c00374 	movhi	r23,13
    8da8:	00800374 	movhi	r2,13
    8dac:	bdca8b04 	addi	r23,r23,10796
    8db0:	1091aa04 	addi	r2,r2,18088
    8db4:	15400017 	ldw	r21,0(r2)
    8db8:	b9000017 	ldw	r4,0(r23)
    8dbc:	00ffffc4 	movi	r3,-1
    8dc0:	858d883a 	add	r6,r16,r22
    8dc4:	8d6b883a 	add	r21,r17,r21
    8dc8:	20c0e426 	beq	r4,r3,915c <_malloc_r+0x6dc>
    8dcc:	ad4403c4 	addi	r21,r21,4111
    8dd0:	00fc0004 	movi	r3,-4096
    8dd4:	a8ea703a 	and	r21,r21,r3
    8dd8:	9009883a 	mov	r4,r18
    8ddc:	a80b883a 	mov	r5,r21
    8de0:	d9800015 	stw	r6,0(sp)
    8de4:	00092280 	call	9228 <_sbrk_r>
    8de8:	00ffffc4 	movi	r3,-1
    8dec:	1029883a 	mov	r20,r2
    8df0:	d9800017 	ldw	r6,0(sp)
    8df4:	10c0a426 	beq	r2,r3,9088 <_malloc_r+0x608>
    8df8:	1180a236 	bltu	r2,r6,9084 <_malloc_r+0x604>
    8dfc:	07000374 	movhi	fp,13
    8e00:	e711b604 	addi	fp,fp,18136
    8e04:	e0c00017 	ldw	r3,0(fp)
    8e08:	a8c7883a 	add	r3,r21,r3
    8e0c:	e0c00015 	stw	r3,0(fp)
    8e10:	3500da26 	beq	r6,r20,917c <_malloc_r+0x6fc>
    8e14:	b9000017 	ldw	r4,0(r23)
    8e18:	00bfffc4 	movi	r2,-1
    8e1c:	2080e426 	beq	r4,r2,91b0 <_malloc_r+0x730>
    8e20:	a185c83a 	sub	r2,r20,r6
    8e24:	1885883a 	add	r2,r3,r2
    8e28:	e0800015 	stw	r2,0(fp)
    8e2c:	a0c001cc 	andi	r3,r20,7
    8e30:	1800b526 	beq	r3,zero,9108 <_malloc_r+0x688>
    8e34:	a0e9c83a 	sub	r20,r20,r3
    8e38:	00840204 	movi	r2,4104
    8e3c:	a5000204 	addi	r20,r20,8
    8e40:	10c7c83a 	sub	r3,r2,r3
    8e44:	a545883a 	add	r2,r20,r21
    8e48:	1083ffcc 	andi	r2,r2,4095
    8e4c:	18abc83a 	sub	r21,r3,r2
    8e50:	9009883a 	mov	r4,r18
    8e54:	a80b883a 	mov	r5,r21
    8e58:	00092280 	call	9228 <_sbrk_r>
    8e5c:	00ffffc4 	movi	r3,-1
    8e60:	10c0d026 	beq	r2,r3,91a4 <_malloc_r+0x724>
    8e64:	1507c83a 	sub	r3,r2,r20
    8e68:	a8c7883a 	add	r3,r21,r3
    8e6c:	18c00054 	ori	r3,r3,1
    8e70:	e0800017 	ldw	r2,0(fp)
    8e74:	9d000215 	stw	r20,8(r19)
    8e78:	a0c00115 	stw	r3,4(r20)
    8e7c:	a887883a 	add	r3,r21,r2
    8e80:	e0c00015 	stw	r3,0(fp)
    8e84:	84c00e26 	beq	r16,r19,8ec0 <_malloc_r+0x440>
    8e88:	018003c4 	movi	r6,15
    8e8c:	3580a02e 	bgeu	r6,r22,9110 <_malloc_r+0x690>
    8e90:	81400117 	ldw	r5,4(r16)
    8e94:	013ffe04 	movi	r4,-8
    8e98:	b0bffd04 	addi	r2,r22,-12
    8e9c:	1104703a 	and	r2,r2,r4
    8ea0:	2900004c 	andi	r4,r5,1
    8ea4:	1108b03a 	or	r4,r2,r4
    8ea8:	81000115 	stw	r4,4(r16)
    8eac:	01400144 	movi	r5,5
    8eb0:	8089883a 	add	r4,r16,r2
    8eb4:	21400115 	stw	r5,4(r4)
    8eb8:	21400215 	stw	r5,8(r4)
    8ebc:	3080c036 	bltu	r6,r2,91c0 <_malloc_r+0x740>
    8ec0:	00800374 	movhi	r2,13
    8ec4:	1091a904 	addi	r2,r2,18084
    8ec8:	11000017 	ldw	r4,0(r2)
    8ecc:	20c0012e 	bgeu	r4,r3,8ed4 <_malloc_r+0x454>
    8ed0:	10c00015 	stw	r3,0(r2)
    8ed4:	00800374 	movhi	r2,13
    8ed8:	1091a804 	addi	r2,r2,18080
    8edc:	11000017 	ldw	r4,0(r2)
    8ee0:	9c000217 	ldw	r16,8(r19)
    8ee4:	20c0012e 	bgeu	r4,r3,8eec <_malloc_r+0x46c>
    8ee8:	10c00015 	stw	r3,0(r2)
    8eec:	80c00117 	ldw	r3,4(r16)
    8ef0:	00bfff04 	movi	r2,-4
    8ef4:	1886703a 	and	r3,r3,r2
    8ef8:	1c45c83a 	sub	r2,r3,r17
    8efc:	1c400236 	bltu	r3,r17,8f08 <_malloc_r+0x488>
    8f00:	00c003c4 	movi	r3,15
    8f04:	18800416 	blt	r3,r2,8f18 <_malloc_r+0x498>
    8f08:	9009883a 	mov	r4,r18
    8f0c:	00131c40 	call	131c4 <__malloc_unlock>
    8f10:	0005883a 	mov	r2,zero
    8f14:	003f0706 	br	8b34 <__alt_data_end+0xf8008b34>
    8f18:	88c00054 	ori	r3,r17,1
    8f1c:	80c00115 	stw	r3,4(r16)
    8f20:	8463883a 	add	r17,r16,r17
    8f24:	10800054 	ori	r2,r2,1
    8f28:	9c400215 	stw	r17,8(r19)
    8f2c:	88800115 	stw	r2,4(r17)
    8f30:	9009883a 	mov	r4,r18
    8f34:	00131c40 	call	131c4 <__malloc_unlock>
    8f38:	80800204 	addi	r2,r16,8
    8f3c:	003efd06 	br	8b34 <__alt_data_end+0xf8008b34>
    8f40:	00800504 	movi	r2,20
    8f44:	10c0482e 	bgeu	r2,r3,9068 <_malloc_r+0x5e8>
    8f48:	00801504 	movi	r2,84
    8f4c:	10c06836 	bltu	r2,r3,90f0 <_malloc_r+0x670>
    8f50:	8806d33a 	srli	r3,r17,12
    8f54:	19c01b84 	addi	r7,r3,110
    8f58:	39cb883a 	add	r5,r7,r7
    8f5c:	003f0c06 	br	8b90 <__alt_data_end+0xf8008b90>
    8f60:	3804d27a 	srli	r2,r7,9
    8f64:	01000104 	movi	r4,4
    8f68:	2080422e 	bgeu	r4,r2,9074 <_malloc_r+0x5f4>
    8f6c:	01000504 	movi	r4,20
    8f70:	20807c36 	bltu	r4,r2,9164 <_malloc_r+0x6e4>
    8f74:	110016c4 	addi	r4,r2,91
    8f78:	210b883a 	add	r5,r4,r4
    8f7c:	294b883a 	add	r5,r5,r5
    8f80:	294b883a 	add	r5,r5,r5
    8f84:	994b883a 	add	r5,r19,r5
    8f88:	28800217 	ldw	r2,8(r5)
    8f8c:	02000374 	movhi	r8,13
    8f90:	42038c04 	addi	r8,r8,3632
    8f94:	11406326 	beq	r2,r5,9124 <_malloc_r+0x6a4>
    8f98:	01bfff04 	movi	r6,-4
    8f9c:	11000117 	ldw	r4,4(r2)
    8fa0:	2188703a 	and	r4,r4,r6
    8fa4:	3900022e 	bgeu	r7,r4,8fb0 <_malloc_r+0x530>
    8fa8:	10800217 	ldw	r2,8(r2)
    8fac:	28bffb1e 	bne	r5,r2,8f9c <__alt_data_end+0xf8008f9c>
    8fb0:	11800317 	ldw	r6,12(r2)
    8fb4:	99000117 	ldw	r4,4(r19)
    8fb8:	81800315 	stw	r6,12(r16)
    8fbc:	80800215 	stw	r2,8(r16)
    8fc0:	34000215 	stw	r16,8(r6)
    8fc4:	14000315 	stw	r16,12(r2)
    8fc8:	003f2706 	br	8c68 <__alt_data_end+0xf8008c68>
    8fcc:	88c00054 	ori	r3,r17,1
    8fd0:	80c00115 	stw	r3,4(r16)
    8fd4:	8463883a 	add	r17,r16,r17
    8fd8:	34400515 	stw	r17,20(r6)
    8fdc:	34400415 	stw	r17,16(r6)
    8fe0:	10c00054 	ori	r3,r2,1
    8fe4:	8a400315 	stw	r9,12(r17)
    8fe8:	8a400215 	stw	r9,8(r17)
    8fec:	88c00115 	stw	r3,4(r17)
    8ff0:	88a3883a 	add	r17,r17,r2
    8ff4:	88800015 	stw	r2,0(r17)
    8ff8:	9009883a 	mov	r4,r18
    8ffc:	00131c40 	call	131c4 <__malloc_unlock>
    9000:	80800204 	addi	r2,r16,8
    9004:	003ecb06 	br	8b34 <__alt_data_end+0xf8008b34>
    9008:	31000117 	ldw	r4,4(r6)
    900c:	003f1606 	br	8c68 <__alt_data_end+0xf8008c68>
    9010:	63000044 	addi	r12,r12,1
    9014:	608000cc 	andi	r2,r12,3
    9018:	5ac00204 	addi	r11,r11,8
    901c:	103f2a1e 	bne	r2,zero,8cc8 <__alt_data_end+0xf8008cc8>
    9020:	00002106 	br	90a8 <_malloc_r+0x628>
    9024:	80800204 	addi	r2,r16,8
    9028:	84000517 	ldw	r16,20(r16)
    902c:	143eb31e 	bne	r2,r16,8afc <__alt_data_end+0xf8008afc>
    9030:	18c00084 	addi	r3,r3,2
    9034:	003eec06 	br	8be8 <__alt_data_end+0xf8008be8>
    9038:	8085883a 	add	r2,r16,r2
    903c:	10c00117 	ldw	r3,4(r2)
    9040:	81000317 	ldw	r4,12(r16)
    9044:	81400217 	ldw	r5,8(r16)
    9048:	18c00054 	ori	r3,r3,1
    904c:	10c00115 	stw	r3,4(r2)
    9050:	29000315 	stw	r4,12(r5)
    9054:	21400215 	stw	r5,8(r4)
    9058:	9009883a 	mov	r4,r18
    905c:	00131c40 	call	131c4 <__malloc_unlock>
    9060:	80800204 	addi	r2,r16,8
    9064:	003eb306 	br	8b34 <__alt_data_end+0xf8008b34>
    9068:	19c016c4 	addi	r7,r3,91
    906c:	39cb883a 	add	r5,r7,r7
    9070:	003ec706 	br	8b90 <__alt_data_end+0xf8008b90>
    9074:	3804d1ba 	srli	r2,r7,6
    9078:	11000e04 	addi	r4,r2,56
    907c:	210b883a 	add	r5,r4,r4
    9080:	003fbe06 	br	8f7c <__alt_data_end+0xf8008f7c>
    9084:	84ff5d26 	beq	r16,r19,8dfc <__alt_data_end+0xf8008dfc>
    9088:	9c000217 	ldw	r16,8(r19)
    908c:	00bfff04 	movi	r2,-4
    9090:	80c00117 	ldw	r3,4(r16)
    9094:	1886703a 	and	r3,r3,r2
    9098:	003f9706 	br	8ef8 <__alt_data_end+0xf8008ef8>
    909c:	52800017 	ldw	r10,0(r10)
    90a0:	18ffffc4 	addi	r3,r3,-1
    90a4:	50805c1e 	bne	r10,r2,9218 <_malloc_r+0x798>
    90a8:	190000cc 	andi	r4,r3,3
    90ac:	50bffe04 	addi	r2,r10,-8
    90b0:	203ffa1e 	bne	r4,zero,909c <__alt_data_end+0xf800909c>
    90b4:	98800117 	ldw	r2,4(r19)
    90b8:	0146303a 	nor	r3,zero,r5
    90bc:	1884703a 	and	r2,r3,r2
    90c0:	98800115 	stw	r2,4(r19)
    90c4:	294b883a 	add	r5,r5,r5
    90c8:	117f2e36 	bltu	r2,r5,8d84 <__alt_data_end+0xf8008d84>
    90cc:	283f2d26 	beq	r5,zero,8d84 <__alt_data_end+0xf8008d84>
    90d0:	1146703a 	and	r3,r2,r5
    90d4:	1800521e 	bne	r3,zero,9220 <_malloc_r+0x7a0>
    90d8:	6007883a 	mov	r3,r12
    90dc:	294b883a 	add	r5,r5,r5
    90e0:	1148703a 	and	r4,r2,r5
    90e4:	18c00104 	addi	r3,r3,4
    90e8:	203ffc26 	beq	r4,zero,90dc <__alt_data_end+0xf80090dc>
    90ec:	003ef006 	br	8cb0 <__alt_data_end+0xf8008cb0>
    90f0:	00805504 	movi	r2,340
    90f4:	10c01336 	bltu	r2,r3,9144 <_malloc_r+0x6c4>
    90f8:	8806d3fa 	srli	r3,r17,15
    90fc:	19c01dc4 	addi	r7,r3,119
    9100:	39cb883a 	add	r5,r7,r7
    9104:	003ea206 	br	8b90 <__alt_data_end+0xf8008b90>
    9108:	00c40004 	movi	r3,4096
    910c:	003f4d06 	br	8e44 <__alt_data_end+0xf8008e44>
    9110:	00800044 	movi	r2,1
    9114:	a0800115 	stw	r2,4(r20)
    9118:	a021883a 	mov	r16,r20
    911c:	0007883a 	mov	r3,zero
    9120:	003f7506 	br	8ef8 <__alt_data_end+0xf8008ef8>
    9124:	200bd0ba 	srai	r5,r4,2
    9128:	01800044 	movi	r6,1
    912c:	41000117 	ldw	r4,4(r8)
    9130:	314a983a 	sll	r5,r6,r5
    9134:	100d883a 	mov	r6,r2
    9138:	2908b03a 	or	r4,r5,r4
    913c:	41000115 	stw	r4,4(r8)
    9140:	003f9d06 	br	8fb8 <__alt_data_end+0xf8008fb8>
    9144:	00815504 	movi	r2,1364
    9148:	10c01336 	bltu	r2,r3,9198 <_malloc_r+0x718>
    914c:	8806d4ba 	srli	r3,r17,18
    9150:	19c01f04 	addi	r7,r3,124
    9154:	39cb883a 	add	r5,r7,r7
    9158:	003e8d06 	br	8b90 <__alt_data_end+0xf8008b90>
    915c:	ad400404 	addi	r21,r21,16
    9160:	003f1d06 	br	8dd8 <__alt_data_end+0xf8008dd8>
    9164:	01001504 	movi	r4,84
    9168:	20801c36 	bltu	r4,r2,91dc <_malloc_r+0x75c>
    916c:	3804d33a 	srli	r2,r7,12
    9170:	11001b84 	addi	r4,r2,110
    9174:	210b883a 	add	r5,r4,r4
    9178:	003f8006 	br	8f7c <__alt_data_end+0xf8008f7c>
    917c:	3083ffcc 	andi	r2,r6,4095
    9180:	103f241e 	bne	r2,zero,8e14 <__alt_data_end+0xf8008e14>
    9184:	99000217 	ldw	r4,8(r19)
    9188:	ad85883a 	add	r2,r21,r22
    918c:	10800054 	ori	r2,r2,1
    9190:	20800115 	stw	r2,4(r4)
    9194:	003f4a06 	br	8ec0 <__alt_data_end+0xf8008ec0>
    9198:	01403f04 	movi	r5,252
    919c:	01c01f84 	movi	r7,126
    91a0:	003e7b06 	br	8b90 <__alt_data_end+0xf8008b90>
    91a4:	00c00044 	movi	r3,1
    91a8:	002b883a 	mov	r21,zero
    91ac:	003f3006 	br	8e70 <__alt_data_end+0xf8008e70>
    91b0:	00800374 	movhi	r2,13
    91b4:	108a8b04 	addi	r2,r2,10796
    91b8:	15000015 	stw	r20,0(r2)
    91bc:	003f1b06 	br	8e2c <__alt_data_end+0xf8008e2c>
    91c0:	9009883a 	mov	r4,r18
    91c4:	81400204 	addi	r5,r16,8
    91c8:	000cdb40 	call	cdb4 <_free_r>
    91cc:	00800374 	movhi	r2,13
    91d0:	1091b604 	addi	r2,r2,18136
    91d4:	10c00017 	ldw	r3,0(r2)
    91d8:	003f3906 	br	8ec0 <__alt_data_end+0xf8008ec0>
    91dc:	01005504 	movi	r4,340
    91e0:	20800436 	bltu	r4,r2,91f4 <_malloc_r+0x774>
    91e4:	3804d3fa 	srli	r2,r7,15
    91e8:	11001dc4 	addi	r4,r2,119
    91ec:	210b883a 	add	r5,r4,r4
    91f0:	003f6206 	br	8f7c <__alt_data_end+0xf8008f7c>
    91f4:	01015504 	movi	r4,1364
    91f8:	20800436 	bltu	r4,r2,920c <_malloc_r+0x78c>
    91fc:	3804d4ba 	srli	r2,r7,18
    9200:	11001f04 	addi	r4,r2,124
    9204:	210b883a 	add	r5,r4,r4
    9208:	003f5c06 	br	8f7c <__alt_data_end+0xf8008f7c>
    920c:	01403f04 	movi	r5,252
    9210:	01001f84 	movi	r4,126
    9214:	003f5906 	br	8f7c <__alt_data_end+0xf8008f7c>
    9218:	98800117 	ldw	r2,4(r19)
    921c:	003fa906 	br	90c4 <__alt_data_end+0xf80090c4>
    9220:	6007883a 	mov	r3,r12
    9224:	003ea206 	br	8cb0 <__alt_data_end+0xf8008cb0>

00009228 <_sbrk_r>:
    9228:	defffd04 	addi	sp,sp,-12
    922c:	dc000015 	stw	r16,0(sp)
    9230:	04000374 	movhi	r16,13
    9234:	dc400115 	stw	r17,4(sp)
    9238:	8411ab04 	addi	r16,r16,18092
    923c:	2023883a 	mov	r17,r4
    9240:	2809883a 	mov	r4,r5
    9244:	dfc00215 	stw	ra,8(sp)
    9248:	80000015 	stw	zero,0(r16)
    924c:	00131e40 	call	131e4 <sbrk>
    9250:	00ffffc4 	movi	r3,-1
    9254:	10c00526 	beq	r2,r3,926c <_sbrk_r+0x44>
    9258:	dfc00217 	ldw	ra,8(sp)
    925c:	dc400117 	ldw	r17,4(sp)
    9260:	dc000017 	ldw	r16,0(sp)
    9264:	dec00304 	addi	sp,sp,12
    9268:	f800283a 	ret
    926c:	80c00017 	ldw	r3,0(r16)
    9270:	183ff926 	beq	r3,zero,9258 <__alt_data_end+0xf8009258>
    9274:	88c00015 	stw	r3,0(r17)
    9278:	003ff706 	br	9258 <__alt_data_end+0xf8009258>

0000927c <_sprintf_r>:
    927c:	deffe404 	addi	sp,sp,-112
    9280:	2807883a 	mov	r3,r5
    9284:	dfc01a15 	stw	ra,104(sp)
    9288:	d9c01b15 	stw	r7,108(sp)
    928c:	00a00034 	movhi	r2,32768
    9290:	10bfffc4 	addi	r2,r2,-1
    9294:	02008204 	movi	r8,520
    9298:	d8800215 	stw	r2,8(sp)
    929c:	d8800515 	stw	r2,20(sp)
    92a0:	d80b883a 	mov	r5,sp
    92a4:	d9c01b04 	addi	r7,sp,108
    92a8:	00bfffc4 	movi	r2,-1
    92ac:	d8c00015 	stw	r3,0(sp)
    92b0:	d8c00415 	stw	r3,16(sp)
    92b4:	da00030d 	sth	r8,12(sp)
    92b8:	d880038d 	sth	r2,14(sp)
    92bc:	00093d80 	call	93d8 <___svfprintf_internal_r>
    92c0:	d8c00017 	ldw	r3,0(sp)
    92c4:	18000005 	stb	zero,0(r3)
    92c8:	dfc01a17 	ldw	ra,104(sp)
    92cc:	dec01c04 	addi	sp,sp,112
    92d0:	f800283a 	ret

000092d4 <sprintf>:
    92d4:	deffe304 	addi	sp,sp,-116
    92d8:	2007883a 	mov	r3,r4
    92dc:	dfc01a15 	stw	ra,104(sp)
    92e0:	d9801b15 	stw	r6,108(sp)
    92e4:	d9c01c15 	stw	r7,112(sp)
    92e8:	01000374 	movhi	r4,13
    92ec:	210a8e04 	addi	r4,r4,10808
    92f0:	21000017 	ldw	r4,0(r4)
    92f4:	00a00034 	movhi	r2,32768
    92f8:	10bfffc4 	addi	r2,r2,-1
    92fc:	280d883a 	mov	r6,r5
    9300:	02008204 	movi	r8,520
    9304:	d8800215 	stw	r2,8(sp)
    9308:	d8800515 	stw	r2,20(sp)
    930c:	d80b883a 	mov	r5,sp
    9310:	d9c01b04 	addi	r7,sp,108
    9314:	00bfffc4 	movi	r2,-1
    9318:	d8c00015 	stw	r3,0(sp)
    931c:	d8c00415 	stw	r3,16(sp)
    9320:	da00030d 	sth	r8,12(sp)
    9324:	d880038d 	sth	r2,14(sp)
    9328:	00093d80 	call	93d8 <___svfprintf_internal_r>
    932c:	d8c00017 	ldw	r3,0(sp)
    9330:	18000005 	stb	zero,0(r3)
    9334:	dfc01a17 	ldw	ra,104(sp)
    9338:	dec01d04 	addi	sp,sp,116
    933c:	f800283a 	ret

00009340 <strlen>:
    9340:	208000cc 	andi	r2,r4,3
    9344:	10002026 	beq	r2,zero,93c8 <strlen+0x88>
    9348:	20800007 	ldb	r2,0(r4)
    934c:	10002026 	beq	r2,zero,93d0 <strlen+0x90>
    9350:	2005883a 	mov	r2,r4
    9354:	00000206 	br	9360 <strlen+0x20>
    9358:	10c00007 	ldb	r3,0(r2)
    935c:	18001826 	beq	r3,zero,93c0 <strlen+0x80>
    9360:	10800044 	addi	r2,r2,1
    9364:	10c000cc 	andi	r3,r2,3
    9368:	183ffb1e 	bne	r3,zero,9358 <__alt_data_end+0xf8009358>
    936c:	10c00017 	ldw	r3,0(r2)
    9370:	01ffbff4 	movhi	r7,65279
    9374:	39ffbfc4 	addi	r7,r7,-257
    9378:	00ca303a 	nor	r5,zero,r3
    937c:	01a02074 	movhi	r6,32897
    9380:	19c7883a 	add	r3,r3,r7
    9384:	31a02004 	addi	r6,r6,-32640
    9388:	1946703a 	and	r3,r3,r5
    938c:	1986703a 	and	r3,r3,r6
    9390:	1800091e 	bne	r3,zero,93b8 <strlen+0x78>
    9394:	10800104 	addi	r2,r2,4
    9398:	10c00017 	ldw	r3,0(r2)
    939c:	19cb883a 	add	r5,r3,r7
    93a0:	00c6303a 	nor	r3,zero,r3
    93a4:	28c6703a 	and	r3,r5,r3
    93a8:	1986703a 	and	r3,r3,r6
    93ac:	183ff926 	beq	r3,zero,9394 <__alt_data_end+0xf8009394>
    93b0:	00000106 	br	93b8 <strlen+0x78>
    93b4:	10800044 	addi	r2,r2,1
    93b8:	10c00007 	ldb	r3,0(r2)
    93bc:	183ffd1e 	bne	r3,zero,93b4 <__alt_data_end+0xf80093b4>
    93c0:	1105c83a 	sub	r2,r2,r4
    93c4:	f800283a 	ret
    93c8:	2005883a 	mov	r2,r4
    93cc:	003fe706 	br	936c <__alt_data_end+0xf800936c>
    93d0:	0005883a 	mov	r2,zero
    93d4:	f800283a 	ret

000093d8 <___svfprintf_internal_r>:
    93d8:	deffb504 	addi	sp,sp,-300
    93dc:	dfc04a15 	stw	ra,296(sp)
    93e0:	ddc04815 	stw	r23,288(sp)
    93e4:	d9002f15 	stw	r4,188(sp)
    93e8:	282f883a 	mov	r23,r5
    93ec:	d9802915 	stw	r6,164(sp)
    93f0:	d9c02d15 	stw	r7,180(sp)
    93f4:	df004915 	stw	fp,292(sp)
    93f8:	dd804715 	stw	r22,284(sp)
    93fc:	dd404615 	stw	r21,280(sp)
    9400:	dd004515 	stw	r20,276(sp)
    9404:	dcc04415 	stw	r19,272(sp)
    9408:	dc804315 	stw	r18,268(sp)
    940c:	dc404215 	stw	r17,264(sp)
    9410:	dc004115 	stw	r16,260(sp)
    9414:	000d1500 	call	d150 <_localeconv_r>
    9418:	10800017 	ldw	r2,0(r2)
    941c:	1009883a 	mov	r4,r2
    9420:	d8803515 	stw	r2,212(sp)
    9424:	00093400 	call	9340 <strlen>
    9428:	d8803915 	stw	r2,228(sp)
    942c:	b880030b 	ldhu	r2,12(r23)
    9430:	1080200c 	andi	r2,r2,128
    9434:	10000226 	beq	r2,zero,9440 <___svfprintf_internal_r+0x68>
    9438:	b8800417 	ldw	r2,16(r23)
    943c:	10065d26 	beq	r2,zero,adb4 <___svfprintf_internal_r+0x19dc>
    9440:	db001dc4 	addi	r12,sp,119
    9444:	dd801e04 	addi	r22,sp,120
    9448:	d8800404 	addi	r2,sp,16
    944c:	05000374 	movhi	r20,13
    9450:	b317c83a 	sub	r11,r22,r12
    9454:	a502fa84 	addi	r20,r20,3050
    9458:	db002815 	stw	r12,160(sp)
    945c:	d8801e15 	stw	r2,120(sp)
    9460:	d8002015 	stw	zero,128(sp)
    9464:	d8001f15 	stw	zero,124(sp)
    9468:	d8003315 	stw	zero,204(sp)
    946c:	d8003715 	stw	zero,220(sp)
    9470:	d8003815 	stw	zero,224(sp)
    9474:	d8003b15 	stw	zero,236(sp)
    9478:	d8003a15 	stw	zero,232(sp)
    947c:	d8003015 	stw	zero,192(sp)
    9480:	1011883a 	mov	r8,r2
    9484:	dac03d15 	stw	r11,244(sp)
    9488:	db002917 	ldw	r12,164(sp)
    948c:	60800007 	ldb	r2,0(r12)
    9490:	1000ab26 	beq	r2,zero,9740 <___svfprintf_internal_r+0x368>
    9494:	00c00944 	movi	r3,37
    9498:	10c0a926 	beq	r2,r3,9740 <___svfprintf_internal_r+0x368>
    949c:	6021883a 	mov	r16,r12
    94a0:	00000106 	br	94a8 <___svfprintf_internal_r+0xd0>
    94a4:	10c08426 	beq	r2,r3,96b8 <___svfprintf_internal_r+0x2e0>
    94a8:	84000044 	addi	r16,r16,1
    94ac:	80800007 	ldb	r2,0(r16)
    94b0:	103ffc1e 	bne	r2,zero,94a4 <__alt_data_end+0xf80094a4>
    94b4:	dac02917 	ldw	r11,164(sp)
    94b8:	82e3c83a 	sub	r17,r16,r11
    94bc:	88000f26 	beq	r17,zero,94fc <___svfprintf_internal_r+0x124>
    94c0:	d8c02017 	ldw	r3,128(sp)
    94c4:	d8801f17 	ldw	r2,124(sp)
    94c8:	dac02917 	ldw	r11,164(sp)
    94cc:	1c47883a 	add	r3,r3,r17
    94d0:	10800044 	addi	r2,r2,1
    94d4:	d8c02015 	stw	r3,128(sp)
    94d8:	42c00015 	stw	r11,0(r8)
    94dc:	44400115 	stw	r17,4(r8)
    94e0:	d8801f15 	stw	r2,124(sp)
    94e4:	00c001c4 	movi	r3,7
    94e8:	18807616 	blt	r3,r2,96c4 <___svfprintf_internal_r+0x2ec>
    94ec:	42000204 	addi	r8,r8,8
    94f0:	db003017 	ldw	r12,192(sp)
    94f4:	6459883a 	add	r12,r12,r17
    94f8:	db003015 	stw	r12,192(sp)
    94fc:	80800007 	ldb	r2,0(r16)
    9500:	10007726 	beq	r2,zero,96e0 <___svfprintf_internal_r+0x308>
    9504:	80800044 	addi	r2,r16,1
    9508:	84000047 	ldb	r16,1(r16)
    950c:	d8002785 	stb	zero,158(sp)
    9510:	000d883a 	mov	r6,zero
    9514:	027fffc4 	movi	r9,-1
    9518:	d8002e15 	stw	zero,184(sp)
    951c:	0023883a 	mov	r17,zero
    9520:	01001604 	movi	r4,88
    9524:	01400244 	movi	r5,9
    9528:	02800a84 	movi	r10,42
    952c:	01c01b04 	movi	r7,108
    9530:	10c00044 	addi	r3,r2,1
    9534:	80bff804 	addi	r2,r16,-32
    9538:	2082e436 	bltu	r4,r2,a0cc <___svfprintf_internal_r+0xcf4>
    953c:	100490ba 	slli	r2,r2,2
    9540:	02c00074 	movhi	r11,1
    9544:	5ae55504 	addi	r11,r11,-27308
    9548:	12c5883a 	add	r2,r2,r11
    954c:	10800017 	ldw	r2,0(r2)
    9550:	1000683a 	jmp	r2
    9554:	00009e84 	movi	zero,634
    9558:	0000a0cc 	andi	zero,zero,643
    955c:	0000a0cc 	andi	zero,zero,643
    9560:	0000a004 	movi	zero,640
    9564:	0000a0cc 	andi	zero,zero,643
    9568:	0000a0cc 	andi	zero,zero,643
    956c:	0000a0cc 	andi	zero,zero,643
    9570:	0000a0cc 	andi	zero,zero,643
    9574:	0000a0cc 	andi	zero,zero,643
    9578:	0000a0cc 	andi	zero,zero,643
    957c:	00009fc8 	cmpgei	zero,zero,639
    9580:	00009ff4 	movhi	zero,639
    9584:	0000a0cc 	andi	zero,zero,643
    9588:	00009748 	cmpgei	zero,zero,605
    958c:	00009758 	cmpnei	zero,zero,605
    9590:	0000a0cc 	andi	zero,zero,643
    9594:	00009798 	cmpnei	zero,zero,606
    9598:	000097a8 	cmpgeui	zero,zero,606
    959c:	000097a8 	cmpgeui	zero,zero,606
    95a0:	000097a8 	cmpgeui	zero,zero,606
    95a4:	000097a8 	cmpgeui	zero,zero,606
    95a8:	000097a8 	cmpgeui	zero,zero,606
    95ac:	000097a8 	cmpgeui	zero,zero,606
    95b0:	000097a8 	cmpgeui	zero,zero,606
    95b4:	000097a8 	cmpgeui	zero,zero,606
    95b8:	000097a8 	cmpgeui	zero,zero,606
    95bc:	0000a0cc 	andi	zero,zero,643
    95c0:	0000a0cc 	andi	zero,zero,643
    95c4:	0000a0cc 	andi	zero,zero,643
    95c8:	0000a0cc 	andi	zero,zero,643
    95cc:	0000a0cc 	andi	zero,zero,643
    95d0:	0000a0cc 	andi	zero,zero,643
    95d4:	0000a0cc 	andi	zero,zero,643
    95d8:	0000a0cc 	andi	zero,zero,643
    95dc:	0000a0cc 	andi	zero,zero,643
    95e0:	0000a0cc 	andi	zero,zero,643
    95e4:	000097dc 	xori	zero,zero,607
    95e8:	00009cc8 	cmpgei	zero,zero,627
    95ec:	0000a0cc 	andi	zero,zero,643
    95f0:	00009cc8 	cmpgei	zero,zero,627
    95f4:	0000a0cc 	andi	zero,zero,643
    95f8:	0000a0cc 	andi	zero,zero,643
    95fc:	0000a0cc 	andi	zero,zero,643
    9600:	0000a0cc 	andi	zero,zero,643
    9604:	00009db4 	movhi	zero,630
    9608:	0000a0cc 	andi	zero,zero,643
    960c:	0000a0cc 	andi	zero,zero,643
    9610:	00009c5c 	xori	zero,zero,625
    9614:	0000a0cc 	andi	zero,zero,643
    9618:	0000a0cc 	andi	zero,zero,643
    961c:	0000a0cc 	andi	zero,zero,643
    9620:	0000a0cc 	andi	zero,zero,643
    9624:	0000a0cc 	andi	zero,zero,643
    9628:	00009c98 	cmpnei	zero,zero,626
    962c:	0000a0cc 	andi	zero,zero,643
    9630:	0000a0cc 	andi	zero,zero,643
    9634:	00009ea4 	muli	zero,zero,634
    9638:	0000a0cc 	andi	zero,zero,643
    963c:	0000a0cc 	andi	zero,zero,643
    9640:	0000a0cc 	andi	zero,zero,643
    9644:	0000a0cc 	andi	zero,zero,643
    9648:	0000a0cc 	andi	zero,zero,643
    964c:	0000a0cc 	andi	zero,zero,643
    9650:	0000a0cc 	andi	zero,zero,643
    9654:	0000a0cc 	andi	zero,zero,643
    9658:	0000a0cc 	andi	zero,zero,643
    965c:	0000a0cc 	andi	zero,zero,643
    9660:	00009f88 	cmpgei	zero,zero,638
    9664:	00009dc4 	movi	zero,631
    9668:	00009cc8 	cmpgei	zero,zero,627
    966c:	00009cc8 	cmpgei	zero,zero,627
    9670:	00009cc8 	cmpgei	zero,zero,627
    9674:	00009e2c 	andhi	zero,zero,632
    9678:	00009dc4 	movi	zero,631
    967c:	0000a0cc 	andi	zero,zero,643
    9680:	0000a0cc 	andi	zero,zero,643
    9684:	00009e3c 	xorhi	zero,zero,632
    9688:	0000a0cc 	andi	zero,zero,643
    968c:	00009e50 	cmplti	zero,zero,633
    9690:	0000a090 	cmplti	zero,zero,642
    9694:	00009d6c 	andhi	zero,zero,629
    9698:	00009f78 	rdprs	zero,zero,637
    969c:	0000a0cc 	andi	zero,zero,643
    96a0:	00009f00 	call	9f0 <setDefaultTagBlock+0x2c>
    96a4:	0000a0cc 	andi	zero,zero,643
    96a8:	0000a054 	movui	zero,641
    96ac:	0000a0cc 	andi	zero,zero,643
    96b0:	0000a0cc 	andi	zero,zero,643
    96b4:	0000a014 	movui	zero,640
    96b8:	db002917 	ldw	r12,164(sp)
    96bc:	8323c83a 	sub	r17,r16,r12
    96c0:	003f7e06 	br	94bc <__alt_data_end+0xf80094bc>
    96c4:	d9002f17 	ldw	r4,188(sp)
    96c8:	b80b883a 	mov	r5,r23
    96cc:	b00d883a 	mov	r6,r22
    96d0:	000e4480 	call	e448 <__ssprint_r>
    96d4:	1000081e 	bne	r2,zero,96f8 <___svfprintf_internal_r+0x320>
    96d8:	da000404 	addi	r8,sp,16
    96dc:	003f8406 	br	94f0 <__alt_data_end+0xf80094f0>
    96e0:	d8802017 	ldw	r2,128(sp)
    96e4:	10000426 	beq	r2,zero,96f8 <___svfprintf_internal_r+0x320>
    96e8:	d9002f17 	ldw	r4,188(sp)
    96ec:	b80b883a 	mov	r5,r23
    96f0:	d9801e04 	addi	r6,sp,120
    96f4:	000e4480 	call	e448 <__ssprint_r>
    96f8:	b880030b 	ldhu	r2,12(r23)
    96fc:	1080100c 	andi	r2,r2,64
    9700:	10000d1e 	bne	r2,zero,9738 <___svfprintf_internal_r+0x360>
    9704:	d8803017 	ldw	r2,192(sp)
    9708:	dfc04a17 	ldw	ra,296(sp)
    970c:	df004917 	ldw	fp,292(sp)
    9710:	ddc04817 	ldw	r23,288(sp)
    9714:	dd804717 	ldw	r22,284(sp)
    9718:	dd404617 	ldw	r21,280(sp)
    971c:	dd004517 	ldw	r20,276(sp)
    9720:	dcc04417 	ldw	r19,272(sp)
    9724:	dc804317 	ldw	r18,268(sp)
    9728:	dc404217 	ldw	r17,264(sp)
    972c:	dc004117 	ldw	r16,260(sp)
    9730:	dec04b04 	addi	sp,sp,300
    9734:	f800283a 	ret
    9738:	00bfffc4 	movi	r2,-1
    973c:	003ff206 	br	9708 <__alt_data_end+0xf8009708>
    9740:	dc002917 	ldw	r16,164(sp)
    9744:	003f6d06 	br	94fc <__alt_data_end+0xf80094fc>
    9748:	1805883a 	mov	r2,r3
    974c:	8c400114 	ori	r17,r17,4
    9750:	1c000007 	ldb	r16,0(r3)
    9754:	003f7606 	br	9530 <__alt_data_end+0xf8009530>
    9758:	1c000007 	ldb	r16,0(r3)
    975c:	18800044 	addi	r2,r3,1
    9760:	8286e726 	beq	r16,r10,b300 <___svfprintf_internal_r+0x1f28>
    9764:	82fff404 	addi	r11,r16,-48
    9768:	1007883a 	mov	r3,r2
    976c:	0013883a 	mov	r9,zero
    9770:	2aff7036 	bltu	r5,r11,9534 <__alt_data_end+0xf8009534>
    9774:	1c000007 	ldb	r16,0(r3)
    9778:	4a4002a4 	muli	r9,r9,10
    977c:	18c00044 	addi	r3,r3,1
    9780:	5a53883a 	add	r9,r11,r9
    9784:	82fff404 	addi	r11,r16,-48
    9788:	2afffa2e 	bgeu	r5,r11,9774 <__alt_data_end+0xf8009774>
    978c:	483f690e 	bge	r9,zero,9534 <__alt_data_end+0xf8009534>
    9790:	027fffc4 	movi	r9,-1
    9794:	003f6706 	br	9534 <__alt_data_end+0xf8009534>
    9798:	8c402014 	ori	r17,r17,128
    979c:	1805883a 	mov	r2,r3
    97a0:	1c000007 	ldb	r16,0(r3)
    97a4:	003f6206 	br	9530 <__alt_data_end+0xf8009530>
    97a8:	1805883a 	mov	r2,r3
    97ac:	d8002e15 	stw	zero,184(sp)
    97b0:	82fff404 	addi	r11,r16,-48
    97b4:	0019883a 	mov	r12,zero
    97b8:	14000007 	ldb	r16,0(r2)
    97bc:	630002a4 	muli	r12,r12,10
    97c0:	18c00044 	addi	r3,r3,1
    97c4:	1805883a 	mov	r2,r3
    97c8:	62d9883a 	add	r12,r12,r11
    97cc:	82fff404 	addi	r11,r16,-48
    97d0:	2afff92e 	bgeu	r5,r11,97b8 <__alt_data_end+0xf80097b8>
    97d4:	db002e15 	stw	r12,184(sp)
    97d8:	003f5606 	br	9534 <__alt_data_end+0xf8009534>
    97dc:	8c400414 	ori	r17,r17,16
    97e0:	d8c02915 	stw	r3,164(sp)
    97e4:	d9802785 	stb	r6,158(sp)
    97e8:	8880080c 	andi	r2,r17,32
    97ec:	d8c02d17 	ldw	r3,180(sp)
    97f0:	10017926 	beq	r2,zero,9dd8 <___svfprintf_internal_r+0xa00>
    97f4:	db002d17 	ldw	r12,180(sp)
    97f8:	18800117 	ldw	r2,4(r3)
    97fc:	1cc00017 	ldw	r19,0(r3)
    9800:	63000204 	addi	r12,r12,8
    9804:	db002d15 	stw	r12,180(sp)
    9808:	1039883a 	mov	fp,r2
    980c:	10017d16 	blt	r2,zero,9e04 <___svfprintf_internal_r+0xa2c>
    9810:	dd402783 	ldbu	r21,158(sp)
    9814:	da403215 	stw	r9,200(sp)
    9818:	00800044 	movi	r2,1
    981c:	9f06b03a 	or	r3,r19,fp
    9820:	48000216 	blt	r9,zero,982c <___svfprintf_internal_r+0x454>
    9824:	013fdfc4 	movi	r4,-129
    9828:	8922703a 	and	r17,r17,r4
    982c:	1802371e 	bne	r3,zero,a10c <___svfprintf_internal_r+0xd34>
    9830:	48034526 	beq	r9,zero,a548 <___svfprintf_internal_r+0x1170>
    9834:	10803fcc 	andi	r2,r2,255
    9838:	00c00044 	movi	r3,1
    983c:	10c25826 	beq	r2,r3,a1a0 <___svfprintf_internal_r+0xdc8>
    9840:	00c00084 	movi	r3,2
    9844:	10c2db26 	beq	r2,r3,a3b4 <___svfprintf_internal_r+0xfdc>
    9848:	b007883a 	mov	r3,r22
    984c:	9808d0fa 	srli	r4,r19,3
    9850:	e00a977a 	slli	r5,fp,29
    9854:	e038d0fa 	srli	fp,fp,3
    9858:	9cc001cc 	andi	r19,r19,7
    985c:	98800c04 	addi	r2,r19,48
    9860:	18ffffc4 	addi	r3,r3,-1
    9864:	2926b03a 	or	r19,r5,r4
    9868:	18800005 	stb	r2,0(r3)
    986c:	9f08b03a 	or	r4,r19,fp
    9870:	203ff61e 	bne	r4,zero,984c <__alt_data_end+0xf800984c>
    9874:	8900004c 	andi	r4,r17,1
    9878:	d8c03115 	stw	r3,196(sp)
    987c:	2002db26 	beq	r4,zero,a3ec <___svfprintf_internal_r+0x1014>
    9880:	10803fcc 	andi	r2,r2,255
    9884:	1080201c 	xori	r2,r2,128
    9888:	10bfe004 	addi	r2,r2,-128
    988c:	01000c04 	movi	r4,48
    9890:	11056626 	beq	r2,r4,ae2c <___svfprintf_internal_r+0x1a54>
    9894:	dac03117 	ldw	r11,196(sp)
    9898:	193fffc5 	stb	r4,-1(r3)
    989c:	5affffc4 	addi	r11,r11,-1
    98a0:	dac03115 	stw	r11,196(sp)
    98a4:	b2e5c83a 	sub	r18,r22,r11
    98a8:	9005883a 	mov	r2,r18
    98ac:	9240010e 	bge	r18,r9,98b4 <___svfprintf_internal_r+0x4dc>
    98b0:	4805883a 	mov	r2,r9
    98b4:	d8802a15 	stw	r2,168(sp)
    98b8:	d8003415 	stw	zero,208(sp)
    98bc:	a8803fcc 	andi	r2,r21,255
    98c0:	1080201c 	xori	r2,r2,128
    98c4:	10bfe004 	addi	r2,r2,-128
    98c8:	10000326 	beq	r2,zero,98d8 <___svfprintf_internal_r+0x500>
    98cc:	d8c02a17 	ldw	r3,168(sp)
    98d0:	18c00044 	addi	r3,r3,1
    98d4:	d8c02a15 	stw	r3,168(sp)
    98d8:	8ac0008c 	andi	r11,r17,2
    98dc:	dac02b15 	stw	r11,172(sp)
    98e0:	58000326 	beq	r11,zero,98f0 <___svfprintf_internal_r+0x518>
    98e4:	db002a17 	ldw	r12,168(sp)
    98e8:	63000084 	addi	r12,r12,2
    98ec:	db002a15 	stw	r12,168(sp)
    98f0:	88c0210c 	andi	r3,r17,132
    98f4:	d8c02c15 	stw	r3,176(sp)
    98f8:	1802021e 	bne	r3,zero,a104 <___svfprintf_internal_r+0xd2c>
    98fc:	dac02e17 	ldw	r11,184(sp)
    9900:	db002a17 	ldw	r12,168(sp)
    9904:	5b39c83a 	sub	fp,r11,r12
    9908:	0701fe0e 	bge	zero,fp,a104 <___svfprintf_internal_r+0xd2c>
    990c:	02400404 	movi	r9,16
    9910:	d8c02017 	ldw	r3,128(sp)
    9914:	d8801f17 	ldw	r2,124(sp)
    9918:	4f057d0e 	bge	r9,fp,af10 <___svfprintf_internal_r+0x1b38>
    991c:	01400374 	movhi	r5,13
    9920:	e009883a 	mov	r4,fp
    9924:	2942fe84 	addi	r5,r5,3066
    9928:	dc003c15 	stw	r16,240(sp)
    992c:	9039883a 	mov	fp,r18
    9930:	d9403615 	stw	r5,216(sp)
    9934:	8825883a 	mov	r18,r17
    9938:	482b883a 	mov	r21,r9
    993c:	04c001c4 	movi	r19,7
    9940:	dc002f17 	ldw	r16,188(sp)
    9944:	2023883a 	mov	r17,r4
    9948:	00000306 	br	9958 <___svfprintf_internal_r+0x580>
    994c:	8c7ffc04 	addi	r17,r17,-16
    9950:	42000204 	addi	r8,r8,8
    9954:	ac40130e 	bge	r21,r17,99a4 <___svfprintf_internal_r+0x5cc>
    9958:	02c00374 	movhi	r11,13
    995c:	18c00404 	addi	r3,r3,16
    9960:	10800044 	addi	r2,r2,1
    9964:	5ac2fe84 	addi	r11,r11,3066
    9968:	42c00015 	stw	r11,0(r8)
    996c:	45400115 	stw	r21,4(r8)
    9970:	d8c02015 	stw	r3,128(sp)
    9974:	d8801f15 	stw	r2,124(sp)
    9978:	98bff40e 	bge	r19,r2,994c <__alt_data_end+0xf800994c>
    997c:	8009883a 	mov	r4,r16
    9980:	b80b883a 	mov	r5,r23
    9984:	b00d883a 	mov	r6,r22
    9988:	000e4480 	call	e448 <__ssprint_r>
    998c:	103f5a1e 	bne	r2,zero,96f8 <__alt_data_end+0xf80096f8>
    9990:	8c7ffc04 	addi	r17,r17,-16
    9994:	d8c02017 	ldw	r3,128(sp)
    9998:	d8801f17 	ldw	r2,124(sp)
    999c:	da000404 	addi	r8,sp,16
    99a0:	ac7fed16 	blt	r21,r17,9958 <__alt_data_end+0xf8009958>
    99a4:	dc003c17 	ldw	r16,240(sp)
    99a8:	8809883a 	mov	r4,r17
    99ac:	9023883a 	mov	r17,r18
    99b0:	e025883a 	mov	r18,fp
    99b4:	2039883a 	mov	fp,r4
    99b8:	db003617 	ldw	r12,216(sp)
    99bc:	e0c7883a 	add	r3,fp,r3
    99c0:	10800044 	addi	r2,r2,1
    99c4:	43000015 	stw	r12,0(r8)
    99c8:	47000115 	stw	fp,4(r8)
    99cc:	d8c02015 	stw	r3,128(sp)
    99d0:	d8801f15 	stw	r2,124(sp)
    99d4:	010001c4 	movi	r4,7
    99d8:	20833516 	blt	r4,r2,a6b0 <___svfprintf_internal_r+0x12d8>
    99dc:	d8802787 	ldb	r2,158(sp)
    99e0:	42000204 	addi	r8,r8,8
    99e4:	10000c26 	beq	r2,zero,9a18 <___svfprintf_internal_r+0x640>
    99e8:	d8801f17 	ldw	r2,124(sp)
    99ec:	d9002784 	addi	r4,sp,158
    99f0:	18c00044 	addi	r3,r3,1
    99f4:	10800044 	addi	r2,r2,1
    99f8:	41000015 	stw	r4,0(r8)
    99fc:	01000044 	movi	r4,1
    9a00:	41000115 	stw	r4,4(r8)
    9a04:	d8c02015 	stw	r3,128(sp)
    9a08:	d8801f15 	stw	r2,124(sp)
    9a0c:	010001c4 	movi	r4,7
    9a10:	2082df16 	blt	r4,r2,a590 <___svfprintf_internal_r+0x11b8>
    9a14:	42000204 	addi	r8,r8,8
    9a18:	dac02b17 	ldw	r11,172(sp)
    9a1c:	58000c26 	beq	r11,zero,9a50 <___svfprintf_internal_r+0x678>
    9a20:	d8801f17 	ldw	r2,124(sp)
    9a24:	d9002704 	addi	r4,sp,156
    9a28:	18c00084 	addi	r3,r3,2
    9a2c:	10800044 	addi	r2,r2,1
    9a30:	41000015 	stw	r4,0(r8)
    9a34:	01000084 	movi	r4,2
    9a38:	41000115 	stw	r4,4(r8)
    9a3c:	d8c02015 	stw	r3,128(sp)
    9a40:	d8801f15 	stw	r2,124(sp)
    9a44:	010001c4 	movi	r4,7
    9a48:	2082d916 	blt	r4,r2,a5b0 <___svfprintf_internal_r+0x11d8>
    9a4c:	42000204 	addi	r8,r8,8
    9a50:	db002c17 	ldw	r12,176(sp)
    9a54:	00802004 	movi	r2,128
    9a58:	60822026 	beq	r12,r2,a2dc <___svfprintf_internal_r+0xf04>
    9a5c:	db003217 	ldw	r12,200(sp)
    9a60:	64abc83a 	sub	r21,r12,r18
    9a64:	0540310e 	bge	zero,r21,9b2c <___svfprintf_internal_r+0x754>
    9a68:	07000404 	movi	fp,16
    9a6c:	d8801f17 	ldw	r2,124(sp)
    9a70:	e544180e 	bge	fp,r21,aad4 <___svfprintf_internal_r+0x16fc>
    9a74:	01400374 	movhi	r5,13
    9a78:	a809883a 	mov	r4,r21
    9a7c:	2942fa84 	addi	r5,r5,3050
    9a80:	dc002c15 	stw	r16,176(sp)
    9a84:	902b883a 	mov	r21,r18
    9a88:	d9402b15 	stw	r5,172(sp)
    9a8c:	8825883a 	mov	r18,r17
    9a90:	04c001c4 	movi	r19,7
    9a94:	dc002f17 	ldw	r16,188(sp)
    9a98:	2023883a 	mov	r17,r4
    9a9c:	00000306 	br	9aac <___svfprintf_internal_r+0x6d4>
    9aa0:	8c7ffc04 	addi	r17,r17,-16
    9aa4:	42000204 	addi	r8,r8,8
    9aa8:	e440110e 	bge	fp,r17,9af0 <___svfprintf_internal_r+0x718>
    9aac:	18c00404 	addi	r3,r3,16
    9ab0:	10800044 	addi	r2,r2,1
    9ab4:	45000015 	stw	r20,0(r8)
    9ab8:	47000115 	stw	fp,4(r8)
    9abc:	d8c02015 	stw	r3,128(sp)
    9ac0:	d8801f15 	stw	r2,124(sp)
    9ac4:	98bff60e 	bge	r19,r2,9aa0 <__alt_data_end+0xf8009aa0>
    9ac8:	8009883a 	mov	r4,r16
    9acc:	b80b883a 	mov	r5,r23
    9ad0:	b00d883a 	mov	r6,r22
    9ad4:	000e4480 	call	e448 <__ssprint_r>
    9ad8:	103f071e 	bne	r2,zero,96f8 <__alt_data_end+0xf80096f8>
    9adc:	8c7ffc04 	addi	r17,r17,-16
    9ae0:	d8c02017 	ldw	r3,128(sp)
    9ae4:	d8801f17 	ldw	r2,124(sp)
    9ae8:	da000404 	addi	r8,sp,16
    9aec:	e47fef16 	blt	fp,r17,9aac <__alt_data_end+0xf8009aac>
    9af0:	dc002c17 	ldw	r16,176(sp)
    9af4:	8809883a 	mov	r4,r17
    9af8:	9023883a 	mov	r17,r18
    9afc:	a825883a 	mov	r18,r21
    9b00:	202b883a 	mov	r21,r4
    9b04:	dac02b17 	ldw	r11,172(sp)
    9b08:	1d47883a 	add	r3,r3,r21
    9b0c:	10800044 	addi	r2,r2,1
    9b10:	42c00015 	stw	r11,0(r8)
    9b14:	45400115 	stw	r21,4(r8)
    9b18:	d8c02015 	stw	r3,128(sp)
    9b1c:	d8801f15 	stw	r2,124(sp)
    9b20:	010001c4 	movi	r4,7
    9b24:	20829216 	blt	r4,r2,a570 <___svfprintf_internal_r+0x1198>
    9b28:	42000204 	addi	r8,r8,8
    9b2c:	8880400c 	andi	r2,r17,256
    9b30:	1001a11e 	bne	r2,zero,a1b8 <___svfprintf_internal_r+0xde0>
    9b34:	d8801f17 	ldw	r2,124(sp)
    9b38:	db003117 	ldw	r12,196(sp)
    9b3c:	1c87883a 	add	r3,r3,r18
    9b40:	10800044 	addi	r2,r2,1
    9b44:	43000015 	stw	r12,0(r8)
    9b48:	44800115 	stw	r18,4(r8)
    9b4c:	d8c02015 	stw	r3,128(sp)
    9b50:	d8801f15 	stw	r2,124(sp)
    9b54:	010001c4 	movi	r4,7
    9b58:	20826d16 	blt	r4,r2,a510 <___svfprintf_internal_r+0x1138>
    9b5c:	42000204 	addi	r8,r8,8
    9b60:	8c40010c 	andi	r17,r17,4
    9b64:	88003226 	beq	r17,zero,9c30 <___svfprintf_internal_r+0x858>
    9b68:	db002e17 	ldw	r12,184(sp)
    9b6c:	dac02a17 	ldw	r11,168(sp)
    9b70:	62e1c83a 	sub	r16,r12,r11
    9b74:	04002e0e 	bge	zero,r16,9c30 <___svfprintf_internal_r+0x858>
    9b78:	04400404 	movi	r17,16
    9b7c:	d8801f17 	ldw	r2,124(sp)
    9b80:	8c05240e 	bge	r17,r16,b014 <___svfprintf_internal_r+0x1c3c>
    9b84:	01000374 	movhi	r4,13
    9b88:	2102fe84 	addi	r4,r4,3066
    9b8c:	d9003615 	stw	r4,216(sp)
    9b90:	048001c4 	movi	r18,7
    9b94:	dcc02f17 	ldw	r19,188(sp)
    9b98:	00000306 	br	9ba8 <___svfprintf_internal_r+0x7d0>
    9b9c:	843ffc04 	addi	r16,r16,-16
    9ba0:	42000204 	addi	r8,r8,8
    9ba4:	8c00130e 	bge	r17,r16,9bf4 <___svfprintf_internal_r+0x81c>
    9ba8:	01400374 	movhi	r5,13
    9bac:	18c00404 	addi	r3,r3,16
    9bb0:	10800044 	addi	r2,r2,1
    9bb4:	2942fe84 	addi	r5,r5,3066
    9bb8:	41400015 	stw	r5,0(r8)
    9bbc:	44400115 	stw	r17,4(r8)
    9bc0:	d8c02015 	stw	r3,128(sp)
    9bc4:	d8801f15 	stw	r2,124(sp)
    9bc8:	90bff40e 	bge	r18,r2,9b9c <__alt_data_end+0xf8009b9c>
    9bcc:	9809883a 	mov	r4,r19
    9bd0:	b80b883a 	mov	r5,r23
    9bd4:	b00d883a 	mov	r6,r22
    9bd8:	000e4480 	call	e448 <__ssprint_r>
    9bdc:	103ec61e 	bne	r2,zero,96f8 <__alt_data_end+0xf80096f8>
    9be0:	843ffc04 	addi	r16,r16,-16
    9be4:	d8c02017 	ldw	r3,128(sp)
    9be8:	d8801f17 	ldw	r2,124(sp)
    9bec:	da000404 	addi	r8,sp,16
    9bf0:	8c3fed16 	blt	r17,r16,9ba8 <__alt_data_end+0xf8009ba8>
    9bf4:	dac03617 	ldw	r11,216(sp)
    9bf8:	1c07883a 	add	r3,r3,r16
    9bfc:	10800044 	addi	r2,r2,1
    9c00:	42c00015 	stw	r11,0(r8)
    9c04:	44000115 	stw	r16,4(r8)
    9c08:	d8c02015 	stw	r3,128(sp)
    9c0c:	d8801f15 	stw	r2,124(sp)
    9c10:	010001c4 	movi	r4,7
    9c14:	2080060e 	bge	r4,r2,9c30 <___svfprintf_internal_r+0x858>
    9c18:	d9002f17 	ldw	r4,188(sp)
    9c1c:	b80b883a 	mov	r5,r23
    9c20:	b00d883a 	mov	r6,r22
    9c24:	000e4480 	call	e448 <__ssprint_r>
    9c28:	103eb31e 	bne	r2,zero,96f8 <__alt_data_end+0xf80096f8>
    9c2c:	d8c02017 	ldw	r3,128(sp)
    9c30:	d8802a17 	ldw	r2,168(sp)
    9c34:	db002e17 	ldw	r12,184(sp)
    9c38:	1300010e 	bge	r2,r12,9c40 <___svfprintf_internal_r+0x868>
    9c3c:	6005883a 	mov	r2,r12
    9c40:	dac03017 	ldw	r11,192(sp)
    9c44:	5897883a 	add	r11,r11,r2
    9c48:	dac03015 	stw	r11,192(sp)
    9c4c:	1802381e 	bne	r3,zero,a530 <___svfprintf_internal_r+0x1158>
    9c50:	d8001f15 	stw	zero,124(sp)
    9c54:	da000404 	addi	r8,sp,16
    9c58:	003e0b06 	br	9488 <__alt_data_end+0xf8009488>
    9c5c:	8c400414 	ori	r17,r17,16
    9c60:	d8c02915 	stw	r3,164(sp)
    9c64:	8880080c 	andi	r2,r17,32
    9c68:	10010c26 	beq	r2,zero,a09c <___svfprintf_internal_r+0xcc4>
    9c6c:	db002d17 	ldw	r12,180(sp)
    9c70:	0005883a 	mov	r2,zero
    9c74:	64c00017 	ldw	r19,0(r12)
    9c78:	67000117 	ldw	fp,4(r12)
    9c7c:	63000204 	addi	r12,r12,8
    9c80:	db002d15 	stw	r12,180(sp)
    9c84:	9f06b03a 	or	r3,r19,fp
    9c88:	d8002785 	stb	zero,158(sp)
    9c8c:	da403215 	stw	r9,200(sp)
    9c90:	002b883a 	mov	r21,zero
    9c94:	003ee206 	br	9820 <__alt_data_end+0xf8009820>
    9c98:	8c400414 	ori	r17,r17,16
    9c9c:	d8c02915 	stw	r3,164(sp)
    9ca0:	8880080c 	andi	r2,r17,32
    9ca4:	1000ee26 	beq	r2,zero,a060 <___svfprintf_internal_r+0xc88>
    9ca8:	dac02d17 	ldw	r11,180(sp)
    9cac:	00800044 	movi	r2,1
    9cb0:	5cc00017 	ldw	r19,0(r11)
    9cb4:	5f000117 	ldw	fp,4(r11)
    9cb8:	5ac00204 	addi	r11,r11,8
    9cbc:	dac02d15 	stw	r11,180(sp)
    9cc0:	9f06b03a 	or	r3,r19,fp
    9cc4:	003ff006 	br	9c88 <__alt_data_end+0xf8009c88>
    9cc8:	db002d17 	ldw	r12,180(sp)
    9ccc:	dac02d17 	ldw	r11,180(sp)
    9cd0:	d8c02915 	stw	r3,164(sp)
    9cd4:	63000017 	ldw	r12,0(r12)
    9cd8:	5ac00117 	ldw	r11,4(r11)
    9cdc:	d9802785 	stb	r6,158(sp)
    9ce0:	6009883a 	mov	r4,r12
    9ce4:	580b883a 	mov	r5,r11
    9ce8:	db003715 	stw	r12,220(sp)
    9cec:	da004015 	stw	r8,256(sp)
    9cf0:	da403f15 	stw	r9,252(sp)
    9cf4:	dac03815 	stw	r11,224(sp)
    9cf8:	000e3300 	call	e330 <__fpclassifyd>
    9cfc:	db002d17 	ldw	r12,180(sp)
    9d00:	04800044 	movi	r18,1
    9d04:	da004017 	ldw	r8,256(sp)
    9d08:	64c00204 	addi	r19,r12,8
    9d0c:	da403f17 	ldw	r9,252(sp)
    9d10:	d9003717 	ldw	r4,220(sp)
    9d14:	d9403817 	ldw	r5,224(sp)
    9d18:	14832c1e 	bne	r2,r18,a9cc <___svfprintf_internal_r+0x15f4>
    9d1c:	000d883a 	mov	r6,zero
    9d20:	000f883a 	mov	r7,zero
    9d24:	0011d780 	call	11d78 <__ledf2>
    9d28:	da004017 	ldw	r8,256(sp)
    9d2c:	1004c416 	blt	r2,zero,b040 <___svfprintf_internal_r+0x1c68>
    9d30:	dd402783 	ldbu	r21,158(sp)
    9d34:	008011c4 	movi	r2,71
    9d38:	14041a0e 	bge	r2,r16,ada4 <___svfprintf_internal_r+0x19cc>
    9d3c:	00c00374 	movhi	r3,13
    9d40:	18c2eb04 	addi	r3,r3,2988
    9d44:	d8c03115 	stw	r3,196(sp)
    9d48:	02c000c4 	movi	r11,3
    9d4c:	00bfdfc4 	movi	r2,-129
    9d50:	dac02a15 	stw	r11,168(sp)
    9d54:	88a2703a 	and	r17,r17,r2
    9d58:	dcc02d15 	stw	r19,180(sp)
    9d5c:	5825883a 	mov	r18,r11
    9d60:	d8003215 	stw	zero,200(sp)
    9d64:	d8003415 	stw	zero,208(sp)
    9d68:	003ed406 	br	98bc <__alt_data_end+0xf80098bc>
    9d6c:	db002d17 	ldw	r12,180(sp)
    9d70:	00800c04 	movi	r2,48
    9d74:	d8802705 	stb	r2,156(sp)
    9d78:	64c00017 	ldw	r19,0(r12)
    9d7c:	00801e04 	movi	r2,120
    9d80:	d8802745 	stb	r2,157(sp)
    9d84:	00800374 	movhi	r2,13
    9d88:	1082f304 	addi	r2,r2,3020
    9d8c:	63000104 	addi	r12,r12,4
    9d90:	d8c02915 	stw	r3,164(sp)
    9d94:	d8803b15 	stw	r2,236(sp)
    9d98:	0039883a 	mov	fp,zero
    9d9c:	8c400094 	ori	r17,r17,2
    9da0:	db002d15 	stw	r12,180(sp)
    9da4:	00800084 	movi	r2,2
    9da8:	04001e04 	movi	r16,120
    9dac:	9807883a 	mov	r3,r19
    9db0:	003fb506 	br	9c88 <__alt_data_end+0xf8009c88>
    9db4:	8c400214 	ori	r17,r17,8
    9db8:	1805883a 	mov	r2,r3
    9dbc:	1c000007 	ldb	r16,0(r3)
    9dc0:	003ddb06 	br	9530 <__alt_data_end+0xf8009530>
    9dc4:	d8c02915 	stw	r3,164(sp)
    9dc8:	d9802785 	stb	r6,158(sp)
    9dcc:	8880080c 	andi	r2,r17,32
    9dd0:	d8c02d17 	ldw	r3,180(sp)
    9dd4:	103e871e 	bne	r2,zero,97f4 <__alt_data_end+0xf80097f4>
    9dd8:	8880040c 	andi	r2,r17,16
    9ddc:	10027a1e 	bne	r2,zero,a7c8 <___svfprintf_internal_r+0x13f0>
    9de0:	8880100c 	andi	r2,r17,64
    9de4:	10027826 	beq	r2,zero,a7c8 <___svfprintf_internal_r+0x13f0>
    9de8:	1cc0000f 	ldh	r19,0(r3)
    9dec:	db002d17 	ldw	r12,180(sp)
    9df0:	9839d7fa 	srai	fp,r19,31
    9df4:	63000104 	addi	r12,r12,4
    9df8:	db002d15 	stw	r12,180(sp)
    9dfc:	e005883a 	mov	r2,fp
    9e00:	103e830e 	bge	r2,zero,9810 <__alt_data_end+0xf8009810>
    9e04:	04e7c83a 	sub	r19,zero,r19
    9e08:	9804c03a 	cmpne	r2,r19,zero
    9e0c:	0739c83a 	sub	fp,zero,fp
    9e10:	e0b9c83a 	sub	fp,fp,r2
    9e14:	05400b44 	movi	r21,45
    9e18:	dd402785 	stb	r21,158(sp)
    9e1c:	da403215 	stw	r9,200(sp)
    9e20:	00800044 	movi	r2,1
    9e24:	9f06b03a 	or	r3,r19,fp
    9e28:	003e7d06 	br	9820 <__alt_data_end+0xf8009820>
    9e2c:	8c401014 	ori	r17,r17,64
    9e30:	1805883a 	mov	r2,r3
    9e34:	1c000007 	ldb	r16,0(r3)
    9e38:	003dbd06 	br	9530 <__alt_data_end+0xf8009530>
    9e3c:	1c000007 	ldb	r16,0(r3)
    9e40:	81c37126 	beq	r16,r7,ac08 <___svfprintf_internal_r+0x1830>
    9e44:	8c400414 	ori	r17,r17,16
    9e48:	1805883a 	mov	r2,r3
    9e4c:	003db806 	br	9530 <__alt_data_end+0xf8009530>
    9e50:	d8c02915 	stw	r3,164(sp)
    9e54:	d9802785 	stb	r6,158(sp)
    9e58:	8880080c 	andi	r2,r17,32
    9e5c:	1002f026 	beq	r2,zero,aa20 <___svfprintf_internal_r+0x1648>
    9e60:	db002d17 	ldw	r12,180(sp)
    9e64:	dac03017 	ldw	r11,192(sp)
    9e68:	60800017 	ldw	r2,0(r12)
    9e6c:	5807d7fa 	srai	r3,r11,31
    9e70:	63000104 	addi	r12,r12,4
    9e74:	db002d15 	stw	r12,180(sp)
    9e78:	12c00015 	stw	r11,0(r2)
    9e7c:	10c00115 	stw	r3,4(r2)
    9e80:	003d8106 	br	9488 <__alt_data_end+0xf8009488>
    9e84:	30803fcc 	andi	r2,r6,255
    9e88:	1080201c 	xori	r2,r2,128
    9e8c:	10bfe004 	addi	r2,r2,-128
    9e90:	1002fd1e 	bne	r2,zero,aa88 <___svfprintf_internal_r+0x16b0>
    9e94:	1805883a 	mov	r2,r3
    9e98:	01800804 	movi	r6,32
    9e9c:	1c000007 	ldb	r16,0(r3)
    9ea0:	003da306 	br	9530 <__alt_data_end+0xf8009530>
    9ea4:	03000374 	movhi	r12,13
    9ea8:	6302ee04 	addi	r12,r12,3000
    9eac:	d8c02915 	stw	r3,164(sp)
    9eb0:	d9802785 	stb	r6,158(sp)
    9eb4:	db003b15 	stw	r12,236(sp)
    9eb8:	88c0080c 	andi	r3,r17,32
    9ebc:	d8802d17 	ldw	r2,180(sp)
    9ec0:	18005c26 	beq	r3,zero,a034 <___svfprintf_internal_r+0xc5c>
    9ec4:	dac02d17 	ldw	r11,180(sp)
    9ec8:	14c00017 	ldw	r19,0(r2)
    9ecc:	17000117 	ldw	fp,4(r2)
    9ed0:	5ac00204 	addi	r11,r11,8
    9ed4:	dac02d15 	stw	r11,180(sp)
    9ed8:	8880004c 	andi	r2,r17,1
    9edc:	10022f26 	beq	r2,zero,a79c <___svfprintf_internal_r+0x13c4>
    9ee0:	9f06b03a 	or	r3,r19,fp
    9ee4:	1802eb26 	beq	r3,zero,aa94 <___svfprintf_internal_r+0x16bc>
    9ee8:	00800c04 	movi	r2,48
    9eec:	d8802705 	stb	r2,156(sp)
    9ef0:	dc002745 	stb	r16,157(sp)
    9ef4:	8c400094 	ori	r17,r17,2
    9ef8:	00800084 	movi	r2,2
    9efc:	003f6206 	br	9c88 <__alt_data_end+0xf8009c88>
    9f00:	dac02d17 	ldw	r11,180(sp)
    9f04:	db002d17 	ldw	r12,180(sp)
    9f08:	d8c02915 	stw	r3,164(sp)
    9f0c:	5ac00017 	ldw	r11,0(r11)
    9f10:	d8002785 	stb	zero,158(sp)
    9f14:	64c00104 	addi	r19,r12,4
    9f18:	dac03115 	stw	r11,196(sp)
    9f1c:	58042e26 	beq	r11,zero,afd8 <___svfprintf_internal_r+0x1c00>
    9f20:	d9003117 	ldw	r4,196(sp)
    9f24:	4803c416 	blt	r9,zero,ae38 <___svfprintf_internal_r+0x1a60>
    9f28:	480d883a 	mov	r6,r9
    9f2c:	000b883a 	mov	r5,zero
    9f30:	da004015 	stw	r8,256(sp)
    9f34:	da403f15 	stw	r9,252(sp)
    9f38:	000d1840 	call	d184 <memchr>
    9f3c:	da004017 	ldw	r8,256(sp)
    9f40:	da403f17 	ldw	r9,252(sp)
    9f44:	10048a26 	beq	r2,zero,b170 <___svfprintf_internal_r+0x1d98>
    9f48:	d8c03117 	ldw	r3,196(sp)
    9f4c:	10e5c83a 	sub	r18,r2,r3
    9f50:	4c80010e 	bge	r9,r18,9f58 <___svfprintf_internal_r+0xb80>
    9f54:	4825883a 	mov	r18,r9
    9f58:	9005883a 	mov	r2,r18
    9f5c:	9003bb16 	blt	r18,zero,ae4c <___svfprintf_internal_r+0x1a74>
    9f60:	dd402783 	ldbu	r21,158(sp)
    9f64:	d8802a15 	stw	r2,168(sp)
    9f68:	dcc02d15 	stw	r19,180(sp)
    9f6c:	d8003215 	stw	zero,200(sp)
    9f70:	d8003415 	stw	zero,208(sp)
    9f74:	003e5106 	br	98bc <__alt_data_end+0xf80098bc>
    9f78:	8c400814 	ori	r17,r17,32
    9f7c:	1805883a 	mov	r2,r3
    9f80:	1c000007 	ldb	r16,0(r3)
    9f84:	003d6a06 	br	9530 <__alt_data_end+0xf8009530>
    9f88:	db002d17 	ldw	r12,180(sp)
    9f8c:	d8c02915 	stw	r3,164(sp)
    9f90:	dac01404 	addi	r11,sp,80
    9f94:	60800017 	ldw	r2,0(r12)
    9f98:	00c00044 	movi	r3,1
    9f9c:	63000104 	addi	r12,r12,4
    9fa0:	d8801405 	stb	r2,80(sp)
    9fa4:	d8c02a15 	stw	r3,168(sp)
    9fa8:	d8002785 	stb	zero,158(sp)
    9fac:	db002d15 	stw	r12,180(sp)
    9fb0:	1825883a 	mov	r18,r3
    9fb4:	d8003215 	stw	zero,200(sp)
    9fb8:	d8003415 	stw	zero,208(sp)
    9fbc:	dac03115 	stw	r11,196(sp)
    9fc0:	0005883a 	mov	r2,zero
    9fc4:	003e4406 	br	98d8 <__alt_data_end+0xf80098d8>
    9fc8:	dac02d17 	ldw	r11,180(sp)
    9fcc:	db002d17 	ldw	r12,180(sp)
    9fd0:	5ac00017 	ldw	r11,0(r11)
    9fd4:	dac02e15 	stw	r11,184(sp)
    9fd8:	62c00104 	addi	r11,r12,4
    9fdc:	db002e17 	ldw	r12,184(sp)
    9fe0:	60030316 	blt	r12,zero,abf0 <___svfprintf_internal_r+0x1818>
    9fe4:	dac02d15 	stw	r11,180(sp)
    9fe8:	1805883a 	mov	r2,r3
    9fec:	1c000007 	ldb	r16,0(r3)
    9ff0:	003d4f06 	br	9530 <__alt_data_end+0xf8009530>
    9ff4:	1805883a 	mov	r2,r3
    9ff8:	01800ac4 	movi	r6,43
    9ffc:	1c000007 	ldb	r16,0(r3)
    a000:	003d4b06 	br	9530 <__alt_data_end+0xf8009530>
    a004:	8c400054 	ori	r17,r17,1
    a008:	1805883a 	mov	r2,r3
    a00c:	1c000007 	ldb	r16,0(r3)
    a010:	003d4706 	br	9530 <__alt_data_end+0xf8009530>
    a014:	00800374 	movhi	r2,13
    a018:	1082f304 	addi	r2,r2,3020
    a01c:	d8c02915 	stw	r3,164(sp)
    a020:	d8803b15 	stw	r2,236(sp)
    a024:	d9802785 	stb	r6,158(sp)
    a028:	88c0080c 	andi	r3,r17,32
    a02c:	d8802d17 	ldw	r2,180(sp)
    a030:	183fa41e 	bne	r3,zero,9ec4 <__alt_data_end+0xf8009ec4>
    a034:	88c0040c 	andi	r3,r17,16
    a038:	18028b26 	beq	r3,zero,aa68 <___svfprintf_internal_r+0x1690>
    a03c:	db002d17 	ldw	r12,180(sp)
    a040:	14c00017 	ldw	r19,0(r2)
    a044:	0039883a 	mov	fp,zero
    a048:	63000104 	addi	r12,r12,4
    a04c:	db002d15 	stw	r12,180(sp)
    a050:	003fa106 	br	9ed8 <__alt_data_end+0xf8009ed8>
    a054:	d8c02915 	stw	r3,164(sp)
    a058:	8880080c 	andi	r2,r17,32
    a05c:	103f121e 	bne	r2,zero,9ca8 <__alt_data_end+0xf8009ca8>
    a060:	8880040c 	andi	r2,r17,16
    a064:	1001df1e 	bne	r2,zero,a7e4 <___svfprintf_internal_r+0x140c>
    a068:	8880100c 	andi	r2,r17,64
    a06c:	1001dd26 	beq	r2,zero,a7e4 <___svfprintf_internal_r+0x140c>
    a070:	dac02d17 	ldw	r11,180(sp)
    a074:	0039883a 	mov	fp,zero
    a078:	00800044 	movi	r2,1
    a07c:	5cc0000b 	ldhu	r19,0(r11)
    a080:	5ac00104 	addi	r11,r11,4
    a084:	dac02d15 	stw	r11,180(sp)
    a088:	9807883a 	mov	r3,r19
    a08c:	003efe06 	br	9c88 <__alt_data_end+0xf8009c88>
    a090:	d8c02915 	stw	r3,164(sp)
    a094:	8880080c 	andi	r2,r17,32
    a098:	103ef41e 	bne	r2,zero,9c6c <__alt_data_end+0xf8009c6c>
    a09c:	8880040c 	andi	r2,r17,16
    a0a0:	1001c11e 	bne	r2,zero,a7a8 <___svfprintf_internal_r+0x13d0>
    a0a4:	8880100c 	andi	r2,r17,64
    a0a8:	1001bf26 	beq	r2,zero,a7a8 <___svfprintf_internal_r+0x13d0>
    a0ac:	db002d17 	ldw	r12,180(sp)
    a0b0:	0039883a 	mov	fp,zero
    a0b4:	0005883a 	mov	r2,zero
    a0b8:	64c0000b 	ldhu	r19,0(r12)
    a0bc:	63000104 	addi	r12,r12,4
    a0c0:	db002d15 	stw	r12,180(sp)
    a0c4:	9807883a 	mov	r3,r19
    a0c8:	003eef06 	br	9c88 <__alt_data_end+0xf8009c88>
    a0cc:	d8c02915 	stw	r3,164(sp)
    a0d0:	d9802785 	stb	r6,158(sp)
    a0d4:	803d8226 	beq	r16,zero,96e0 <__alt_data_end+0xf80096e0>
    a0d8:	02c00044 	movi	r11,1
    a0dc:	db001404 	addi	r12,sp,80
    a0e0:	dac02a15 	stw	r11,168(sp)
    a0e4:	dc001405 	stb	r16,80(sp)
    a0e8:	d8002785 	stb	zero,158(sp)
    a0ec:	5825883a 	mov	r18,r11
    a0f0:	d8003215 	stw	zero,200(sp)
    a0f4:	d8003415 	stw	zero,208(sp)
    a0f8:	db003115 	stw	r12,196(sp)
    a0fc:	0005883a 	mov	r2,zero
    a100:	003df506 	br	98d8 <__alt_data_end+0xf80098d8>
    a104:	d8c02017 	ldw	r3,128(sp)
    a108:	003e3606 	br	99e4 <__alt_data_end+0xf80099e4>
    a10c:	10803fcc 	andi	r2,r2,255
    a110:	00c00044 	movi	r3,1
    a114:	10fdca1e 	bne	r2,r3,9840 <__alt_data_end+0xf8009840>
    a118:	e000021e 	bne	fp,zero,a124 <___svfprintf_internal_r+0xd4c>
    a11c:	00800244 	movi	r2,9
    a120:	14c01f2e 	bgeu	r2,r19,a1a0 <___svfprintf_internal_r+0xdc8>
    a124:	dc002a15 	stw	r16,168(sp)
    a128:	dc402b15 	stw	r17,172(sp)
    a12c:	9821883a 	mov	r16,r19
    a130:	e023883a 	mov	r17,fp
    a134:	b025883a 	mov	r18,r22
    a138:	4027883a 	mov	r19,r8
    a13c:	4839883a 	mov	fp,r9
    a140:	8009883a 	mov	r4,r16
    a144:	880b883a 	mov	r5,r17
    a148:	01800284 	movi	r6,10
    a14c:	000f883a 	mov	r7,zero
    a150:	001051c0 	call	1051c <__umoddi3>
    a154:	10800c04 	addi	r2,r2,48
    a158:	94bfffc4 	addi	r18,r18,-1
    a15c:	8009883a 	mov	r4,r16
    a160:	880b883a 	mov	r5,r17
    a164:	01800284 	movi	r6,10
    a168:	000f883a 	mov	r7,zero
    a16c:	90800005 	stb	r2,0(r18)
    a170:	000ff5c0 	call	ff5c <__udivdi3>
    a174:	1021883a 	mov	r16,r2
    a178:	10c4b03a 	or	r2,r2,r3
    a17c:	1823883a 	mov	r17,r3
    a180:	103fef1e 	bne	r2,zero,a140 <__alt_data_end+0xf800a140>
    a184:	dc803115 	stw	r18,196(sp)
    a188:	dc002a17 	ldw	r16,168(sp)
    a18c:	9811883a 	mov	r8,r19
    a190:	dc402b17 	ldw	r17,172(sp)
    a194:	e013883a 	mov	r9,fp
    a198:	b4a5c83a 	sub	r18,r22,r18
    a19c:	003dc206 	br	98a8 <__alt_data_end+0xf80098a8>
    a1a0:	9cc00c04 	addi	r19,r19,48
    a1a4:	db001dc4 	addi	r12,sp,119
    a1a8:	dcc01dc5 	stb	r19,119(sp)
    a1ac:	dc803d17 	ldw	r18,244(sp)
    a1b0:	db003115 	stw	r12,196(sp)
    a1b4:	003dbc06 	br	98a8 <__alt_data_end+0xf80098a8>
    a1b8:	00801944 	movi	r2,101
    a1bc:	14008d0e 	bge	r2,r16,a3f4 <___svfprintf_internal_r+0x101c>
    a1c0:	d9003717 	ldw	r4,220(sp)
    a1c4:	d9403817 	ldw	r5,224(sp)
    a1c8:	000d883a 	mov	r6,zero
    a1cc:	000f883a 	mov	r7,zero
    a1d0:	d8c03e15 	stw	r3,248(sp)
    a1d4:	da004015 	stw	r8,256(sp)
    a1d8:	0011c140 	call	11c14 <__eqdf2>
    a1dc:	d8c03e17 	ldw	r3,248(sp)
    a1e0:	da004017 	ldw	r8,256(sp)
    a1e4:	1000fd1e 	bne	r2,zero,a5dc <___svfprintf_internal_r+0x1204>
    a1e8:	d8801f17 	ldw	r2,124(sp)
    a1ec:	01000374 	movhi	r4,13
    a1f0:	2102fa04 	addi	r4,r4,3048
    a1f4:	18c00044 	addi	r3,r3,1
    a1f8:	10800044 	addi	r2,r2,1
    a1fc:	41000015 	stw	r4,0(r8)
    a200:	01000044 	movi	r4,1
    a204:	41000115 	stw	r4,4(r8)
    a208:	d8c02015 	stw	r3,128(sp)
    a20c:	d8801f15 	stw	r2,124(sp)
    a210:	010001c4 	movi	r4,7
    a214:	20823316 	blt	r4,r2,aae4 <___svfprintf_internal_r+0x170c>
    a218:	42000204 	addi	r8,r8,8
    a21c:	d8802617 	ldw	r2,152(sp)
    a220:	dac03317 	ldw	r11,204(sp)
    a224:	12c00216 	blt	r2,r11,a230 <___svfprintf_internal_r+0xe58>
    a228:	8880004c 	andi	r2,r17,1
    a22c:	103e4c26 	beq	r2,zero,9b60 <__alt_data_end+0xf8009b60>
    a230:	db003917 	ldw	r12,228(sp)
    a234:	d8801f17 	ldw	r2,124(sp)
    a238:	dac03517 	ldw	r11,212(sp)
    a23c:	1b07883a 	add	r3,r3,r12
    a240:	10800044 	addi	r2,r2,1
    a244:	42c00015 	stw	r11,0(r8)
    a248:	43000115 	stw	r12,4(r8)
    a24c:	d8c02015 	stw	r3,128(sp)
    a250:	d8801f15 	stw	r2,124(sp)
    a254:	010001c4 	movi	r4,7
    a258:	20826f16 	blt	r4,r2,ac18 <___svfprintf_internal_r+0x1840>
    a25c:	42000204 	addi	r8,r8,8
    a260:	db003317 	ldw	r12,204(sp)
    a264:	643fffc4 	addi	r16,r12,-1
    a268:	043e3d0e 	bge	zero,r16,9b60 <__alt_data_end+0xf8009b60>
    a26c:	04800404 	movi	r18,16
    a270:	d8801f17 	ldw	r2,124(sp)
    a274:	94009a0e 	bge	r18,r16,a4e0 <___svfprintf_internal_r+0x1108>
    a278:	01400374 	movhi	r5,13
    a27c:	2942fa84 	addi	r5,r5,3050
    a280:	d9402b15 	stw	r5,172(sp)
    a284:	054001c4 	movi	r21,7
    a288:	dcc02f17 	ldw	r19,188(sp)
    a28c:	00000306 	br	a29c <___svfprintf_internal_r+0xec4>
    a290:	42000204 	addi	r8,r8,8
    a294:	843ffc04 	addi	r16,r16,-16
    a298:	9400940e 	bge	r18,r16,a4ec <___svfprintf_internal_r+0x1114>
    a29c:	18c00404 	addi	r3,r3,16
    a2a0:	10800044 	addi	r2,r2,1
    a2a4:	45000015 	stw	r20,0(r8)
    a2a8:	44800115 	stw	r18,4(r8)
    a2ac:	d8c02015 	stw	r3,128(sp)
    a2b0:	d8801f15 	stw	r2,124(sp)
    a2b4:	a8bff60e 	bge	r21,r2,a290 <__alt_data_end+0xf800a290>
    a2b8:	9809883a 	mov	r4,r19
    a2bc:	b80b883a 	mov	r5,r23
    a2c0:	b00d883a 	mov	r6,r22
    a2c4:	000e4480 	call	e448 <__ssprint_r>
    a2c8:	103d0b1e 	bne	r2,zero,96f8 <__alt_data_end+0xf80096f8>
    a2cc:	d8c02017 	ldw	r3,128(sp)
    a2d0:	d8801f17 	ldw	r2,124(sp)
    a2d4:	da000404 	addi	r8,sp,16
    a2d8:	003fee06 	br	a294 <__alt_data_end+0xf800a294>
    a2dc:	dac02e17 	ldw	r11,184(sp)
    a2e0:	db002a17 	ldw	r12,168(sp)
    a2e4:	5b2bc83a 	sub	r21,r11,r12
    a2e8:	057ddc0e 	bge	zero,r21,9a5c <__alt_data_end+0xf8009a5c>
    a2ec:	07000404 	movi	fp,16
    a2f0:	d8801f17 	ldw	r2,124(sp)
    a2f4:	e5435d0e 	bge	fp,r21,b06c <___svfprintf_internal_r+0x1c94>
    a2f8:	01400374 	movhi	r5,13
    a2fc:	a809883a 	mov	r4,r21
    a300:	2942fa84 	addi	r5,r5,3050
    a304:	dc002c15 	stw	r16,176(sp)
    a308:	902b883a 	mov	r21,r18
    a30c:	d9402b15 	stw	r5,172(sp)
    a310:	8825883a 	mov	r18,r17
    a314:	04c001c4 	movi	r19,7
    a318:	dc002f17 	ldw	r16,188(sp)
    a31c:	2023883a 	mov	r17,r4
    a320:	00000306 	br	a330 <___svfprintf_internal_r+0xf58>
    a324:	8c7ffc04 	addi	r17,r17,-16
    a328:	42000204 	addi	r8,r8,8
    a32c:	e440110e 	bge	fp,r17,a374 <___svfprintf_internal_r+0xf9c>
    a330:	18c00404 	addi	r3,r3,16
    a334:	10800044 	addi	r2,r2,1
    a338:	45000015 	stw	r20,0(r8)
    a33c:	47000115 	stw	fp,4(r8)
    a340:	d8c02015 	stw	r3,128(sp)
    a344:	d8801f15 	stw	r2,124(sp)
    a348:	98bff60e 	bge	r19,r2,a324 <__alt_data_end+0xf800a324>
    a34c:	8009883a 	mov	r4,r16
    a350:	b80b883a 	mov	r5,r23
    a354:	b00d883a 	mov	r6,r22
    a358:	000e4480 	call	e448 <__ssprint_r>
    a35c:	103ce61e 	bne	r2,zero,96f8 <__alt_data_end+0xf80096f8>
    a360:	8c7ffc04 	addi	r17,r17,-16
    a364:	d8c02017 	ldw	r3,128(sp)
    a368:	d8801f17 	ldw	r2,124(sp)
    a36c:	da000404 	addi	r8,sp,16
    a370:	e47fef16 	blt	fp,r17,a330 <__alt_data_end+0xf800a330>
    a374:	dc002c17 	ldw	r16,176(sp)
    a378:	8809883a 	mov	r4,r17
    a37c:	9023883a 	mov	r17,r18
    a380:	a825883a 	mov	r18,r21
    a384:	202b883a 	mov	r21,r4
    a388:	dac02b17 	ldw	r11,172(sp)
    a38c:	1d47883a 	add	r3,r3,r21
    a390:	10800044 	addi	r2,r2,1
    a394:	42c00015 	stw	r11,0(r8)
    a398:	45400115 	stw	r21,4(r8)
    a39c:	d8c02015 	stw	r3,128(sp)
    a3a0:	d8801f15 	stw	r2,124(sp)
    a3a4:	010001c4 	movi	r4,7
    a3a8:	20818016 	blt	r4,r2,a9ac <___svfprintf_internal_r+0x15d4>
    a3ac:	42000204 	addi	r8,r8,8
    a3b0:	003daa06 	br	9a5c <__alt_data_end+0xf8009a5c>
    a3b4:	d9403b17 	ldw	r5,236(sp)
    a3b8:	b007883a 	mov	r3,r22
    a3bc:	988003cc 	andi	r2,r19,15
    a3c0:	e008973a 	slli	r4,fp,28
    a3c4:	2885883a 	add	r2,r5,r2
    a3c8:	9826d13a 	srli	r19,r19,4
    a3cc:	10800003 	ldbu	r2,0(r2)
    a3d0:	e038d13a 	srli	fp,fp,4
    a3d4:	18ffffc4 	addi	r3,r3,-1
    a3d8:	24e6b03a 	or	r19,r4,r19
    a3dc:	18800005 	stb	r2,0(r3)
    a3e0:	9f04b03a 	or	r2,r19,fp
    a3e4:	103ff51e 	bne	r2,zero,a3bc <__alt_data_end+0xf800a3bc>
    a3e8:	d8c03115 	stw	r3,196(sp)
    a3ec:	b0e5c83a 	sub	r18,r22,r3
    a3f0:	003d2d06 	br	98a8 <__alt_data_end+0xf80098a8>
    a3f4:	db003317 	ldw	r12,204(sp)
    a3f8:	00800044 	movi	r2,1
    a3fc:	18c00044 	addi	r3,r3,1
    a400:	13014b0e 	bge	r2,r12,a930 <___svfprintf_internal_r+0x1558>
    a404:	dc001f17 	ldw	r16,124(sp)
    a408:	dac03117 	ldw	r11,196(sp)
    a40c:	00800044 	movi	r2,1
    a410:	84000044 	addi	r16,r16,1
    a414:	40800115 	stw	r2,4(r8)
    a418:	42c00015 	stw	r11,0(r8)
    a41c:	d8c02015 	stw	r3,128(sp)
    a420:	dc001f15 	stw	r16,124(sp)
    a424:	008001c4 	movi	r2,7
    a428:	14014e16 	blt	r2,r16,a964 <___svfprintf_internal_r+0x158c>
    a42c:	42000204 	addi	r8,r8,8
    a430:	db003917 	ldw	r12,228(sp)
    a434:	dac03517 	ldw	r11,212(sp)
    a438:	84000044 	addi	r16,r16,1
    a43c:	1b07883a 	add	r3,r3,r12
    a440:	42c00015 	stw	r11,0(r8)
    a444:	43000115 	stw	r12,4(r8)
    a448:	d8c02015 	stw	r3,128(sp)
    a44c:	dc001f15 	stw	r16,124(sp)
    a450:	008001c4 	movi	r2,7
    a454:	14014c16 	blt	r2,r16,a988 <___svfprintf_internal_r+0x15b0>
    a458:	44800204 	addi	r18,r8,8
    a45c:	d9003717 	ldw	r4,220(sp)
    a460:	d9403817 	ldw	r5,224(sp)
    a464:	000d883a 	mov	r6,zero
    a468:	000f883a 	mov	r7,zero
    a46c:	d8c03e15 	stw	r3,248(sp)
    a470:	0011c140 	call	11c14 <__eqdf2>
    a474:	d8c03e17 	ldw	r3,248(sp)
    a478:	db003317 	ldw	r12,204(sp)
    a47c:	10009526 	beq	r2,zero,a6d4 <___svfprintf_internal_r+0x12fc>
    a480:	dac03117 	ldw	r11,196(sp)
    a484:	60bfffc4 	addi	r2,r12,-1
    a488:	1887883a 	add	r3,r3,r2
    a48c:	59000044 	addi	r4,r11,1
    a490:	84000044 	addi	r16,r16,1
    a494:	90800115 	stw	r2,4(r18)
    a498:	91000015 	stw	r4,0(r18)
    a49c:	d8c02015 	stw	r3,128(sp)
    a4a0:	dc001f15 	stw	r16,124(sp)
    a4a4:	008001c4 	movi	r2,7
    a4a8:	1400b316 	blt	r2,r16,a778 <___svfprintf_internal_r+0x13a0>
    a4ac:	94800204 	addi	r18,r18,8
    a4b0:	dac03a17 	ldw	r11,232(sp)
    a4b4:	dd4022c4 	addi	r21,sp,139
    a4b8:	84000044 	addi	r16,r16,1
    a4bc:	58c7883a 	add	r3,r11,r3
    a4c0:	95400015 	stw	r21,0(r18)
    a4c4:	92c00115 	stw	r11,4(r18)
    a4c8:	d8c02015 	stw	r3,128(sp)
    a4cc:	dc001f15 	stw	r16,124(sp)
    a4d0:	008001c4 	movi	r2,7
    a4d4:	14000e16 	blt	r2,r16,a510 <___svfprintf_internal_r+0x1138>
    a4d8:	92000204 	addi	r8,r18,8
    a4dc:	003da006 	br	9b60 <__alt_data_end+0xf8009b60>
    a4e0:	01000374 	movhi	r4,13
    a4e4:	2102fa84 	addi	r4,r4,3050
    a4e8:	d9002b15 	stw	r4,172(sp)
    a4ec:	dac02b17 	ldw	r11,172(sp)
    a4f0:	1c07883a 	add	r3,r3,r16
    a4f4:	44000115 	stw	r16,4(r8)
    a4f8:	42c00015 	stw	r11,0(r8)
    a4fc:	10800044 	addi	r2,r2,1
    a500:	d8c02015 	stw	r3,128(sp)
    a504:	d8801f15 	stw	r2,124(sp)
    a508:	010001c4 	movi	r4,7
    a50c:	20bd930e 	bge	r4,r2,9b5c <__alt_data_end+0xf8009b5c>
    a510:	d9002f17 	ldw	r4,188(sp)
    a514:	b80b883a 	mov	r5,r23
    a518:	b00d883a 	mov	r6,r22
    a51c:	000e4480 	call	e448 <__ssprint_r>
    a520:	103c751e 	bne	r2,zero,96f8 <__alt_data_end+0xf80096f8>
    a524:	d8c02017 	ldw	r3,128(sp)
    a528:	da000404 	addi	r8,sp,16
    a52c:	003d8c06 	br	9b60 <__alt_data_end+0xf8009b60>
    a530:	d9002f17 	ldw	r4,188(sp)
    a534:	b80b883a 	mov	r5,r23
    a538:	b00d883a 	mov	r6,r22
    a53c:	000e4480 	call	e448 <__ssprint_r>
    a540:	103dc326 	beq	r2,zero,9c50 <__alt_data_end+0xf8009c50>
    a544:	003c6c06 	br	96f8 <__alt_data_end+0xf80096f8>
    a548:	10803fcc 	andi	r2,r2,255
    a54c:	1000201e 	bne	r2,zero,a5d0 <___svfprintf_internal_r+0x11f8>
    a550:	8880004c 	andi	r2,r17,1
    a554:	10001e26 	beq	r2,zero,a5d0 <___svfprintf_internal_r+0x11f8>
    a558:	00800c04 	movi	r2,48
    a55c:	d8c01dc4 	addi	r3,sp,119
    a560:	d8801dc5 	stb	r2,119(sp)
    a564:	dc803d17 	ldw	r18,244(sp)
    a568:	d8c03115 	stw	r3,196(sp)
    a56c:	003cce06 	br	98a8 <__alt_data_end+0xf80098a8>
    a570:	d9002f17 	ldw	r4,188(sp)
    a574:	b80b883a 	mov	r5,r23
    a578:	b00d883a 	mov	r6,r22
    a57c:	000e4480 	call	e448 <__ssprint_r>
    a580:	103c5d1e 	bne	r2,zero,96f8 <__alt_data_end+0xf80096f8>
    a584:	d8c02017 	ldw	r3,128(sp)
    a588:	da000404 	addi	r8,sp,16
    a58c:	003d6706 	br	9b2c <__alt_data_end+0xf8009b2c>
    a590:	d9002f17 	ldw	r4,188(sp)
    a594:	b80b883a 	mov	r5,r23
    a598:	b00d883a 	mov	r6,r22
    a59c:	000e4480 	call	e448 <__ssprint_r>
    a5a0:	103c551e 	bne	r2,zero,96f8 <__alt_data_end+0xf80096f8>
    a5a4:	d8c02017 	ldw	r3,128(sp)
    a5a8:	da000404 	addi	r8,sp,16
    a5ac:	003d1a06 	br	9a18 <__alt_data_end+0xf8009a18>
    a5b0:	d9002f17 	ldw	r4,188(sp)
    a5b4:	b80b883a 	mov	r5,r23
    a5b8:	b00d883a 	mov	r6,r22
    a5bc:	000e4480 	call	e448 <__ssprint_r>
    a5c0:	103c4d1e 	bne	r2,zero,96f8 <__alt_data_end+0xf80096f8>
    a5c4:	d8c02017 	ldw	r3,128(sp)
    a5c8:	da000404 	addi	r8,sp,16
    a5cc:	003d2006 	br	9a50 <__alt_data_end+0xf8009a50>
    a5d0:	0025883a 	mov	r18,zero
    a5d4:	dd803115 	stw	r22,196(sp)
    a5d8:	003cb306 	br	98a8 <__alt_data_end+0xf80098a8>
    a5dc:	dc002617 	ldw	r16,152(sp)
    a5e0:	0401480e 	bge	zero,r16,ab04 <___svfprintf_internal_r+0x172c>
    a5e4:	db003117 	ldw	r12,196(sp)
    a5e8:	dac03317 	ldw	r11,204(sp)
    a5ec:	62e1883a 	add	r16,r12,r11
    a5f0:	db003417 	ldw	r12,208(sp)
    a5f4:	5825883a 	mov	r18,r11
    a5f8:	62c0010e 	bge	r12,r11,a600 <___svfprintf_internal_r+0x1228>
    a5fc:	6025883a 	mov	r18,r12
    a600:	04800b0e 	bge	zero,r18,a630 <___svfprintf_internal_r+0x1258>
    a604:	d8801f17 	ldw	r2,124(sp)
    a608:	dac03117 	ldw	r11,196(sp)
    a60c:	1c87883a 	add	r3,r3,r18
    a610:	10800044 	addi	r2,r2,1
    a614:	42c00015 	stw	r11,0(r8)
    a618:	44800115 	stw	r18,4(r8)
    a61c:	d8c02015 	stw	r3,128(sp)
    a620:	d8801f15 	stw	r2,124(sp)
    a624:	010001c4 	movi	r4,7
    a628:	20823f16 	blt	r4,r2,af28 <___svfprintf_internal_r+0x1b50>
    a62c:	42000204 	addi	r8,r8,8
    a630:	90023b16 	blt	r18,zero,af20 <___svfprintf_internal_r+0x1b48>
    a634:	db003417 	ldw	r12,208(sp)
    a638:	64a5c83a 	sub	r18,r12,r18
    a63c:	0480780e 	bge	zero,r18,a820 <___svfprintf_internal_r+0x1448>
    a640:	05400404 	movi	r21,16
    a644:	d8801f17 	ldw	r2,124(sp)
    a648:	ac81140e 	bge	r21,r18,aa9c <___svfprintf_internal_r+0x16c4>
    a64c:	01400374 	movhi	r5,13
    a650:	2942fa84 	addi	r5,r5,3050
    a654:	d9402b15 	stw	r5,172(sp)
    a658:	070001c4 	movi	fp,7
    a65c:	dcc02f17 	ldw	r19,188(sp)
    a660:	00000306 	br	a670 <___svfprintf_internal_r+0x1298>
    a664:	42000204 	addi	r8,r8,8
    a668:	94bffc04 	addi	r18,r18,-16
    a66c:	ac810e0e 	bge	r21,r18,aaa8 <___svfprintf_internal_r+0x16d0>
    a670:	18c00404 	addi	r3,r3,16
    a674:	10800044 	addi	r2,r2,1
    a678:	45000015 	stw	r20,0(r8)
    a67c:	45400115 	stw	r21,4(r8)
    a680:	d8c02015 	stw	r3,128(sp)
    a684:	d8801f15 	stw	r2,124(sp)
    a688:	e0bff60e 	bge	fp,r2,a664 <__alt_data_end+0xf800a664>
    a68c:	9809883a 	mov	r4,r19
    a690:	b80b883a 	mov	r5,r23
    a694:	b00d883a 	mov	r6,r22
    a698:	000e4480 	call	e448 <__ssprint_r>
    a69c:	103c161e 	bne	r2,zero,96f8 <__alt_data_end+0xf80096f8>
    a6a0:	d8c02017 	ldw	r3,128(sp)
    a6a4:	d8801f17 	ldw	r2,124(sp)
    a6a8:	da000404 	addi	r8,sp,16
    a6ac:	003fee06 	br	a668 <__alt_data_end+0xf800a668>
    a6b0:	d9002f17 	ldw	r4,188(sp)
    a6b4:	b80b883a 	mov	r5,r23
    a6b8:	b00d883a 	mov	r6,r22
    a6bc:	000e4480 	call	e448 <__ssprint_r>
    a6c0:	103c0d1e 	bne	r2,zero,96f8 <__alt_data_end+0xf80096f8>
    a6c4:	d8c02017 	ldw	r3,128(sp)
    a6c8:	d8802787 	ldb	r2,158(sp)
    a6cc:	da000404 	addi	r8,sp,16
    a6d0:	003cc406 	br	99e4 <__alt_data_end+0xf80099e4>
    a6d4:	657fffc4 	addi	r21,r12,-1
    a6d8:	057f750e 	bge	zero,r21,a4b0 <__alt_data_end+0xf800a4b0>
    a6dc:	07000404 	movi	fp,16
    a6e0:	e542ef0e 	bge	fp,r21,b2a0 <___svfprintf_internal_r+0x1ec8>
    a6e4:	01000374 	movhi	r4,13
    a6e8:	2102fa84 	addi	r4,r4,3050
    a6ec:	d9002b15 	stw	r4,172(sp)
    a6f0:	01c001c4 	movi	r7,7
    a6f4:	dcc02f17 	ldw	r19,188(sp)
    a6f8:	00000306 	br	a708 <___svfprintf_internal_r+0x1330>
    a6fc:	ad7ffc04 	addi	r21,r21,-16
    a700:	94800204 	addi	r18,r18,8
    a704:	e540130e 	bge	fp,r21,a754 <___svfprintf_internal_r+0x137c>
    a708:	18c00404 	addi	r3,r3,16
    a70c:	84000044 	addi	r16,r16,1
    a710:	95000015 	stw	r20,0(r18)
    a714:	97000115 	stw	fp,4(r18)
    a718:	d8c02015 	stw	r3,128(sp)
    a71c:	dc001f15 	stw	r16,124(sp)
    a720:	3c3ff60e 	bge	r7,r16,a6fc <__alt_data_end+0xf800a6fc>
    a724:	9809883a 	mov	r4,r19
    a728:	b80b883a 	mov	r5,r23
    a72c:	b00d883a 	mov	r6,r22
    a730:	d9c03e15 	stw	r7,248(sp)
    a734:	000e4480 	call	e448 <__ssprint_r>
    a738:	d9c03e17 	ldw	r7,248(sp)
    a73c:	103bee1e 	bne	r2,zero,96f8 <__alt_data_end+0xf80096f8>
    a740:	ad7ffc04 	addi	r21,r21,-16
    a744:	d8c02017 	ldw	r3,128(sp)
    a748:	dc001f17 	ldw	r16,124(sp)
    a74c:	dc800404 	addi	r18,sp,16
    a750:	e57fed16 	blt	fp,r21,a708 <__alt_data_end+0xf800a708>
    a754:	dac02b17 	ldw	r11,172(sp)
    a758:	1d47883a 	add	r3,r3,r21
    a75c:	84000044 	addi	r16,r16,1
    a760:	92c00015 	stw	r11,0(r18)
    a764:	95400115 	stw	r21,4(r18)
    a768:	d8c02015 	stw	r3,128(sp)
    a76c:	dc001f15 	stw	r16,124(sp)
    a770:	008001c4 	movi	r2,7
    a774:	143f4d0e 	bge	r2,r16,a4ac <__alt_data_end+0xf800a4ac>
    a778:	d9002f17 	ldw	r4,188(sp)
    a77c:	b80b883a 	mov	r5,r23
    a780:	b00d883a 	mov	r6,r22
    a784:	000e4480 	call	e448 <__ssprint_r>
    a788:	103bdb1e 	bne	r2,zero,96f8 <__alt_data_end+0xf80096f8>
    a78c:	d8c02017 	ldw	r3,128(sp)
    a790:	dc001f17 	ldw	r16,124(sp)
    a794:	dc800404 	addi	r18,sp,16
    a798:	003f4506 	br	a4b0 <__alt_data_end+0xf800a4b0>
    a79c:	00800084 	movi	r2,2
    a7a0:	9f06b03a 	or	r3,r19,fp
    a7a4:	003d3806 	br	9c88 <__alt_data_end+0xf8009c88>
    a7a8:	dac02d17 	ldw	r11,180(sp)
    a7ac:	0039883a 	mov	fp,zero
    a7b0:	0005883a 	mov	r2,zero
    a7b4:	5cc00017 	ldw	r19,0(r11)
    a7b8:	5ac00104 	addi	r11,r11,4
    a7bc:	dac02d15 	stw	r11,180(sp)
    a7c0:	9807883a 	mov	r3,r19
    a7c4:	003d3006 	br	9c88 <__alt_data_end+0xf8009c88>
    a7c8:	1cc00017 	ldw	r19,0(r3)
    a7cc:	dac02d17 	ldw	r11,180(sp)
    a7d0:	9839d7fa 	srai	fp,r19,31
    a7d4:	5ac00104 	addi	r11,r11,4
    a7d8:	dac02d15 	stw	r11,180(sp)
    a7dc:	e005883a 	mov	r2,fp
    a7e0:	003c0a06 	br	980c <__alt_data_end+0xf800980c>
    a7e4:	db002d17 	ldw	r12,180(sp)
    a7e8:	0039883a 	mov	fp,zero
    a7ec:	00800044 	movi	r2,1
    a7f0:	64c00017 	ldw	r19,0(r12)
    a7f4:	63000104 	addi	r12,r12,4
    a7f8:	db002d15 	stw	r12,180(sp)
    a7fc:	9807883a 	mov	r3,r19
    a800:	003d2106 	br	9c88 <__alt_data_end+0xf8009c88>
    a804:	d9002f17 	ldw	r4,188(sp)
    a808:	b80b883a 	mov	r5,r23
    a80c:	b00d883a 	mov	r6,r22
    a810:	000e4480 	call	e448 <__ssprint_r>
    a814:	103bb81e 	bne	r2,zero,96f8 <__alt_data_end+0xf80096f8>
    a818:	d8c02017 	ldw	r3,128(sp)
    a81c:	da000404 	addi	r8,sp,16
    a820:	db003117 	ldw	r12,196(sp)
    a824:	dac03417 	ldw	r11,208(sp)
    a828:	d8802617 	ldw	r2,152(sp)
    a82c:	62e5883a 	add	r18,r12,r11
    a830:	db003317 	ldw	r12,204(sp)
    a834:	13000216 	blt	r2,r12,a840 <___svfprintf_internal_r+0x1468>
    a838:	8900004c 	andi	r4,r17,1
    a83c:	20000c26 	beq	r4,zero,a870 <___svfprintf_internal_r+0x1498>
    a840:	dac03917 	ldw	r11,228(sp)
    a844:	d9001f17 	ldw	r4,124(sp)
    a848:	db003517 	ldw	r12,212(sp)
    a84c:	1ac7883a 	add	r3,r3,r11
    a850:	21000044 	addi	r4,r4,1
    a854:	43000015 	stw	r12,0(r8)
    a858:	42c00115 	stw	r11,4(r8)
    a85c:	d8c02015 	stw	r3,128(sp)
    a860:	d9001f15 	stw	r4,124(sp)
    a864:	014001c4 	movi	r5,7
    a868:	2901b716 	blt	r5,r4,af48 <___svfprintf_internal_r+0x1b70>
    a86c:	42000204 	addi	r8,r8,8
    a870:	dac03317 	ldw	r11,204(sp)
    a874:	8489c83a 	sub	r4,r16,r18
    a878:	5885c83a 	sub	r2,r11,r2
    a87c:	1021883a 	mov	r16,r2
    a880:	2080010e 	bge	r4,r2,a888 <___svfprintf_internal_r+0x14b0>
    a884:	2021883a 	mov	r16,r4
    a888:	04000a0e 	bge	zero,r16,a8b4 <___svfprintf_internal_r+0x14dc>
    a88c:	d9001f17 	ldw	r4,124(sp)
    a890:	1c07883a 	add	r3,r3,r16
    a894:	44800015 	stw	r18,0(r8)
    a898:	21000044 	addi	r4,r4,1
    a89c:	44000115 	stw	r16,4(r8)
    a8a0:	d8c02015 	stw	r3,128(sp)
    a8a4:	d9001f15 	stw	r4,124(sp)
    a8a8:	014001c4 	movi	r5,7
    a8ac:	2901bf16 	blt	r5,r4,afac <___svfprintf_internal_r+0x1bd4>
    a8b0:	42000204 	addi	r8,r8,8
    a8b4:	8001bb16 	blt	r16,zero,afa4 <___svfprintf_internal_r+0x1bcc>
    a8b8:	1421c83a 	sub	r16,r2,r16
    a8bc:	043ca80e 	bge	zero,r16,9b60 <__alt_data_end+0xf8009b60>
    a8c0:	04800404 	movi	r18,16
    a8c4:	d8801f17 	ldw	r2,124(sp)
    a8c8:	943f050e 	bge	r18,r16,a4e0 <__alt_data_end+0xf800a4e0>
    a8cc:	01400374 	movhi	r5,13
    a8d0:	2942fa84 	addi	r5,r5,3050
    a8d4:	d9402b15 	stw	r5,172(sp)
    a8d8:	054001c4 	movi	r21,7
    a8dc:	dcc02f17 	ldw	r19,188(sp)
    a8e0:	00000306 	br	a8f0 <___svfprintf_internal_r+0x1518>
    a8e4:	42000204 	addi	r8,r8,8
    a8e8:	843ffc04 	addi	r16,r16,-16
    a8ec:	943eff0e 	bge	r18,r16,a4ec <__alt_data_end+0xf800a4ec>
    a8f0:	18c00404 	addi	r3,r3,16
    a8f4:	10800044 	addi	r2,r2,1
    a8f8:	45000015 	stw	r20,0(r8)
    a8fc:	44800115 	stw	r18,4(r8)
    a900:	d8c02015 	stw	r3,128(sp)
    a904:	d8801f15 	stw	r2,124(sp)
    a908:	a8bff60e 	bge	r21,r2,a8e4 <__alt_data_end+0xf800a8e4>
    a90c:	9809883a 	mov	r4,r19
    a910:	b80b883a 	mov	r5,r23
    a914:	b00d883a 	mov	r6,r22
    a918:	000e4480 	call	e448 <__ssprint_r>
    a91c:	103b761e 	bne	r2,zero,96f8 <__alt_data_end+0xf80096f8>
    a920:	d8c02017 	ldw	r3,128(sp)
    a924:	d8801f17 	ldw	r2,124(sp)
    a928:	da000404 	addi	r8,sp,16
    a92c:	003fee06 	br	a8e8 <__alt_data_end+0xf800a8e8>
    a930:	8888703a 	and	r4,r17,r2
    a934:	203eb31e 	bne	r4,zero,a404 <__alt_data_end+0xf800a404>
    a938:	dc001f17 	ldw	r16,124(sp)
    a93c:	db003117 	ldw	r12,196(sp)
    a940:	40800115 	stw	r2,4(r8)
    a944:	84000044 	addi	r16,r16,1
    a948:	43000015 	stw	r12,0(r8)
    a94c:	d8c02015 	stw	r3,128(sp)
    a950:	dc001f15 	stw	r16,124(sp)
    a954:	008001c4 	movi	r2,7
    a958:	143f8716 	blt	r2,r16,a778 <__alt_data_end+0xf800a778>
    a95c:	44800204 	addi	r18,r8,8
    a960:	003ed306 	br	a4b0 <__alt_data_end+0xf800a4b0>
    a964:	d9002f17 	ldw	r4,188(sp)
    a968:	b80b883a 	mov	r5,r23
    a96c:	b00d883a 	mov	r6,r22
    a970:	000e4480 	call	e448 <__ssprint_r>
    a974:	103b601e 	bne	r2,zero,96f8 <__alt_data_end+0xf80096f8>
    a978:	d8c02017 	ldw	r3,128(sp)
    a97c:	dc001f17 	ldw	r16,124(sp)
    a980:	da000404 	addi	r8,sp,16
    a984:	003eaa06 	br	a430 <__alt_data_end+0xf800a430>
    a988:	d9002f17 	ldw	r4,188(sp)
    a98c:	b80b883a 	mov	r5,r23
    a990:	b00d883a 	mov	r6,r22
    a994:	000e4480 	call	e448 <__ssprint_r>
    a998:	103b571e 	bne	r2,zero,96f8 <__alt_data_end+0xf80096f8>
    a99c:	d8c02017 	ldw	r3,128(sp)
    a9a0:	dc001f17 	ldw	r16,124(sp)
    a9a4:	dc800404 	addi	r18,sp,16
    a9a8:	003eac06 	br	a45c <__alt_data_end+0xf800a45c>
    a9ac:	d9002f17 	ldw	r4,188(sp)
    a9b0:	b80b883a 	mov	r5,r23
    a9b4:	b00d883a 	mov	r6,r22
    a9b8:	000e4480 	call	e448 <__ssprint_r>
    a9bc:	103b4e1e 	bne	r2,zero,96f8 <__alt_data_end+0xf80096f8>
    a9c0:	d8c02017 	ldw	r3,128(sp)
    a9c4:	da000404 	addi	r8,sp,16
    a9c8:	003c2406 	br	9a5c <__alt_data_end+0xf8009a5c>
    a9cc:	da004015 	stw	r8,256(sp)
    a9d0:	da403f15 	stw	r9,252(sp)
    a9d4:	000e3300 	call	e330 <__fpclassifyd>
    a9d8:	da004017 	ldw	r8,256(sp)
    a9dc:	da403f17 	ldw	r9,252(sp)
    a9e0:	1000951e 	bne	r2,zero,ac38 <___svfprintf_internal_r+0x1860>
    a9e4:	008011c4 	movi	r2,71
    a9e8:	1400fb16 	blt	r2,r16,add8 <___svfprintf_internal_r+0x1a00>
    a9ec:	03000374 	movhi	r12,13
    a9f0:	6302ec04 	addi	r12,r12,2992
    a9f4:	db003115 	stw	r12,196(sp)
    a9f8:	00c000c4 	movi	r3,3
    a9fc:	00bfdfc4 	movi	r2,-129
    aa00:	d8c02a15 	stw	r3,168(sp)
    aa04:	88a2703a 	and	r17,r17,r2
    aa08:	dd402783 	ldbu	r21,158(sp)
    aa0c:	dcc02d15 	stw	r19,180(sp)
    aa10:	1825883a 	mov	r18,r3
    aa14:	d8003215 	stw	zero,200(sp)
    aa18:	d8003415 	stw	zero,208(sp)
    aa1c:	003ba706 	br	98bc <__alt_data_end+0xf80098bc>
    aa20:	8880040c 	andi	r2,r17,16
    aa24:	1000091e 	bne	r2,zero,aa4c <___svfprintf_internal_r+0x1674>
    aa28:	8c40100c 	andi	r17,r17,64
    aa2c:	88000726 	beq	r17,zero,aa4c <___svfprintf_internal_r+0x1674>
    aa30:	db002d17 	ldw	r12,180(sp)
    aa34:	dac03017 	ldw	r11,192(sp)
    aa38:	60800017 	ldw	r2,0(r12)
    aa3c:	63000104 	addi	r12,r12,4
    aa40:	db002d15 	stw	r12,180(sp)
    aa44:	12c0000d 	sth	r11,0(r2)
    aa48:	003a8f06 	br	9488 <__alt_data_end+0xf8009488>
    aa4c:	db002d17 	ldw	r12,180(sp)
    aa50:	dac03017 	ldw	r11,192(sp)
    aa54:	60800017 	ldw	r2,0(r12)
    aa58:	63000104 	addi	r12,r12,4
    aa5c:	db002d15 	stw	r12,180(sp)
    aa60:	12c00015 	stw	r11,0(r2)
    aa64:	003a8806 	br	9488 <__alt_data_end+0xf8009488>
    aa68:	88c0100c 	andi	r3,r17,64
    aa6c:	1800e926 	beq	r3,zero,ae14 <___svfprintf_internal_r+0x1a3c>
    aa70:	dac02d17 	ldw	r11,180(sp)
    aa74:	14c0000b 	ldhu	r19,0(r2)
    aa78:	0039883a 	mov	fp,zero
    aa7c:	5ac00104 	addi	r11,r11,4
    aa80:	dac02d15 	stw	r11,180(sp)
    aa84:	003d1406 	br	9ed8 <__alt_data_end+0xf8009ed8>
    aa88:	1c000007 	ldb	r16,0(r3)
    aa8c:	1805883a 	mov	r2,r3
    aa90:	003aa706 	br	9530 <__alt_data_end+0xf8009530>
    aa94:	00800084 	movi	r2,2
    aa98:	003c7b06 	br	9c88 <__alt_data_end+0xf8009c88>
    aa9c:	01000374 	movhi	r4,13
    aaa0:	2102fa84 	addi	r4,r4,3050
    aaa4:	d9002b15 	stw	r4,172(sp)
    aaa8:	dac02b17 	ldw	r11,172(sp)
    aaac:	1c87883a 	add	r3,r3,r18
    aab0:	10800044 	addi	r2,r2,1
    aab4:	42c00015 	stw	r11,0(r8)
    aab8:	44800115 	stw	r18,4(r8)
    aabc:	d8c02015 	stw	r3,128(sp)
    aac0:	d8801f15 	stw	r2,124(sp)
    aac4:	010001c4 	movi	r4,7
    aac8:	20bf4e16 	blt	r4,r2,a804 <__alt_data_end+0xf800a804>
    aacc:	42000204 	addi	r8,r8,8
    aad0:	003f5306 	br	a820 <__alt_data_end+0xf800a820>
    aad4:	01000374 	movhi	r4,13
    aad8:	2102fa84 	addi	r4,r4,3050
    aadc:	d9002b15 	stw	r4,172(sp)
    aae0:	003c0806 	br	9b04 <__alt_data_end+0xf8009b04>
    aae4:	d9002f17 	ldw	r4,188(sp)
    aae8:	b80b883a 	mov	r5,r23
    aaec:	b00d883a 	mov	r6,r22
    aaf0:	000e4480 	call	e448 <__ssprint_r>
    aaf4:	103b001e 	bne	r2,zero,96f8 <__alt_data_end+0xf80096f8>
    aaf8:	d8c02017 	ldw	r3,128(sp)
    aafc:	da000404 	addi	r8,sp,16
    ab00:	003dc606 	br	a21c <__alt_data_end+0xf800a21c>
    ab04:	d8801f17 	ldw	r2,124(sp)
    ab08:	03000374 	movhi	r12,13
    ab0c:	01000044 	movi	r4,1
    ab10:	18c00044 	addi	r3,r3,1
    ab14:	10800044 	addi	r2,r2,1
    ab18:	6302fa04 	addi	r12,r12,3048
    ab1c:	41000115 	stw	r4,4(r8)
    ab20:	43000015 	stw	r12,0(r8)
    ab24:	d8c02015 	stw	r3,128(sp)
    ab28:	d8801f15 	stw	r2,124(sp)
    ab2c:	010001c4 	movi	r4,7
    ab30:	2080ad16 	blt	r4,r2,ade8 <___svfprintf_internal_r+0x1a10>
    ab34:	42000204 	addi	r8,r8,8
    ab38:	8000041e 	bne	r16,zero,ab4c <___svfprintf_internal_r+0x1774>
    ab3c:	dac03317 	ldw	r11,204(sp)
    ab40:	5800021e 	bne	r11,zero,ab4c <___svfprintf_internal_r+0x1774>
    ab44:	8880004c 	andi	r2,r17,1
    ab48:	103c0526 	beq	r2,zero,9b60 <__alt_data_end+0xf8009b60>
    ab4c:	db003917 	ldw	r12,228(sp)
    ab50:	d8801f17 	ldw	r2,124(sp)
    ab54:	dac03517 	ldw	r11,212(sp)
    ab58:	1b07883a 	add	r3,r3,r12
    ab5c:	10800044 	addi	r2,r2,1
    ab60:	42c00015 	stw	r11,0(r8)
    ab64:	43000115 	stw	r12,4(r8)
    ab68:	d8c02015 	stw	r3,128(sp)
    ab6c:	d8801f15 	stw	r2,124(sp)
    ab70:	010001c4 	movi	r4,7
    ab74:	20818816 	blt	r4,r2,b198 <___svfprintf_internal_r+0x1dc0>
    ab78:	42000204 	addi	r8,r8,8
    ab7c:	0421c83a 	sub	r16,zero,r16
    ab80:	0400bc0e 	bge	zero,r16,ae74 <___svfprintf_internal_r+0x1a9c>
    ab84:	04800404 	movi	r18,16
    ab88:	9400f80e 	bge	r18,r16,af6c <___svfprintf_internal_r+0x1b94>
    ab8c:	01000374 	movhi	r4,13
    ab90:	2102fa84 	addi	r4,r4,3050
    ab94:	d9002b15 	stw	r4,172(sp)
    ab98:	054001c4 	movi	r21,7
    ab9c:	dcc02f17 	ldw	r19,188(sp)
    aba0:	00000306 	br	abb0 <___svfprintf_internal_r+0x17d8>
    aba4:	42000204 	addi	r8,r8,8
    aba8:	843ffc04 	addi	r16,r16,-16
    abac:	9400f20e 	bge	r18,r16,af78 <___svfprintf_internal_r+0x1ba0>
    abb0:	18c00404 	addi	r3,r3,16
    abb4:	10800044 	addi	r2,r2,1
    abb8:	45000015 	stw	r20,0(r8)
    abbc:	44800115 	stw	r18,4(r8)
    abc0:	d8c02015 	stw	r3,128(sp)
    abc4:	d8801f15 	stw	r2,124(sp)
    abc8:	a8bff60e 	bge	r21,r2,aba4 <__alt_data_end+0xf800aba4>
    abcc:	9809883a 	mov	r4,r19
    abd0:	b80b883a 	mov	r5,r23
    abd4:	b00d883a 	mov	r6,r22
    abd8:	000e4480 	call	e448 <__ssprint_r>
    abdc:	103ac61e 	bne	r2,zero,96f8 <__alt_data_end+0xf80096f8>
    abe0:	d8c02017 	ldw	r3,128(sp)
    abe4:	d8801f17 	ldw	r2,124(sp)
    abe8:	da000404 	addi	r8,sp,16
    abec:	003fee06 	br	aba8 <__alt_data_end+0xf800aba8>
    abf0:	db002e17 	ldw	r12,184(sp)
    abf4:	1805883a 	mov	r2,r3
    abf8:	dac02d15 	stw	r11,180(sp)
    abfc:	0319c83a 	sub	r12,zero,r12
    ac00:	db002e15 	stw	r12,184(sp)
    ac04:	003ad106 	br	974c <__alt_data_end+0xf800974c>
    ac08:	18800044 	addi	r2,r3,1
    ac0c:	8c400814 	ori	r17,r17,32
    ac10:	1c000047 	ldb	r16,1(r3)
    ac14:	003a4606 	br	9530 <__alt_data_end+0xf8009530>
    ac18:	d9002f17 	ldw	r4,188(sp)
    ac1c:	b80b883a 	mov	r5,r23
    ac20:	b00d883a 	mov	r6,r22
    ac24:	000e4480 	call	e448 <__ssprint_r>
    ac28:	103ab31e 	bne	r2,zero,96f8 <__alt_data_end+0xf80096f8>
    ac2c:	d8c02017 	ldw	r3,128(sp)
    ac30:	da000404 	addi	r8,sp,16
    ac34:	003d8a06 	br	a260 <__alt_data_end+0xf800a260>
    ac38:	057ff7c4 	movi	r21,-33
    ac3c:	00bfffc4 	movi	r2,-1
    ac40:	856a703a 	and	r21,r16,r21
    ac44:	48807126 	beq	r9,r2,ae0c <___svfprintf_internal_r+0x1a34>
    ac48:	008011c4 	movi	r2,71
    ac4c:	a8814f26 	beq	r21,r2,b18c <___svfprintf_internal_r+0x1db4>
    ac50:	db003817 	ldw	r12,224(sp)
    ac54:	8ac04014 	ori	r11,r17,256
    ac58:	dac02d15 	stw	r11,180(sp)
    ac5c:	60015816 	blt	r12,zero,b1c0 <___svfprintf_internal_r+0x1de8>
    ac60:	dc803817 	ldw	r18,224(sp)
    ac64:	d8002a05 	stb	zero,168(sp)
    ac68:	00801984 	movi	r2,102
    ac6c:	80808c26 	beq	r16,r2,aea0 <___svfprintf_internal_r+0x1ac8>
    ac70:	00801184 	movi	r2,70
    ac74:	80808a26 	beq	r16,r2,aea0 <___svfprintf_internal_r+0x1ac8>
    ac78:	00801144 	movi	r2,69
    ac7c:	a8815426 	beq	r21,r2,b1d0 <___svfprintf_internal_r+0x1df8>
    ac80:	4839883a 	mov	fp,r9
    ac84:	d8802604 	addi	r2,sp,152
    ac88:	d8800115 	stw	r2,4(sp)
    ac8c:	d9002f17 	ldw	r4,188(sp)
    ac90:	d8802504 	addi	r2,sp,148
    ac94:	d9403717 	ldw	r5,220(sp)
    ac98:	d8800215 	stw	r2,8(sp)
    ac9c:	d8802104 	addi	r2,sp,132
    aca0:	df000015 	stw	fp,0(sp)
    aca4:	d8800315 	stw	r2,12(sp)
    aca8:	900d883a 	mov	r6,r18
    acac:	01c00084 	movi	r7,2
    acb0:	da004015 	stw	r8,256(sp)
    acb4:	da403f15 	stw	r9,252(sp)
    acb8:	000b5680 	call	b568 <_dtoa_r>
    acbc:	d8803115 	stw	r2,196(sp)
    acc0:	008019c4 	movi	r2,103
    acc4:	da004017 	ldw	r8,256(sp)
    acc8:	da403f17 	ldw	r9,252(sp)
    accc:	80800226 	beq	r16,r2,acd8 <___svfprintf_internal_r+0x1900>
    acd0:	008011c4 	movi	r2,71
    acd4:	8080841e 	bne	r16,r2,aee8 <___svfprintf_internal_r+0x1b10>
    acd8:	8880004c 	andi	r2,r17,1
    acdc:	10015126 	beq	r2,zero,b224 <___svfprintf_internal_r+0x1e4c>
    ace0:	db003117 	ldw	r12,196(sp)
    ace4:	6715883a 	add	r10,r12,fp
    ace8:	d9003717 	ldw	r4,220(sp)
    acec:	900b883a 	mov	r5,r18
    acf0:	000d883a 	mov	r6,zero
    acf4:	000f883a 	mov	r7,zero
    acf8:	da004015 	stw	r8,256(sp)
    acfc:	da403f15 	stw	r9,252(sp)
    ad00:	da803e15 	stw	r10,248(sp)
    ad04:	0011c140 	call	11c14 <__eqdf2>
    ad08:	da004017 	ldw	r8,256(sp)
    ad0c:	da403f17 	ldw	r9,252(sp)
    ad10:	da803e17 	ldw	r10,248(sp)
    ad14:	1000d926 	beq	r2,zero,b07c <___svfprintf_internal_r+0x1ca4>
    ad18:	d8802117 	ldw	r2,132(sp)
    ad1c:	1280062e 	bgeu	r2,r10,ad38 <___svfprintf_internal_r+0x1960>
    ad20:	01000c04 	movi	r4,48
    ad24:	10c00044 	addi	r3,r2,1
    ad28:	d8c02115 	stw	r3,132(sp)
    ad2c:	11000005 	stb	r4,0(r2)
    ad30:	d8802117 	ldw	r2,132(sp)
    ad34:	12bffb36 	bltu	r2,r10,ad24 <__alt_data_end+0xf800ad24>
    ad38:	db003117 	ldw	r12,196(sp)
    ad3c:	1305c83a 	sub	r2,r2,r12
    ad40:	d8803315 	stw	r2,204(sp)
    ad44:	008011c4 	movi	r2,71
    ad48:	a880b626 	beq	r21,r2,b024 <___svfprintf_internal_r+0x1c4c>
    ad4c:	00801944 	movi	r2,101
    ad50:	14017e0e 	bge	r2,r16,b34c <___svfprintf_internal_r+0x1f74>
    ad54:	00801984 	movi	r2,102
    ad58:	80812826 	beq	r16,r2,b1fc <___svfprintf_internal_r+0x1e24>
    ad5c:	db002617 	ldw	r12,152(sp)
    ad60:	db003415 	stw	r12,208(sp)
    ad64:	db003417 	ldw	r12,208(sp)
    ad68:	dac03317 	ldw	r11,204(sp)
    ad6c:	62c11a16 	blt	r12,r11,b1d8 <___svfprintf_internal_r+0x1e00>
    ad70:	8c40004c 	andi	r17,r17,1
    ad74:	88013d1e 	bne	r17,zero,b26c <___svfprintf_internal_r+0x1e94>
    ad78:	6005883a 	mov	r2,r12
    ad7c:	60012716 	blt	r12,zero,b21c <___svfprintf_internal_r+0x1e44>
    ad80:	dc803417 	ldw	r18,208(sp)
    ad84:	df002a07 	ldb	fp,168(sp)
    ad88:	e000b01e 	bne	fp,zero,b04c <___svfprintf_internal_r+0x1c74>
    ad8c:	dc402d17 	ldw	r17,180(sp)
    ad90:	dd402783 	ldbu	r21,158(sp)
    ad94:	d8802a15 	stw	r2,168(sp)
    ad98:	dcc02d15 	stw	r19,180(sp)
    ad9c:	d8003215 	stw	zero,200(sp)
    ada0:	003ac606 	br	98bc <__alt_data_end+0xf80098bc>
    ada4:	00800374 	movhi	r2,13
    ada8:	1082ea04 	addi	r2,r2,2984
    adac:	d8803115 	stw	r2,196(sp)
    adb0:	003be506 	br	9d48 <__alt_data_end+0xf8009d48>
    adb4:	d9002f17 	ldw	r4,188(sp)
    adb8:	04001004 	movi	r16,64
    adbc:	800b883a 	mov	r5,r16
    adc0:	0008a800 	call	8a80 <_malloc_r>
    adc4:	b8800015 	stw	r2,0(r23)
    adc8:	b8800415 	stw	r2,16(r23)
    adcc:	10016126 	beq	r2,zero,b354 <___svfprintf_internal_r+0x1f7c>
    add0:	bc000515 	stw	r16,20(r23)
    add4:	00399a06 	br	9440 <__alt_data_end+0xf8009440>
    add8:	00800374 	movhi	r2,13
    addc:	1082ed04 	addi	r2,r2,2996
    ade0:	d8803115 	stw	r2,196(sp)
    ade4:	003f0406 	br	a9f8 <__alt_data_end+0xf800a9f8>
    ade8:	d9002f17 	ldw	r4,188(sp)
    adec:	b80b883a 	mov	r5,r23
    adf0:	b00d883a 	mov	r6,r22
    adf4:	000e4480 	call	e448 <__ssprint_r>
    adf8:	103a3f1e 	bne	r2,zero,96f8 <__alt_data_end+0xf80096f8>
    adfc:	dc002617 	ldw	r16,152(sp)
    ae00:	d8c02017 	ldw	r3,128(sp)
    ae04:	da000404 	addi	r8,sp,16
    ae08:	003f4b06 	br	ab38 <__alt_data_end+0xf800ab38>
    ae0c:	02400184 	movi	r9,6
    ae10:	003f8f06 	br	ac50 <__alt_data_end+0xf800ac50>
    ae14:	db002d17 	ldw	r12,180(sp)
    ae18:	14c00017 	ldw	r19,0(r2)
    ae1c:	0039883a 	mov	fp,zero
    ae20:	63000104 	addi	r12,r12,4
    ae24:	db002d15 	stw	r12,180(sp)
    ae28:	003c2b06 	br	9ed8 <__alt_data_end+0xf8009ed8>
    ae2c:	d8c03117 	ldw	r3,196(sp)
    ae30:	b0e5c83a 	sub	r18,r22,r3
    ae34:	003a9c06 	br	98a8 <__alt_data_end+0xf80098a8>
    ae38:	da004015 	stw	r8,256(sp)
    ae3c:	00093400 	call	9340 <strlen>
    ae40:	1025883a 	mov	r18,r2
    ae44:	da004017 	ldw	r8,256(sp)
    ae48:	903c450e 	bge	r18,zero,9f60 <__alt_data_end+0xf8009f60>
    ae4c:	0005883a 	mov	r2,zero
    ae50:	003c4306 	br	9f60 <__alt_data_end+0xf8009f60>
    ae54:	d9002f17 	ldw	r4,188(sp)
    ae58:	b80b883a 	mov	r5,r23
    ae5c:	b00d883a 	mov	r6,r22
    ae60:	000e4480 	call	e448 <__ssprint_r>
    ae64:	103a241e 	bne	r2,zero,96f8 <__alt_data_end+0xf80096f8>
    ae68:	d8c02017 	ldw	r3,128(sp)
    ae6c:	d8801f17 	ldw	r2,124(sp)
    ae70:	da000404 	addi	r8,sp,16
    ae74:	db003317 	ldw	r12,204(sp)
    ae78:	dac03117 	ldw	r11,196(sp)
    ae7c:	10800044 	addi	r2,r2,1
    ae80:	60c7883a 	add	r3,r12,r3
    ae84:	42c00015 	stw	r11,0(r8)
    ae88:	43000115 	stw	r12,4(r8)
    ae8c:	d8c02015 	stw	r3,128(sp)
    ae90:	d8801f15 	stw	r2,124(sp)
    ae94:	010001c4 	movi	r4,7
    ae98:	20bb300e 	bge	r4,r2,9b5c <__alt_data_end+0xf8009b5c>
    ae9c:	003d9c06 	br	a510 <__alt_data_end+0xf800a510>
    aea0:	d8802604 	addi	r2,sp,152
    aea4:	d8800115 	stw	r2,4(sp)
    aea8:	d9002f17 	ldw	r4,188(sp)
    aeac:	d8802504 	addi	r2,sp,148
    aeb0:	d9403717 	ldw	r5,220(sp)
    aeb4:	d8800215 	stw	r2,8(sp)
    aeb8:	d8802104 	addi	r2,sp,132
    aebc:	da400015 	stw	r9,0(sp)
    aec0:	d8800315 	stw	r2,12(sp)
    aec4:	900d883a 	mov	r6,r18
    aec8:	01c000c4 	movi	r7,3
    aecc:	da004015 	stw	r8,256(sp)
    aed0:	da403f15 	stw	r9,252(sp)
    aed4:	000b5680 	call	b568 <_dtoa_r>
    aed8:	da403f17 	ldw	r9,252(sp)
    aedc:	da004017 	ldw	r8,256(sp)
    aee0:	d8803115 	stw	r2,196(sp)
    aee4:	4839883a 	mov	fp,r9
    aee8:	dac03117 	ldw	r11,196(sp)
    aeec:	00801184 	movi	r2,70
    aef0:	5f15883a 	add	r10,r11,fp
    aef4:	a8bf7c1e 	bne	r21,r2,ace8 <__alt_data_end+0xf800ace8>
    aef8:	59000007 	ldb	r4,0(r11)
    aefc:	00800c04 	movi	r2,48
    af00:	2080ca26 	beq	r4,r2,b22c <___svfprintf_internal_r+0x1e54>
    af04:	d8c02617 	ldw	r3,152(sp)
    af08:	50d5883a 	add	r10,r10,r3
    af0c:	003f7606 	br	ace8 <__alt_data_end+0xf800ace8>
    af10:	01000374 	movhi	r4,13
    af14:	2102fe84 	addi	r4,r4,3066
    af18:	d9003615 	stw	r4,216(sp)
    af1c:	003aa606 	br	99b8 <__alt_data_end+0xf80099b8>
    af20:	0025883a 	mov	r18,zero
    af24:	003dc306 	br	a634 <__alt_data_end+0xf800a634>
    af28:	d9002f17 	ldw	r4,188(sp)
    af2c:	b80b883a 	mov	r5,r23
    af30:	b00d883a 	mov	r6,r22
    af34:	000e4480 	call	e448 <__ssprint_r>
    af38:	1039ef1e 	bne	r2,zero,96f8 <__alt_data_end+0xf80096f8>
    af3c:	d8c02017 	ldw	r3,128(sp)
    af40:	da000404 	addi	r8,sp,16
    af44:	003dba06 	br	a630 <__alt_data_end+0xf800a630>
    af48:	d9002f17 	ldw	r4,188(sp)
    af4c:	b80b883a 	mov	r5,r23
    af50:	b00d883a 	mov	r6,r22
    af54:	000e4480 	call	e448 <__ssprint_r>
    af58:	1039e71e 	bne	r2,zero,96f8 <__alt_data_end+0xf80096f8>
    af5c:	d8802617 	ldw	r2,152(sp)
    af60:	d8c02017 	ldw	r3,128(sp)
    af64:	da000404 	addi	r8,sp,16
    af68:	003e4106 	br	a870 <__alt_data_end+0xf800a870>
    af6c:	03000374 	movhi	r12,13
    af70:	6302fa84 	addi	r12,r12,3050
    af74:	db002b15 	stw	r12,172(sp)
    af78:	dac02b17 	ldw	r11,172(sp)
    af7c:	1c07883a 	add	r3,r3,r16
    af80:	10800044 	addi	r2,r2,1
    af84:	42c00015 	stw	r11,0(r8)
    af88:	44000115 	stw	r16,4(r8)
    af8c:	d8c02015 	stw	r3,128(sp)
    af90:	d8801f15 	stw	r2,124(sp)
    af94:	010001c4 	movi	r4,7
    af98:	20bfae16 	blt	r4,r2,ae54 <__alt_data_end+0xf800ae54>
    af9c:	42000204 	addi	r8,r8,8
    afa0:	003fb406 	br	ae74 <__alt_data_end+0xf800ae74>
    afa4:	0021883a 	mov	r16,zero
    afa8:	003e4306 	br	a8b8 <__alt_data_end+0xf800a8b8>
    afac:	d9002f17 	ldw	r4,188(sp)
    afb0:	b80b883a 	mov	r5,r23
    afb4:	b00d883a 	mov	r6,r22
    afb8:	000e4480 	call	e448 <__ssprint_r>
    afbc:	1039ce1e 	bne	r2,zero,96f8 <__alt_data_end+0xf80096f8>
    afc0:	d8802617 	ldw	r2,152(sp)
    afc4:	db003317 	ldw	r12,204(sp)
    afc8:	d8c02017 	ldw	r3,128(sp)
    afcc:	da000404 	addi	r8,sp,16
    afd0:	6085c83a 	sub	r2,r12,r2
    afd4:	003e3706 	br	a8b4 <__alt_data_end+0xf800a8b4>
    afd8:	00800184 	movi	r2,6
    afdc:	1240012e 	bgeu	r2,r9,afe4 <___svfprintf_internal_r+0x1c0c>
    afe0:	1013883a 	mov	r9,r2
    afe4:	4825883a 	mov	r18,r9
    afe8:	4805883a 	mov	r2,r9
    afec:	4800a416 	blt	r9,zero,b280 <___svfprintf_internal_r+0x1ea8>
    aff0:	d8802a15 	stw	r2,168(sp)
    aff4:	00800374 	movhi	r2,13
    aff8:	1082f804 	addi	r2,r2,3040
    affc:	d8803115 	stw	r2,196(sp)
    b000:	dcc02d15 	stw	r19,180(sp)
    b004:	d8003215 	stw	zero,200(sp)
    b008:	d8003415 	stw	zero,208(sp)
    b00c:	0005883a 	mov	r2,zero
    b010:	003a3106 	br	98d8 <__alt_data_end+0xf80098d8>
    b014:	03000374 	movhi	r12,13
    b018:	6302fe84 	addi	r12,r12,3066
    b01c:	db003615 	stw	r12,216(sp)
    b020:	003af406 	br	9bf4 <__alt_data_end+0xf8009bf4>
    b024:	d8c02617 	ldw	r3,152(sp)
    b028:	00bfff44 	movi	r2,-3
    b02c:	18801516 	blt	r3,r2,b084 <___svfprintf_internal_r+0x1cac>
    b030:	48c01416 	blt	r9,r3,b084 <___svfprintf_internal_r+0x1cac>
    b034:	d8c03415 	stw	r3,208(sp)
    b038:	040019c4 	movi	r16,103
    b03c:	003f4906 	br	ad64 <__alt_data_end+0xf800ad64>
    b040:	05400b44 	movi	r21,45
    b044:	dd402785 	stb	r21,158(sp)
    b048:	003b3a06 	br	9d34 <__alt_data_end+0xf8009d34>
    b04c:	00c00b44 	movi	r3,45
    b050:	d8802a15 	stw	r2,168(sp)
    b054:	dc402d17 	ldw	r17,180(sp)
    b058:	d8c02785 	stb	r3,158(sp)
    b05c:	dcc02d15 	stw	r19,180(sp)
    b060:	d8003215 	stw	zero,200(sp)
    b064:	00800b44 	movi	r2,45
    b068:	003a1806 	br	98cc <__alt_data_end+0xf80098cc>
    b06c:	01000374 	movhi	r4,13
    b070:	2102fa84 	addi	r4,r4,3050
    b074:	d9002b15 	stw	r4,172(sp)
    b078:	003cc306 	br	a388 <__alt_data_end+0xf800a388>
    b07c:	5005883a 	mov	r2,r10
    b080:	003f2d06 	br	ad38 <__alt_data_end+0xf800ad38>
    b084:	843fff84 	addi	r16,r16,-2
    b088:	1f3fffc4 	addi	fp,r3,-1
    b08c:	df002615 	stw	fp,152(sp)
    b090:	dc0022c5 	stb	r16,139(sp)
    b094:	e000a216 	blt	fp,zero,b320 <___svfprintf_internal_r+0x1f48>
    b098:	00800ac4 	movi	r2,43
    b09c:	d8802305 	stb	r2,140(sp)
    b0a0:	00800244 	movi	r2,9
    b0a4:	1700820e 	bge	r2,fp,b2b0 <___svfprintf_internal_r+0x1ed8>
    b0a8:	dd4022c4 	addi	r21,sp,139
    b0ac:	dc002b15 	stw	r16,172(sp)
    b0b0:	8825883a 	mov	r18,r17
    b0b4:	a821883a 	mov	r16,r21
    b0b8:	4023883a 	mov	r17,r8
    b0bc:	e009883a 	mov	r4,fp
    b0c0:	01400284 	movi	r5,10
    b0c4:	00083b80 	call	83b8 <__modsi3>
    b0c8:	10800c04 	addi	r2,r2,48
    b0cc:	843fffc4 	addi	r16,r16,-1
    b0d0:	e009883a 	mov	r4,fp
    b0d4:	01400284 	movi	r5,10
    b0d8:	80800005 	stb	r2,0(r16)
    b0dc:	00083640 	call	8364 <__divsi3>
    b0e0:	1039883a 	mov	fp,r2
    b0e4:	00800244 	movi	r2,9
    b0e8:	173ff416 	blt	r2,fp,b0bc <__alt_data_end+0xf800b0bc>
    b0ec:	8811883a 	mov	r8,r17
    b0f0:	e0800c04 	addi	r2,fp,48
    b0f4:	9023883a 	mov	r17,r18
    b0f8:	8025883a 	mov	r18,r16
    b0fc:	913fffc4 	addi	r4,r18,-1
    b100:	90bfffc5 	stb	r2,-1(r18)
    b104:	dc002b17 	ldw	r16,172(sp)
    b108:	25408e2e 	bgeu	r4,r21,b344 <___svfprintf_internal_r+0x1f6c>
    b10c:	d9402384 	addi	r5,sp,142
    b110:	2c8bc83a 	sub	r5,r5,r18
    b114:	d8c02344 	addi	r3,sp,141
    b118:	a94b883a 	add	r5,r21,r5
    b11c:	00000106 	br	b124 <___svfprintf_internal_r+0x1d4c>
    b120:	20800003 	ldbu	r2,0(r4)
    b124:	18800005 	stb	r2,0(r3)
    b128:	18c00044 	addi	r3,r3,1
    b12c:	21000044 	addi	r4,r4,1
    b130:	197ffb1e 	bne	r3,r5,b120 <__alt_data_end+0xf800b120>
    b134:	d8802304 	addi	r2,sp,140
    b138:	1485c83a 	sub	r2,r2,r18
    b13c:	d8c02344 	addi	r3,sp,141
    b140:	1885883a 	add	r2,r3,r2
    b144:	dac03317 	ldw	r11,204(sp)
    b148:	156bc83a 	sub	r21,r2,r21
    b14c:	dd403a15 	stw	r21,232(sp)
    b150:	00800044 	movi	r2,1
    b154:	5d65883a 	add	r18,r11,r21
    b158:	12c0770e 	bge	r2,r11,b338 <___svfprintf_internal_r+0x1f60>
    b15c:	94800044 	addi	r18,r18,1
    b160:	9005883a 	mov	r2,r18
    b164:	90007216 	blt	r18,zero,b330 <___svfprintf_internal_r+0x1f58>
    b168:	d8003415 	stw	zero,208(sp)
    b16c:	003f0506 	br	ad84 <__alt_data_end+0xf800ad84>
    b170:	da402a15 	stw	r9,168(sp)
    b174:	dd402783 	ldbu	r21,158(sp)
    b178:	4825883a 	mov	r18,r9
    b17c:	dcc02d15 	stw	r19,180(sp)
    b180:	d8003215 	stw	zero,200(sp)
    b184:	d8003415 	stw	zero,208(sp)
    b188:	0039cc06 	br	98bc <__alt_data_end+0xf80098bc>
    b18c:	483eb01e 	bne	r9,zero,ac50 <__alt_data_end+0xf800ac50>
    b190:	9013883a 	mov	r9,r18
    b194:	003eae06 	br	ac50 <__alt_data_end+0xf800ac50>
    b198:	d9002f17 	ldw	r4,188(sp)
    b19c:	b80b883a 	mov	r5,r23
    b1a0:	b00d883a 	mov	r6,r22
    b1a4:	000e4480 	call	e448 <__ssprint_r>
    b1a8:	1039531e 	bne	r2,zero,96f8 <__alt_data_end+0xf80096f8>
    b1ac:	dc002617 	ldw	r16,152(sp)
    b1b0:	d8c02017 	ldw	r3,128(sp)
    b1b4:	d8801f17 	ldw	r2,124(sp)
    b1b8:	da000404 	addi	r8,sp,16
    b1bc:	003e6f06 	br	ab7c <__alt_data_end+0xf800ab7c>
    b1c0:	00c00b44 	movi	r3,45
    b1c4:	64a0003c 	xorhi	r18,r12,32768
    b1c8:	d8c02a05 	stb	r3,168(sp)
    b1cc:	003ea606 	br	ac68 <__alt_data_end+0xf800ac68>
    b1d0:	4f000044 	addi	fp,r9,1
    b1d4:	003eab06 	br	ac84 <__alt_data_end+0xf800ac84>
    b1d8:	d8c03417 	ldw	r3,208(sp)
    b1dc:	00c0410e 	bge	zero,r3,b2e4 <___svfprintf_internal_r+0x1f0c>
    b1e0:	04800044 	movi	r18,1
    b1e4:	dac03317 	ldw	r11,204(sp)
    b1e8:	92e5883a 	add	r18,r18,r11
    b1ec:	9005883a 	mov	r2,r18
    b1f0:	903ee40e 	bge	r18,zero,ad84 <__alt_data_end+0xf800ad84>
    b1f4:	0005883a 	mov	r2,zero
    b1f8:	003ee206 	br	ad84 <__alt_data_end+0xf800ad84>
    b1fc:	d8c02617 	ldw	r3,152(sp)
    b200:	d8c03415 	stw	r3,208(sp)
    b204:	00c0310e 	bge	zero,r3,b2cc <___svfprintf_internal_r+0x1ef4>
    b208:	48001f1e 	bne	r9,zero,b288 <___svfprintf_internal_r+0x1eb0>
    b20c:	8c40004c 	andi	r17,r17,1
    b210:	88001d1e 	bne	r17,zero,b288 <___svfprintf_internal_r+0x1eb0>
    b214:	1805883a 	mov	r2,r3
    b218:	183ed90e 	bge	r3,zero,ad80 <__alt_data_end+0xf800ad80>
    b21c:	0005883a 	mov	r2,zero
    b220:	003ed706 	br	ad80 <__alt_data_end+0xf800ad80>
    b224:	d8802117 	ldw	r2,132(sp)
    b228:	003ec306 	br	ad38 <__alt_data_end+0xf800ad38>
    b22c:	d9003717 	ldw	r4,220(sp)
    b230:	900b883a 	mov	r5,r18
    b234:	000d883a 	mov	r6,zero
    b238:	000f883a 	mov	r7,zero
    b23c:	da004015 	stw	r8,256(sp)
    b240:	da403f15 	stw	r9,252(sp)
    b244:	da803e15 	stw	r10,248(sp)
    b248:	0011c140 	call	11c14 <__eqdf2>
    b24c:	da004017 	ldw	r8,256(sp)
    b250:	da403f17 	ldw	r9,252(sp)
    b254:	da803e17 	ldw	r10,248(sp)
    b258:	103f2a26 	beq	r2,zero,af04 <__alt_data_end+0xf800af04>
    b25c:	00800044 	movi	r2,1
    b260:	1707c83a 	sub	r3,r2,fp
    b264:	d8c02615 	stw	r3,152(sp)
    b268:	003f2706 	br	af08 <__alt_data_end+0xf800af08>
    b26c:	db003417 	ldw	r12,208(sp)
    b270:	64800044 	addi	r18,r12,1
    b274:	9005883a 	mov	r2,r18
    b278:	903ec20e 	bge	r18,zero,ad84 <__alt_data_end+0xf800ad84>
    b27c:	003fdd06 	br	b1f4 <__alt_data_end+0xf800b1f4>
    b280:	0005883a 	mov	r2,zero
    b284:	003f5a06 	br	aff0 <__alt_data_end+0xf800aff0>
    b288:	dac03417 	ldw	r11,208(sp)
    b28c:	4a400044 	addi	r9,r9,1
    b290:	5a65883a 	add	r18,r11,r9
    b294:	9005883a 	mov	r2,r18
    b298:	903eba0e 	bge	r18,zero,ad84 <__alt_data_end+0xf800ad84>
    b29c:	003fd506 	br	b1f4 <__alt_data_end+0xf800b1f4>
    b2a0:	00800374 	movhi	r2,13
    b2a4:	1082fa84 	addi	r2,r2,3050
    b2a8:	d8802b15 	stw	r2,172(sp)
    b2ac:	003d2906 	br	a754 <__alt_data_end+0xf800a754>
    b2b0:	00800c04 	movi	r2,48
    b2b4:	e0c00c04 	addi	r3,fp,48
    b2b8:	d8802345 	stb	r2,141(sp)
    b2bc:	d8c02385 	stb	r3,142(sp)
    b2c0:	d88023c4 	addi	r2,sp,143
    b2c4:	dd4022c4 	addi	r21,sp,139
    b2c8:	003f9e06 	br	b144 <__alt_data_end+0xf800b144>
    b2cc:	4800081e 	bne	r9,zero,b2f0 <___svfprintf_internal_r+0x1f18>
    b2d0:	8c40004c 	andi	r17,r17,1
    b2d4:	8800061e 	bne	r17,zero,b2f0 <___svfprintf_internal_r+0x1f18>
    b2d8:	00800044 	movi	r2,1
    b2dc:	1025883a 	mov	r18,r2
    b2e0:	003ea806 	br	ad84 <__alt_data_end+0xf800ad84>
    b2e4:	04800084 	movi	r18,2
    b2e8:	90e5c83a 	sub	r18,r18,r3
    b2ec:	003fbd06 	br	b1e4 <__alt_data_end+0xf800b1e4>
    b2f0:	4c800084 	addi	r18,r9,2
    b2f4:	9005883a 	mov	r2,r18
    b2f8:	903ea20e 	bge	r18,zero,ad84 <__alt_data_end+0xf800ad84>
    b2fc:	003fbd06 	br	b1f4 <__alt_data_end+0xf800b1f4>
    b300:	dac02d17 	ldw	r11,180(sp)
    b304:	5a400017 	ldw	r9,0(r11)
    b308:	5ac00104 	addi	r11,r11,4
    b30c:	dac02d15 	stw	r11,180(sp)
    b310:	483e3f0e 	bge	r9,zero,ac10 <__alt_data_end+0xf800ac10>
    b314:	027fffc4 	movi	r9,-1
    b318:	1c000047 	ldb	r16,1(r3)
    b31c:	00388406 	br	9530 <__alt_data_end+0xf8009530>
    b320:	00800b44 	movi	r2,45
    b324:	0739c83a 	sub	fp,zero,fp
    b328:	d8802305 	stb	r2,140(sp)
    b32c:	003f5c06 	br	b0a0 <__alt_data_end+0xf800b0a0>
    b330:	0005883a 	mov	r2,zero
    b334:	003f8c06 	br	b168 <__alt_data_end+0xf800b168>
    b338:	88a2703a 	and	r17,r17,r2
    b33c:	883f8826 	beq	r17,zero,b160 <__alt_data_end+0xf800b160>
    b340:	003f8606 	br	b15c <__alt_data_end+0xf800b15c>
    b344:	d8802344 	addi	r2,sp,141
    b348:	003f7e06 	br	b144 <__alt_data_end+0xf800b144>
    b34c:	d8c02617 	ldw	r3,152(sp)
    b350:	003f4d06 	br	b088 <__alt_data_end+0xf800b088>
    b354:	dac02f17 	ldw	r11,188(sp)
    b358:	00800304 	movi	r2,12
    b35c:	58800015 	stw	r2,0(r11)
    b360:	00bfffc4 	movi	r2,-1
    b364:	0038e806 	br	9708 <__alt_data_end+0xf8009708>

0000b368 <quorem>:
    b368:	defff704 	addi	sp,sp,-36
    b36c:	dc800215 	stw	r18,8(sp)
    b370:	20800417 	ldw	r2,16(r4)
    b374:	2c800417 	ldw	r18,16(r5)
    b378:	dfc00815 	stw	ra,32(sp)
    b37c:	ddc00715 	stw	r23,28(sp)
    b380:	dd800615 	stw	r22,24(sp)
    b384:	dd400515 	stw	r21,20(sp)
    b388:	dd000415 	stw	r20,16(sp)
    b38c:	dcc00315 	stw	r19,12(sp)
    b390:	dc400115 	stw	r17,4(sp)
    b394:	dc000015 	stw	r16,0(sp)
    b398:	14807116 	blt	r2,r18,b560 <quorem+0x1f8>
    b39c:	94bfffc4 	addi	r18,r18,-1
    b3a0:	94ad883a 	add	r22,r18,r18
    b3a4:	b5ad883a 	add	r22,r22,r22
    b3a8:	2c400504 	addi	r17,r5,20
    b3ac:	8da9883a 	add	r20,r17,r22
    b3b0:	25400504 	addi	r21,r4,20
    b3b4:	282f883a 	mov	r23,r5
    b3b8:	adad883a 	add	r22,r21,r22
    b3bc:	a1400017 	ldw	r5,0(r20)
    b3c0:	2021883a 	mov	r16,r4
    b3c4:	b1000017 	ldw	r4,0(r22)
    b3c8:	29400044 	addi	r5,r5,1
    b3cc:	00084140 	call	8414 <__udivsi3>
    b3d0:	1027883a 	mov	r19,r2
    b3d4:	10002c26 	beq	r2,zero,b488 <quorem+0x120>
    b3d8:	a813883a 	mov	r9,r21
    b3dc:	8811883a 	mov	r8,r17
    b3e0:	0009883a 	mov	r4,zero
    b3e4:	000d883a 	mov	r6,zero
    b3e8:	41c00017 	ldw	r7,0(r8)
    b3ec:	49400017 	ldw	r5,0(r9)
    b3f0:	42000104 	addi	r8,r8,4
    b3f4:	38bfffcc 	andi	r2,r7,65535
    b3f8:	14c5383a 	mul	r2,r2,r19
    b3fc:	380ed43a 	srli	r7,r7,16
    b400:	28ffffcc 	andi	r3,r5,65535
    b404:	2085883a 	add	r2,r4,r2
    b408:	1008d43a 	srli	r4,r2,16
    b40c:	3ccf383a 	mul	r7,r7,r19
    b410:	198d883a 	add	r6,r3,r6
    b414:	10ffffcc 	andi	r3,r2,65535
    b418:	30c7c83a 	sub	r3,r6,r3
    b41c:	280ad43a 	srli	r5,r5,16
    b420:	21c9883a 	add	r4,r4,r7
    b424:	180dd43a 	srai	r6,r3,16
    b428:	20bfffcc 	andi	r2,r4,65535
    b42c:	288bc83a 	sub	r5,r5,r2
    b430:	298b883a 	add	r5,r5,r6
    b434:	280e943a 	slli	r7,r5,16
    b438:	18ffffcc 	andi	r3,r3,65535
    b43c:	2008d43a 	srli	r4,r4,16
    b440:	38ceb03a 	or	r7,r7,r3
    b444:	49c00015 	stw	r7,0(r9)
    b448:	280dd43a 	srai	r6,r5,16
    b44c:	4a400104 	addi	r9,r9,4
    b450:	a23fe52e 	bgeu	r20,r8,b3e8 <__alt_data_end+0xf800b3e8>
    b454:	b0800017 	ldw	r2,0(r22)
    b458:	10000b1e 	bne	r2,zero,b488 <quorem+0x120>
    b45c:	b0bfff04 	addi	r2,r22,-4
    b460:	a880082e 	bgeu	r21,r2,b484 <quorem+0x11c>
    b464:	b0ffff17 	ldw	r3,-4(r22)
    b468:	18000326 	beq	r3,zero,b478 <quorem+0x110>
    b46c:	00000506 	br	b484 <quorem+0x11c>
    b470:	10c00017 	ldw	r3,0(r2)
    b474:	1800031e 	bne	r3,zero,b484 <quorem+0x11c>
    b478:	10bfff04 	addi	r2,r2,-4
    b47c:	94bfffc4 	addi	r18,r18,-1
    b480:	a8bffb36 	bltu	r21,r2,b470 <__alt_data_end+0xf800b470>
    b484:	84800415 	stw	r18,16(r16)
    b488:	8009883a 	mov	r4,r16
    b48c:	b80b883a 	mov	r5,r23
    b490:	000dc640 	call	dc64 <__mcmp>
    b494:	10002616 	blt	r2,zero,b530 <quorem+0x1c8>
    b498:	9cc00044 	addi	r19,r19,1
    b49c:	a80d883a 	mov	r6,r21
    b4a0:	000b883a 	mov	r5,zero
    b4a4:	31000017 	ldw	r4,0(r6)
    b4a8:	88800017 	ldw	r2,0(r17)
    b4ac:	31800104 	addi	r6,r6,4
    b4b0:	20ffffcc 	andi	r3,r4,65535
    b4b4:	194b883a 	add	r5,r3,r5
    b4b8:	10ffffcc 	andi	r3,r2,65535
    b4bc:	28c7c83a 	sub	r3,r5,r3
    b4c0:	1004d43a 	srli	r2,r2,16
    b4c4:	2008d43a 	srli	r4,r4,16
    b4c8:	180bd43a 	srai	r5,r3,16
    b4cc:	18ffffcc 	andi	r3,r3,65535
    b4d0:	2089c83a 	sub	r4,r4,r2
    b4d4:	2149883a 	add	r4,r4,r5
    b4d8:	2004943a 	slli	r2,r4,16
    b4dc:	8c400104 	addi	r17,r17,4
    b4e0:	200bd43a 	srai	r5,r4,16
    b4e4:	10c6b03a 	or	r3,r2,r3
    b4e8:	30ffff15 	stw	r3,-4(r6)
    b4ec:	a47fed2e 	bgeu	r20,r17,b4a4 <__alt_data_end+0xf800b4a4>
    b4f0:	9485883a 	add	r2,r18,r18
    b4f4:	1085883a 	add	r2,r2,r2
    b4f8:	a887883a 	add	r3,r21,r2
    b4fc:	18800017 	ldw	r2,0(r3)
    b500:	10000b1e 	bne	r2,zero,b530 <quorem+0x1c8>
    b504:	18bfff04 	addi	r2,r3,-4
    b508:	a880082e 	bgeu	r21,r2,b52c <quorem+0x1c4>
    b50c:	18ffff17 	ldw	r3,-4(r3)
    b510:	18000326 	beq	r3,zero,b520 <quorem+0x1b8>
    b514:	00000506 	br	b52c <quorem+0x1c4>
    b518:	10c00017 	ldw	r3,0(r2)
    b51c:	1800031e 	bne	r3,zero,b52c <quorem+0x1c4>
    b520:	10bfff04 	addi	r2,r2,-4
    b524:	94bfffc4 	addi	r18,r18,-1
    b528:	a8bffb36 	bltu	r21,r2,b518 <__alt_data_end+0xf800b518>
    b52c:	84800415 	stw	r18,16(r16)
    b530:	9805883a 	mov	r2,r19
    b534:	dfc00817 	ldw	ra,32(sp)
    b538:	ddc00717 	ldw	r23,28(sp)
    b53c:	dd800617 	ldw	r22,24(sp)
    b540:	dd400517 	ldw	r21,20(sp)
    b544:	dd000417 	ldw	r20,16(sp)
    b548:	dcc00317 	ldw	r19,12(sp)
    b54c:	dc800217 	ldw	r18,8(sp)
    b550:	dc400117 	ldw	r17,4(sp)
    b554:	dc000017 	ldw	r16,0(sp)
    b558:	dec00904 	addi	sp,sp,36
    b55c:	f800283a 	ret
    b560:	0005883a 	mov	r2,zero
    b564:	003ff306 	br	b534 <__alt_data_end+0xf800b534>

0000b568 <_dtoa_r>:
    b568:	20801017 	ldw	r2,64(r4)
    b56c:	deffde04 	addi	sp,sp,-136
    b570:	dd401d15 	stw	r21,116(sp)
    b574:	dcc01b15 	stw	r19,108(sp)
    b578:	dc801a15 	stw	r18,104(sp)
    b57c:	dc401915 	stw	r17,100(sp)
    b580:	dc001815 	stw	r16,96(sp)
    b584:	dfc02115 	stw	ra,132(sp)
    b588:	df002015 	stw	fp,128(sp)
    b58c:	ddc01f15 	stw	r23,124(sp)
    b590:	dd801e15 	stw	r22,120(sp)
    b594:	dd001c15 	stw	r20,112(sp)
    b598:	d9c00315 	stw	r7,12(sp)
    b59c:	2021883a 	mov	r16,r4
    b5a0:	302b883a 	mov	r21,r6
    b5a4:	2825883a 	mov	r18,r5
    b5a8:	dc402417 	ldw	r17,144(sp)
    b5ac:	3027883a 	mov	r19,r6
    b5b0:	10000826 	beq	r2,zero,b5d4 <_dtoa_r+0x6c>
    b5b4:	21801117 	ldw	r6,68(r4)
    b5b8:	00c00044 	movi	r3,1
    b5bc:	100b883a 	mov	r5,r2
    b5c0:	1986983a 	sll	r3,r3,r6
    b5c4:	11800115 	stw	r6,4(r2)
    b5c8:	10c00215 	stw	r3,8(r2)
    b5cc:	000d44c0 	call	d44c <_Bfree>
    b5d0:	80001015 	stw	zero,64(r16)
    b5d4:	a8002d16 	blt	r21,zero,b68c <_dtoa_r+0x124>
    b5d8:	88000015 	stw	zero,0(r17)
    b5dc:	a8dffc2c 	andhi	r3,r21,32752
    b5e0:	009ffc34 	movhi	r2,32752
    b5e4:	18801b26 	beq	r3,r2,b654 <_dtoa_r+0xec>
    b5e8:	9009883a 	mov	r4,r18
    b5ec:	980b883a 	mov	r5,r19
    b5f0:	000d883a 	mov	r6,zero
    b5f4:	000f883a 	mov	r7,zero
    b5f8:	0011c140 	call	11c14 <__eqdf2>
    b5fc:	10002a1e 	bne	r2,zero,b6a8 <_dtoa_r+0x140>
    b600:	d8c02317 	ldw	r3,140(sp)
    b604:	d9002517 	ldw	r4,148(sp)
    b608:	00800044 	movi	r2,1
    b60c:	18800015 	stw	r2,0(r3)
    b610:	2001a226 	beq	r4,zero,bc9c <_dtoa_r+0x734>
    b614:	00800374 	movhi	r2,13
    b618:	1082fa44 	addi	r2,r2,3049
    b61c:	20800015 	stw	r2,0(r4)
    b620:	10bfffc4 	addi	r2,r2,-1
    b624:	dfc02117 	ldw	ra,132(sp)
    b628:	df002017 	ldw	fp,128(sp)
    b62c:	ddc01f17 	ldw	r23,124(sp)
    b630:	dd801e17 	ldw	r22,120(sp)
    b634:	dd401d17 	ldw	r21,116(sp)
    b638:	dd001c17 	ldw	r20,112(sp)
    b63c:	dcc01b17 	ldw	r19,108(sp)
    b640:	dc801a17 	ldw	r18,104(sp)
    b644:	dc401917 	ldw	r17,100(sp)
    b648:	dc001817 	ldw	r16,96(sp)
    b64c:	dec02204 	addi	sp,sp,136
    b650:	f800283a 	ret
    b654:	d8c02317 	ldw	r3,140(sp)
    b658:	0089c3c4 	movi	r2,9999
    b65c:	18800015 	stw	r2,0(r3)
    b660:	90017c26 	beq	r18,zero,bc54 <_dtoa_r+0x6ec>
    b664:	00800374 	movhi	r2,13
    b668:	10830604 	addi	r2,r2,3096
    b66c:	d9002517 	ldw	r4,148(sp)
    b670:	203fec26 	beq	r4,zero,b624 <__alt_data_end+0xf800b624>
    b674:	10c000c7 	ldb	r3,3(r2)
    b678:	18017d1e 	bne	r3,zero,bc70 <_dtoa_r+0x708>
    b67c:	10c000c4 	addi	r3,r2,3
    b680:	d9802517 	ldw	r6,148(sp)
    b684:	30c00015 	stw	r3,0(r6)
    b688:	003fe606 	br	b624 <__alt_data_end+0xf800b624>
    b68c:	04e00034 	movhi	r19,32768
    b690:	9cffffc4 	addi	r19,r19,-1
    b694:	00800044 	movi	r2,1
    b698:	ace6703a 	and	r19,r21,r19
    b69c:	88800015 	stw	r2,0(r17)
    b6a0:	982b883a 	mov	r21,r19
    b6a4:	003fcd06 	br	b5dc <__alt_data_end+0xf800b5dc>
    b6a8:	d8800204 	addi	r2,sp,8
    b6ac:	a822d53a 	srli	r17,r21,20
    b6b0:	d8800015 	stw	r2,0(sp)
    b6b4:	8009883a 	mov	r4,r16
    b6b8:	900b883a 	mov	r5,r18
    b6bc:	980d883a 	mov	r6,r19
    b6c0:	d9c00104 	addi	r7,sp,4
    b6c4:	000dfd80 	call	dfd8 <__d2b>
    b6c8:	1039883a 	mov	fp,r2
    b6cc:	88016a1e 	bne	r17,zero,bc78 <_dtoa_r+0x710>
    b6d0:	dd000217 	ldw	r20,8(sp)
    b6d4:	dc400117 	ldw	r17,4(sp)
    b6d8:	00befbc4 	movi	r2,-1041
    b6dc:	a463883a 	add	r17,r20,r17
    b6e0:	8882ea16 	blt	r17,r2,c28c <_dtoa_r+0xd24>
    b6e4:	00bf0384 	movi	r2,-1010
    b6e8:	1445c83a 	sub	r2,r2,r17
    b6ec:	89010484 	addi	r4,r17,1042
    b6f0:	a8aa983a 	sll	r21,r21,r2
    b6f4:	9108d83a 	srl	r4,r18,r4
    b6f8:	a908b03a 	or	r4,r21,r4
    b6fc:	0012fa40 	call	12fa4 <__floatunsidf>
    b700:	017f8434 	movhi	r5,65040
    b704:	01800044 	movi	r6,1
    b708:	1009883a 	mov	r4,r2
    b70c:	194b883a 	add	r5,r3,r5
    b710:	8c7fffc4 	addi	r17,r17,-1
    b714:	d9800f15 	stw	r6,60(sp)
    b718:	000d883a 	mov	r6,zero
    b71c:	01cffe34 	movhi	r7,16376
    b720:	001257c0 	call	1257c <__subdf3>
    b724:	0198dbf4 	movhi	r6,25455
    b728:	01cff4f4 	movhi	r7,16339
    b72c:	1009883a 	mov	r4,r2
    b730:	180b883a 	mov	r5,r3
    b734:	3190d844 	addi	r6,r6,17249
    b738:	39e1e9c4 	addi	r7,r7,-30809
    b73c:	0011e580 	call	11e58 <__muldf3>
    b740:	01a2d874 	movhi	r6,35681
    b744:	01cff1f4 	movhi	r7,16327
    b748:	180b883a 	mov	r5,r3
    b74c:	31b22cc4 	addi	r6,r6,-14157
    b750:	39e28a04 	addi	r7,r7,-30168
    b754:	1009883a 	mov	r4,r2
    b758:	0010aac0 	call	10aac <__adddf3>
    b75c:	8809883a 	mov	r4,r17
    b760:	102d883a 	mov	r22,r2
    b764:	182b883a 	mov	r21,r3
    b768:	0012ed40 	call	12ed4 <__floatsidf>
    b76c:	019427f4 	movhi	r6,20639
    b770:	01cff4f4 	movhi	r7,16339
    b774:	1009883a 	mov	r4,r2
    b778:	180b883a 	mov	r5,r3
    b77c:	319e7ec4 	addi	r6,r6,31227
    b780:	39d104c4 	addi	r7,r7,17427
    b784:	0011e580 	call	11e58 <__muldf3>
    b788:	b009883a 	mov	r4,r22
    b78c:	a80b883a 	mov	r5,r21
    b790:	100d883a 	mov	r6,r2
    b794:	180f883a 	mov	r7,r3
    b798:	0010aac0 	call	10aac <__adddf3>
    b79c:	1009883a 	mov	r4,r2
    b7a0:	180b883a 	mov	r5,r3
    b7a4:	102d883a 	mov	r22,r2
    b7a8:	182b883a 	mov	r21,r3
    b7ac:	0012e4c0 	call	12e4c <__fixdfsi>
    b7b0:	b009883a 	mov	r4,r22
    b7b4:	a80b883a 	mov	r5,r21
    b7b8:	000d883a 	mov	r6,zero
    b7bc:	000f883a 	mov	r7,zero
    b7c0:	d8800515 	stw	r2,20(sp)
    b7c4:	0011d780 	call	11d78 <__ledf2>
    b7c8:	10023116 	blt	r2,zero,c090 <_dtoa_r+0xb28>
    b7cc:	d8c00517 	ldw	r3,20(sp)
    b7d0:	00800584 	movi	r2,22
    b7d4:	10c21f36 	bltu	r2,r3,c054 <_dtoa_r+0xaec>
    b7d8:	180490fa 	slli	r2,r3,3
    b7dc:	00c00374 	movhi	r3,13
    b7e0:	18c32204 	addi	r3,r3,3208
    b7e4:	1885883a 	add	r2,r3,r2
    b7e8:	11000017 	ldw	r4,0(r2)
    b7ec:	11400117 	ldw	r5,4(r2)
    b7f0:	900d883a 	mov	r6,r18
    b7f4:	980f883a 	mov	r7,r19
    b7f8:	0011c980 	call	11c98 <__gedf2>
    b7fc:	0082a70e 	bge	zero,r2,c29c <_dtoa_r+0xd34>
    b800:	d9000517 	ldw	r4,20(sp)
    b804:	d8000c15 	stw	zero,48(sp)
    b808:	213fffc4 	addi	r4,r4,-1
    b80c:	d9000515 	stw	r4,20(sp)
    b810:	a463c83a 	sub	r17,r20,r17
    b814:	8dbfffc4 	addi	r22,r17,-1
    b818:	b0021916 	blt	r22,zero,c080 <_dtoa_r+0xb18>
    b81c:	d8000815 	stw	zero,32(sp)
    b820:	d8800517 	ldw	r2,20(sp)
    b824:	10020e16 	blt	r2,zero,c060 <_dtoa_r+0xaf8>
    b828:	b0ad883a 	add	r22,r22,r2
    b82c:	d8800a15 	stw	r2,40(sp)
    b830:	d8000915 	stw	zero,36(sp)
    b834:	d8c00317 	ldw	r3,12(sp)
    b838:	00800244 	movi	r2,9
    b83c:	10c11a36 	bltu	r2,r3,bca8 <_dtoa_r+0x740>
    b840:	00800144 	movi	r2,5
    b844:	10c4fc0e 	bge	r2,r3,cc38 <_dtoa_r+0x16d0>
    b848:	18ffff04 	addi	r3,r3,-4
    b84c:	d8c00315 	stw	r3,12(sp)
    b850:	0029883a 	mov	r20,zero
    b854:	d9800317 	ldw	r6,12(sp)
    b858:	008000c4 	movi	r2,3
    b85c:	3083bd26 	beq	r6,r2,c754 <_dtoa_r+0x11ec>
    b860:	1183670e 	bge	r2,r6,c600 <_dtoa_r+0x1098>
    b864:	d8c00317 	ldw	r3,12(sp)
    b868:	00800104 	movi	r2,4
    b86c:	1882e726 	beq	r3,r2,c40c <_dtoa_r+0xea4>
    b870:	00800144 	movi	r2,5
    b874:	1884f21e 	bne	r3,r2,cc40 <_dtoa_r+0x16d8>
    b878:	00800044 	movi	r2,1
    b87c:	d8800b15 	stw	r2,44(sp)
    b880:	d8c02217 	ldw	r3,136(sp)
    b884:	d9000517 	ldw	r4,20(sp)
    b888:	1907883a 	add	r3,r3,r4
    b88c:	19800044 	addi	r6,r3,1
    b890:	d8c00d15 	stw	r3,52(sp)
    b894:	d9800615 	stw	r6,24(sp)
    b898:	0183c30e 	bge	zero,r6,c7a8 <_dtoa_r+0x1240>
    b89c:	d9800617 	ldw	r6,24(sp)
    b8a0:	3023883a 	mov	r17,r6
    b8a4:	80001115 	stw	zero,68(r16)
    b8a8:	008005c4 	movi	r2,23
    b8ac:	1184f62e 	bgeu	r2,r6,cc88 <_dtoa_r+0x1720>
    b8b0:	00c00044 	movi	r3,1
    b8b4:	00800104 	movi	r2,4
    b8b8:	1085883a 	add	r2,r2,r2
    b8bc:	11000504 	addi	r4,r2,20
    b8c0:	180b883a 	mov	r5,r3
    b8c4:	18c00044 	addi	r3,r3,1
    b8c8:	313ffb2e 	bgeu	r6,r4,b8b8 <__alt_data_end+0xf800b8b8>
    b8cc:	81401115 	stw	r5,68(r16)
    b8d0:	8009883a 	mov	r4,r16
    b8d4:	000d3a40 	call	d3a4 <_Balloc>
    b8d8:	d8800715 	stw	r2,28(sp)
    b8dc:	80801015 	stw	r2,64(r16)
    b8e0:	00800384 	movi	r2,14
    b8e4:	1440fd36 	bltu	r2,r17,bcdc <_dtoa_r+0x774>
    b8e8:	a000fc26 	beq	r20,zero,bcdc <_dtoa_r+0x774>
    b8ec:	d8800517 	ldw	r2,20(sp)
    b8f0:	0083b90e 	bge	zero,r2,c7d8 <_dtoa_r+0x1270>
    b8f4:	d8c00517 	ldw	r3,20(sp)
    b8f8:	108003cc 	andi	r2,r2,15
    b8fc:	100490fa 	slli	r2,r2,3
    b900:	182fd13a 	srai	r23,r3,4
    b904:	00c00374 	movhi	r3,13
    b908:	18c32204 	addi	r3,r3,3208
    b90c:	1885883a 	add	r2,r3,r2
    b910:	b8c0040c 	andi	r3,r23,16
    b914:	12c00017 	ldw	r11,0(r2)
    b918:	12800117 	ldw	r10,4(r2)
    b91c:	18039726 	beq	r3,zero,c77c <_dtoa_r+0x1214>
    b920:	00800374 	movhi	r2,13
    b924:	10831804 	addi	r2,r2,3168
    b928:	11800817 	ldw	r6,32(r2)
    b92c:	11c00917 	ldw	r7,36(r2)
    b930:	9009883a 	mov	r4,r18
    b934:	980b883a 	mov	r5,r19
    b938:	da801615 	stw	r10,88(sp)
    b93c:	dac01515 	stw	r11,84(sp)
    b940:	00113480 	call	11348 <__divdf3>
    b944:	da801617 	ldw	r10,88(sp)
    b948:	dac01517 	ldw	r11,84(sp)
    b94c:	bdc003cc 	andi	r23,r23,15
    b950:	044000c4 	movi	r17,3
    b954:	d8800e15 	stw	r2,56(sp)
    b958:	182b883a 	mov	r21,r3
    b95c:	b8001126 	beq	r23,zero,b9a4 <_dtoa_r+0x43c>
    b960:	05000374 	movhi	r20,13
    b964:	a5031804 	addi	r20,r20,3168
    b968:	5805883a 	mov	r2,r11
    b96c:	5007883a 	mov	r3,r10
    b970:	b980004c 	andi	r6,r23,1
    b974:	1009883a 	mov	r4,r2
    b978:	b82fd07a 	srai	r23,r23,1
    b97c:	180b883a 	mov	r5,r3
    b980:	30000426 	beq	r6,zero,b994 <_dtoa_r+0x42c>
    b984:	a1800017 	ldw	r6,0(r20)
    b988:	a1c00117 	ldw	r7,4(r20)
    b98c:	8c400044 	addi	r17,r17,1
    b990:	0011e580 	call	11e58 <__muldf3>
    b994:	a5000204 	addi	r20,r20,8
    b998:	b83ff51e 	bne	r23,zero,b970 <__alt_data_end+0xf800b970>
    b99c:	1017883a 	mov	r11,r2
    b9a0:	1815883a 	mov	r10,r3
    b9a4:	d9000e17 	ldw	r4,56(sp)
    b9a8:	a80b883a 	mov	r5,r21
    b9ac:	580d883a 	mov	r6,r11
    b9b0:	500f883a 	mov	r7,r10
    b9b4:	00113480 	call	11348 <__divdf3>
    b9b8:	1029883a 	mov	r20,r2
    b9bc:	182b883a 	mov	r21,r3
    b9c0:	d9800c17 	ldw	r6,48(sp)
    b9c4:	30000626 	beq	r6,zero,b9e0 <_dtoa_r+0x478>
    b9c8:	a009883a 	mov	r4,r20
    b9cc:	a80b883a 	mov	r5,r21
    b9d0:	000d883a 	mov	r6,zero
    b9d4:	01cffc34 	movhi	r7,16368
    b9d8:	0011d780 	call	11d78 <__ledf2>
    b9dc:	10043216 	blt	r2,zero,caa8 <_dtoa_r+0x1540>
    b9e0:	8809883a 	mov	r4,r17
    b9e4:	0012ed40 	call	12ed4 <__floatsidf>
    b9e8:	1009883a 	mov	r4,r2
    b9ec:	180b883a 	mov	r5,r3
    b9f0:	a00d883a 	mov	r6,r20
    b9f4:	a80f883a 	mov	r7,r21
    b9f8:	0011e580 	call	11e58 <__muldf3>
    b9fc:	000d883a 	mov	r6,zero
    ba00:	1009883a 	mov	r4,r2
    ba04:	180b883a 	mov	r5,r3
    ba08:	01d00734 	movhi	r7,16412
    ba0c:	0010aac0 	call	10aac <__adddf3>
    ba10:	1023883a 	mov	r17,r2
    ba14:	d9800617 	ldw	r6,24(sp)
    ba18:	00bf3034 	movhi	r2,64704
    ba1c:	1885883a 	add	r2,r3,r2
    ba20:	d8800e15 	stw	r2,56(sp)
    ba24:	30032e26 	beq	r6,zero,c6e0 <_dtoa_r+0x1178>
    ba28:	d8c00517 	ldw	r3,20(sp)
    ba2c:	da800617 	ldw	r10,24(sp)
    ba30:	d8c01215 	stw	r3,72(sp)
    ba34:	d9000b17 	ldw	r4,44(sp)
    ba38:	2003b026 	beq	r4,zero,c8fc <_dtoa_r+0x1394>
    ba3c:	50bfffc4 	addi	r2,r10,-1
    ba40:	100490fa 	slli	r2,r2,3
    ba44:	00c00374 	movhi	r3,13
    ba48:	18c32204 	addi	r3,r3,3208
    ba4c:	1885883a 	add	r2,r3,r2
    ba50:	11800017 	ldw	r6,0(r2)
    ba54:	11c00117 	ldw	r7,4(r2)
    ba58:	d8800717 	ldw	r2,28(sp)
    ba5c:	0009883a 	mov	r4,zero
    ba60:	014ff834 	movhi	r5,16352
    ba64:	da801615 	stw	r10,88(sp)
    ba68:	15c00044 	addi	r23,r2,1
    ba6c:	00113480 	call	11348 <__divdf3>
    ba70:	d9c00e17 	ldw	r7,56(sp)
    ba74:	880d883a 	mov	r6,r17
    ba78:	1009883a 	mov	r4,r2
    ba7c:	180b883a 	mov	r5,r3
    ba80:	001257c0 	call	1257c <__subdf3>
    ba84:	a80b883a 	mov	r5,r21
    ba88:	a009883a 	mov	r4,r20
    ba8c:	d8c01015 	stw	r3,64(sp)
    ba90:	d8800e15 	stw	r2,56(sp)
    ba94:	0012e4c0 	call	12e4c <__fixdfsi>
    ba98:	1009883a 	mov	r4,r2
    ba9c:	d8801715 	stw	r2,92(sp)
    baa0:	0012ed40 	call	12ed4 <__floatsidf>
    baa4:	a009883a 	mov	r4,r20
    baa8:	a80b883a 	mov	r5,r21
    baac:	100d883a 	mov	r6,r2
    bab0:	180f883a 	mov	r7,r3
    bab4:	001257c0 	call	1257c <__subdf3>
    bab8:	da001717 	ldw	r8,92(sp)
    babc:	1829883a 	mov	r20,r3
    bac0:	d8c00717 	ldw	r3,28(sp)
    bac4:	d9000e17 	ldw	r4,56(sp)
    bac8:	d9401017 	ldw	r5,64(sp)
    bacc:	42000c04 	addi	r8,r8,48
    bad0:	1023883a 	mov	r17,r2
    bad4:	1a000005 	stb	r8,0(r3)
    bad8:	880d883a 	mov	r6,r17
    badc:	a00f883a 	mov	r7,r20
    bae0:	402b883a 	mov	r21,r8
    bae4:	0011c980 	call	11c98 <__gedf2>
    bae8:	00844516 	blt	zero,r2,cc00 <_dtoa_r+0x1698>
    baec:	0009883a 	mov	r4,zero
    baf0:	014ffc34 	movhi	r5,16368
    baf4:	880d883a 	mov	r6,r17
    baf8:	a00f883a 	mov	r7,r20
    bafc:	001257c0 	call	1257c <__subdf3>
    bb00:	d9000e17 	ldw	r4,56(sp)
    bb04:	d9401017 	ldw	r5,64(sp)
    bb08:	100d883a 	mov	r6,r2
    bb0c:	180f883a 	mov	r7,r3
    bb10:	0011c980 	call	11c98 <__gedf2>
    bb14:	da801617 	ldw	r10,88(sp)
    bb18:	00843616 	blt	zero,r2,cbf4 <_dtoa_r+0x168c>
    bb1c:	00800044 	movi	r2,1
    bb20:	12806e0e 	bge	r2,r10,bcdc <_dtoa_r+0x774>
    bb24:	d9000717 	ldw	r4,28(sp)
    bb28:	dd801315 	stw	r22,76(sp)
    bb2c:	dc001115 	stw	r16,68(sp)
    bb30:	2295883a 	add	r10,r4,r10
    bb34:	dcc01415 	stw	r19,80(sp)
    bb38:	502d883a 	mov	r22,r10
    bb3c:	dcc01017 	ldw	r19,64(sp)
    bb40:	b821883a 	mov	r16,r23
    bb44:	dc801015 	stw	r18,64(sp)
    bb48:	dc800e17 	ldw	r18,56(sp)
    bb4c:	00000906 	br	bb74 <_dtoa_r+0x60c>
    bb50:	001257c0 	call	1257c <__subdf3>
    bb54:	1009883a 	mov	r4,r2
    bb58:	180b883a 	mov	r5,r3
    bb5c:	900d883a 	mov	r6,r18
    bb60:	980f883a 	mov	r7,r19
    bb64:	0011d780 	call	11d78 <__ledf2>
    bb68:	10040e16 	blt	r2,zero,cba4 <_dtoa_r+0x163c>
    bb6c:	b821883a 	mov	r16,r23
    bb70:	bd841026 	beq	r23,r22,cbb4 <_dtoa_r+0x164c>
    bb74:	9009883a 	mov	r4,r18
    bb78:	980b883a 	mov	r5,r19
    bb7c:	000d883a 	mov	r6,zero
    bb80:	01d00934 	movhi	r7,16420
    bb84:	0011e580 	call	11e58 <__muldf3>
    bb88:	000d883a 	mov	r6,zero
    bb8c:	01d00934 	movhi	r7,16420
    bb90:	8809883a 	mov	r4,r17
    bb94:	a00b883a 	mov	r5,r20
    bb98:	1025883a 	mov	r18,r2
    bb9c:	1827883a 	mov	r19,r3
    bba0:	0011e580 	call	11e58 <__muldf3>
    bba4:	180b883a 	mov	r5,r3
    bba8:	1009883a 	mov	r4,r2
    bbac:	1823883a 	mov	r17,r3
    bbb0:	1029883a 	mov	r20,r2
    bbb4:	0012e4c0 	call	12e4c <__fixdfsi>
    bbb8:	1009883a 	mov	r4,r2
    bbbc:	102b883a 	mov	r21,r2
    bbc0:	0012ed40 	call	12ed4 <__floatsidf>
    bbc4:	a009883a 	mov	r4,r20
    bbc8:	880b883a 	mov	r5,r17
    bbcc:	100d883a 	mov	r6,r2
    bbd0:	180f883a 	mov	r7,r3
    bbd4:	001257c0 	call	1257c <__subdf3>
    bbd8:	ad400c04 	addi	r21,r21,48
    bbdc:	1009883a 	mov	r4,r2
    bbe0:	180b883a 	mov	r5,r3
    bbe4:	900d883a 	mov	r6,r18
    bbe8:	980f883a 	mov	r7,r19
    bbec:	85400005 	stb	r21,0(r16)
    bbf0:	1023883a 	mov	r17,r2
    bbf4:	1829883a 	mov	r20,r3
    bbf8:	0011d780 	call	11d78 <__ledf2>
    bbfc:	bdc00044 	addi	r23,r23,1
    bc00:	0009883a 	mov	r4,zero
    bc04:	014ffc34 	movhi	r5,16368
    bc08:	880d883a 	mov	r6,r17
    bc0c:	a00f883a 	mov	r7,r20
    bc10:	103fcf0e 	bge	r2,zero,bb50 <__alt_data_end+0xf800bb50>
    bc14:	d9801217 	ldw	r6,72(sp)
    bc18:	dc001117 	ldw	r16,68(sp)
    bc1c:	d9800515 	stw	r6,20(sp)
    bc20:	8009883a 	mov	r4,r16
    bc24:	e00b883a 	mov	r5,fp
    bc28:	000d44c0 	call	d44c <_Bfree>
    bc2c:	d8c00517 	ldw	r3,20(sp)
    bc30:	d9002317 	ldw	r4,140(sp)
    bc34:	d9802517 	ldw	r6,148(sp)
    bc38:	b8000005 	stb	zero,0(r23)
    bc3c:	18800044 	addi	r2,r3,1
    bc40:	20800015 	stw	r2,0(r4)
    bc44:	30027226 	beq	r6,zero,c610 <_dtoa_r+0x10a8>
    bc48:	35c00015 	stw	r23,0(r6)
    bc4c:	d8800717 	ldw	r2,28(sp)
    bc50:	003e7406 	br	b624 <__alt_data_end+0xf800b624>
    bc54:	00800434 	movhi	r2,16
    bc58:	10bfffc4 	addi	r2,r2,-1
    bc5c:	a8aa703a 	and	r21,r21,r2
    bc60:	a83e801e 	bne	r21,zero,b664 <__alt_data_end+0xf800b664>
    bc64:	00800374 	movhi	r2,13
    bc68:	10830304 	addi	r2,r2,3084
    bc6c:	003e7f06 	br	b66c <__alt_data_end+0xf800b66c>
    bc70:	10c00204 	addi	r3,r2,8
    bc74:	003e8206 	br	b680 <__alt_data_end+0xf800b680>
    bc78:	01400434 	movhi	r5,16
    bc7c:	297fffc4 	addi	r5,r5,-1
    bc80:	994a703a 	and	r5,r19,r5
    bc84:	9009883a 	mov	r4,r18
    bc88:	8c7f0044 	addi	r17,r17,-1023
    bc8c:	294ffc34 	orhi	r5,r5,16368
    bc90:	dd000217 	ldw	r20,8(sp)
    bc94:	d8000f15 	stw	zero,60(sp)
    bc98:	003e9f06 	br	b718 <__alt_data_end+0xf800b718>
    bc9c:	00800374 	movhi	r2,13
    bca0:	1082fa04 	addi	r2,r2,3048
    bca4:	003e5f06 	br	b624 <__alt_data_end+0xf800b624>
    bca8:	80001115 	stw	zero,68(r16)
    bcac:	8009883a 	mov	r4,r16
    bcb0:	000b883a 	mov	r5,zero
    bcb4:	000d3a40 	call	d3a4 <_Balloc>
    bcb8:	01bfffc4 	movi	r6,-1
    bcbc:	d8800715 	stw	r2,28(sp)
    bcc0:	80801015 	stw	r2,64(r16)
    bcc4:	00800044 	movi	r2,1
    bcc8:	d9800615 	stw	r6,24(sp)
    bccc:	d8800b15 	stw	r2,44(sp)
    bcd0:	d8002215 	stw	zero,136(sp)
    bcd4:	d9800d15 	stw	r6,52(sp)
    bcd8:	d8000315 	stw	zero,12(sp)
    bcdc:	d8800117 	ldw	r2,4(sp)
    bce0:	10008e16 	blt	r2,zero,bf1c <_dtoa_r+0x9b4>
    bce4:	d9000517 	ldw	r4,20(sp)
    bce8:	00c00384 	movi	r3,14
    bcec:	19008b16 	blt	r3,r4,bf1c <_dtoa_r+0x9b4>
    bcf0:	200490fa 	slli	r2,r4,3
    bcf4:	00c00374 	movhi	r3,13
    bcf8:	d9802217 	ldw	r6,136(sp)
    bcfc:	18c32204 	addi	r3,r3,3208
    bd00:	1885883a 	add	r2,r3,r2
    bd04:	14400017 	ldw	r17,0(r2)
    bd08:	15000117 	ldw	r20,4(r2)
    bd0c:	3001c716 	blt	r6,zero,c42c <_dtoa_r+0xec4>
    bd10:	880d883a 	mov	r6,r17
    bd14:	a00f883a 	mov	r7,r20
    bd18:	9009883a 	mov	r4,r18
    bd1c:	980b883a 	mov	r5,r19
    bd20:	00113480 	call	11348 <__divdf3>
    bd24:	180b883a 	mov	r5,r3
    bd28:	1009883a 	mov	r4,r2
    bd2c:	0012e4c0 	call	12e4c <__fixdfsi>
    bd30:	1009883a 	mov	r4,r2
    bd34:	102d883a 	mov	r22,r2
    bd38:	0012ed40 	call	12ed4 <__floatsidf>
    bd3c:	1009883a 	mov	r4,r2
    bd40:	180b883a 	mov	r5,r3
    bd44:	880d883a 	mov	r6,r17
    bd48:	a00f883a 	mov	r7,r20
    bd4c:	0011e580 	call	11e58 <__muldf3>
    bd50:	9009883a 	mov	r4,r18
    bd54:	980b883a 	mov	r5,r19
    bd58:	100d883a 	mov	r6,r2
    bd5c:	180f883a 	mov	r7,r3
    bd60:	001257c0 	call	1257c <__subdf3>
    bd64:	d9000717 	ldw	r4,28(sp)
    bd68:	d9800617 	ldw	r6,24(sp)
    bd6c:	180b883a 	mov	r5,r3
    bd70:	b0c00c04 	addi	r3,r22,48
    bd74:	20c00005 	stb	r3,0(r4)
    bd78:	25c00044 	addi	r23,r4,1
    bd7c:	01000044 	movi	r4,1
    bd80:	1011883a 	mov	r8,r2
    bd84:	2807883a 	mov	r3,r5
    bd88:	31003d26 	beq	r6,r4,be80 <_dtoa_r+0x918>
    bd8c:	000d883a 	mov	r6,zero
    bd90:	01d00934 	movhi	r7,16420
    bd94:	1009883a 	mov	r4,r2
    bd98:	0011e580 	call	11e58 <__muldf3>
    bd9c:	1009883a 	mov	r4,r2
    bda0:	180b883a 	mov	r5,r3
    bda4:	000d883a 	mov	r6,zero
    bda8:	000f883a 	mov	r7,zero
    bdac:	1027883a 	mov	r19,r2
    bdb0:	182b883a 	mov	r21,r3
    bdb4:	0011c140 	call	11c14 <__eqdf2>
    bdb8:	103f9926 	beq	r2,zero,bc20 <__alt_data_end+0xf800bc20>
    bdbc:	d8c00617 	ldw	r3,24(sp)
    bdc0:	d9000717 	ldw	r4,28(sp)
    bdc4:	b825883a 	mov	r18,r23
    bdc8:	18bfffc4 	addi	r2,r3,-1
    bdcc:	20ad883a 	add	r22,r4,r2
    bdd0:	dc000315 	stw	r16,12(sp)
    bdd4:	00000a06 	br	be00 <_dtoa_r+0x898>
    bdd8:	0011e580 	call	11e58 <__muldf3>
    bddc:	1009883a 	mov	r4,r2
    bde0:	180b883a 	mov	r5,r3
    bde4:	000d883a 	mov	r6,zero
    bde8:	000f883a 	mov	r7,zero
    bdec:	1027883a 	mov	r19,r2
    bdf0:	182b883a 	mov	r21,r3
    bdf4:	b825883a 	mov	r18,r23
    bdf8:	0011c140 	call	11c14 <__eqdf2>
    bdfc:	10022626 	beq	r2,zero,c698 <_dtoa_r+0x1130>
    be00:	880d883a 	mov	r6,r17
    be04:	a00f883a 	mov	r7,r20
    be08:	9809883a 	mov	r4,r19
    be0c:	a80b883a 	mov	r5,r21
    be10:	00113480 	call	11348 <__divdf3>
    be14:	180b883a 	mov	r5,r3
    be18:	1009883a 	mov	r4,r2
    be1c:	0012e4c0 	call	12e4c <__fixdfsi>
    be20:	1009883a 	mov	r4,r2
    be24:	1021883a 	mov	r16,r2
    be28:	0012ed40 	call	12ed4 <__floatsidf>
    be2c:	1009883a 	mov	r4,r2
    be30:	180b883a 	mov	r5,r3
    be34:	880d883a 	mov	r6,r17
    be38:	a00f883a 	mov	r7,r20
    be3c:	0011e580 	call	11e58 <__muldf3>
    be40:	9809883a 	mov	r4,r19
    be44:	a80b883a 	mov	r5,r21
    be48:	100d883a 	mov	r6,r2
    be4c:	180f883a 	mov	r7,r3
    be50:	001257c0 	call	1257c <__subdf3>
    be54:	82000c04 	addi	r8,r16,48
    be58:	92000005 	stb	r8,0(r18)
    be5c:	1009883a 	mov	r4,r2
    be60:	180b883a 	mov	r5,r3
    be64:	000d883a 	mov	r6,zero
    be68:	01d00934 	movhi	r7,16420
    be6c:	1011883a 	mov	r8,r2
    be70:	bdc00044 	addi	r23,r23,1
    be74:	95bfd81e 	bne	r18,r22,bdd8 <__alt_data_end+0xf800bdd8>
    be78:	802d883a 	mov	r22,r16
    be7c:	dc000317 	ldw	r16,12(sp)
    be80:	4009883a 	mov	r4,r8
    be84:	180b883a 	mov	r5,r3
    be88:	400d883a 	mov	r6,r8
    be8c:	180f883a 	mov	r7,r3
    be90:	0010aac0 	call	10aac <__adddf3>
    be94:	8809883a 	mov	r4,r17
    be98:	a00b883a 	mov	r5,r20
    be9c:	100d883a 	mov	r6,r2
    bea0:	180f883a 	mov	r7,r3
    bea4:	1027883a 	mov	r19,r2
    bea8:	1825883a 	mov	r18,r3
    beac:	0011d780 	call	11d78 <__ledf2>
    beb0:	10000816 	blt	r2,zero,bed4 <_dtoa_r+0x96c>
    beb4:	8809883a 	mov	r4,r17
    beb8:	a00b883a 	mov	r5,r20
    bebc:	980d883a 	mov	r6,r19
    bec0:	900f883a 	mov	r7,r18
    bec4:	0011c140 	call	11c14 <__eqdf2>
    bec8:	103f551e 	bne	r2,zero,bc20 <__alt_data_end+0xf800bc20>
    becc:	b580004c 	andi	r22,r22,1
    bed0:	b03f5326 	beq	r22,zero,bc20 <__alt_data_end+0xf800bc20>
    bed4:	bd7fffc3 	ldbu	r21,-1(r23)
    bed8:	b8bfffc4 	addi	r2,r23,-1
    bedc:	1007883a 	mov	r3,r2
    bee0:	01400e44 	movi	r5,57
    bee4:	d9800717 	ldw	r6,28(sp)
    bee8:	00000506 	br	bf00 <_dtoa_r+0x998>
    beec:	18ffffc4 	addi	r3,r3,-1
    bef0:	30825e26 	beq	r6,r2,c86c <_dtoa_r+0x1304>
    bef4:	1d400003 	ldbu	r21,0(r3)
    bef8:	102f883a 	mov	r23,r2
    befc:	10bfffc4 	addi	r2,r2,-1
    bf00:	a9003fcc 	andi	r4,r21,255
    bf04:	2100201c 	xori	r4,r4,128
    bf08:	213fe004 	addi	r4,r4,-128
    bf0c:	217ff726 	beq	r4,r5,beec <__alt_data_end+0xf800beec>
    bf10:	aa000044 	addi	r8,r21,1
    bf14:	12000005 	stb	r8,0(r2)
    bf18:	003f4106 	br	bc20 <__alt_data_end+0xf800bc20>
    bf1c:	d8c00b17 	ldw	r3,44(sp)
    bf20:	18006726 	beq	r3,zero,c0c0 <_dtoa_r+0xb58>
    bf24:	d9000317 	ldw	r4,12(sp)
    bf28:	00c00044 	movi	r3,1
    bf2c:	19016a0e 	bge	r3,r4,c4d8 <_dtoa_r+0xf70>
    bf30:	d8800617 	ldw	r2,24(sp)
    bf34:	d8c00917 	ldw	r3,36(sp)
    bf38:	157fffc4 	addi	r21,r2,-1
    bf3c:	1d420716 	blt	r3,r21,c75c <_dtoa_r+0x11f4>
    bf40:	1d6bc83a 	sub	r21,r3,r21
    bf44:	d8800617 	ldw	r2,24(sp)
    bf48:	1002c716 	blt	r2,zero,ca68 <_dtoa_r+0x1500>
    bf4c:	dd000817 	ldw	r20,32(sp)
    bf50:	d8800617 	ldw	r2,24(sp)
    bf54:	d9800817 	ldw	r6,32(sp)
    bf58:	8009883a 	mov	r4,r16
    bf5c:	01400044 	movi	r5,1
    bf60:	308d883a 	add	r6,r6,r2
    bf64:	d9800815 	stw	r6,32(sp)
    bf68:	b0ad883a 	add	r22,r22,r2
    bf6c:	000d7a40 	call	d7a4 <__i2b>
    bf70:	1023883a 	mov	r17,r2
    bf74:	a0000826 	beq	r20,zero,bf98 <_dtoa_r+0xa30>
    bf78:	0580070e 	bge	zero,r22,bf98 <_dtoa_r+0xa30>
    bf7c:	b005883a 	mov	r2,r22
    bf80:	a5812016 	blt	r20,r22,c404 <_dtoa_r+0xe9c>
    bf84:	d8c00817 	ldw	r3,32(sp)
    bf88:	a0a9c83a 	sub	r20,r20,r2
    bf8c:	b0adc83a 	sub	r22,r22,r2
    bf90:	1887c83a 	sub	r3,r3,r2
    bf94:	d8c00815 	stw	r3,32(sp)
    bf98:	d9000917 	ldw	r4,36(sp)
    bf9c:	0100140e 	bge	zero,r4,bff0 <_dtoa_r+0xa88>
    bfa0:	d9800b17 	ldw	r6,44(sp)
    bfa4:	3001e526 	beq	r6,zero,c73c <_dtoa_r+0x11d4>
    bfa8:	05400e0e 	bge	zero,r21,bfe4 <_dtoa_r+0xa7c>
    bfac:	880b883a 	mov	r5,r17
    bfb0:	8009883a 	mov	r4,r16
    bfb4:	a80d883a 	mov	r6,r21
    bfb8:	000d9dc0 	call	d9dc <__pow5mult>
    bfbc:	e00d883a 	mov	r6,fp
    bfc0:	8009883a 	mov	r4,r16
    bfc4:	100b883a 	mov	r5,r2
    bfc8:	1023883a 	mov	r17,r2
    bfcc:	000d7e00 	call	d7e0 <__multiply>
    bfd0:	102f883a 	mov	r23,r2
    bfd4:	e00b883a 	mov	r5,fp
    bfd8:	8009883a 	mov	r4,r16
    bfdc:	000d44c0 	call	d44c <_Bfree>
    bfe0:	b839883a 	mov	fp,r23
    bfe4:	d8800917 	ldw	r2,36(sp)
    bfe8:	154dc83a 	sub	r6,r2,r21
    bfec:	3001281e 	bne	r6,zero,c490 <_dtoa_r+0xf28>
    bff0:	05c00044 	movi	r23,1
    bff4:	8009883a 	mov	r4,r16
    bff8:	b80b883a 	mov	r5,r23
    bffc:	000d7a40 	call	d7a4 <__i2b>
    c000:	d8c00a17 	ldw	r3,40(sp)
    c004:	102b883a 	mov	r21,r2
    c008:	00c0310e 	bge	zero,r3,c0d0 <_dtoa_r+0xb68>
    c00c:	8009883a 	mov	r4,r16
    c010:	100b883a 	mov	r5,r2
    c014:	180d883a 	mov	r6,r3
    c018:	000d9dc0 	call	d9dc <__pow5mult>
    c01c:	d9000317 	ldw	r4,12(sp)
    c020:	102b883a 	mov	r21,r2
    c024:	b9011f0e 	bge	r23,r4,c4a4 <_dtoa_r+0xf3c>
    c028:	0027883a 	mov	r19,zero
    c02c:	a8800417 	ldw	r2,16(r21)
    c030:	10800104 	addi	r2,r2,4
    c034:	1085883a 	add	r2,r2,r2
    c038:	1085883a 	add	r2,r2,r2
    c03c:	a885883a 	add	r2,r21,r2
    c040:	11000017 	ldw	r4,0(r2)
    c044:	000d68c0 	call	d68c <__hi0bits>
    c048:	00c00804 	movi	r3,32
    c04c:	1885c83a 	sub	r2,r3,r2
    c050:	00002506 	br	c0e8 <_dtoa_r+0xb80>
    c054:	01800044 	movi	r6,1
    c058:	d9800c15 	stw	r6,48(sp)
    c05c:	003dec06 	br	b810 <__alt_data_end+0xf800b810>
    c060:	d8c00817 	ldw	r3,32(sp)
    c064:	d9000517 	ldw	r4,20(sp)
    c068:	d8000a15 	stw	zero,40(sp)
    c06c:	1907c83a 	sub	r3,r3,r4
    c070:	010dc83a 	sub	r6,zero,r4
    c074:	d8c00815 	stw	r3,32(sp)
    c078:	d9800915 	stw	r6,36(sp)
    c07c:	003ded06 	br	b834 <__alt_data_end+0xf800b834>
    c080:	05adc83a 	sub	r22,zero,r22
    c084:	dd800815 	stw	r22,32(sp)
    c088:	002d883a 	mov	r22,zero
    c08c:	003de406 	br	b820 <__alt_data_end+0xf800b820>
    c090:	d9000517 	ldw	r4,20(sp)
    c094:	0012ed40 	call	12ed4 <__floatsidf>
    c098:	1009883a 	mov	r4,r2
    c09c:	180b883a 	mov	r5,r3
    c0a0:	b00d883a 	mov	r6,r22
    c0a4:	a80f883a 	mov	r7,r21
    c0a8:	0011c140 	call	11c14 <__eqdf2>
    c0ac:	103dc726 	beq	r2,zero,b7cc <__alt_data_end+0xf800b7cc>
    c0b0:	d8800517 	ldw	r2,20(sp)
    c0b4:	10bfffc4 	addi	r2,r2,-1
    c0b8:	d8800515 	stw	r2,20(sp)
    c0bc:	003dc306 	br	b7cc <__alt_data_end+0xf800b7cc>
    c0c0:	dd400917 	ldw	r21,36(sp)
    c0c4:	dd000817 	ldw	r20,32(sp)
    c0c8:	0023883a 	mov	r17,zero
    c0cc:	003fa906 	br	bf74 <__alt_data_end+0xf800bf74>
    c0d0:	d9800317 	ldw	r6,12(sp)
    c0d4:	b981670e 	bge	r23,r6,c674 <_dtoa_r+0x110c>
    c0d8:	0027883a 	mov	r19,zero
    c0dc:	d8c00a17 	ldw	r3,40(sp)
    c0e0:	183fd21e 	bne	r3,zero,c02c <__alt_data_end+0xf800c02c>
    c0e4:	00800044 	movi	r2,1
    c0e8:	1585883a 	add	r2,r2,r22
    c0ec:	108007cc 	andi	r2,r2,31
    c0f0:	10005f26 	beq	r2,zero,c270 <_dtoa_r+0xd08>
    c0f4:	00c00804 	movi	r3,32
    c0f8:	1887c83a 	sub	r3,r3,r2
    c0fc:	01000104 	movi	r4,4
    c100:	20c2dd0e 	bge	r4,r3,cc78 <_dtoa_r+0x1710>
    c104:	d9000817 	ldw	r4,32(sp)
    c108:	00c00704 	movi	r3,28
    c10c:	1885c83a 	sub	r2,r3,r2
    c110:	2089883a 	add	r4,r4,r2
    c114:	d9000815 	stw	r4,32(sp)
    c118:	a0a9883a 	add	r20,r20,r2
    c11c:	b0ad883a 	add	r22,r22,r2
    c120:	d8800817 	ldw	r2,32(sp)
    c124:	0080050e 	bge	zero,r2,c13c <_dtoa_r+0xbd4>
    c128:	e00b883a 	mov	r5,fp
    c12c:	8009883a 	mov	r4,r16
    c130:	100d883a 	mov	r6,r2
    c134:	000db1c0 	call	db1c <__lshift>
    c138:	1039883a 	mov	fp,r2
    c13c:	0580050e 	bge	zero,r22,c154 <_dtoa_r+0xbec>
    c140:	a80b883a 	mov	r5,r21
    c144:	8009883a 	mov	r4,r16
    c148:	b00d883a 	mov	r6,r22
    c14c:	000db1c0 	call	db1c <__lshift>
    c150:	102b883a 	mov	r21,r2
    c154:	d8c00c17 	ldw	r3,48(sp)
    c158:	1801161e 	bne	r3,zero,c5b4 <_dtoa_r+0x104c>
    c15c:	d8c00617 	ldw	r3,24(sp)
    c160:	00c12d0e 	bge	zero,r3,c618 <_dtoa_r+0x10b0>
    c164:	d8c00b17 	ldw	r3,44(sp)
    c168:	1800571e 	bne	r3,zero,c2c8 <_dtoa_r+0xd60>
    c16c:	dc800717 	ldw	r18,28(sp)
    c170:	dcc00617 	ldw	r19,24(sp)
    c174:	9029883a 	mov	r20,r18
    c178:	00000206 	br	c184 <_dtoa_r+0xc1c>
    c17c:	000d4740 	call	d474 <__multadd>
    c180:	1039883a 	mov	fp,r2
    c184:	e009883a 	mov	r4,fp
    c188:	a80b883a 	mov	r5,r21
    c18c:	000b3680 	call	b368 <quorem>
    c190:	10800c04 	addi	r2,r2,48
    c194:	90800005 	stb	r2,0(r18)
    c198:	94800044 	addi	r18,r18,1
    c19c:	9507c83a 	sub	r3,r18,r20
    c1a0:	8009883a 	mov	r4,r16
    c1a4:	e00b883a 	mov	r5,fp
    c1a8:	01800284 	movi	r6,10
    c1ac:	000f883a 	mov	r7,zero
    c1b0:	1cfff216 	blt	r3,r19,c17c <__alt_data_end+0xf800c17c>
    c1b4:	1011883a 	mov	r8,r2
    c1b8:	d8800617 	ldw	r2,24(sp)
    c1bc:	00822e0e 	bge	zero,r2,ca78 <_dtoa_r+0x1510>
    c1c0:	d9000717 	ldw	r4,28(sp)
    c1c4:	0025883a 	mov	r18,zero
    c1c8:	20af883a 	add	r23,r4,r2
    c1cc:	e00b883a 	mov	r5,fp
    c1d0:	01800044 	movi	r6,1
    c1d4:	8009883a 	mov	r4,r16
    c1d8:	da001715 	stw	r8,92(sp)
    c1dc:	000db1c0 	call	db1c <__lshift>
    c1e0:	1009883a 	mov	r4,r2
    c1e4:	a80b883a 	mov	r5,r21
    c1e8:	1039883a 	mov	fp,r2
    c1ec:	000dc640 	call	dc64 <__mcmp>
    c1f0:	da001717 	ldw	r8,92(sp)
    c1f4:	00816e0e 	bge	zero,r2,c7b0 <_dtoa_r+0x1248>
    c1f8:	b93fffc3 	ldbu	r4,-1(r23)
    c1fc:	b8bfffc4 	addi	r2,r23,-1
    c200:	1007883a 	mov	r3,r2
    c204:	01800e44 	movi	r6,57
    c208:	d9c00717 	ldw	r7,28(sp)
    c20c:	00000506 	br	c224 <_dtoa_r+0xcbc>
    c210:	18ffffc4 	addi	r3,r3,-1
    c214:	38811926 	beq	r7,r2,c67c <_dtoa_r+0x1114>
    c218:	19000003 	ldbu	r4,0(r3)
    c21c:	102f883a 	mov	r23,r2
    c220:	10bfffc4 	addi	r2,r2,-1
    c224:	21403fcc 	andi	r5,r4,255
    c228:	2940201c 	xori	r5,r5,128
    c22c:	297fe004 	addi	r5,r5,-128
    c230:	29bff726 	beq	r5,r6,c210 <__alt_data_end+0xf800c210>
    c234:	21000044 	addi	r4,r4,1
    c238:	11000005 	stb	r4,0(r2)
    c23c:	8009883a 	mov	r4,r16
    c240:	a80b883a 	mov	r5,r21
    c244:	000d44c0 	call	d44c <_Bfree>
    c248:	883e7526 	beq	r17,zero,bc20 <__alt_data_end+0xf800bc20>
    c24c:	90000426 	beq	r18,zero,c260 <_dtoa_r+0xcf8>
    c250:	94400326 	beq	r18,r17,c260 <_dtoa_r+0xcf8>
    c254:	8009883a 	mov	r4,r16
    c258:	900b883a 	mov	r5,r18
    c25c:	000d44c0 	call	d44c <_Bfree>
    c260:	8009883a 	mov	r4,r16
    c264:	880b883a 	mov	r5,r17
    c268:	000d44c0 	call	d44c <_Bfree>
    c26c:	003e6c06 	br	bc20 <__alt_data_end+0xf800bc20>
    c270:	00800704 	movi	r2,28
    c274:	d9800817 	ldw	r6,32(sp)
    c278:	a0a9883a 	add	r20,r20,r2
    c27c:	b0ad883a 	add	r22,r22,r2
    c280:	308d883a 	add	r6,r6,r2
    c284:	d9800815 	stw	r6,32(sp)
    c288:	003fa506 	br	c120 <__alt_data_end+0xf800c120>
    c28c:	013efb84 	movi	r4,-1042
    c290:	246bc83a 	sub	r21,r4,r17
    c294:	9548983a 	sll	r4,r18,r21
    c298:	003d1806 	br	b6fc <__alt_data_end+0xf800b6fc>
    c29c:	d8000c15 	stw	zero,48(sp)
    c2a0:	003d5b06 	br	b810 <__alt_data_end+0xf800b810>
    c2a4:	880b883a 	mov	r5,r17
    c2a8:	8009883a 	mov	r4,r16
    c2ac:	01800284 	movi	r6,10
    c2b0:	000f883a 	mov	r7,zero
    c2b4:	000d4740 	call	d474 <__multadd>
    c2b8:	1023883a 	mov	r17,r2
    c2bc:	d8800d17 	ldw	r2,52(sp)
    c2c0:	0082550e 	bge	zero,r2,cc18 <_dtoa_r+0x16b0>
    c2c4:	d8800615 	stw	r2,24(sp)
    c2c8:	0500050e 	bge	zero,r20,c2e0 <_dtoa_r+0xd78>
    c2cc:	880b883a 	mov	r5,r17
    c2d0:	8009883a 	mov	r4,r16
    c2d4:	a00d883a 	mov	r6,r20
    c2d8:	000db1c0 	call	db1c <__lshift>
    c2dc:	1023883a 	mov	r17,r2
    c2e0:	98016a1e 	bne	r19,zero,c88c <_dtoa_r+0x1324>
    c2e4:	8829883a 	mov	r20,r17
    c2e8:	d9000617 	ldw	r4,24(sp)
    c2ec:	dcc00717 	ldw	r19,28(sp)
    c2f0:	9480004c 	andi	r18,r18,1
    c2f4:	20bfffc4 	addi	r2,r4,-1
    c2f8:	9885883a 	add	r2,r19,r2
    c2fc:	d8800415 	stw	r2,16(sp)
    c300:	dc800615 	stw	r18,24(sp)
    c304:	e009883a 	mov	r4,fp
    c308:	a80b883a 	mov	r5,r21
    c30c:	000b3680 	call	b368 <quorem>
    c310:	e009883a 	mov	r4,fp
    c314:	880b883a 	mov	r5,r17
    c318:	102f883a 	mov	r23,r2
    c31c:	000dc640 	call	dc64 <__mcmp>
    c320:	8009883a 	mov	r4,r16
    c324:	a80b883a 	mov	r5,r21
    c328:	a00d883a 	mov	r6,r20
    c32c:	102d883a 	mov	r22,r2
    c330:	000dcc40 	call	dcc4 <__mdiff>
    c334:	1007883a 	mov	r3,r2
    c338:	10800317 	ldw	r2,12(r2)
    c33c:	bc800c04 	addi	r18,r23,48
    c340:	1000971e 	bne	r2,zero,c5a0 <_dtoa_r+0x1038>
    c344:	180b883a 	mov	r5,r3
    c348:	e009883a 	mov	r4,fp
    c34c:	d8c01515 	stw	r3,84(sp)
    c350:	000dc640 	call	dc64 <__mcmp>
    c354:	d8c01517 	ldw	r3,84(sp)
    c358:	8009883a 	mov	r4,r16
    c35c:	d8801515 	stw	r2,84(sp)
    c360:	180b883a 	mov	r5,r3
    c364:	000d44c0 	call	d44c <_Bfree>
    c368:	d8801517 	ldw	r2,84(sp)
    c36c:	1000041e 	bne	r2,zero,c380 <_dtoa_r+0xe18>
    c370:	d9800317 	ldw	r6,12(sp)
    c374:	3000021e 	bne	r6,zero,c380 <_dtoa_r+0xe18>
    c378:	d8c00617 	ldw	r3,24(sp)
    c37c:	18007626 	beq	r3,zero,c558 <_dtoa_r+0xff0>
    c380:	b0005b16 	blt	r22,zero,c4f0 <_dtoa_r+0xf88>
    c384:	b000041e 	bne	r22,zero,c398 <_dtoa_r+0xe30>
    c388:	d9000317 	ldw	r4,12(sp)
    c38c:	2000021e 	bne	r4,zero,c398 <_dtoa_r+0xe30>
    c390:	d8c00617 	ldw	r3,24(sp)
    c394:	18005626 	beq	r3,zero,c4f0 <_dtoa_r+0xf88>
    c398:	00814d16 	blt	zero,r2,c8d0 <_dtoa_r+0x1368>
    c39c:	d8c00417 	ldw	r3,16(sp)
    c3a0:	9d800044 	addi	r22,r19,1
    c3a4:	9c800005 	stb	r18,0(r19)
    c3a8:	b02f883a 	mov	r23,r22
    c3ac:	98c14c26 	beq	r19,r3,c8e0 <_dtoa_r+0x1378>
    c3b0:	e00b883a 	mov	r5,fp
    c3b4:	8009883a 	mov	r4,r16
    c3b8:	01800284 	movi	r6,10
    c3bc:	000f883a 	mov	r7,zero
    c3c0:	000d4740 	call	d474 <__multadd>
    c3c4:	1039883a 	mov	fp,r2
    c3c8:	8d006d26 	beq	r17,r20,c580 <_dtoa_r+0x1018>
    c3cc:	880b883a 	mov	r5,r17
    c3d0:	01800284 	movi	r6,10
    c3d4:	000f883a 	mov	r7,zero
    c3d8:	8009883a 	mov	r4,r16
    c3dc:	000d4740 	call	d474 <__multadd>
    c3e0:	a00b883a 	mov	r5,r20
    c3e4:	8009883a 	mov	r4,r16
    c3e8:	01800284 	movi	r6,10
    c3ec:	000f883a 	mov	r7,zero
    c3f0:	1023883a 	mov	r17,r2
    c3f4:	000d4740 	call	d474 <__multadd>
    c3f8:	1029883a 	mov	r20,r2
    c3fc:	b027883a 	mov	r19,r22
    c400:	003fc006 	br	c304 <__alt_data_end+0xf800c304>
    c404:	a005883a 	mov	r2,r20
    c408:	003ede06 	br	bf84 <__alt_data_end+0xf800bf84>
    c40c:	01000044 	movi	r4,1
    c410:	d9000b15 	stw	r4,44(sp)
    c414:	d9802217 	ldw	r6,136(sp)
    c418:	0180dc0e 	bge	zero,r6,c78c <_dtoa_r+0x1224>
    c41c:	3023883a 	mov	r17,r6
    c420:	d9800d15 	stw	r6,52(sp)
    c424:	d9800615 	stw	r6,24(sp)
    c428:	003d1e06 	br	b8a4 <__alt_data_end+0xf800b8a4>
    c42c:	d8800617 	ldw	r2,24(sp)
    c430:	00be3716 	blt	zero,r2,bd10 <__alt_data_end+0xf800bd10>
    c434:	1000be1e 	bne	r2,zero,c730 <_dtoa_r+0x11c8>
    c438:	8809883a 	mov	r4,r17
    c43c:	a00b883a 	mov	r5,r20
    c440:	000d883a 	mov	r6,zero
    c444:	01d00534 	movhi	r7,16404
    c448:	0011e580 	call	11e58 <__muldf3>
    c44c:	1009883a 	mov	r4,r2
    c450:	180b883a 	mov	r5,r3
    c454:	900d883a 	mov	r6,r18
    c458:	980f883a 	mov	r7,r19
    c45c:	0011c980 	call	11c98 <__gedf2>
    c460:	002b883a 	mov	r21,zero
    c464:	0023883a 	mov	r17,zero
    c468:	10007a16 	blt	r2,zero,c654 <_dtoa_r+0x10ec>
    c46c:	d9002217 	ldw	r4,136(sp)
    c470:	ddc00717 	ldw	r23,28(sp)
    c474:	0108303a 	nor	r4,zero,r4
    c478:	d9000515 	stw	r4,20(sp)
    c47c:	8009883a 	mov	r4,r16
    c480:	a80b883a 	mov	r5,r21
    c484:	000d44c0 	call	d44c <_Bfree>
    c488:	883f751e 	bne	r17,zero,c260 <__alt_data_end+0xf800c260>
    c48c:	003de406 	br	bc20 <__alt_data_end+0xf800bc20>
    c490:	e00b883a 	mov	r5,fp
    c494:	8009883a 	mov	r4,r16
    c498:	000d9dc0 	call	d9dc <__pow5mult>
    c49c:	1039883a 	mov	fp,r2
    c4a0:	003ed306 	br	bff0 <__alt_data_end+0xf800bff0>
    c4a4:	903ee01e 	bne	r18,zero,c028 <__alt_data_end+0xf800c028>
    c4a8:	00800434 	movhi	r2,16
    c4ac:	10bfffc4 	addi	r2,r2,-1
    c4b0:	9884703a 	and	r2,r19,r2
    c4b4:	103f081e 	bne	r2,zero,c0d8 <__alt_data_end+0xf800c0d8>
    c4b8:	9cdffc2c 	andhi	r19,r19,32752
    c4bc:	983f0626 	beq	r19,zero,c0d8 <__alt_data_end+0xf800c0d8>
    c4c0:	d8800817 	ldw	r2,32(sp)
    c4c4:	b5800044 	addi	r22,r22,1
    c4c8:	04c00044 	movi	r19,1
    c4cc:	10800044 	addi	r2,r2,1
    c4d0:	d8800815 	stw	r2,32(sp)
    c4d4:	003f0106 	br	c0dc <__alt_data_end+0xf800c0dc>
    c4d8:	d9800f17 	ldw	r6,60(sp)
    c4dc:	30016826 	beq	r6,zero,ca80 <_dtoa_r+0x1518>
    c4e0:	10810cc4 	addi	r2,r2,1075
    c4e4:	dd400917 	ldw	r21,36(sp)
    c4e8:	dd000817 	ldw	r20,32(sp)
    c4ec:	003e9906 	br	bf54 <__alt_data_end+0xf800bf54>
    c4f0:	9011883a 	mov	r8,r18
    c4f4:	4007883a 	mov	r3,r8
    c4f8:	e02d883a 	mov	r22,fp
    c4fc:	0080100e 	bge	zero,r2,c540 <_dtoa_r+0xfd8>
    c500:	01800044 	movi	r6,1
    c504:	8009883a 	mov	r4,r16
    c508:	e00b883a 	mov	r5,fp
    c50c:	da001515 	stw	r8,84(sp)
    c510:	da001715 	stw	r8,92(sp)
    c514:	000db1c0 	call	db1c <__lshift>
    c518:	1009883a 	mov	r4,r2
    c51c:	a80b883a 	mov	r5,r21
    c520:	102d883a 	mov	r22,r2
    c524:	000dc640 	call	dc64 <__mcmp>
    c528:	d8c01517 	ldw	r3,84(sp)
    c52c:	da001717 	ldw	r8,92(sp)
    c530:	0081a50e 	bge	zero,r2,cbc8 <_dtoa_r+0x1660>
    c534:	00800e44 	movi	r2,57
    c538:	40817b26 	beq	r8,r2,cb28 <_dtoa_r+0x15c0>
    c53c:	40c00044 	addi	r3,r8,1
    c540:	8825883a 	mov	r18,r17
    c544:	9dc00044 	addi	r23,r19,1
    c548:	98c00005 	stb	r3,0(r19)
    c54c:	a023883a 	mov	r17,r20
    c550:	b039883a 	mov	fp,r22
    c554:	003f3906 	br	c23c <__alt_data_end+0xf800c23c>
    c558:	00800e44 	movi	r2,57
    c55c:	9011883a 	mov	r8,r18
    c560:	90817226 	beq	r18,r2,cb2c <_dtoa_r+0x15c4>
    c564:	0580010e 	bge	zero,r22,c56c <_dtoa_r+0x1004>
    c568:	ba000c44 	addi	r8,r23,49
    c56c:	8825883a 	mov	r18,r17
    c570:	9dc00044 	addi	r23,r19,1
    c574:	9a000005 	stb	r8,0(r19)
    c578:	a023883a 	mov	r17,r20
    c57c:	003f2f06 	br	c23c <__alt_data_end+0xf800c23c>
    c580:	880b883a 	mov	r5,r17
    c584:	8009883a 	mov	r4,r16
    c588:	01800284 	movi	r6,10
    c58c:	000f883a 	mov	r7,zero
    c590:	000d4740 	call	d474 <__multadd>
    c594:	1023883a 	mov	r17,r2
    c598:	1029883a 	mov	r20,r2
    c59c:	003f9706 	br	c3fc <__alt_data_end+0xf800c3fc>
    c5a0:	8009883a 	mov	r4,r16
    c5a4:	180b883a 	mov	r5,r3
    c5a8:	000d44c0 	call	d44c <_Bfree>
    c5ac:	00800044 	movi	r2,1
    c5b0:	003f7306 	br	c380 <__alt_data_end+0xf800c380>
    c5b4:	e009883a 	mov	r4,fp
    c5b8:	a80b883a 	mov	r5,r21
    c5bc:	000dc640 	call	dc64 <__mcmp>
    c5c0:	103ee60e 	bge	r2,zero,c15c <__alt_data_end+0xf800c15c>
    c5c4:	8009883a 	mov	r4,r16
    c5c8:	e00b883a 	mov	r5,fp
    c5cc:	01800284 	movi	r6,10
    c5d0:	000f883a 	mov	r7,zero
    c5d4:	000d4740 	call	d474 <__multadd>
    c5d8:	d9000517 	ldw	r4,20(sp)
    c5dc:	d9800b17 	ldw	r6,44(sp)
    c5e0:	1039883a 	mov	fp,r2
    c5e4:	213fffc4 	addi	r4,r4,-1
    c5e8:	d9000515 	stw	r4,20(sp)
    c5ec:	303f2d1e 	bne	r6,zero,c2a4 <__alt_data_end+0xf800c2a4>
    c5f0:	d9000d17 	ldw	r4,52(sp)
    c5f4:	0101780e 	bge	zero,r4,cbd8 <_dtoa_r+0x1670>
    c5f8:	d9000615 	stw	r4,24(sp)
    c5fc:	003edb06 	br	c16c <__alt_data_end+0xf800c16c>
    c600:	00800084 	movi	r2,2
    c604:	30818e1e 	bne	r6,r2,cc40 <_dtoa_r+0x16d8>
    c608:	d8000b15 	stw	zero,44(sp)
    c60c:	003f8106 	br	c414 <__alt_data_end+0xf800c414>
    c610:	d8800717 	ldw	r2,28(sp)
    c614:	003c0306 	br	b624 <__alt_data_end+0xf800b624>
    c618:	d9000317 	ldw	r4,12(sp)
    c61c:	00800084 	movi	r2,2
    c620:	113ed00e 	bge	r2,r4,c164 <__alt_data_end+0xf800c164>
    c624:	d8c00617 	ldw	r3,24(sp)
    c628:	183f901e 	bne	r3,zero,c46c <__alt_data_end+0xf800c46c>
    c62c:	a80b883a 	mov	r5,r21
    c630:	8009883a 	mov	r4,r16
    c634:	01800144 	movi	r6,5
    c638:	000f883a 	mov	r7,zero
    c63c:	000d4740 	call	d474 <__multadd>
    c640:	e009883a 	mov	r4,fp
    c644:	100b883a 	mov	r5,r2
    c648:	102b883a 	mov	r21,r2
    c64c:	000dc640 	call	dc64 <__mcmp>
    c650:	00bf860e 	bge	zero,r2,c46c <__alt_data_end+0xf800c46c>
    c654:	d9800717 	ldw	r6,28(sp)
    c658:	00800c44 	movi	r2,49
    c65c:	30800005 	stb	r2,0(r6)
    c660:	d8800517 	ldw	r2,20(sp)
    c664:	35c00044 	addi	r23,r6,1
    c668:	10800044 	addi	r2,r2,1
    c66c:	d8800515 	stw	r2,20(sp)
    c670:	003f8206 	br	c47c <__alt_data_end+0xf800c47c>
    c674:	903e981e 	bne	r18,zero,c0d8 <__alt_data_end+0xf800c0d8>
    c678:	003f8b06 	br	c4a8 <__alt_data_end+0xf800c4a8>
    c67c:	d9800517 	ldw	r6,20(sp)
    c680:	d8c00717 	ldw	r3,28(sp)
    c684:	00800c44 	movi	r2,49
    c688:	31800044 	addi	r6,r6,1
    c68c:	d9800515 	stw	r6,20(sp)
    c690:	18800005 	stb	r2,0(r3)
    c694:	003ee906 	br	c23c <__alt_data_end+0xf800c23c>
    c698:	dc000317 	ldw	r16,12(sp)
    c69c:	003d6006 	br	bc20 <__alt_data_end+0xf800bc20>
    c6a0:	8809883a 	mov	r4,r17
    c6a4:	0012ed40 	call	12ed4 <__floatsidf>
    c6a8:	a009883a 	mov	r4,r20
    c6ac:	a80b883a 	mov	r5,r21
    c6b0:	100d883a 	mov	r6,r2
    c6b4:	180f883a 	mov	r7,r3
    c6b8:	0011e580 	call	11e58 <__muldf3>
    c6bc:	1009883a 	mov	r4,r2
    c6c0:	180b883a 	mov	r5,r3
    c6c4:	000d883a 	mov	r6,zero
    c6c8:	01d00734 	movhi	r7,16412
    c6cc:	0010aac0 	call	10aac <__adddf3>
    c6d0:	1023883a 	mov	r17,r2
    c6d4:	00bf3034 	movhi	r2,64704
    c6d8:	1885883a 	add	r2,r3,r2
    c6dc:	d8800e15 	stw	r2,56(sp)
    c6e0:	a009883a 	mov	r4,r20
    c6e4:	a80b883a 	mov	r5,r21
    c6e8:	000d883a 	mov	r6,zero
    c6ec:	01d00534 	movhi	r7,16404
    c6f0:	001257c0 	call	1257c <__subdf3>
    c6f4:	d9c00e17 	ldw	r7,56(sp)
    c6f8:	1009883a 	mov	r4,r2
    c6fc:	180b883a 	mov	r5,r3
    c700:	880d883a 	mov	r6,r17
    c704:	102b883a 	mov	r21,r2
    c708:	1829883a 	mov	r20,r3
    c70c:	0011c980 	call	11c98 <__gedf2>
    c710:	00807716 	blt	zero,r2,c8f0 <_dtoa_r+0x1388>
    c714:	d8800e17 	ldw	r2,56(sp)
    c718:	a809883a 	mov	r4,r21
    c71c:	a00b883a 	mov	r5,r20
    c720:	11e0003c 	xorhi	r7,r2,32768
    c724:	880d883a 	mov	r6,r17
    c728:	0011d780 	call	11d78 <__ledf2>
    c72c:	103d6b0e 	bge	r2,zero,bcdc <__alt_data_end+0xf800bcdc>
    c730:	002b883a 	mov	r21,zero
    c734:	0023883a 	mov	r17,zero
    c738:	003f4c06 	br	c46c <__alt_data_end+0xf800c46c>
    c73c:	d9800917 	ldw	r6,36(sp)
    c740:	e00b883a 	mov	r5,fp
    c744:	8009883a 	mov	r4,r16
    c748:	000d9dc0 	call	d9dc <__pow5mult>
    c74c:	1039883a 	mov	fp,r2
    c750:	003e2706 	br	bff0 <__alt_data_end+0xf800bff0>
    c754:	d8000b15 	stw	zero,44(sp)
    c758:	003c4906 	br	b880 <__alt_data_end+0xf800b880>
    c75c:	d9000917 	ldw	r4,36(sp)
    c760:	d9800a17 	ldw	r6,40(sp)
    c764:	dd400915 	stw	r21,36(sp)
    c768:	a905c83a 	sub	r2,r21,r4
    c76c:	308d883a 	add	r6,r6,r2
    c770:	d9800a15 	stw	r6,40(sp)
    c774:	002b883a 	mov	r21,zero
    c778:	003df206 	br	bf44 <__alt_data_end+0xf800bf44>
    c77c:	dc800e15 	stw	r18,56(sp)
    c780:	982b883a 	mov	r21,r19
    c784:	04400084 	movi	r17,2
    c788:	003c7406 	br	b95c <__alt_data_end+0xf800b95c>
    c78c:	04400044 	movi	r17,1
    c790:	dc400d15 	stw	r17,52(sp)
    c794:	dc400615 	stw	r17,24(sp)
    c798:	dc402215 	stw	r17,136(sp)
    c79c:	80001115 	stw	zero,68(r16)
    c7a0:	000b883a 	mov	r5,zero
    c7a4:	003c4a06 	br	b8d0 <__alt_data_end+0xf800b8d0>
    c7a8:	3023883a 	mov	r17,r6
    c7ac:	003ffb06 	br	c79c <__alt_data_end+0xf800c79c>
    c7b0:	1000021e 	bne	r2,zero,c7bc <_dtoa_r+0x1254>
    c7b4:	4200004c 	andi	r8,r8,1
    c7b8:	403e8f1e 	bne	r8,zero,c1f8 <__alt_data_end+0xf800c1f8>
    c7bc:	01000c04 	movi	r4,48
    c7c0:	00000106 	br	c7c8 <_dtoa_r+0x1260>
    c7c4:	102f883a 	mov	r23,r2
    c7c8:	b8bfffc4 	addi	r2,r23,-1
    c7cc:	10c00007 	ldb	r3,0(r2)
    c7d0:	193ffc26 	beq	r3,r4,c7c4 <__alt_data_end+0xf800c7c4>
    c7d4:	003e9906 	br	c23c <__alt_data_end+0xf800c23c>
    c7d8:	d9000517 	ldw	r4,20(sp)
    c7dc:	012fc83a 	sub	r23,zero,r4
    c7e0:	b800ad26 	beq	r23,zero,ca98 <_dtoa_r+0x1530>
    c7e4:	b88003cc 	andi	r2,r23,15
    c7e8:	100490fa 	slli	r2,r2,3
    c7ec:	00c00374 	movhi	r3,13
    c7f0:	18c32204 	addi	r3,r3,3208
    c7f4:	1885883a 	add	r2,r3,r2
    c7f8:	11800017 	ldw	r6,0(r2)
    c7fc:	11c00117 	ldw	r7,4(r2)
    c800:	b82fd13a 	srai	r23,r23,4
    c804:	9009883a 	mov	r4,r18
    c808:	980b883a 	mov	r5,r19
    c80c:	0011e580 	call	11e58 <__muldf3>
    c810:	1029883a 	mov	r20,r2
    c814:	182b883a 	mov	r21,r3
    c818:	b800f426 	beq	r23,zero,cbec <_dtoa_r+0x1684>
    c81c:	02000374 	movhi	r8,13
    c820:	42031804 	addi	r8,r8,3168
    c824:	8029883a 	mov	r20,r16
    c828:	04400084 	movi	r17,2
    c82c:	4021883a 	mov	r16,r8
    c830:	b980004c 	andi	r6,r23,1
    c834:	1009883a 	mov	r4,r2
    c838:	b82fd07a 	srai	r23,r23,1
    c83c:	180b883a 	mov	r5,r3
    c840:	30000426 	beq	r6,zero,c854 <_dtoa_r+0x12ec>
    c844:	81800017 	ldw	r6,0(r16)
    c848:	81c00117 	ldw	r7,4(r16)
    c84c:	8c400044 	addi	r17,r17,1
    c850:	0011e580 	call	11e58 <__muldf3>
    c854:	84000204 	addi	r16,r16,8
    c858:	b83ff51e 	bne	r23,zero,c830 <__alt_data_end+0xf800c830>
    c85c:	a021883a 	mov	r16,r20
    c860:	182b883a 	mov	r21,r3
    c864:	1029883a 	mov	r20,r2
    c868:	003c5506 	br	b9c0 <__alt_data_end+0xf800b9c0>
    c86c:	d9800517 	ldw	r6,20(sp)
    c870:	d9000717 	ldw	r4,28(sp)
    c874:	00c00c04 	movi	r3,48
    c878:	31800044 	addi	r6,r6,1
    c87c:	d9800515 	stw	r6,20(sp)
    c880:	20c00005 	stb	r3,0(r4)
    c884:	02000c44 	movi	r8,49
    c888:	003da206 	br	bf14 <__alt_data_end+0xf800bf14>
    c88c:	89400117 	ldw	r5,4(r17)
    c890:	8009883a 	mov	r4,r16
    c894:	000d3a40 	call	d3a4 <_Balloc>
    c898:	89800417 	ldw	r6,16(r17)
    c89c:	11000304 	addi	r4,r2,12
    c8a0:	89400304 	addi	r5,r17,12
    c8a4:	31800084 	addi	r6,r6,2
    c8a8:	318d883a 	add	r6,r6,r6
    c8ac:	318d883a 	add	r6,r6,r6
    c8b0:	1027883a 	mov	r19,r2
    c8b4:	000d26c0 	call	d26c <memcpy>
    c8b8:	8009883a 	mov	r4,r16
    c8bc:	980b883a 	mov	r5,r19
    c8c0:	01800044 	movi	r6,1
    c8c4:	000db1c0 	call	db1c <__lshift>
    c8c8:	1029883a 	mov	r20,r2
    c8cc:	003e8606 	br	c2e8 <__alt_data_end+0xf800c2e8>
    c8d0:	00800e44 	movi	r2,57
    c8d4:	90809526 	beq	r18,r2,cb2c <_dtoa_r+0x15c4>
    c8d8:	92000044 	addi	r8,r18,1
    c8dc:	003f2306 	br	c56c <__alt_data_end+0xf800c56c>
    c8e0:	9011883a 	mov	r8,r18
    c8e4:	8825883a 	mov	r18,r17
    c8e8:	a023883a 	mov	r17,r20
    c8ec:	003e3706 	br	c1cc <__alt_data_end+0xf800c1cc>
    c8f0:	002b883a 	mov	r21,zero
    c8f4:	0023883a 	mov	r17,zero
    c8f8:	003f5606 	br	c654 <__alt_data_end+0xf800c654>
    c8fc:	51bfffc4 	addi	r6,r10,-1
    c900:	300490fa 	slli	r2,r6,3
    c904:	00c00374 	movhi	r3,13
    c908:	18c32204 	addi	r3,r3,3208
    c90c:	1885883a 	add	r2,r3,r2
    c910:	d9c00e17 	ldw	r7,56(sp)
    c914:	11000017 	ldw	r4,0(r2)
    c918:	11400117 	ldw	r5,4(r2)
    c91c:	d8800717 	ldw	r2,28(sp)
    c920:	d9801015 	stw	r6,64(sp)
    c924:	880d883a 	mov	r6,r17
    c928:	da801615 	stw	r10,88(sp)
    c92c:	15c00044 	addi	r23,r2,1
    c930:	0011e580 	call	11e58 <__muldf3>
    c934:	a80b883a 	mov	r5,r21
    c938:	a009883a 	mov	r4,r20
    c93c:	d8c01115 	stw	r3,68(sp)
    c940:	d8800e15 	stw	r2,56(sp)
    c944:	0012e4c0 	call	12e4c <__fixdfsi>
    c948:	1009883a 	mov	r4,r2
    c94c:	1023883a 	mov	r17,r2
    c950:	0012ed40 	call	12ed4 <__floatsidf>
    c954:	a009883a 	mov	r4,r20
    c958:	a80b883a 	mov	r5,r21
    c95c:	100d883a 	mov	r6,r2
    c960:	180f883a 	mov	r7,r3
    c964:	001257c0 	call	1257c <__subdf3>
    c968:	1813883a 	mov	r9,r3
    c96c:	d8c00717 	ldw	r3,28(sp)
    c970:	8c400c04 	addi	r17,r17,48
    c974:	1011883a 	mov	r8,r2
    c978:	1c400005 	stb	r17,0(r3)
    c97c:	da801617 	ldw	r10,88(sp)
    c980:	00800044 	movi	r2,1
    c984:	50802326 	beq	r10,r2,ca14 <_dtoa_r+0x14ac>
    c988:	d8800717 	ldw	r2,28(sp)
    c98c:	b82b883a 	mov	r21,r23
    c990:	dc001315 	stw	r16,76(sp)
    c994:	12a9883a 	add	r20,r2,r10
    c998:	4807883a 	mov	r3,r9
    c99c:	4005883a 	mov	r2,r8
    c9a0:	dc801415 	stw	r18,80(sp)
    c9a4:	000d883a 	mov	r6,zero
    c9a8:	01d00934 	movhi	r7,16420
    c9ac:	1009883a 	mov	r4,r2
    c9b0:	180b883a 	mov	r5,r3
    c9b4:	0011e580 	call	11e58 <__muldf3>
    c9b8:	180b883a 	mov	r5,r3
    c9bc:	1009883a 	mov	r4,r2
    c9c0:	1821883a 	mov	r16,r3
    c9c4:	1025883a 	mov	r18,r2
    c9c8:	0012e4c0 	call	12e4c <__fixdfsi>
    c9cc:	1009883a 	mov	r4,r2
    c9d0:	1023883a 	mov	r17,r2
    c9d4:	0012ed40 	call	12ed4 <__floatsidf>
    c9d8:	9009883a 	mov	r4,r18
    c9dc:	800b883a 	mov	r5,r16
    c9e0:	100d883a 	mov	r6,r2
    c9e4:	180f883a 	mov	r7,r3
    c9e8:	8c400c04 	addi	r17,r17,48
    c9ec:	001257c0 	call	1257c <__subdf3>
    c9f0:	ad400044 	addi	r21,r21,1
    c9f4:	ac7fffc5 	stb	r17,-1(r21)
    c9f8:	ad3fea1e 	bne	r21,r20,c9a4 <__alt_data_end+0xf800c9a4>
    c9fc:	1813883a 	mov	r9,r3
    ca00:	d8c01017 	ldw	r3,64(sp)
    ca04:	dc001317 	ldw	r16,76(sp)
    ca08:	dc801417 	ldw	r18,80(sp)
    ca0c:	1011883a 	mov	r8,r2
    ca10:	b8ef883a 	add	r23,r23,r3
    ca14:	d9000e17 	ldw	r4,56(sp)
    ca18:	d9401117 	ldw	r5,68(sp)
    ca1c:	000d883a 	mov	r6,zero
    ca20:	01cff834 	movhi	r7,16352
    ca24:	da001715 	stw	r8,92(sp)
    ca28:	da401515 	stw	r9,84(sp)
    ca2c:	0010aac0 	call	10aac <__adddf3>
    ca30:	da001717 	ldw	r8,92(sp)
    ca34:	da401517 	ldw	r9,84(sp)
    ca38:	1009883a 	mov	r4,r2
    ca3c:	400d883a 	mov	r6,r8
    ca40:	480f883a 	mov	r7,r9
    ca44:	180b883a 	mov	r5,r3
    ca48:	0011d780 	call	11d78 <__ledf2>
    ca4c:	da001717 	ldw	r8,92(sp)
    ca50:	da401517 	ldw	r9,84(sp)
    ca54:	10003b0e 	bge	r2,zero,cb44 <_dtoa_r+0x15dc>
    ca58:	d9001217 	ldw	r4,72(sp)
    ca5c:	bd7fffc3 	ldbu	r21,-1(r23)
    ca60:	d9000515 	stw	r4,20(sp)
    ca64:	003d1c06 	br	bed8 <__alt_data_end+0xf800bed8>
    ca68:	d8c00817 	ldw	r3,32(sp)
    ca6c:	18a9c83a 	sub	r20,r3,r2
    ca70:	0005883a 	mov	r2,zero
    ca74:	003d3706 	br	bf54 <__alt_data_end+0xf800bf54>
    ca78:	00800044 	movi	r2,1
    ca7c:	003dd006 	br	c1c0 <__alt_data_end+0xf800c1c0>
    ca80:	d8c00217 	ldw	r3,8(sp)
    ca84:	00800d84 	movi	r2,54
    ca88:	dd400917 	ldw	r21,36(sp)
    ca8c:	10c5c83a 	sub	r2,r2,r3
    ca90:	dd000817 	ldw	r20,32(sp)
    ca94:	003d2f06 	br	bf54 <__alt_data_end+0xf800bf54>
    ca98:	9029883a 	mov	r20,r18
    ca9c:	982b883a 	mov	r21,r19
    caa0:	04400084 	movi	r17,2
    caa4:	003bc606 	br	b9c0 <__alt_data_end+0xf800b9c0>
    caa8:	d8800617 	ldw	r2,24(sp)
    caac:	103efc26 	beq	r2,zero,c6a0 <__alt_data_end+0xf800c6a0>
    cab0:	d8c00d17 	ldw	r3,52(sp)
    cab4:	00fc890e 	bge	zero,r3,bcdc <__alt_data_end+0xf800bcdc>
    cab8:	a80b883a 	mov	r5,r21
    cabc:	a009883a 	mov	r4,r20
    cac0:	000d883a 	mov	r6,zero
    cac4:	01d00934 	movhi	r7,16420
    cac8:	0011e580 	call	11e58 <__muldf3>
    cacc:	89000044 	addi	r4,r17,1
    cad0:	1029883a 	mov	r20,r2
    cad4:	182b883a 	mov	r21,r3
    cad8:	0012ed40 	call	12ed4 <__floatsidf>
    cadc:	a009883a 	mov	r4,r20
    cae0:	a80b883a 	mov	r5,r21
    cae4:	100d883a 	mov	r6,r2
    cae8:	180f883a 	mov	r7,r3
    caec:	0011e580 	call	11e58 <__muldf3>
    caf0:	1009883a 	mov	r4,r2
    caf4:	180b883a 	mov	r5,r3
    caf8:	000d883a 	mov	r6,zero
    cafc:	01d00734 	movhi	r7,16412
    cb00:	0010aac0 	call	10aac <__adddf3>
    cb04:	d9000517 	ldw	r4,20(sp)
    cb08:	1023883a 	mov	r17,r2
    cb0c:	00bf3034 	movhi	r2,64704
    cb10:	213fffc4 	addi	r4,r4,-1
    cb14:	1885883a 	add	r2,r3,r2
    cb18:	d9001215 	stw	r4,72(sp)
    cb1c:	d8800e15 	stw	r2,56(sp)
    cb20:	da800d17 	ldw	r10,52(sp)
    cb24:	003bc306 	br	ba34 <__alt_data_end+0xf800ba34>
    cb28:	b039883a 	mov	fp,r22
    cb2c:	01000e44 	movi	r4,57
    cb30:	8825883a 	mov	r18,r17
    cb34:	9dc00044 	addi	r23,r19,1
    cb38:	99000005 	stb	r4,0(r19)
    cb3c:	a023883a 	mov	r17,r20
    cb40:	003dae06 	br	c1fc <__alt_data_end+0xf800c1fc>
    cb44:	d9800e17 	ldw	r6,56(sp)
    cb48:	d9c01117 	ldw	r7,68(sp)
    cb4c:	0009883a 	mov	r4,zero
    cb50:	014ff834 	movhi	r5,16352
    cb54:	da001715 	stw	r8,92(sp)
    cb58:	da401515 	stw	r9,84(sp)
    cb5c:	001257c0 	call	1257c <__subdf3>
    cb60:	da001717 	ldw	r8,92(sp)
    cb64:	da401517 	ldw	r9,84(sp)
    cb68:	1009883a 	mov	r4,r2
    cb6c:	180b883a 	mov	r5,r3
    cb70:	400d883a 	mov	r6,r8
    cb74:	480f883a 	mov	r7,r9
    cb78:	0011c980 	call	11c98 <__gedf2>
    cb7c:	00bc570e 	bge	zero,r2,bcdc <__alt_data_end+0xf800bcdc>
    cb80:	01000c04 	movi	r4,48
    cb84:	00000106 	br	cb8c <_dtoa_r+0x1624>
    cb88:	102f883a 	mov	r23,r2
    cb8c:	b8bfffc4 	addi	r2,r23,-1
    cb90:	10c00007 	ldb	r3,0(r2)
    cb94:	193ffc26 	beq	r3,r4,cb88 <__alt_data_end+0xf800cb88>
    cb98:	d9801217 	ldw	r6,72(sp)
    cb9c:	d9800515 	stw	r6,20(sp)
    cba0:	003c1f06 	br	bc20 <__alt_data_end+0xf800bc20>
    cba4:	d8801217 	ldw	r2,72(sp)
    cba8:	dc001117 	ldw	r16,68(sp)
    cbac:	d8800515 	stw	r2,20(sp)
    cbb0:	003cc906 	br	bed8 <__alt_data_end+0xf800bed8>
    cbb4:	dd801317 	ldw	r22,76(sp)
    cbb8:	dc001117 	ldw	r16,68(sp)
    cbbc:	dcc01417 	ldw	r19,80(sp)
    cbc0:	dc801017 	ldw	r18,64(sp)
    cbc4:	003c4506 	br	bcdc <__alt_data_end+0xf800bcdc>
    cbc8:	103e5d1e 	bne	r2,zero,c540 <__alt_data_end+0xf800c540>
    cbcc:	4080004c 	andi	r2,r8,1
    cbd0:	103e5b26 	beq	r2,zero,c540 <__alt_data_end+0xf800c540>
    cbd4:	003e5706 	br	c534 <__alt_data_end+0xf800c534>
    cbd8:	d8c00317 	ldw	r3,12(sp)
    cbdc:	00800084 	movi	r2,2
    cbe0:	10c00a16 	blt	r2,r3,cc0c <_dtoa_r+0x16a4>
    cbe4:	d9000d17 	ldw	r4,52(sp)
    cbe8:	003e8306 	br	c5f8 <__alt_data_end+0xf800c5f8>
    cbec:	04400084 	movi	r17,2
    cbf0:	003b7306 	br	b9c0 <__alt_data_end+0xf800b9c0>
    cbf4:	d9801217 	ldw	r6,72(sp)
    cbf8:	d9800515 	stw	r6,20(sp)
    cbfc:	003cb606 	br	bed8 <__alt_data_end+0xf800bed8>
    cc00:	d9001217 	ldw	r4,72(sp)
    cc04:	d9000515 	stw	r4,20(sp)
    cc08:	003c0506 	br	bc20 <__alt_data_end+0xf800bc20>
    cc0c:	d9800d17 	ldw	r6,52(sp)
    cc10:	d9800615 	stw	r6,24(sp)
    cc14:	003e8306 	br	c624 <__alt_data_end+0xf800c624>
    cc18:	d9800317 	ldw	r6,12(sp)
    cc1c:	00800084 	movi	r2,2
    cc20:	11800216 	blt	r2,r6,cc2c <_dtoa_r+0x16c4>
    cc24:	d8800d17 	ldw	r2,52(sp)
    cc28:	003da606 	br	c2c4 <__alt_data_end+0xf800c2c4>
    cc2c:	d8800d17 	ldw	r2,52(sp)
    cc30:	d8800615 	stw	r2,24(sp)
    cc34:	003e7b06 	br	c624 <__alt_data_end+0xf800c624>
    cc38:	05000044 	movi	r20,1
    cc3c:	003b0506 	br	b854 <__alt_data_end+0xf800b854>
    cc40:	8009883a 	mov	r4,r16
    cc44:	80001115 	stw	zero,68(r16)
    cc48:	000b883a 	mov	r5,zero
    cc4c:	000d3a40 	call	d3a4 <_Balloc>
    cc50:	d8800715 	stw	r2,28(sp)
    cc54:	d8c00717 	ldw	r3,28(sp)
    cc58:	00bfffc4 	movi	r2,-1
    cc5c:	01000044 	movi	r4,1
    cc60:	d8800615 	stw	r2,24(sp)
    cc64:	80c01015 	stw	r3,64(r16)
    cc68:	d9000b15 	stw	r4,44(sp)
    cc6c:	d8002215 	stw	zero,136(sp)
    cc70:	d8800d15 	stw	r2,52(sp)
    cc74:	003c1906 	br	bcdc <__alt_data_end+0xf800bcdc>
    cc78:	193d2926 	beq	r3,r4,c120 <__alt_data_end+0xf800c120>
    cc7c:	00c00f04 	movi	r3,60
    cc80:	1885c83a 	sub	r2,r3,r2
    cc84:	003d7b06 	br	c274 <__alt_data_end+0xf800c274>
    cc88:	000b883a 	mov	r5,zero
    cc8c:	003b1006 	br	b8d0 <__alt_data_end+0xf800b8d0>

0000cc90 <_malloc_trim_r>:
    cc90:	defffb04 	addi	sp,sp,-20
    cc94:	dcc00315 	stw	r19,12(sp)
    cc98:	04c00374 	movhi	r19,13
    cc9c:	dc800215 	stw	r18,8(sp)
    cca0:	dc400115 	stw	r17,4(sp)
    cca4:	dc000015 	stw	r16,0(sp)
    cca8:	dfc00415 	stw	ra,16(sp)
    ccac:	2821883a 	mov	r16,r5
    ccb0:	9cc38c04 	addi	r19,r19,3632
    ccb4:	2025883a 	mov	r18,r4
    ccb8:	00131a40 	call	131a4 <__malloc_lock>
    ccbc:	98800217 	ldw	r2,8(r19)
    ccc0:	14400117 	ldw	r17,4(r2)
    ccc4:	00bfff04 	movi	r2,-4
    ccc8:	88a2703a 	and	r17,r17,r2
    cccc:	8c21c83a 	sub	r16,r17,r16
    ccd0:	8403fbc4 	addi	r16,r16,4079
    ccd4:	8020d33a 	srli	r16,r16,12
    ccd8:	0083ffc4 	movi	r2,4095
    ccdc:	843fffc4 	addi	r16,r16,-1
    cce0:	8020933a 	slli	r16,r16,12
    cce4:	1400060e 	bge	r2,r16,cd00 <_malloc_trim_r+0x70>
    cce8:	9009883a 	mov	r4,r18
    ccec:	000b883a 	mov	r5,zero
    ccf0:	00092280 	call	9228 <_sbrk_r>
    ccf4:	98c00217 	ldw	r3,8(r19)
    ccf8:	1c47883a 	add	r3,r3,r17
    ccfc:	10c00a26 	beq	r2,r3,cd28 <_malloc_trim_r+0x98>
    cd00:	9009883a 	mov	r4,r18
    cd04:	00131c40 	call	131c4 <__malloc_unlock>
    cd08:	0005883a 	mov	r2,zero
    cd0c:	dfc00417 	ldw	ra,16(sp)
    cd10:	dcc00317 	ldw	r19,12(sp)
    cd14:	dc800217 	ldw	r18,8(sp)
    cd18:	dc400117 	ldw	r17,4(sp)
    cd1c:	dc000017 	ldw	r16,0(sp)
    cd20:	dec00504 	addi	sp,sp,20
    cd24:	f800283a 	ret
    cd28:	9009883a 	mov	r4,r18
    cd2c:	040bc83a 	sub	r5,zero,r16
    cd30:	00092280 	call	9228 <_sbrk_r>
    cd34:	00ffffc4 	movi	r3,-1
    cd38:	10c00d26 	beq	r2,r3,cd70 <_malloc_trim_r+0xe0>
    cd3c:	00c00374 	movhi	r3,13
    cd40:	18d1b604 	addi	r3,r3,18136
    cd44:	18800017 	ldw	r2,0(r3)
    cd48:	99000217 	ldw	r4,8(r19)
    cd4c:	8c23c83a 	sub	r17,r17,r16
    cd50:	8c400054 	ori	r17,r17,1
    cd54:	1421c83a 	sub	r16,r2,r16
    cd58:	24400115 	stw	r17,4(r4)
    cd5c:	9009883a 	mov	r4,r18
    cd60:	1c000015 	stw	r16,0(r3)
    cd64:	00131c40 	call	131c4 <__malloc_unlock>
    cd68:	00800044 	movi	r2,1
    cd6c:	003fe706 	br	cd0c <__alt_data_end+0xf800cd0c>
    cd70:	9009883a 	mov	r4,r18
    cd74:	000b883a 	mov	r5,zero
    cd78:	00092280 	call	9228 <_sbrk_r>
    cd7c:	99000217 	ldw	r4,8(r19)
    cd80:	014003c4 	movi	r5,15
    cd84:	1107c83a 	sub	r3,r2,r4
    cd88:	28ffdd0e 	bge	r5,r3,cd00 <__alt_data_end+0xf800cd00>
    cd8c:	01400374 	movhi	r5,13
    cd90:	294a8b04 	addi	r5,r5,10796
    cd94:	29400017 	ldw	r5,0(r5)
    cd98:	18c00054 	ori	r3,r3,1
    cd9c:	20c00115 	stw	r3,4(r4)
    cda0:	00c00374 	movhi	r3,13
    cda4:	1145c83a 	sub	r2,r2,r5
    cda8:	18d1b604 	addi	r3,r3,18136
    cdac:	18800015 	stw	r2,0(r3)
    cdb0:	003fd306 	br	cd00 <__alt_data_end+0xf800cd00>

0000cdb4 <_free_r>:
    cdb4:	28004c26 	beq	r5,zero,cee8 <_free_r+0x134>
    cdb8:	defffd04 	addi	sp,sp,-12
    cdbc:	dc400115 	stw	r17,4(sp)
    cdc0:	dc000015 	stw	r16,0(sp)
    cdc4:	2023883a 	mov	r17,r4
    cdc8:	2821883a 	mov	r16,r5
    cdcc:	dfc00215 	stw	ra,8(sp)
    cdd0:	00131a40 	call	131a4 <__malloc_lock>
    cdd4:	813fff17 	ldw	r4,-4(r16)
    cdd8:	00bfff84 	movi	r2,-2
    cddc:	02400374 	movhi	r9,13
    cde0:	81bffe04 	addi	r6,r16,-8
    cde4:	2084703a 	and	r2,r4,r2
    cde8:	4a438c04 	addi	r9,r9,3632
    cdec:	308b883a 	add	r5,r6,r2
    cdf0:	2a000117 	ldw	r8,4(r5)
    cdf4:	49c00217 	ldw	r7,8(r9)
    cdf8:	00ffff04 	movi	r3,-4
    cdfc:	40c6703a 	and	r3,r8,r3
    ce00:	39405326 	beq	r7,r5,cf50 <_free_r+0x19c>
    ce04:	28c00115 	stw	r3,4(r5)
    ce08:	2100004c 	andi	r4,r4,1
    ce0c:	2000091e 	bne	r4,zero,ce34 <_free_r+0x80>
    ce10:	81fffe17 	ldw	r7,-8(r16)
    ce14:	4a000204 	addi	r8,r9,8
    ce18:	31cdc83a 	sub	r6,r6,r7
    ce1c:	31000217 	ldw	r4,8(r6)
    ce20:	11c5883a 	add	r2,r2,r7
    ce24:	22006126 	beq	r4,r8,cfac <_free_r+0x1f8>
    ce28:	31c00317 	ldw	r7,12(r6)
    ce2c:	21c00315 	stw	r7,12(r4)
    ce30:	39000215 	stw	r4,8(r7)
    ce34:	28c9883a 	add	r4,r5,r3
    ce38:	21c00117 	ldw	r7,4(r4)
    ce3c:	39c0004c 	andi	r7,r7,1
    ce40:	38000d1e 	bne	r7,zero,ce78 <_free_r+0xc4>
    ce44:	29000217 	ldw	r4,8(r5)
    ce48:	10c5883a 	add	r2,r2,r3
    ce4c:	00c00374 	movhi	r3,13
    ce50:	18c38e04 	addi	r3,r3,3640
    ce54:	20c07526 	beq	r4,r3,d02c <_free_r+0x278>
    ce58:	29c00317 	ldw	r7,12(r5)
    ce5c:	11400054 	ori	r5,r2,1
    ce60:	3087883a 	add	r3,r6,r2
    ce64:	21c00315 	stw	r7,12(r4)
    ce68:	39000215 	stw	r4,8(r7)
    ce6c:	31400115 	stw	r5,4(r6)
    ce70:	18800015 	stw	r2,0(r3)
    ce74:	00000406 	br	ce88 <_free_r+0xd4>
    ce78:	10c00054 	ori	r3,r2,1
    ce7c:	30c00115 	stw	r3,4(r6)
    ce80:	3087883a 	add	r3,r6,r2
    ce84:	18800015 	stw	r2,0(r3)
    ce88:	00c07fc4 	movi	r3,511
    ce8c:	18801736 	bltu	r3,r2,ceec <_free_r+0x138>
    ce90:	1004d0fa 	srli	r2,r2,3
    ce94:	01400044 	movi	r5,1
    ce98:	49000117 	ldw	r4,4(r9)
    ce9c:	1087883a 	add	r3,r2,r2
    cea0:	18c7883a 	add	r3,r3,r3
    cea4:	1005d0ba 	srai	r2,r2,2
    cea8:	18c7883a 	add	r3,r3,r3
    ceac:	1a47883a 	add	r3,r3,r9
    ceb0:	19c00217 	ldw	r7,8(r3)
    ceb4:	2884983a 	sll	r2,r5,r2
    ceb8:	30c00315 	stw	r3,12(r6)
    cebc:	31c00215 	stw	r7,8(r6)
    cec0:	1104b03a 	or	r2,r2,r4
    cec4:	19800215 	stw	r6,8(r3)
    cec8:	48800115 	stw	r2,4(r9)
    cecc:	39800315 	stw	r6,12(r7)
    ced0:	8809883a 	mov	r4,r17
    ced4:	dfc00217 	ldw	ra,8(sp)
    ced8:	dc400117 	ldw	r17,4(sp)
    cedc:	dc000017 	ldw	r16,0(sp)
    cee0:	dec00304 	addi	sp,sp,12
    cee4:	00131c41 	jmpi	131c4 <__malloc_unlock>
    cee8:	f800283a 	ret
    ceec:	1006d27a 	srli	r3,r2,9
    cef0:	01000104 	movi	r4,4
    cef4:	20c04036 	bltu	r4,r3,cff8 <_free_r+0x244>
    cef8:	1006d1ba 	srli	r3,r2,6
    cefc:	19400e04 	addi	r5,r3,56
    cf00:	2947883a 	add	r3,r5,r5
    cf04:	18c7883a 	add	r3,r3,r3
    cf08:	18c7883a 	add	r3,r3,r3
    cf0c:	1a49883a 	add	r4,r3,r9
    cf10:	20c00217 	ldw	r3,8(r4)
    cf14:	01c00374 	movhi	r7,13
    cf18:	39c38c04 	addi	r7,r7,3632
    cf1c:	19003b26 	beq	r3,r4,d00c <_free_r+0x258>
    cf20:	01ffff04 	movi	r7,-4
    cf24:	19400117 	ldw	r5,4(r3)
    cf28:	29ca703a 	and	r5,r5,r7
    cf2c:	1140022e 	bgeu	r2,r5,cf38 <_free_r+0x184>
    cf30:	18c00217 	ldw	r3,8(r3)
    cf34:	20fffb1e 	bne	r4,r3,cf24 <__alt_data_end+0xf800cf24>
    cf38:	18800317 	ldw	r2,12(r3)
    cf3c:	30800315 	stw	r2,12(r6)
    cf40:	30c00215 	stw	r3,8(r6)
    cf44:	11800215 	stw	r6,8(r2)
    cf48:	19800315 	stw	r6,12(r3)
    cf4c:	003fe006 	br	ced0 <__alt_data_end+0xf800ced0>
    cf50:	2100004c 	andi	r4,r4,1
    cf54:	1885883a 	add	r2,r3,r2
    cf58:	2000071e 	bne	r4,zero,cf78 <_free_r+0x1c4>
    cf5c:	817ffe17 	ldw	r5,-8(r16)
    cf60:	314dc83a 	sub	r6,r6,r5
    cf64:	30c00317 	ldw	r3,12(r6)
    cf68:	31000217 	ldw	r4,8(r6)
    cf6c:	1145883a 	add	r2,r2,r5
    cf70:	20c00315 	stw	r3,12(r4)
    cf74:	19000215 	stw	r4,8(r3)
    cf78:	10c00054 	ori	r3,r2,1
    cf7c:	30c00115 	stw	r3,4(r6)
    cf80:	00c00374 	movhi	r3,13
    cf84:	18ca8c04 	addi	r3,r3,10800
    cf88:	18c00017 	ldw	r3,0(r3)
    cf8c:	49800215 	stw	r6,8(r9)
    cf90:	10ffcf36 	bltu	r2,r3,ced0 <__alt_data_end+0xf800ced0>
    cf94:	00800374 	movhi	r2,13
    cf98:	1091aa04 	addi	r2,r2,18088
    cf9c:	11400017 	ldw	r5,0(r2)
    cfa0:	8809883a 	mov	r4,r17
    cfa4:	000cc900 	call	cc90 <_malloc_trim_r>
    cfa8:	003fc906 	br	ced0 <__alt_data_end+0xf800ced0>
    cfac:	28c9883a 	add	r4,r5,r3
    cfb0:	21000117 	ldw	r4,4(r4)
    cfb4:	2100004c 	andi	r4,r4,1
    cfb8:	20000a1e 	bne	r4,zero,cfe4 <_free_r+0x230>
    cfbc:	29000317 	ldw	r4,12(r5)
    cfc0:	29400217 	ldw	r5,8(r5)
    cfc4:	10c5883a 	add	r2,r2,r3
    cfc8:	10c00054 	ori	r3,r2,1
    cfcc:	29000315 	stw	r4,12(r5)
    cfd0:	21400215 	stw	r5,8(r4)
    cfd4:	30c00115 	stw	r3,4(r6)
    cfd8:	308d883a 	add	r6,r6,r2
    cfdc:	30800015 	stw	r2,0(r6)
    cfe0:	003fbb06 	br	ced0 <__alt_data_end+0xf800ced0>
    cfe4:	10c00054 	ori	r3,r2,1
    cfe8:	30c00115 	stw	r3,4(r6)
    cfec:	308d883a 	add	r6,r6,r2
    cff0:	30800015 	stw	r2,0(r6)
    cff4:	003fb606 	br	ced0 <__alt_data_end+0xf800ced0>
    cff8:	01000504 	movi	r4,20
    cffc:	20c01436 	bltu	r4,r3,d050 <_free_r+0x29c>
    d000:	194016c4 	addi	r5,r3,91
    d004:	2947883a 	add	r3,r5,r5
    d008:	003fbe06 	br	cf04 <__alt_data_end+0xf800cf04>
    d00c:	280bd0ba 	srai	r5,r5,2
    d010:	00800044 	movi	r2,1
    d014:	39000117 	ldw	r4,4(r7)
    d018:	114a983a 	sll	r5,r2,r5
    d01c:	1805883a 	mov	r2,r3
    d020:	2908b03a 	or	r4,r5,r4
    d024:	39000115 	stw	r4,4(r7)
    d028:	003fc406 	br	cf3c <__alt_data_end+0xf800cf3c>
    d02c:	49800515 	stw	r6,20(r9)
    d030:	49800415 	stw	r6,16(r9)
    d034:	10c00054 	ori	r3,r2,1
    d038:	31000315 	stw	r4,12(r6)
    d03c:	31000215 	stw	r4,8(r6)
    d040:	30c00115 	stw	r3,4(r6)
    d044:	308d883a 	add	r6,r6,r2
    d048:	30800015 	stw	r2,0(r6)
    d04c:	003fa006 	br	ced0 <__alt_data_end+0xf800ced0>
    d050:	01001504 	movi	r4,84
    d054:	20c00436 	bltu	r4,r3,d068 <_free_r+0x2b4>
    d058:	1006d33a 	srli	r3,r2,12
    d05c:	19401b84 	addi	r5,r3,110
    d060:	2947883a 	add	r3,r5,r5
    d064:	003fa706 	br	cf04 <__alt_data_end+0xf800cf04>
    d068:	01005504 	movi	r4,340
    d06c:	20c00436 	bltu	r4,r3,d080 <_free_r+0x2cc>
    d070:	1006d3fa 	srli	r3,r2,15
    d074:	19401dc4 	addi	r5,r3,119
    d078:	2947883a 	add	r3,r5,r5
    d07c:	003fa106 	br	cf04 <__alt_data_end+0xf800cf04>
    d080:	01015504 	movi	r4,1364
    d084:	20c00436 	bltu	r4,r3,d098 <_free_r+0x2e4>
    d088:	1006d4ba 	srli	r3,r2,18
    d08c:	19401f04 	addi	r5,r3,124
    d090:	2947883a 	add	r3,r5,r5
    d094:	003f9b06 	br	cf04 <__alt_data_end+0xf800cf04>
    d098:	00c03f04 	movi	r3,252
    d09c:	01401f84 	movi	r5,126
    d0a0:	003f9806 	br	cf04 <__alt_data_end+0xf800cf04>

0000d0a4 <_setlocale_r>:
    d0a4:	30001b26 	beq	r6,zero,d114 <_setlocale_r+0x70>
    d0a8:	01400374 	movhi	r5,13
    d0ac:	defffe04 	addi	sp,sp,-8
    d0b0:	29430804 	addi	r5,r5,3104
    d0b4:	3009883a 	mov	r4,r6
    d0b8:	dc000015 	stw	r16,0(sp)
    d0bc:	dfc00115 	stw	ra,4(sp)
    d0c0:	3021883a 	mov	r16,r6
    d0c4:	000e3a40 	call	e3a4 <strcmp>
    d0c8:	1000061e 	bne	r2,zero,d0e4 <_setlocale_r+0x40>
    d0cc:	00800374 	movhi	r2,13
    d0d0:	10830704 	addi	r2,r2,3100
    d0d4:	dfc00117 	ldw	ra,4(sp)
    d0d8:	dc000017 	ldw	r16,0(sp)
    d0dc:	dec00204 	addi	sp,sp,8
    d0e0:	f800283a 	ret
    d0e4:	01400374 	movhi	r5,13
    d0e8:	29430704 	addi	r5,r5,3100
    d0ec:	8009883a 	mov	r4,r16
    d0f0:	000e3a40 	call	e3a4 <strcmp>
    d0f4:	103ff526 	beq	r2,zero,d0cc <__alt_data_end+0xf800d0cc>
    d0f8:	01400374 	movhi	r5,13
    d0fc:	2942f204 	addi	r5,r5,3016
    d100:	8009883a 	mov	r4,r16
    d104:	000e3a40 	call	e3a4 <strcmp>
    d108:	103ff026 	beq	r2,zero,d0cc <__alt_data_end+0xf800d0cc>
    d10c:	0005883a 	mov	r2,zero
    d110:	003ff006 	br	d0d4 <__alt_data_end+0xf800d0d4>
    d114:	00800374 	movhi	r2,13
    d118:	10830704 	addi	r2,r2,3100
    d11c:	f800283a 	ret

0000d120 <__locale_charset>:
    d120:	00800374 	movhi	r2,13
    d124:	10859f04 	addi	r2,r2,5756
    d128:	f800283a 	ret

0000d12c <__locale_mb_cur_max>:
    d12c:	00800374 	movhi	r2,13
    d130:	108a8f04 	addi	r2,r2,10812
    d134:	10800017 	ldw	r2,0(r2)
    d138:	f800283a 	ret

0000d13c <__locale_msgcharset>:
    d13c:	00800374 	movhi	r2,13
    d140:	10859704 	addi	r2,r2,5724
    d144:	f800283a 	ret

0000d148 <__locale_cjk_lang>:
    d148:	0005883a 	mov	r2,zero
    d14c:	f800283a 	ret

0000d150 <_localeconv_r>:
    d150:	00800374 	movhi	r2,13
    d154:	1085a704 	addi	r2,r2,5788
    d158:	f800283a 	ret

0000d15c <setlocale>:
    d15c:	00c00374 	movhi	r3,13
    d160:	18ca8e04 	addi	r3,r3,10808
    d164:	2005883a 	mov	r2,r4
    d168:	19000017 	ldw	r4,0(r3)
    d16c:	280d883a 	mov	r6,r5
    d170:	100b883a 	mov	r5,r2
    d174:	000d0a41 	jmpi	d0a4 <_setlocale_r>

0000d178 <localeconv>:
    d178:	00800374 	movhi	r2,13
    d17c:	1085a704 	addi	r2,r2,5788
    d180:	f800283a 	ret

0000d184 <memchr>:
    d184:	208000cc 	andi	r2,r4,3
    d188:	280f883a 	mov	r7,r5
    d18c:	10003526 	beq	r2,zero,d264 <memchr+0xe0>
    d190:	30bfffc4 	addi	r2,r6,-1
    d194:	30001b26 	beq	r6,zero,d204 <memchr+0x80>
    d198:	21800003 	ldbu	r6,0(r4)
    d19c:	28c03fcc 	andi	r3,r5,255
    d1a0:	30c01a26 	beq	r6,r3,d20c <memchr+0x88>
    d1a4:	180d883a 	mov	r6,r3
    d1a8:	00000406 	br	d1bc <memchr+0x38>
    d1ac:	10001526 	beq	r2,zero,d204 <memchr+0x80>
    d1b0:	20c00003 	ldbu	r3,0(r4)
    d1b4:	10bfffc4 	addi	r2,r2,-1
    d1b8:	19801426 	beq	r3,r6,d20c <memchr+0x88>
    d1bc:	21000044 	addi	r4,r4,1
    d1c0:	20c000cc 	andi	r3,r4,3
    d1c4:	183ff91e 	bne	r3,zero,d1ac <__alt_data_end+0xf800d1ac>
    d1c8:	024000c4 	movi	r9,3
    d1cc:	48801136 	bltu	r9,r2,d214 <memchr+0x90>
    d1d0:	10000c26 	beq	r2,zero,d204 <memchr+0x80>
    d1d4:	20c00003 	ldbu	r3,0(r4)
    d1d8:	29403fcc 	andi	r5,r5,255
    d1dc:	19400b26 	beq	r3,r5,d20c <memchr+0x88>
    d1e0:	20c00044 	addi	r3,r4,1
    d1e4:	2085883a 	add	r2,r4,r2
    d1e8:	39803fcc 	andi	r6,r7,255
    d1ec:	00000306 	br	d1fc <memchr+0x78>
    d1f0:	18c00044 	addi	r3,r3,1
    d1f4:	197fffc3 	ldbu	r5,-1(r3)
    d1f8:	29800426 	beq	r5,r6,d20c <memchr+0x88>
    d1fc:	1809883a 	mov	r4,r3
    d200:	18bffb1e 	bne	r3,r2,d1f0 <__alt_data_end+0xf800d1f0>
    d204:	0005883a 	mov	r2,zero
    d208:	f800283a 	ret
    d20c:	2005883a 	mov	r2,r4
    d210:	f800283a 	ret
    d214:	28c03fcc 	andi	r3,r5,255
    d218:	1810923a 	slli	r8,r3,8
    d21c:	02ffbff4 	movhi	r11,65279
    d220:	02a02074 	movhi	r10,32897
    d224:	40c6b03a 	or	r3,r8,r3
    d228:	1810943a 	slli	r8,r3,16
    d22c:	5affbfc4 	addi	r11,r11,-257
    d230:	52a02004 	addi	r10,r10,-32640
    d234:	40d0b03a 	or	r8,r8,r3
    d238:	20c00017 	ldw	r3,0(r4)
    d23c:	40c6f03a 	xor	r3,r8,r3
    d240:	1acd883a 	add	r6,r3,r11
    d244:	00c6303a 	nor	r3,zero,r3
    d248:	30c6703a 	and	r3,r6,r3
    d24c:	1a86703a 	and	r3,r3,r10
    d250:	183fdf1e 	bne	r3,zero,d1d0 <__alt_data_end+0xf800d1d0>
    d254:	10bfff04 	addi	r2,r2,-4
    d258:	21000104 	addi	r4,r4,4
    d25c:	48bff636 	bltu	r9,r2,d238 <__alt_data_end+0xf800d238>
    d260:	003fdb06 	br	d1d0 <__alt_data_end+0xf800d1d0>
    d264:	3005883a 	mov	r2,r6
    d268:	003fd706 	br	d1c8 <__alt_data_end+0xf800d1c8>

0000d26c <memcpy>:
    d26c:	deffff04 	addi	sp,sp,-4
    d270:	dc000015 	stw	r16,0(sp)
    d274:	00c003c4 	movi	r3,15
    d278:	2005883a 	mov	r2,r4
    d27c:	1980432e 	bgeu	r3,r6,d38c <memcpy+0x120>
    d280:	2146b03a 	or	r3,r4,r5
    d284:	18c000cc 	andi	r3,r3,3
    d288:	1800421e 	bne	r3,zero,d394 <memcpy+0x128>
    d28c:	343ffc04 	addi	r16,r6,-16
    d290:	8020d13a 	srli	r16,r16,4
    d294:	28c00104 	addi	r3,r5,4
    d298:	23400104 	addi	r13,r4,4
    d29c:	801e913a 	slli	r15,r16,4
    d2a0:	2b000204 	addi	r12,r5,8
    d2a4:	22c00204 	addi	r11,r4,8
    d2a8:	7bc00504 	addi	r15,r15,20
    d2ac:	2a800304 	addi	r10,r5,12
    d2b0:	22400304 	addi	r9,r4,12
    d2b4:	2bdf883a 	add	r15,r5,r15
    d2b8:	2811883a 	mov	r8,r5
    d2bc:	200f883a 	mov	r7,r4
    d2c0:	41000017 	ldw	r4,0(r8)
    d2c4:	39c00404 	addi	r7,r7,16
    d2c8:	18c00404 	addi	r3,r3,16
    d2cc:	393ffc15 	stw	r4,-16(r7)
    d2d0:	1bbffc17 	ldw	r14,-16(r3)
    d2d4:	6b400404 	addi	r13,r13,16
    d2d8:	5ac00404 	addi	r11,r11,16
    d2dc:	6bbffc15 	stw	r14,-16(r13)
    d2e0:	63800017 	ldw	r14,0(r12)
    d2e4:	4a400404 	addi	r9,r9,16
    d2e8:	42000404 	addi	r8,r8,16
    d2ec:	5bbffc15 	stw	r14,-16(r11)
    d2f0:	53800017 	ldw	r14,0(r10)
    d2f4:	63000404 	addi	r12,r12,16
    d2f8:	52800404 	addi	r10,r10,16
    d2fc:	4bbffc15 	stw	r14,-16(r9)
    d300:	1bffef1e 	bne	r3,r15,d2c0 <__alt_data_end+0xf800d2c0>
    d304:	81c00044 	addi	r7,r16,1
    d308:	380e913a 	slli	r7,r7,4
    d30c:	310003cc 	andi	r4,r6,15
    d310:	02c000c4 	movi	r11,3
    d314:	11c7883a 	add	r3,r2,r7
    d318:	29cb883a 	add	r5,r5,r7
    d31c:	59001f2e 	bgeu	r11,r4,d39c <memcpy+0x130>
    d320:	1813883a 	mov	r9,r3
    d324:	2811883a 	mov	r8,r5
    d328:	200f883a 	mov	r7,r4
    d32c:	42800017 	ldw	r10,0(r8)
    d330:	4a400104 	addi	r9,r9,4
    d334:	39ffff04 	addi	r7,r7,-4
    d338:	4abfff15 	stw	r10,-4(r9)
    d33c:	42000104 	addi	r8,r8,4
    d340:	59fffa36 	bltu	r11,r7,d32c <__alt_data_end+0xf800d32c>
    d344:	213fff04 	addi	r4,r4,-4
    d348:	2008d0ba 	srli	r4,r4,2
    d34c:	318000cc 	andi	r6,r6,3
    d350:	21000044 	addi	r4,r4,1
    d354:	2109883a 	add	r4,r4,r4
    d358:	2109883a 	add	r4,r4,r4
    d35c:	1907883a 	add	r3,r3,r4
    d360:	290b883a 	add	r5,r5,r4
    d364:	30000626 	beq	r6,zero,d380 <memcpy+0x114>
    d368:	198d883a 	add	r6,r3,r6
    d36c:	29c00003 	ldbu	r7,0(r5)
    d370:	18c00044 	addi	r3,r3,1
    d374:	29400044 	addi	r5,r5,1
    d378:	19ffffc5 	stb	r7,-1(r3)
    d37c:	19bffb1e 	bne	r3,r6,d36c <__alt_data_end+0xf800d36c>
    d380:	dc000017 	ldw	r16,0(sp)
    d384:	dec00104 	addi	sp,sp,4
    d388:	f800283a 	ret
    d38c:	2007883a 	mov	r3,r4
    d390:	003ff406 	br	d364 <__alt_data_end+0xf800d364>
    d394:	2007883a 	mov	r3,r4
    d398:	003ff306 	br	d368 <__alt_data_end+0xf800d368>
    d39c:	200d883a 	mov	r6,r4
    d3a0:	003ff006 	br	d364 <__alt_data_end+0xf800d364>

0000d3a4 <_Balloc>:
    d3a4:	20801317 	ldw	r2,76(r4)
    d3a8:	defffc04 	addi	sp,sp,-16
    d3ac:	dc400115 	stw	r17,4(sp)
    d3b0:	dc000015 	stw	r16,0(sp)
    d3b4:	dfc00315 	stw	ra,12(sp)
    d3b8:	dc800215 	stw	r18,8(sp)
    d3bc:	2023883a 	mov	r17,r4
    d3c0:	2821883a 	mov	r16,r5
    d3c4:	10000f26 	beq	r2,zero,d404 <_Balloc+0x60>
    d3c8:	8407883a 	add	r3,r16,r16
    d3cc:	18c7883a 	add	r3,r3,r3
    d3d0:	10c7883a 	add	r3,r2,r3
    d3d4:	18800017 	ldw	r2,0(r3)
    d3d8:	10001126 	beq	r2,zero,d420 <_Balloc+0x7c>
    d3dc:	11000017 	ldw	r4,0(r2)
    d3e0:	19000015 	stw	r4,0(r3)
    d3e4:	10000415 	stw	zero,16(r2)
    d3e8:	10000315 	stw	zero,12(r2)
    d3ec:	dfc00317 	ldw	ra,12(sp)
    d3f0:	dc800217 	ldw	r18,8(sp)
    d3f4:	dc400117 	ldw	r17,4(sp)
    d3f8:	dc000017 	ldw	r16,0(sp)
    d3fc:	dec00404 	addi	sp,sp,16
    d400:	f800283a 	ret
    d404:	01400104 	movi	r5,4
    d408:	01800844 	movi	r6,33
    d40c:	000f6780 	call	f678 <_calloc_r>
    d410:	88801315 	stw	r2,76(r17)
    d414:	103fec1e 	bne	r2,zero,d3c8 <__alt_data_end+0xf800d3c8>
    d418:	0005883a 	mov	r2,zero
    d41c:	003ff306 	br	d3ec <__alt_data_end+0xf800d3ec>
    d420:	01400044 	movi	r5,1
    d424:	2c24983a 	sll	r18,r5,r16
    d428:	8809883a 	mov	r4,r17
    d42c:	91800144 	addi	r6,r18,5
    d430:	318d883a 	add	r6,r6,r6
    d434:	318d883a 	add	r6,r6,r6
    d438:	000f6780 	call	f678 <_calloc_r>
    d43c:	103ff626 	beq	r2,zero,d418 <__alt_data_end+0xf800d418>
    d440:	14000115 	stw	r16,4(r2)
    d444:	14800215 	stw	r18,8(r2)
    d448:	003fe606 	br	d3e4 <__alt_data_end+0xf800d3e4>

0000d44c <_Bfree>:
    d44c:	28000826 	beq	r5,zero,d470 <_Bfree+0x24>
    d450:	28c00117 	ldw	r3,4(r5)
    d454:	20801317 	ldw	r2,76(r4)
    d458:	18c7883a 	add	r3,r3,r3
    d45c:	18c7883a 	add	r3,r3,r3
    d460:	10c5883a 	add	r2,r2,r3
    d464:	10c00017 	ldw	r3,0(r2)
    d468:	28c00015 	stw	r3,0(r5)
    d46c:	11400015 	stw	r5,0(r2)
    d470:	f800283a 	ret

0000d474 <__multadd>:
    d474:	defffa04 	addi	sp,sp,-24
    d478:	dc000115 	stw	r16,4(sp)
    d47c:	2c000417 	ldw	r16,16(r5)
    d480:	dc800315 	stw	r18,12(sp)
    d484:	dc400215 	stw	r17,8(sp)
    d488:	dfc00515 	stw	ra,20(sp)
    d48c:	dcc00415 	stw	r19,16(sp)
    d490:	2823883a 	mov	r17,r5
    d494:	2025883a 	mov	r18,r4
    d498:	2a400504 	addi	r9,r5,20
    d49c:	0015883a 	mov	r10,zero
    d4a0:	4a000017 	ldw	r8,0(r9)
    d4a4:	4a400104 	addi	r9,r9,4
    d4a8:	52800044 	addi	r10,r10,1
    d4ac:	40ffffcc 	andi	r3,r8,65535
    d4b0:	1987383a 	mul	r3,r3,r6
    d4b4:	4010d43a 	srli	r8,r8,16
    d4b8:	19cf883a 	add	r7,r3,r7
    d4bc:	4191383a 	mul	r8,r8,r6
    d4c0:	3816d43a 	srli	r11,r7,16
    d4c4:	38ffffcc 	andi	r3,r7,65535
    d4c8:	5a0f883a 	add	r7,r11,r8
    d4cc:	3810943a 	slli	r8,r7,16
    d4d0:	380ed43a 	srli	r7,r7,16
    d4d4:	40c7883a 	add	r3,r8,r3
    d4d8:	48ffff15 	stw	r3,-4(r9)
    d4dc:	543ff016 	blt	r10,r16,d4a0 <__alt_data_end+0xf800d4a0>
    d4e0:	38000926 	beq	r7,zero,d508 <__multadd+0x94>
    d4e4:	88800217 	ldw	r2,8(r17)
    d4e8:	80800f0e 	bge	r16,r2,d528 <__multadd+0xb4>
    d4ec:	80800144 	addi	r2,r16,5
    d4f0:	1085883a 	add	r2,r2,r2
    d4f4:	1085883a 	add	r2,r2,r2
    d4f8:	8885883a 	add	r2,r17,r2
    d4fc:	11c00015 	stw	r7,0(r2)
    d500:	84000044 	addi	r16,r16,1
    d504:	8c000415 	stw	r16,16(r17)
    d508:	8805883a 	mov	r2,r17
    d50c:	dfc00517 	ldw	ra,20(sp)
    d510:	dcc00417 	ldw	r19,16(sp)
    d514:	dc800317 	ldw	r18,12(sp)
    d518:	dc400217 	ldw	r17,8(sp)
    d51c:	dc000117 	ldw	r16,4(sp)
    d520:	dec00604 	addi	sp,sp,24
    d524:	f800283a 	ret
    d528:	89400117 	ldw	r5,4(r17)
    d52c:	9009883a 	mov	r4,r18
    d530:	d9c00015 	stw	r7,0(sp)
    d534:	29400044 	addi	r5,r5,1
    d538:	000d3a40 	call	d3a4 <_Balloc>
    d53c:	89800417 	ldw	r6,16(r17)
    d540:	89400304 	addi	r5,r17,12
    d544:	11000304 	addi	r4,r2,12
    d548:	31800084 	addi	r6,r6,2
    d54c:	318d883a 	add	r6,r6,r6
    d550:	318d883a 	add	r6,r6,r6
    d554:	1027883a 	mov	r19,r2
    d558:	000d26c0 	call	d26c <memcpy>
    d55c:	89000117 	ldw	r4,4(r17)
    d560:	90c01317 	ldw	r3,76(r18)
    d564:	d9c00017 	ldw	r7,0(sp)
    d568:	2109883a 	add	r4,r4,r4
    d56c:	2109883a 	add	r4,r4,r4
    d570:	1907883a 	add	r3,r3,r4
    d574:	18800017 	ldw	r2,0(r3)
    d578:	88800015 	stw	r2,0(r17)
    d57c:	1c400015 	stw	r17,0(r3)
    d580:	9823883a 	mov	r17,r19
    d584:	003fd906 	br	d4ec <__alt_data_end+0xf800d4ec>

0000d588 <__s2b>:
    d588:	defff904 	addi	sp,sp,-28
    d58c:	dc400115 	stw	r17,4(sp)
    d590:	dc000015 	stw	r16,0(sp)
    d594:	2023883a 	mov	r17,r4
    d598:	2821883a 	mov	r16,r5
    d59c:	39000204 	addi	r4,r7,8
    d5a0:	01400244 	movi	r5,9
    d5a4:	dcc00315 	stw	r19,12(sp)
    d5a8:	dc800215 	stw	r18,8(sp)
    d5ac:	dfc00615 	stw	ra,24(sp)
    d5b0:	dd400515 	stw	r21,20(sp)
    d5b4:	dd000415 	stw	r20,16(sp)
    d5b8:	3825883a 	mov	r18,r7
    d5bc:	3027883a 	mov	r19,r6
    d5c0:	00083640 	call	8364 <__divsi3>
    d5c4:	00c00044 	movi	r3,1
    d5c8:	000b883a 	mov	r5,zero
    d5cc:	1880030e 	bge	r3,r2,d5dc <__s2b+0x54>
    d5d0:	18c7883a 	add	r3,r3,r3
    d5d4:	29400044 	addi	r5,r5,1
    d5d8:	18bffd16 	blt	r3,r2,d5d0 <__alt_data_end+0xf800d5d0>
    d5dc:	8809883a 	mov	r4,r17
    d5e0:	000d3a40 	call	d3a4 <_Balloc>
    d5e4:	d8c00717 	ldw	r3,28(sp)
    d5e8:	10c00515 	stw	r3,20(r2)
    d5ec:	00c00044 	movi	r3,1
    d5f0:	10c00415 	stw	r3,16(r2)
    d5f4:	00c00244 	movi	r3,9
    d5f8:	1cc0210e 	bge	r3,r19,d680 <__s2b+0xf8>
    d5fc:	80eb883a 	add	r21,r16,r3
    d600:	a829883a 	mov	r20,r21
    d604:	84e1883a 	add	r16,r16,r19
    d608:	a1c00007 	ldb	r7,0(r20)
    d60c:	8809883a 	mov	r4,r17
    d610:	a5000044 	addi	r20,r20,1
    d614:	100b883a 	mov	r5,r2
    d618:	01800284 	movi	r6,10
    d61c:	39fff404 	addi	r7,r7,-48
    d620:	000d4740 	call	d474 <__multadd>
    d624:	a43ff81e 	bne	r20,r16,d608 <__alt_data_end+0xf800d608>
    d628:	ace1883a 	add	r16,r21,r19
    d62c:	843ffe04 	addi	r16,r16,-8
    d630:	9c800a0e 	bge	r19,r18,d65c <__s2b+0xd4>
    d634:	94e5c83a 	sub	r18,r18,r19
    d638:	84a5883a 	add	r18,r16,r18
    d63c:	81c00007 	ldb	r7,0(r16)
    d640:	8809883a 	mov	r4,r17
    d644:	84000044 	addi	r16,r16,1
    d648:	100b883a 	mov	r5,r2
    d64c:	01800284 	movi	r6,10
    d650:	39fff404 	addi	r7,r7,-48
    d654:	000d4740 	call	d474 <__multadd>
    d658:	84bff81e 	bne	r16,r18,d63c <__alt_data_end+0xf800d63c>
    d65c:	dfc00617 	ldw	ra,24(sp)
    d660:	dd400517 	ldw	r21,20(sp)
    d664:	dd000417 	ldw	r20,16(sp)
    d668:	dcc00317 	ldw	r19,12(sp)
    d66c:	dc800217 	ldw	r18,8(sp)
    d670:	dc400117 	ldw	r17,4(sp)
    d674:	dc000017 	ldw	r16,0(sp)
    d678:	dec00704 	addi	sp,sp,28
    d67c:	f800283a 	ret
    d680:	84000284 	addi	r16,r16,10
    d684:	1827883a 	mov	r19,r3
    d688:	003fe906 	br	d630 <__alt_data_end+0xf800d630>

0000d68c <__hi0bits>:
    d68c:	20bfffec 	andhi	r2,r4,65535
    d690:	1000141e 	bne	r2,zero,d6e4 <__hi0bits+0x58>
    d694:	2008943a 	slli	r4,r4,16
    d698:	00800404 	movi	r2,16
    d69c:	20ffc02c 	andhi	r3,r4,65280
    d6a0:	1800021e 	bne	r3,zero,d6ac <__hi0bits+0x20>
    d6a4:	2008923a 	slli	r4,r4,8
    d6a8:	10800204 	addi	r2,r2,8
    d6ac:	20fc002c 	andhi	r3,r4,61440
    d6b0:	1800021e 	bne	r3,zero,d6bc <__hi0bits+0x30>
    d6b4:	2008913a 	slli	r4,r4,4
    d6b8:	10800104 	addi	r2,r2,4
    d6bc:	20f0002c 	andhi	r3,r4,49152
    d6c0:	1800031e 	bne	r3,zero,d6d0 <__hi0bits+0x44>
    d6c4:	2109883a 	add	r4,r4,r4
    d6c8:	10800084 	addi	r2,r2,2
    d6cc:	2109883a 	add	r4,r4,r4
    d6d0:	20000316 	blt	r4,zero,d6e0 <__hi0bits+0x54>
    d6d4:	2110002c 	andhi	r4,r4,16384
    d6d8:	2000041e 	bne	r4,zero,d6ec <__hi0bits+0x60>
    d6dc:	00800804 	movi	r2,32
    d6e0:	f800283a 	ret
    d6e4:	0005883a 	mov	r2,zero
    d6e8:	003fec06 	br	d69c <__alt_data_end+0xf800d69c>
    d6ec:	10800044 	addi	r2,r2,1
    d6f0:	f800283a 	ret

0000d6f4 <__lo0bits>:
    d6f4:	20c00017 	ldw	r3,0(r4)
    d6f8:	188001cc 	andi	r2,r3,7
    d6fc:	10000826 	beq	r2,zero,d720 <__lo0bits+0x2c>
    d700:	1880004c 	andi	r2,r3,1
    d704:	1000211e 	bne	r2,zero,d78c <__lo0bits+0x98>
    d708:	1880008c 	andi	r2,r3,2
    d70c:	1000211e 	bne	r2,zero,d794 <__lo0bits+0xa0>
    d710:	1806d0ba 	srli	r3,r3,2
    d714:	00800084 	movi	r2,2
    d718:	20c00015 	stw	r3,0(r4)
    d71c:	f800283a 	ret
    d720:	18bfffcc 	andi	r2,r3,65535
    d724:	10001326 	beq	r2,zero,d774 <__lo0bits+0x80>
    d728:	0005883a 	mov	r2,zero
    d72c:	19403fcc 	andi	r5,r3,255
    d730:	2800021e 	bne	r5,zero,d73c <__lo0bits+0x48>
    d734:	1806d23a 	srli	r3,r3,8
    d738:	10800204 	addi	r2,r2,8
    d73c:	194003cc 	andi	r5,r3,15
    d740:	2800021e 	bne	r5,zero,d74c <__lo0bits+0x58>
    d744:	1806d13a 	srli	r3,r3,4
    d748:	10800104 	addi	r2,r2,4
    d74c:	194000cc 	andi	r5,r3,3
    d750:	2800021e 	bne	r5,zero,d75c <__lo0bits+0x68>
    d754:	1806d0ba 	srli	r3,r3,2
    d758:	10800084 	addi	r2,r2,2
    d75c:	1940004c 	andi	r5,r3,1
    d760:	2800081e 	bne	r5,zero,d784 <__lo0bits+0x90>
    d764:	1806d07a 	srli	r3,r3,1
    d768:	1800051e 	bne	r3,zero,d780 <__lo0bits+0x8c>
    d76c:	00800804 	movi	r2,32
    d770:	f800283a 	ret
    d774:	1806d43a 	srli	r3,r3,16
    d778:	00800404 	movi	r2,16
    d77c:	003feb06 	br	d72c <__alt_data_end+0xf800d72c>
    d780:	10800044 	addi	r2,r2,1
    d784:	20c00015 	stw	r3,0(r4)
    d788:	f800283a 	ret
    d78c:	0005883a 	mov	r2,zero
    d790:	f800283a 	ret
    d794:	1806d07a 	srli	r3,r3,1
    d798:	00800044 	movi	r2,1
    d79c:	20c00015 	stw	r3,0(r4)
    d7a0:	f800283a 	ret

0000d7a4 <__i2b>:
    d7a4:	defffd04 	addi	sp,sp,-12
    d7a8:	dc000015 	stw	r16,0(sp)
    d7ac:	04000044 	movi	r16,1
    d7b0:	dc400115 	stw	r17,4(sp)
    d7b4:	2823883a 	mov	r17,r5
    d7b8:	800b883a 	mov	r5,r16
    d7bc:	dfc00215 	stw	ra,8(sp)
    d7c0:	000d3a40 	call	d3a4 <_Balloc>
    d7c4:	14400515 	stw	r17,20(r2)
    d7c8:	14000415 	stw	r16,16(r2)
    d7cc:	dfc00217 	ldw	ra,8(sp)
    d7d0:	dc400117 	ldw	r17,4(sp)
    d7d4:	dc000017 	ldw	r16,0(sp)
    d7d8:	dec00304 	addi	sp,sp,12
    d7dc:	f800283a 	ret

0000d7e0 <__multiply>:
    d7e0:	defffa04 	addi	sp,sp,-24
    d7e4:	dcc00315 	stw	r19,12(sp)
    d7e8:	dc800215 	stw	r18,8(sp)
    d7ec:	2cc00417 	ldw	r19,16(r5)
    d7f0:	34800417 	ldw	r18,16(r6)
    d7f4:	dd000415 	stw	r20,16(sp)
    d7f8:	dc400115 	stw	r17,4(sp)
    d7fc:	dfc00515 	stw	ra,20(sp)
    d800:	dc000015 	stw	r16,0(sp)
    d804:	2829883a 	mov	r20,r5
    d808:	3023883a 	mov	r17,r6
    d80c:	9c807016 	blt	r19,r18,d9d0 <__multiply+0x1f0>
    d810:	9005883a 	mov	r2,r18
    d814:	9825883a 	mov	r18,r19
    d818:	1027883a 	mov	r19,r2
    d81c:	a0800217 	ldw	r2,8(r20)
    d820:	94e1883a 	add	r16,r18,r19
    d824:	a1400117 	ldw	r5,4(r20)
    d828:	1400010e 	bge	r2,r16,d830 <__multiply+0x50>
    d82c:	29400044 	addi	r5,r5,1
    d830:	000d3a40 	call	d3a4 <_Balloc>
    d834:	8417883a 	add	r11,r16,r16
    d838:	13000504 	addi	r12,r2,20
    d83c:	5ad7883a 	add	r11,r11,r11
    d840:	62d7883a 	add	r11,r12,r11
    d844:	6007883a 	mov	r3,r12
    d848:	62c0032e 	bgeu	r12,r11,d858 <__multiply+0x78>
    d84c:	18000015 	stw	zero,0(r3)
    d850:	18c00104 	addi	r3,r3,4
    d854:	1afffd36 	bltu	r3,r11,d84c <__alt_data_end+0xf800d84c>
    d858:	9ce7883a 	add	r19,r19,r19
    d85c:	94a5883a 	add	r18,r18,r18
    d860:	89800504 	addi	r6,r17,20
    d864:	9ce7883a 	add	r19,r19,r19
    d868:	a3800504 	addi	r14,r20,20
    d86c:	94a5883a 	add	r18,r18,r18
    d870:	34db883a 	add	r13,r6,r19
    d874:	7495883a 	add	r10,r14,r18
    d878:	3340422e 	bgeu	r6,r13,d984 <__multiply+0x1a4>
    d87c:	34400017 	ldw	r17,0(r6)
    d880:	8cbfffcc 	andi	r18,r17,65535
    d884:	90001b26 	beq	r18,zero,d8f4 <__multiply+0x114>
    d888:	6013883a 	mov	r9,r12
    d88c:	7023883a 	mov	r17,r14
    d890:	0011883a 	mov	r8,zero
    d894:	88c00017 	ldw	r3,0(r17)
    d898:	4bc00017 	ldw	r15,0(r9)
    d89c:	8c400104 	addi	r17,r17,4
    d8a0:	19ffffcc 	andi	r7,r3,65535
    d8a4:	3c8f383a 	mul	r7,r7,r18
    d8a8:	1808d43a 	srli	r4,r3,16
    d8ac:	797fffcc 	andi	r5,r15,65535
    d8b0:	29cb883a 	add	r5,r5,r7
    d8b4:	2a0b883a 	add	r5,r5,r8
    d8b8:	2489383a 	mul	r4,r4,r18
    d8bc:	7806d43a 	srli	r3,r15,16
    d8c0:	2810d43a 	srli	r8,r5,16
    d8c4:	297fffcc 	andi	r5,r5,65535
    d8c8:	1907883a 	add	r3,r3,r4
    d8cc:	1a07883a 	add	r3,r3,r8
    d8d0:	1808943a 	slli	r4,r3,16
    d8d4:	480f883a 	mov	r7,r9
    d8d8:	1810d43a 	srli	r8,r3,16
    d8dc:	214ab03a 	or	r5,r4,r5
    d8e0:	49400015 	stw	r5,0(r9)
    d8e4:	4a400104 	addi	r9,r9,4
    d8e8:	8abfea36 	bltu	r17,r10,d894 <__alt_data_end+0xf800d894>
    d8ec:	3a000115 	stw	r8,4(r7)
    d8f0:	34400017 	ldw	r17,0(r6)
    d8f4:	8822d43a 	srli	r17,r17,16
    d8f8:	88001f26 	beq	r17,zero,d978 <__multiply+0x198>
    d8fc:	60c00017 	ldw	r3,0(r12)
    d900:	7013883a 	mov	r9,r14
    d904:	601f883a 	mov	r15,r12
    d908:	1811883a 	mov	r8,r3
    d90c:	6027883a 	mov	r19,r12
    d910:	000f883a 	mov	r7,zero
    d914:	00000106 	br	d91c <__multiply+0x13c>
    d918:	9027883a 	mov	r19,r18
    d91c:	4940000b 	ldhu	r5,0(r9)
    d920:	4010d43a 	srli	r8,r8,16
    d924:	193fffcc 	andi	r4,r3,65535
    d928:	2c4b383a 	mul	r5,r5,r17
    d92c:	7bc00104 	addi	r15,r15,4
    d930:	4a400104 	addi	r9,r9,4
    d934:	2a0b883a 	add	r5,r5,r8
    d938:	29cb883a 	add	r5,r5,r7
    d93c:	2806943a 	slli	r3,r5,16
    d940:	9c800104 	addi	r18,r19,4
    d944:	280ad43a 	srli	r5,r5,16
    d948:	1908b03a 	or	r4,r3,r4
    d94c:	793fff15 	stw	r4,-4(r15)
    d950:	48ffff17 	ldw	r3,-4(r9)
    d954:	92000017 	ldw	r8,0(r18)
    d958:	1806d43a 	srli	r3,r3,16
    d95c:	413fffcc 	andi	r4,r8,65535
    d960:	1c47383a 	mul	r3,r3,r17
    d964:	1907883a 	add	r3,r3,r4
    d968:	1947883a 	add	r3,r3,r5
    d96c:	180ed43a 	srli	r7,r3,16
    d970:	4abfe936 	bltu	r9,r10,d918 <__alt_data_end+0xf800d918>
    d974:	98c00115 	stw	r3,4(r19)
    d978:	31800104 	addi	r6,r6,4
    d97c:	63000104 	addi	r12,r12,4
    d980:	337fbe36 	bltu	r6,r13,d87c <__alt_data_end+0xf800d87c>
    d984:	0400090e 	bge	zero,r16,d9ac <__multiply+0x1cc>
    d988:	58ffff17 	ldw	r3,-4(r11)
    d98c:	5affff04 	addi	r11,r11,-4
    d990:	18000326 	beq	r3,zero,d9a0 <__multiply+0x1c0>
    d994:	00000506 	br	d9ac <__multiply+0x1cc>
    d998:	58c00017 	ldw	r3,0(r11)
    d99c:	1800031e 	bne	r3,zero,d9ac <__multiply+0x1cc>
    d9a0:	843fffc4 	addi	r16,r16,-1
    d9a4:	5affff04 	addi	r11,r11,-4
    d9a8:	803ffb1e 	bne	r16,zero,d998 <__alt_data_end+0xf800d998>
    d9ac:	14000415 	stw	r16,16(r2)
    d9b0:	dfc00517 	ldw	ra,20(sp)
    d9b4:	dd000417 	ldw	r20,16(sp)
    d9b8:	dcc00317 	ldw	r19,12(sp)
    d9bc:	dc800217 	ldw	r18,8(sp)
    d9c0:	dc400117 	ldw	r17,4(sp)
    d9c4:	dc000017 	ldw	r16,0(sp)
    d9c8:	dec00604 	addi	sp,sp,24
    d9cc:	f800283a 	ret
    d9d0:	3029883a 	mov	r20,r6
    d9d4:	2823883a 	mov	r17,r5
    d9d8:	003f9006 	br	d81c <__alt_data_end+0xf800d81c>

0000d9dc <__pow5mult>:
    d9dc:	defffa04 	addi	sp,sp,-24
    d9e0:	dcc00315 	stw	r19,12(sp)
    d9e4:	dc800215 	stw	r18,8(sp)
    d9e8:	dc000015 	stw	r16,0(sp)
    d9ec:	dfc00515 	stw	ra,20(sp)
    d9f0:	dd000415 	stw	r20,16(sp)
    d9f4:	dc400115 	stw	r17,4(sp)
    d9f8:	308000cc 	andi	r2,r6,3
    d9fc:	3021883a 	mov	r16,r6
    da00:	2027883a 	mov	r19,r4
    da04:	2825883a 	mov	r18,r5
    da08:	10002e1e 	bne	r2,zero,dac4 <__pow5mult+0xe8>
    da0c:	8021d0ba 	srai	r16,r16,2
    da10:	80001a26 	beq	r16,zero,da7c <__pow5mult+0xa0>
    da14:	9c401217 	ldw	r17,72(r19)
    da18:	8800061e 	bne	r17,zero,da34 <__pow5mult+0x58>
    da1c:	00003406 	br	daf0 <__pow5mult+0x114>
    da20:	8021d07a 	srai	r16,r16,1
    da24:	80001526 	beq	r16,zero,da7c <__pow5mult+0xa0>
    da28:	88800017 	ldw	r2,0(r17)
    da2c:	10001c26 	beq	r2,zero,daa0 <__pow5mult+0xc4>
    da30:	1023883a 	mov	r17,r2
    da34:	80c0004c 	andi	r3,r16,1
    da38:	183ff926 	beq	r3,zero,da20 <__alt_data_end+0xf800da20>
    da3c:	900b883a 	mov	r5,r18
    da40:	880d883a 	mov	r6,r17
    da44:	9809883a 	mov	r4,r19
    da48:	000d7e00 	call	d7e0 <__multiply>
    da4c:	90001b26 	beq	r18,zero,dabc <__pow5mult+0xe0>
    da50:	91c00117 	ldw	r7,4(r18)
    da54:	98c01317 	ldw	r3,76(r19)
    da58:	8021d07a 	srai	r16,r16,1
    da5c:	39cf883a 	add	r7,r7,r7
    da60:	39cf883a 	add	r7,r7,r7
    da64:	19c7883a 	add	r3,r3,r7
    da68:	19000017 	ldw	r4,0(r3)
    da6c:	91000015 	stw	r4,0(r18)
    da70:	1c800015 	stw	r18,0(r3)
    da74:	1025883a 	mov	r18,r2
    da78:	803feb1e 	bne	r16,zero,da28 <__alt_data_end+0xf800da28>
    da7c:	9005883a 	mov	r2,r18
    da80:	dfc00517 	ldw	ra,20(sp)
    da84:	dd000417 	ldw	r20,16(sp)
    da88:	dcc00317 	ldw	r19,12(sp)
    da8c:	dc800217 	ldw	r18,8(sp)
    da90:	dc400117 	ldw	r17,4(sp)
    da94:	dc000017 	ldw	r16,0(sp)
    da98:	dec00604 	addi	sp,sp,24
    da9c:	f800283a 	ret
    daa0:	9809883a 	mov	r4,r19
    daa4:	880b883a 	mov	r5,r17
    daa8:	880d883a 	mov	r6,r17
    daac:	000d7e00 	call	d7e0 <__multiply>
    dab0:	88800015 	stw	r2,0(r17)
    dab4:	10000015 	stw	zero,0(r2)
    dab8:	003fdd06 	br	da30 <__alt_data_end+0xf800da30>
    dabc:	1025883a 	mov	r18,r2
    dac0:	003fd706 	br	da20 <__alt_data_end+0xf800da20>
    dac4:	10bfffc4 	addi	r2,r2,-1
    dac8:	1085883a 	add	r2,r2,r2
    dacc:	00c00374 	movhi	r3,13
    dad0:	18c30b04 	addi	r3,r3,3116
    dad4:	1085883a 	add	r2,r2,r2
    dad8:	1885883a 	add	r2,r3,r2
    dadc:	11800017 	ldw	r6,0(r2)
    dae0:	000f883a 	mov	r7,zero
    dae4:	000d4740 	call	d474 <__multadd>
    dae8:	1025883a 	mov	r18,r2
    daec:	003fc706 	br	da0c <__alt_data_end+0xf800da0c>
    daf0:	05000044 	movi	r20,1
    daf4:	9809883a 	mov	r4,r19
    daf8:	a00b883a 	mov	r5,r20
    dafc:	000d3a40 	call	d3a4 <_Balloc>
    db00:	1023883a 	mov	r17,r2
    db04:	00809c44 	movi	r2,625
    db08:	88800515 	stw	r2,20(r17)
    db0c:	8d000415 	stw	r20,16(r17)
    db10:	9c401215 	stw	r17,72(r19)
    db14:	88000015 	stw	zero,0(r17)
    db18:	003fc606 	br	da34 <__alt_data_end+0xf800da34>

0000db1c <__lshift>:
    db1c:	defff904 	addi	sp,sp,-28
    db20:	dd000415 	stw	r20,16(sp)
    db24:	dcc00315 	stw	r19,12(sp)
    db28:	3029d17a 	srai	r20,r6,5
    db2c:	2cc00417 	ldw	r19,16(r5)
    db30:	28800217 	ldw	r2,8(r5)
    db34:	dd400515 	stw	r21,20(sp)
    db38:	a4e7883a 	add	r19,r20,r19
    db3c:	dc800215 	stw	r18,8(sp)
    db40:	dc400115 	stw	r17,4(sp)
    db44:	dc000015 	stw	r16,0(sp)
    db48:	dfc00615 	stw	ra,24(sp)
    db4c:	9c000044 	addi	r16,r19,1
    db50:	2823883a 	mov	r17,r5
    db54:	302b883a 	mov	r21,r6
    db58:	2025883a 	mov	r18,r4
    db5c:	29400117 	ldw	r5,4(r5)
    db60:	1400030e 	bge	r2,r16,db70 <__lshift+0x54>
    db64:	1085883a 	add	r2,r2,r2
    db68:	29400044 	addi	r5,r5,1
    db6c:	143ffd16 	blt	r2,r16,db64 <__alt_data_end+0xf800db64>
    db70:	9009883a 	mov	r4,r18
    db74:	000d3a40 	call	d3a4 <_Balloc>
    db78:	11c00504 	addi	r7,r2,20
    db7c:	0500090e 	bge	zero,r20,dba4 <__lshift+0x88>
    db80:	3811883a 	mov	r8,r7
    db84:	0007883a 	mov	r3,zero
    db88:	40000015 	stw	zero,0(r8)
    db8c:	18c00044 	addi	r3,r3,1
    db90:	42000104 	addi	r8,r8,4
    db94:	1d3ffc1e 	bne	r3,r20,db88 <__alt_data_end+0xf800db88>
    db98:	18c7883a 	add	r3,r3,r3
    db9c:	18c7883a 	add	r3,r3,r3
    dba0:	38cf883a 	add	r7,r7,r3
    dba4:	89000417 	ldw	r4,16(r17)
    dba8:	88c00504 	addi	r3,r17,20
    dbac:	a98007cc 	andi	r6,r21,31
    dbb0:	2109883a 	add	r4,r4,r4
    dbb4:	2109883a 	add	r4,r4,r4
    dbb8:	1909883a 	add	r4,r3,r4
    dbbc:	30002326 	beq	r6,zero,dc4c <__lshift+0x130>
    dbc0:	01400804 	movi	r5,32
    dbc4:	298bc83a 	sub	r5,r5,r6
    dbc8:	0013883a 	mov	r9,zero
    dbcc:	1a000017 	ldw	r8,0(r3)
    dbd0:	3815883a 	mov	r10,r7
    dbd4:	39c00104 	addi	r7,r7,4
    dbd8:	4190983a 	sll	r8,r8,r6
    dbdc:	18c00104 	addi	r3,r3,4
    dbe0:	4a10b03a 	or	r8,r9,r8
    dbe4:	3a3fff15 	stw	r8,-4(r7)
    dbe8:	1a3fff17 	ldw	r8,-4(r3)
    dbec:	4152d83a 	srl	r9,r8,r5
    dbf0:	193ff636 	bltu	r3,r4,dbcc <__alt_data_end+0xf800dbcc>
    dbf4:	52400115 	stw	r9,4(r10)
    dbf8:	48000126 	beq	r9,zero,dc00 <__lshift+0xe4>
    dbfc:	9c000084 	addi	r16,r19,2
    dc00:	89000117 	ldw	r4,4(r17)
    dc04:	90c01317 	ldw	r3,76(r18)
    dc08:	843fffc4 	addi	r16,r16,-1
    dc0c:	2109883a 	add	r4,r4,r4
    dc10:	2109883a 	add	r4,r4,r4
    dc14:	1907883a 	add	r3,r3,r4
    dc18:	19000017 	ldw	r4,0(r3)
    dc1c:	14000415 	stw	r16,16(r2)
    dc20:	89000015 	stw	r4,0(r17)
    dc24:	1c400015 	stw	r17,0(r3)
    dc28:	dfc00617 	ldw	ra,24(sp)
    dc2c:	dd400517 	ldw	r21,20(sp)
    dc30:	dd000417 	ldw	r20,16(sp)
    dc34:	dcc00317 	ldw	r19,12(sp)
    dc38:	dc800217 	ldw	r18,8(sp)
    dc3c:	dc400117 	ldw	r17,4(sp)
    dc40:	dc000017 	ldw	r16,0(sp)
    dc44:	dec00704 	addi	sp,sp,28
    dc48:	f800283a 	ret
    dc4c:	19400017 	ldw	r5,0(r3)
    dc50:	39c00104 	addi	r7,r7,4
    dc54:	18c00104 	addi	r3,r3,4
    dc58:	397fff15 	stw	r5,-4(r7)
    dc5c:	193ffb36 	bltu	r3,r4,dc4c <__alt_data_end+0xf800dc4c>
    dc60:	003fe706 	br	dc00 <__alt_data_end+0xf800dc00>

0000dc64 <__mcmp>:
    dc64:	20800417 	ldw	r2,16(r4)
    dc68:	28c00417 	ldw	r3,16(r5)
    dc6c:	10c5c83a 	sub	r2,r2,r3
    dc70:	1000111e 	bne	r2,zero,dcb8 <__mcmp+0x54>
    dc74:	18c7883a 	add	r3,r3,r3
    dc78:	18c7883a 	add	r3,r3,r3
    dc7c:	21000504 	addi	r4,r4,20
    dc80:	29400504 	addi	r5,r5,20
    dc84:	20c5883a 	add	r2,r4,r3
    dc88:	28cb883a 	add	r5,r5,r3
    dc8c:	00000106 	br	dc94 <__mcmp+0x30>
    dc90:	20800a2e 	bgeu	r4,r2,dcbc <__mcmp+0x58>
    dc94:	10bfff04 	addi	r2,r2,-4
    dc98:	297fff04 	addi	r5,r5,-4
    dc9c:	11800017 	ldw	r6,0(r2)
    dca0:	28c00017 	ldw	r3,0(r5)
    dca4:	30fffa26 	beq	r6,r3,dc90 <__alt_data_end+0xf800dc90>
    dca8:	30c00236 	bltu	r6,r3,dcb4 <__mcmp+0x50>
    dcac:	00800044 	movi	r2,1
    dcb0:	f800283a 	ret
    dcb4:	00bfffc4 	movi	r2,-1
    dcb8:	f800283a 	ret
    dcbc:	0005883a 	mov	r2,zero
    dcc0:	f800283a 	ret

0000dcc4 <__mdiff>:
    dcc4:	defffb04 	addi	sp,sp,-20
    dcc8:	dc000015 	stw	r16,0(sp)
    dccc:	2821883a 	mov	r16,r5
    dcd0:	dcc00315 	stw	r19,12(sp)
    dcd4:	300b883a 	mov	r5,r6
    dcd8:	2027883a 	mov	r19,r4
    dcdc:	8009883a 	mov	r4,r16
    dce0:	dc800215 	stw	r18,8(sp)
    dce4:	dfc00415 	stw	ra,16(sp)
    dce8:	dc400115 	stw	r17,4(sp)
    dcec:	3025883a 	mov	r18,r6
    dcf0:	000dc640 	call	dc64 <__mcmp>
    dcf4:	10005226 	beq	r2,zero,de40 <__mdiff+0x17c>
    dcf8:	10004c16 	blt	r2,zero,de2c <__mdiff+0x168>
    dcfc:	0023883a 	mov	r17,zero
    dd00:	81400117 	ldw	r5,4(r16)
    dd04:	9809883a 	mov	r4,r19
    dd08:	000d3a40 	call	d3a4 <_Balloc>
    dd0c:	83400417 	ldw	r13,16(r16)
    dd10:	93800417 	ldw	r14,16(r18)
    dd14:	81000504 	addi	r4,r16,20
    dd18:	6b59883a 	add	r12,r13,r13
    dd1c:	739d883a 	add	r14,r14,r14
    dd20:	6319883a 	add	r12,r12,r12
    dd24:	91800504 	addi	r6,r18,20
    dd28:	739d883a 	add	r14,r14,r14
    dd2c:	14400315 	stw	r17,12(r2)
    dd30:	2319883a 	add	r12,r4,r12
    dd34:	339d883a 	add	r14,r6,r14
    dd38:	12400504 	addi	r9,r2,20
    dd3c:	0007883a 	mov	r3,zero
    dd40:	22000017 	ldw	r8,0(r4)
    dd44:	32800017 	ldw	r10,0(r6)
    dd48:	4ac00104 	addi	r11,r9,4
    dd4c:	41ffffcc 	andi	r7,r8,65535
    dd50:	38c7883a 	add	r3,r7,r3
    dd54:	51ffffcc 	andi	r7,r10,65535
    dd58:	19cfc83a 	sub	r7,r3,r7
    dd5c:	4010d43a 	srli	r8,r8,16
    dd60:	5014d43a 	srli	r10,r10,16
    dd64:	3807d43a 	srai	r3,r7,16
    dd68:	39ffffcc 	andi	r7,r7,65535
    dd6c:	4291c83a 	sub	r8,r8,r10
    dd70:	40c7883a 	add	r3,r8,r3
    dd74:	1810943a 	slli	r8,r3,16
    dd78:	31800104 	addi	r6,r6,4
    dd7c:	21000104 	addi	r4,r4,4
    dd80:	41ceb03a 	or	r7,r8,r7
    dd84:	49c00015 	stw	r7,0(r9)
    dd88:	1807d43a 	srai	r3,r3,16
    dd8c:	580b883a 	mov	r5,r11
    dd90:	5813883a 	mov	r9,r11
    dd94:	33bfea36 	bltu	r6,r14,dd40 <__alt_data_end+0xf800dd40>
    dd98:	2011883a 	mov	r8,r4
    dd9c:	2300152e 	bgeu	r4,r12,ddf4 <__mdiff+0x130>
    dda0:	21400017 	ldw	r5,0(r4)
    dda4:	4a400104 	addi	r9,r9,4
    dda8:	21000104 	addi	r4,r4,4
    ddac:	29ffffcc 	andi	r7,r5,65535
    ddb0:	38c7883a 	add	r3,r7,r3
    ddb4:	280ad43a 	srli	r5,r5,16
    ddb8:	180dd43a 	srai	r6,r3,16
    ddbc:	19ffffcc 	andi	r7,r3,65535
    ddc0:	3147883a 	add	r3,r6,r5
    ddc4:	180a943a 	slli	r5,r3,16
    ddc8:	1807d43a 	srai	r3,r3,16
    ddcc:	29ceb03a 	or	r7,r5,r7
    ddd0:	49ffff15 	stw	r7,-4(r9)
    ddd4:	233ff236 	bltu	r4,r12,dda0 <__alt_data_end+0xf800dda0>
    ddd8:	0206303a 	nor	r3,zero,r8
    dddc:	1b07883a 	add	r3,r3,r12
    dde0:	1806d0ba 	srli	r3,r3,2
    dde4:	18c00044 	addi	r3,r3,1
    dde8:	18c7883a 	add	r3,r3,r3
    ddec:	18c7883a 	add	r3,r3,r3
    ddf0:	58cb883a 	add	r5,r11,r3
    ddf4:	28ffff04 	addi	r3,r5,-4
    ddf8:	3800041e 	bne	r7,zero,de0c <__mdiff+0x148>
    ddfc:	18ffff04 	addi	r3,r3,-4
    de00:	19000017 	ldw	r4,0(r3)
    de04:	6b7fffc4 	addi	r13,r13,-1
    de08:	203ffc26 	beq	r4,zero,ddfc <__alt_data_end+0xf800ddfc>
    de0c:	13400415 	stw	r13,16(r2)
    de10:	dfc00417 	ldw	ra,16(sp)
    de14:	dcc00317 	ldw	r19,12(sp)
    de18:	dc800217 	ldw	r18,8(sp)
    de1c:	dc400117 	ldw	r17,4(sp)
    de20:	dc000017 	ldw	r16,0(sp)
    de24:	dec00504 	addi	sp,sp,20
    de28:	f800283a 	ret
    de2c:	8005883a 	mov	r2,r16
    de30:	04400044 	movi	r17,1
    de34:	9021883a 	mov	r16,r18
    de38:	1025883a 	mov	r18,r2
    de3c:	003fb006 	br	dd00 <__alt_data_end+0xf800dd00>
    de40:	9809883a 	mov	r4,r19
    de44:	000b883a 	mov	r5,zero
    de48:	000d3a40 	call	d3a4 <_Balloc>
    de4c:	00c00044 	movi	r3,1
    de50:	10c00415 	stw	r3,16(r2)
    de54:	10000515 	stw	zero,20(r2)
    de58:	003fed06 	br	de10 <__alt_data_end+0xf800de10>

0000de5c <__ulp>:
    de5c:	295ffc2c 	andhi	r5,r5,32752
    de60:	00bf3034 	movhi	r2,64704
    de64:	2887883a 	add	r3,r5,r2
    de68:	00c0020e 	bge	zero,r3,de74 <__ulp+0x18>
    de6c:	0005883a 	mov	r2,zero
    de70:	f800283a 	ret
    de74:	00c7c83a 	sub	r3,zero,r3
    de78:	180bd53a 	srai	r5,r3,20
    de7c:	008004c4 	movi	r2,19
    de80:	11400a0e 	bge	r2,r5,deac <__ulp+0x50>
    de84:	00800c84 	movi	r2,50
    de88:	0007883a 	mov	r3,zero
    de8c:	11400516 	blt	r2,r5,dea4 <__ulp+0x48>
    de90:	00800cc4 	movi	r2,51
    de94:	114bc83a 	sub	r5,r2,r5
    de98:	00800044 	movi	r2,1
    de9c:	1144983a 	sll	r2,r2,r5
    dea0:	f800283a 	ret
    dea4:	00800044 	movi	r2,1
    dea8:	f800283a 	ret
    deac:	00800234 	movhi	r2,8
    deb0:	1147d83a 	sra	r3,r2,r5
    deb4:	0005883a 	mov	r2,zero
    deb8:	f800283a 	ret

0000debc <__b2d>:
    debc:	defffa04 	addi	sp,sp,-24
    dec0:	dc000015 	stw	r16,0(sp)
    dec4:	24000417 	ldw	r16,16(r4)
    dec8:	dc400115 	stw	r17,4(sp)
    decc:	24400504 	addi	r17,r4,20
    ded0:	8421883a 	add	r16,r16,r16
    ded4:	8421883a 	add	r16,r16,r16
    ded8:	8c21883a 	add	r16,r17,r16
    dedc:	dc800215 	stw	r18,8(sp)
    dee0:	84bfff17 	ldw	r18,-4(r16)
    dee4:	dd000415 	stw	r20,16(sp)
    dee8:	dcc00315 	stw	r19,12(sp)
    deec:	9009883a 	mov	r4,r18
    def0:	2829883a 	mov	r20,r5
    def4:	dfc00515 	stw	ra,20(sp)
    def8:	000d68c0 	call	d68c <__hi0bits>
    defc:	00c00804 	movi	r3,32
    df00:	1887c83a 	sub	r3,r3,r2
    df04:	a0c00015 	stw	r3,0(r20)
    df08:	00c00284 	movi	r3,10
    df0c:	84ffff04 	addi	r19,r16,-4
    df10:	18801216 	blt	r3,r2,df5c <__b2d+0xa0>
    df14:	014002c4 	movi	r5,11
    df18:	2889c83a 	sub	r4,r5,r2
    df1c:	9106d83a 	srl	r3,r18,r4
    df20:	18cffc34 	orhi	r3,r3,16368
    df24:	8cc0282e 	bgeu	r17,r19,dfc8 <__b2d+0x10c>
    df28:	817ffe17 	ldw	r5,-8(r16)
    df2c:	290ad83a 	srl	r5,r5,r4
    df30:	10800544 	addi	r2,r2,21
    df34:	9084983a 	sll	r2,r18,r2
    df38:	2884b03a 	or	r2,r5,r2
    df3c:	dfc00517 	ldw	ra,20(sp)
    df40:	dd000417 	ldw	r20,16(sp)
    df44:	dcc00317 	ldw	r19,12(sp)
    df48:	dc800217 	ldw	r18,8(sp)
    df4c:	dc400117 	ldw	r17,4(sp)
    df50:	dc000017 	ldw	r16,0(sp)
    df54:	dec00604 	addi	sp,sp,24
    df58:	f800283a 	ret
    df5c:	113ffd44 	addi	r4,r2,-11
    df60:	8cc00f2e 	bgeu	r17,r19,dfa0 <__b2d+0xe4>
    df64:	81bffe04 	addi	r6,r16,-8
    df68:	817ffe17 	ldw	r5,-8(r16)
    df6c:	20001326 	beq	r4,zero,dfbc <__b2d+0x100>
    df70:	00c00ac4 	movi	r3,43
    df74:	1885c83a 	sub	r2,r3,r2
    df78:	2886d83a 	srl	r3,r5,r2
    df7c:	9124983a 	sll	r18,r18,r4
    df80:	90e4b03a 	or	r18,r18,r3
    df84:	90cffc34 	orhi	r3,r18,16368
    df88:	8980112e 	bgeu	r17,r6,dfd0 <__b2d+0x114>
    df8c:	81bffd17 	ldw	r6,-12(r16)
    df90:	308cd83a 	srl	r6,r6,r2
    df94:	2904983a 	sll	r2,r5,r4
    df98:	1184b03a 	or	r2,r2,r6
    df9c:	003fe706 	br	df3c <__alt_data_end+0xf800df3c>
    dfa0:	20000526 	beq	r4,zero,dfb8 <__b2d+0xfc>
    dfa4:	9124983a 	sll	r18,r18,r4
    dfa8:	000d883a 	mov	r6,zero
    dfac:	000b883a 	mov	r5,zero
    dfb0:	90cffc34 	orhi	r3,r18,16368
    dfb4:	003ff706 	br	df94 <__alt_data_end+0xf800df94>
    dfb8:	000b883a 	mov	r5,zero
    dfbc:	90cffc34 	orhi	r3,r18,16368
    dfc0:	2805883a 	mov	r2,r5
    dfc4:	003fdd06 	br	df3c <__alt_data_end+0xf800df3c>
    dfc8:	000b883a 	mov	r5,zero
    dfcc:	003fd806 	br	df30 <__alt_data_end+0xf800df30>
    dfd0:	000d883a 	mov	r6,zero
    dfd4:	003fef06 	br	df94 <__alt_data_end+0xf800df94>

0000dfd8 <__d2b>:
    dfd8:	defff704 	addi	sp,sp,-36
    dfdc:	dc000215 	stw	r16,8(sp)
    dfe0:	3021883a 	mov	r16,r6
    dfe4:	dc400315 	stw	r17,12(sp)
    dfe8:	8022907a 	slli	r17,r16,1
    dfec:	dd400715 	stw	r21,28(sp)
    dff0:	282b883a 	mov	r21,r5
    dff4:	01400044 	movi	r5,1
    dff8:	dd000615 	stw	r20,24(sp)
    dffc:	dcc00515 	stw	r19,20(sp)
    e000:	dc800415 	stw	r18,16(sp)
    e004:	dfc00815 	stw	ra,32(sp)
    e008:	3829883a 	mov	r20,r7
    e00c:	dc800917 	ldw	r18,36(sp)
    e010:	8822d57a 	srli	r17,r17,21
    e014:	000d3a40 	call	d3a4 <_Balloc>
    e018:	1027883a 	mov	r19,r2
    e01c:	00800434 	movhi	r2,16
    e020:	10bfffc4 	addi	r2,r2,-1
    e024:	808c703a 	and	r6,r16,r2
    e028:	88000126 	beq	r17,zero,e030 <__d2b+0x58>
    e02c:	31800434 	orhi	r6,r6,16
    e030:	d9800015 	stw	r6,0(sp)
    e034:	a8001f26 	beq	r21,zero,e0b4 <__d2b+0xdc>
    e038:	d9000104 	addi	r4,sp,4
    e03c:	dd400115 	stw	r21,4(sp)
    e040:	000d6f40 	call	d6f4 <__lo0bits>
    e044:	d8c00017 	ldw	r3,0(sp)
    e048:	1000291e 	bne	r2,zero,e0f0 <__d2b+0x118>
    e04c:	d9000117 	ldw	r4,4(sp)
    e050:	99000515 	stw	r4,20(r19)
    e054:	1820c03a 	cmpne	r16,r3,zero
    e058:	84000044 	addi	r16,r16,1
    e05c:	98c00615 	stw	r3,24(r19)
    e060:	9c000415 	stw	r16,16(r19)
    e064:	88001b1e 	bne	r17,zero,e0d4 <__d2b+0xfc>
    e068:	800690ba 	slli	r3,r16,2
    e06c:	10bef384 	addi	r2,r2,-1074
    e070:	a0800015 	stw	r2,0(r20)
    e074:	98c5883a 	add	r2,r19,r3
    e078:	11000417 	ldw	r4,16(r2)
    e07c:	8020917a 	slli	r16,r16,5
    e080:	000d68c0 	call	d68c <__hi0bits>
    e084:	8085c83a 	sub	r2,r16,r2
    e088:	90800015 	stw	r2,0(r18)
    e08c:	9805883a 	mov	r2,r19
    e090:	dfc00817 	ldw	ra,32(sp)
    e094:	dd400717 	ldw	r21,28(sp)
    e098:	dd000617 	ldw	r20,24(sp)
    e09c:	dcc00517 	ldw	r19,20(sp)
    e0a0:	dc800417 	ldw	r18,16(sp)
    e0a4:	dc400317 	ldw	r17,12(sp)
    e0a8:	dc000217 	ldw	r16,8(sp)
    e0ac:	dec00904 	addi	sp,sp,36
    e0b0:	f800283a 	ret
    e0b4:	d809883a 	mov	r4,sp
    e0b8:	000d6f40 	call	d6f4 <__lo0bits>
    e0bc:	d8c00017 	ldw	r3,0(sp)
    e0c0:	04000044 	movi	r16,1
    e0c4:	9c000415 	stw	r16,16(r19)
    e0c8:	98c00515 	stw	r3,20(r19)
    e0cc:	10800804 	addi	r2,r2,32
    e0d0:	883fe526 	beq	r17,zero,e068 <__alt_data_end+0xf800e068>
    e0d4:	8c7ef344 	addi	r17,r17,-1075
    e0d8:	88a3883a 	add	r17,r17,r2
    e0dc:	00c00d44 	movi	r3,53
    e0e0:	a4400015 	stw	r17,0(r20)
    e0e4:	1885c83a 	sub	r2,r3,r2
    e0e8:	90800015 	stw	r2,0(r18)
    e0ec:	003fe706 	br	e08c <__alt_data_end+0xf800e08c>
    e0f0:	01000804 	movi	r4,32
    e0f4:	2089c83a 	sub	r4,r4,r2
    e0f8:	1908983a 	sll	r4,r3,r4
    e0fc:	d9400117 	ldw	r5,4(sp)
    e100:	1886d83a 	srl	r3,r3,r2
    e104:	2148b03a 	or	r4,r4,r5
    e108:	99000515 	stw	r4,20(r19)
    e10c:	d8c00015 	stw	r3,0(sp)
    e110:	003fd006 	br	e054 <__alt_data_end+0xf800e054>

0000e114 <__ratio>:
    e114:	defff904 	addi	sp,sp,-28
    e118:	dc400315 	stw	r17,12(sp)
    e11c:	2823883a 	mov	r17,r5
    e120:	d9400104 	addi	r5,sp,4
    e124:	dfc00615 	stw	ra,24(sp)
    e128:	dcc00515 	stw	r19,20(sp)
    e12c:	dc800415 	stw	r18,16(sp)
    e130:	2027883a 	mov	r19,r4
    e134:	dc000215 	stw	r16,8(sp)
    e138:	000debc0 	call	debc <__b2d>
    e13c:	8809883a 	mov	r4,r17
    e140:	d80b883a 	mov	r5,sp
    e144:	1025883a 	mov	r18,r2
    e148:	1821883a 	mov	r16,r3
    e14c:	000debc0 	call	debc <__b2d>
    e150:	8a400417 	ldw	r9,16(r17)
    e154:	9a000417 	ldw	r8,16(r19)
    e158:	100d883a 	mov	r6,r2
    e15c:	d8800017 	ldw	r2,0(sp)
    e160:	4251c83a 	sub	r8,r8,r9
    e164:	4012917a 	slli	r9,r8,5
    e168:	da000117 	ldw	r8,4(sp)
    e16c:	4091c83a 	sub	r8,r8,r2
    e170:	4251883a 	add	r8,r8,r9
    e174:	02000d0e 	bge	zero,r8,e1ac <__ratio+0x98>
    e178:	4010953a 	slli	r8,r8,20
    e17c:	4421883a 	add	r16,r8,r16
    e180:	9009883a 	mov	r4,r18
    e184:	800b883a 	mov	r5,r16
    e188:	180f883a 	mov	r7,r3
    e18c:	00113480 	call	11348 <__divdf3>
    e190:	dfc00617 	ldw	ra,24(sp)
    e194:	dcc00517 	ldw	r19,20(sp)
    e198:	dc800417 	ldw	r18,16(sp)
    e19c:	dc400317 	ldw	r17,12(sp)
    e1a0:	dc000217 	ldw	r16,8(sp)
    e1a4:	dec00704 	addi	sp,sp,28
    e1a8:	f800283a 	ret
    e1ac:	4010953a 	slli	r8,r8,20
    e1b0:	1a07c83a 	sub	r3,r3,r8
    e1b4:	003ff206 	br	e180 <__alt_data_end+0xf800e180>

0000e1b8 <_mprec_log10>:
    e1b8:	defffe04 	addi	sp,sp,-8
    e1bc:	dc000015 	stw	r16,0(sp)
    e1c0:	dfc00115 	stw	ra,4(sp)
    e1c4:	008005c4 	movi	r2,23
    e1c8:	2021883a 	mov	r16,r4
    e1cc:	11000d0e 	bge	r2,r4,e204 <_mprec_log10+0x4c>
    e1d0:	0005883a 	mov	r2,zero
    e1d4:	00cffc34 	movhi	r3,16368
    e1d8:	843fffc4 	addi	r16,r16,-1
    e1dc:	1009883a 	mov	r4,r2
    e1e0:	180b883a 	mov	r5,r3
    e1e4:	000d883a 	mov	r6,zero
    e1e8:	01d00934 	movhi	r7,16420
    e1ec:	0011e580 	call	11e58 <__muldf3>
    e1f0:	803ff91e 	bne	r16,zero,e1d8 <__alt_data_end+0xf800e1d8>
    e1f4:	dfc00117 	ldw	ra,4(sp)
    e1f8:	dc000017 	ldw	r16,0(sp)
    e1fc:	dec00204 	addi	sp,sp,8
    e200:	f800283a 	ret
    e204:	202090fa 	slli	r16,r4,3
    e208:	00800374 	movhi	r2,13
    e20c:	10832204 	addi	r2,r2,3208
    e210:	1421883a 	add	r16,r2,r16
    e214:	80800017 	ldw	r2,0(r16)
    e218:	80c00117 	ldw	r3,4(r16)
    e21c:	dfc00117 	ldw	ra,4(sp)
    e220:	dc000017 	ldw	r16,0(sp)
    e224:	dec00204 	addi	sp,sp,8
    e228:	f800283a 	ret

0000e22c <__copybits>:
    e22c:	297fffc4 	addi	r5,r5,-1
    e230:	280fd17a 	srai	r7,r5,5
    e234:	30c00417 	ldw	r3,16(r6)
    e238:	30800504 	addi	r2,r6,20
    e23c:	39c00044 	addi	r7,r7,1
    e240:	18c7883a 	add	r3,r3,r3
    e244:	39cf883a 	add	r7,r7,r7
    e248:	18c7883a 	add	r3,r3,r3
    e24c:	39cf883a 	add	r7,r7,r7
    e250:	10c7883a 	add	r3,r2,r3
    e254:	21cf883a 	add	r7,r4,r7
    e258:	10c00d2e 	bgeu	r2,r3,e290 <__copybits+0x64>
    e25c:	200b883a 	mov	r5,r4
    e260:	12000017 	ldw	r8,0(r2)
    e264:	29400104 	addi	r5,r5,4
    e268:	10800104 	addi	r2,r2,4
    e26c:	2a3fff15 	stw	r8,-4(r5)
    e270:	10fffb36 	bltu	r2,r3,e260 <__alt_data_end+0xf800e260>
    e274:	1985c83a 	sub	r2,r3,r6
    e278:	10bffac4 	addi	r2,r2,-21
    e27c:	1004d0ba 	srli	r2,r2,2
    e280:	10800044 	addi	r2,r2,1
    e284:	1085883a 	add	r2,r2,r2
    e288:	1085883a 	add	r2,r2,r2
    e28c:	2089883a 	add	r4,r4,r2
    e290:	21c0032e 	bgeu	r4,r7,e2a0 <__copybits+0x74>
    e294:	20000015 	stw	zero,0(r4)
    e298:	21000104 	addi	r4,r4,4
    e29c:	21fffd36 	bltu	r4,r7,e294 <__alt_data_end+0xf800e294>
    e2a0:	f800283a 	ret

0000e2a4 <__any_on>:
    e2a4:	20c00417 	ldw	r3,16(r4)
    e2a8:	2805d17a 	srai	r2,r5,5
    e2ac:	21000504 	addi	r4,r4,20
    e2b0:	18800d0e 	bge	r3,r2,e2e8 <__any_on+0x44>
    e2b4:	18c7883a 	add	r3,r3,r3
    e2b8:	18c7883a 	add	r3,r3,r3
    e2bc:	20c7883a 	add	r3,r4,r3
    e2c0:	20c0192e 	bgeu	r4,r3,e328 <__any_on+0x84>
    e2c4:	18bfff17 	ldw	r2,-4(r3)
    e2c8:	18ffff04 	addi	r3,r3,-4
    e2cc:	1000041e 	bne	r2,zero,e2e0 <__any_on+0x3c>
    e2d0:	20c0142e 	bgeu	r4,r3,e324 <__any_on+0x80>
    e2d4:	18ffff04 	addi	r3,r3,-4
    e2d8:	19400017 	ldw	r5,0(r3)
    e2dc:	283ffc26 	beq	r5,zero,e2d0 <__alt_data_end+0xf800e2d0>
    e2e0:	00800044 	movi	r2,1
    e2e4:	f800283a 	ret
    e2e8:	10c00a0e 	bge	r2,r3,e314 <__any_on+0x70>
    e2ec:	1085883a 	add	r2,r2,r2
    e2f0:	1085883a 	add	r2,r2,r2
    e2f4:	294007cc 	andi	r5,r5,31
    e2f8:	2087883a 	add	r3,r4,r2
    e2fc:	283ff026 	beq	r5,zero,e2c0 <__alt_data_end+0xf800e2c0>
    e300:	19800017 	ldw	r6,0(r3)
    e304:	3144d83a 	srl	r2,r6,r5
    e308:	114a983a 	sll	r5,r2,r5
    e30c:	29bff41e 	bne	r5,r6,e2e0 <__alt_data_end+0xf800e2e0>
    e310:	003feb06 	br	e2c0 <__alt_data_end+0xf800e2c0>
    e314:	1085883a 	add	r2,r2,r2
    e318:	1085883a 	add	r2,r2,r2
    e31c:	2087883a 	add	r3,r4,r2
    e320:	003fe706 	br	e2c0 <__alt_data_end+0xf800e2c0>
    e324:	f800283a 	ret
    e328:	0005883a 	mov	r2,zero
    e32c:	f800283a 	ret

0000e330 <__fpclassifyd>:
    e330:	00a00034 	movhi	r2,32768
    e334:	10bfffc4 	addi	r2,r2,-1
    e338:	2884703a 	and	r2,r5,r2
    e33c:	10000726 	beq	r2,zero,e35c <__fpclassifyd+0x2c>
    e340:	00fffc34 	movhi	r3,65520
    e344:	019ff834 	movhi	r6,32736
    e348:	28c7883a 	add	r3,r5,r3
    e34c:	31bfffc4 	addi	r6,r6,-1
    e350:	30c00536 	bltu	r6,r3,e368 <__fpclassifyd+0x38>
    e354:	00800104 	movi	r2,4
    e358:	f800283a 	ret
    e35c:	2000021e 	bne	r4,zero,e368 <__fpclassifyd+0x38>
    e360:	00800084 	movi	r2,2
    e364:	f800283a 	ret
    e368:	00dffc34 	movhi	r3,32752
    e36c:	019ff834 	movhi	r6,32736
    e370:	28cb883a 	add	r5,r5,r3
    e374:	31bfffc4 	addi	r6,r6,-1
    e378:	317ff62e 	bgeu	r6,r5,e354 <__alt_data_end+0xf800e354>
    e37c:	01400434 	movhi	r5,16
    e380:	297fffc4 	addi	r5,r5,-1
    e384:	28800236 	bltu	r5,r2,e390 <__fpclassifyd+0x60>
    e388:	008000c4 	movi	r2,3
    e38c:	f800283a 	ret
    e390:	10c00226 	beq	r2,r3,e39c <__fpclassifyd+0x6c>
    e394:	0005883a 	mov	r2,zero
    e398:	f800283a 	ret
    e39c:	2005003a 	cmpeq	r2,r4,zero
    e3a0:	f800283a 	ret

0000e3a4 <strcmp>:
    e3a4:	2144b03a 	or	r2,r4,r5
    e3a8:	108000cc 	andi	r2,r2,3
    e3ac:	1000171e 	bne	r2,zero,e40c <strcmp+0x68>
    e3b0:	20800017 	ldw	r2,0(r4)
    e3b4:	28c00017 	ldw	r3,0(r5)
    e3b8:	10c0141e 	bne	r2,r3,e40c <strcmp+0x68>
    e3bc:	027fbff4 	movhi	r9,65279
    e3c0:	4a7fbfc4 	addi	r9,r9,-257
    e3c4:	0086303a 	nor	r3,zero,r2
    e3c8:	02202074 	movhi	r8,32897
    e3cc:	1245883a 	add	r2,r2,r9
    e3d0:	42202004 	addi	r8,r8,-32640
    e3d4:	10c4703a 	and	r2,r2,r3
    e3d8:	1204703a 	and	r2,r2,r8
    e3dc:	10000226 	beq	r2,zero,e3e8 <strcmp+0x44>
    e3e0:	00001706 	br	e440 <strcmp+0x9c>
    e3e4:	1000161e 	bne	r2,zero,e440 <strcmp+0x9c>
    e3e8:	21000104 	addi	r4,r4,4
    e3ec:	20c00017 	ldw	r3,0(r4)
    e3f0:	29400104 	addi	r5,r5,4
    e3f4:	29800017 	ldw	r6,0(r5)
    e3f8:	1a4f883a 	add	r7,r3,r9
    e3fc:	00c4303a 	nor	r2,zero,r3
    e400:	3884703a 	and	r2,r7,r2
    e404:	1204703a 	and	r2,r2,r8
    e408:	19bff626 	beq	r3,r6,e3e4 <__alt_data_end+0xf800e3e4>
    e40c:	20800007 	ldb	r2,0(r4)
    e410:	1000051e 	bne	r2,zero,e428 <strcmp+0x84>
    e414:	00000606 	br	e430 <strcmp+0x8c>
    e418:	21000044 	addi	r4,r4,1
    e41c:	20800007 	ldb	r2,0(r4)
    e420:	29400044 	addi	r5,r5,1
    e424:	10000226 	beq	r2,zero,e430 <strcmp+0x8c>
    e428:	28c00007 	ldb	r3,0(r5)
    e42c:	10fffa26 	beq	r2,r3,e418 <__alt_data_end+0xf800e418>
    e430:	20800003 	ldbu	r2,0(r4)
    e434:	28c00003 	ldbu	r3,0(r5)
    e438:	10c5c83a 	sub	r2,r2,r3
    e43c:	f800283a 	ret
    e440:	0005883a 	mov	r2,zero
    e444:	f800283a 	ret

0000e448 <__ssprint_r>:
    e448:	30800217 	ldw	r2,8(r6)
    e44c:	defff604 	addi	sp,sp,-40
    e450:	ddc00715 	stw	r23,28(sp)
    e454:	dcc00315 	stw	r19,12(sp)
    e458:	dfc00915 	stw	ra,36(sp)
    e45c:	df000815 	stw	fp,32(sp)
    e460:	dd800615 	stw	r22,24(sp)
    e464:	dd400515 	stw	r21,20(sp)
    e468:	dd000415 	stw	r20,16(sp)
    e46c:	dc800215 	stw	r18,8(sp)
    e470:	dc400115 	stw	r17,4(sp)
    e474:	dc000015 	stw	r16,0(sp)
    e478:	3027883a 	mov	r19,r6
    e47c:	35c00017 	ldw	r23,0(r6)
    e480:	10005526 	beq	r2,zero,e5d8 <__ssprint_r+0x190>
    e484:	2029883a 	mov	r20,r4
    e488:	29000017 	ldw	r4,0(r5)
    e48c:	2821883a 	mov	r16,r5
    e490:	0039883a 	mov	fp,zero
    e494:	0023883a 	mov	r17,zero
    e498:	88003926 	beq	r17,zero,e580 <__ssprint_r+0x138>
    e49c:	84800217 	ldw	r18,8(r16)
    e4a0:	902d883a 	mov	r22,r18
    e4a4:	8c803a36 	bltu	r17,r18,e590 <__ssprint_r+0x148>
    e4a8:	80c0030b 	ldhu	r3,12(r16)
    e4ac:	1881200c 	andi	r2,r3,1152
    e4b0:	10002626 	beq	r2,zero,e54c <__ssprint_r+0x104>
    e4b4:	80800517 	ldw	r2,20(r16)
    e4b8:	81400417 	ldw	r5,16(r16)
    e4bc:	89c00044 	addi	r7,r17,1
    e4c0:	108d883a 	add	r6,r2,r2
    e4c4:	3085883a 	add	r2,r6,r2
    e4c8:	100cd7fa 	srli	r6,r2,31
    e4cc:	216dc83a 	sub	r22,r4,r5
    e4d0:	3d89883a 	add	r4,r7,r22
    e4d4:	3085883a 	add	r2,r6,r2
    e4d8:	1025d07a 	srai	r18,r2,1
    e4dc:	900d883a 	mov	r6,r18
    e4e0:	9100022e 	bgeu	r18,r4,e4ec <__ssprint_r+0xa4>
    e4e4:	2025883a 	mov	r18,r4
    e4e8:	200d883a 	mov	r6,r4
    e4ec:	18c1000c 	andi	r3,r3,1024
    e4f0:	a009883a 	mov	r4,r20
    e4f4:	18002926 	beq	r3,zero,e59c <__ssprint_r+0x154>
    e4f8:	300b883a 	mov	r5,r6
    e4fc:	0008a800 	call	8a80 <_malloc_r>
    e500:	102b883a 	mov	r21,r2
    e504:	10002b26 	beq	r2,zero,e5b4 <__ssprint_r+0x16c>
    e508:	81400417 	ldw	r5,16(r16)
    e50c:	1009883a 	mov	r4,r2
    e510:	b00d883a 	mov	r6,r22
    e514:	000d26c0 	call	d26c <memcpy>
    e518:	8080030b 	ldhu	r2,12(r16)
    e51c:	00fedfc4 	movi	r3,-1153
    e520:	10c4703a 	and	r2,r2,r3
    e524:	10802014 	ori	r2,r2,128
    e528:	8080030d 	sth	r2,12(r16)
    e52c:	ad89883a 	add	r4,r21,r22
    e530:	95adc83a 	sub	r22,r18,r22
    e534:	84800515 	stw	r18,20(r16)
    e538:	85800215 	stw	r22,8(r16)
    e53c:	85400415 	stw	r21,16(r16)
    e540:	81000015 	stw	r4,0(r16)
    e544:	8825883a 	mov	r18,r17
    e548:	882d883a 	mov	r22,r17
    e54c:	e00b883a 	mov	r5,fp
    e550:	b00d883a 	mov	r6,r22
    e554:	000f73c0 	call	f73c <memmove>
    e558:	80c00217 	ldw	r3,8(r16)
    e55c:	81000017 	ldw	r4,0(r16)
    e560:	98800217 	ldw	r2,8(r19)
    e564:	1ca5c83a 	sub	r18,r3,r18
    e568:	2589883a 	add	r4,r4,r22
    e56c:	84800215 	stw	r18,8(r16)
    e570:	81000015 	stw	r4,0(r16)
    e574:	1463c83a 	sub	r17,r2,r17
    e578:	9c400215 	stw	r17,8(r19)
    e57c:	88001626 	beq	r17,zero,e5d8 <__ssprint_r+0x190>
    e580:	bf000017 	ldw	fp,0(r23)
    e584:	bc400117 	ldw	r17,4(r23)
    e588:	bdc00204 	addi	r23,r23,8
    e58c:	003fc206 	br	e498 <__alt_data_end+0xf800e498>
    e590:	8825883a 	mov	r18,r17
    e594:	882d883a 	mov	r22,r17
    e598:	003fec06 	br	e54c <__alt_data_end+0xf800e54c>
    e59c:	000f9bc0 	call	f9bc <_realloc_r>
    e5a0:	102b883a 	mov	r21,r2
    e5a4:	103fe11e 	bne	r2,zero,e52c <__alt_data_end+0xf800e52c>
    e5a8:	81400417 	ldw	r5,16(r16)
    e5ac:	a009883a 	mov	r4,r20
    e5b0:	000cdb40 	call	cdb4 <_free_r>
    e5b4:	80c0030b 	ldhu	r3,12(r16)
    e5b8:	00800304 	movi	r2,12
    e5bc:	a0800015 	stw	r2,0(r20)
    e5c0:	18c01014 	ori	r3,r3,64
    e5c4:	80c0030d 	sth	r3,12(r16)
    e5c8:	00bfffc4 	movi	r2,-1
    e5cc:	98000215 	stw	zero,8(r19)
    e5d0:	98000115 	stw	zero,4(r19)
    e5d4:	00000206 	br	e5e0 <__ssprint_r+0x198>
    e5d8:	98000115 	stw	zero,4(r19)
    e5dc:	0005883a 	mov	r2,zero
    e5e0:	dfc00917 	ldw	ra,36(sp)
    e5e4:	df000817 	ldw	fp,32(sp)
    e5e8:	ddc00717 	ldw	r23,28(sp)
    e5ec:	dd800617 	ldw	r22,24(sp)
    e5f0:	dd400517 	ldw	r21,20(sp)
    e5f4:	dd000417 	ldw	r20,16(sp)
    e5f8:	dcc00317 	ldw	r19,12(sp)
    e5fc:	dc800217 	ldw	r18,8(sp)
    e600:	dc400117 	ldw	r17,4(sp)
    e604:	dc000017 	ldw	r16,0(sp)
    e608:	dec00a04 	addi	sp,sp,40
    e60c:	f800283a 	ret

0000e610 <___svfiprintf_internal_r>:
    e610:	2880030b 	ldhu	r2,12(r5)
    e614:	deffc904 	addi	sp,sp,-220
    e618:	dd403215 	stw	r21,200(sp)
    e61c:	dfc03615 	stw	ra,216(sp)
    e620:	df003515 	stw	fp,212(sp)
    e624:	ddc03415 	stw	r23,208(sp)
    e628:	dd803315 	stw	r22,204(sp)
    e62c:	dd003115 	stw	r20,196(sp)
    e630:	dcc03015 	stw	r19,192(sp)
    e634:	dc802f15 	stw	r18,188(sp)
    e638:	dc402e15 	stw	r17,184(sp)
    e63c:	dc002d15 	stw	r16,180(sp)
    e640:	d9402715 	stw	r5,156(sp)
    e644:	d9002915 	stw	r4,164(sp)
    e648:	1080200c 	andi	r2,r2,128
    e64c:	d9c02315 	stw	r7,140(sp)
    e650:	302b883a 	mov	r21,r6
    e654:	10000226 	beq	r2,zero,e660 <___svfiprintf_internal_r+0x50>
    e658:	28800417 	ldw	r2,16(r5)
    e65c:	1003ce26 	beq	r2,zero,f598 <___svfiprintf_internal_r+0xf88>
    e660:	dac01a04 	addi	r11,sp,104
    e664:	da8019c4 	addi	r10,sp,103
    e668:	dc802917 	ldw	r18,164(sp)
    e66c:	dd002717 	ldw	r20,156(sp)
    e670:	04c00374 	movhi	r19,13
    e674:	dac01e15 	stw	r11,120(sp)
    e678:	5a97c83a 	sub	r11,r11,r10
    e67c:	9cc35404 	addi	r19,r19,3408
    e680:	da801f15 	stw	r10,124(sp)
    e684:	dec01a15 	stw	sp,104(sp)
    e688:	d8001c15 	stw	zero,112(sp)
    e68c:	d8001b15 	stw	zero,108(sp)
    e690:	d8002a15 	stw	zero,168(sp)
    e694:	d8002415 	stw	zero,144(sp)
    e698:	d811883a 	mov	r8,sp
    e69c:	dac02b15 	stw	r11,172(sp)
    e6a0:	a8800007 	ldb	r2,0(r21)
    e6a4:	10026826 	beq	r2,zero,f048 <___svfiprintf_internal_r+0xa38>
    e6a8:	01000944 	movi	r4,37
    e6ac:	11026626 	beq	r2,r4,f048 <___svfiprintf_internal_r+0xa38>
    e6b0:	a805883a 	mov	r2,r21
    e6b4:	00000106 	br	e6bc <___svfiprintf_internal_r+0xac>
    e6b8:	19000326 	beq	r3,r4,e6c8 <___svfiprintf_internal_r+0xb8>
    e6bc:	10800044 	addi	r2,r2,1
    e6c0:	10c00007 	ldb	r3,0(r2)
    e6c4:	183ffc1e 	bne	r3,zero,e6b8 <__alt_data_end+0xf800e6b8>
    e6c8:	1561c83a 	sub	r16,r2,r21
    e6cc:	102d883a 	mov	r22,r2
    e6d0:	80000e26 	beq	r16,zero,e70c <___svfiprintf_internal_r+0xfc>
    e6d4:	d8c01c17 	ldw	r3,112(sp)
    e6d8:	d8801b17 	ldw	r2,108(sp)
    e6dc:	45400015 	stw	r21,0(r8)
    e6e0:	1c07883a 	add	r3,r3,r16
    e6e4:	10800044 	addi	r2,r2,1
    e6e8:	d8c01c15 	stw	r3,112(sp)
    e6ec:	44000115 	stw	r16,4(r8)
    e6f0:	d8801b15 	stw	r2,108(sp)
    e6f4:	00c001c4 	movi	r3,7
    e6f8:	1882d616 	blt	r3,r2,f254 <___svfiprintf_internal_r+0xc44>
    e6fc:	42000204 	addi	r8,r8,8
    e700:	da802417 	ldw	r10,144(sp)
    e704:	5415883a 	add	r10,r10,r16
    e708:	da802415 	stw	r10,144(sp)
    e70c:	b0800007 	ldb	r2,0(r22)
    e710:	10027326 	beq	r2,zero,f0e0 <___svfiprintf_internal_r+0xad0>
    e714:	b1000047 	ldb	r4,1(r22)
    e718:	b5400044 	addi	r21,r22,1
    e71c:	d8001d85 	stb	zero,118(sp)
    e720:	000d883a 	mov	r6,zero
    e724:	043fffc4 	movi	r16,-1
    e728:	d8002115 	stw	zero,132(sp)
    e72c:	0023883a 	mov	r17,zero
    e730:	00c01604 	movi	r3,88
    e734:	01400244 	movi	r5,9
    e738:	02400a84 	movi	r9,42
    e73c:	01c01b04 	movi	r7,108
    e740:	ad400044 	addi	r21,r21,1
    e744:	20bff804 	addi	r2,r4,-32
    e748:	18819536 	bltu	r3,r2,eda0 <___svfiprintf_internal_r+0x790>
    e74c:	100490ba 	slli	r2,r2,2
    e750:	02c00074 	movhi	r11,1
    e754:	5af9d904 	addi	r11,r11,-6300
    e758:	12c5883a 	add	r2,r2,r11
    e75c:	10800017 	ldw	r2,0(r2)
    e760:	1000683a 	jmp	r2
    e764:	0000eca0 	cmpeqi	zero,zero,946
    e768:	0000eda0 	cmpeqi	zero,zero,950
    e76c:	0000eda0 	cmpeqi	zero,zero,950
    e770:	0000ec94 	movui	zero,946
    e774:	0000eda0 	cmpeqi	zero,zero,950
    e778:	0000eda0 	cmpeqi	zero,zero,950
    e77c:	0000eda0 	cmpeqi	zero,zero,950
    e780:	0000eda0 	cmpeqi	zero,zero,950
    e784:	0000eda0 	cmpeqi	zero,zero,950
    e788:	0000eda0 	cmpeqi	zero,zero,950
    e78c:	0000e9c4 	movi	zero,935
    e790:	0000edd4 	movui	zero,951
    e794:	0000eda0 	cmpeqi	zero,zero,950
    e798:	0000e9ec 	andhi	zero,zero,935
    e79c:	0000ede0 	cmpeqi	zero,zero,951
    e7a0:	0000eda0 	cmpeqi	zero,zero,950
    e7a4:	0000edc8 	cmpgei	zero,zero,951
    e7a8:	0000ed68 	cmpgeui	zero,zero,949
    e7ac:	0000ed68 	cmpgeui	zero,zero,949
    e7b0:	0000ed68 	cmpgeui	zero,zero,949
    e7b4:	0000ed68 	cmpgeui	zero,zero,949
    e7b8:	0000ed68 	cmpgeui	zero,zero,949
    e7bc:	0000ed68 	cmpgeui	zero,zero,949
    e7c0:	0000ed68 	cmpgeui	zero,zero,949
    e7c4:	0000ed68 	cmpgeui	zero,zero,949
    e7c8:	0000ed68 	cmpgeui	zero,zero,949
    e7cc:	0000eda0 	cmpeqi	zero,zero,950
    e7d0:	0000eda0 	cmpeqi	zero,zero,950
    e7d4:	0000eda0 	cmpeqi	zero,zero,950
    e7d8:	0000eda0 	cmpeqi	zero,zero,950
    e7dc:	0000eda0 	cmpeqi	zero,zero,950
    e7e0:	0000eda0 	cmpeqi	zero,zero,950
    e7e4:	0000eda0 	cmpeqi	zero,zero,950
    e7e8:	0000eda0 	cmpeqi	zero,zero,950
    e7ec:	0000eda0 	cmpeqi	zero,zero,950
    e7f0:	0000eda0 	cmpeqi	zero,zero,950
    e7f4:	0000ed00 	call	ed0 <setDefaultScrollBarY+0xac>
    e7f8:	0000eda0 	cmpeqi	zero,zero,950
    e7fc:	0000eda0 	cmpeqi	zero,zero,950
    e800:	0000eda0 	cmpeqi	zero,zero,950
    e804:	0000eda0 	cmpeqi	zero,zero,950
    e808:	0000eda0 	cmpeqi	zero,zero,950
    e80c:	0000eda0 	cmpeqi	zero,zero,950
    e810:	0000eda0 	cmpeqi	zero,zero,950
    e814:	0000eda0 	cmpeqi	zero,zero,950
    e818:	0000eda0 	cmpeqi	zero,zero,950
    e81c:	0000eda0 	cmpeqi	zero,zero,950
    e820:	0000e994 	movui	zero,934
    e824:	0000eda0 	cmpeqi	zero,zero,950
    e828:	0000eda0 	cmpeqi	zero,zero,950
    e82c:	0000eda0 	cmpeqi	zero,zero,950
    e830:	0000eda0 	cmpeqi	zero,zero,950
    e834:	0000eda0 	cmpeqi	zero,zero,950
    e838:	0000e8c8 	cmpgei	zero,zero,931
    e83c:	0000eda0 	cmpeqi	zero,zero,950
    e840:	0000eda0 	cmpeqi	zero,zero,950
    e844:	0000ebf4 	movhi	zero,943
    e848:	0000eda0 	cmpeqi	zero,zero,950
    e84c:	0000eda0 	cmpeqi	zero,zero,950
    e850:	0000eda0 	cmpeqi	zero,zero,950
    e854:	0000eda0 	cmpeqi	zero,zero,950
    e858:	0000eda0 	cmpeqi	zero,zero,950
    e85c:	0000eda0 	cmpeqi	zero,zero,950
    e860:	0000eda0 	cmpeqi	zero,zero,950
    e864:	0000eda0 	cmpeqi	zero,zero,950
    e868:	0000eda0 	cmpeqi	zero,zero,950
    e86c:	0000eda0 	cmpeqi	zero,zero,950
    e870:	0000eae0 	cmpeqi	zero,zero,939
    e874:	0000eaa0 	cmpeqi	zero,zero,938
    e878:	0000eda0 	cmpeqi	zero,zero,950
    e87c:	0000eda0 	cmpeqi	zero,zero,950
    e880:	0000eda0 	cmpeqi	zero,zero,950
    e884:	0000ec50 	cmplti	zero,zero,945
    e888:	0000eaa0 	cmpeqi	zero,zero,938
    e88c:	0000eda0 	cmpeqi	zero,zero,950
    e890:	0000eda0 	cmpeqi	zero,zero,950
    e894:	0000ec3c 	xorhi	zero,zero,944
    e898:	0000eda0 	cmpeqi	zero,zero,950
    e89c:	0000ec5c 	xori	zero,zero,945
    e8a0:	0000e998 	cmpnei	zero,zero,934
    e8a4:	0000ea60 	cmpeqi	zero,zero,937
    e8a8:	0000ea54 	movui	zero,937
    e8ac:	0000eda0 	cmpeqi	zero,zero,950
    e8b0:	0000e9f8 	rdprs	zero,zero,935
    e8b4:	0000eda0 	cmpeqi	zero,zero,950
    e8b8:	0000e8cc 	andi	zero,zero,931
    e8bc:	0000eda0 	cmpeqi	zero,zero,950
    e8c0:	0000eda0 	cmpeqi	zero,zero,950
    e8c4:	0000ecbc 	xorhi	zero,zero,946
    e8c8:	8c400414 	ori	r17,r17,16
    e8cc:	88c0080c 	andi	r3,r17,32
    e8d0:	d8802317 	ldw	r2,140(sp)
    e8d4:	18029626 	beq	r3,zero,f330 <___svfiprintf_internal_r+0xd20>
    e8d8:	dac02317 	ldw	r11,140(sp)
    e8dc:	12400017 	ldw	r9,0(r2)
    e8e0:	12800117 	ldw	r10,4(r2)
    e8e4:	5ac00204 	addi	r11,r11,8
    e8e8:	dac02315 	stw	r11,140(sp)
    e8ec:	00800044 	movi	r2,1
    e8f0:	4a86b03a 	or	r3,r9,r10
    e8f4:	d8001d85 	stb	zero,118(sp)
    e8f8:	8039883a 	mov	fp,r16
    e8fc:	0017883a 	mov	r11,zero
    e900:	80000216 	blt	r16,zero,e90c <___svfiprintf_internal_r+0x2fc>
    e904:	013fdfc4 	movi	r4,-129
    e908:	8922703a 	and	r17,r17,r4
    e90c:	1801d01e 	bne	r3,zero,f050 <___svfiprintf_internal_r+0xa40>
    e910:	80024426 	beq	r16,zero,f224 <___svfiprintf_internal_r+0xc14>
    e914:	10803fcc 	andi	r2,r2,255
    e918:	00c00044 	movi	r3,1
    e91c:	10c2b326 	beq	r2,r3,f3ec <___svfiprintf_internal_r+0xddc>
    e920:	00c00084 	movi	r3,2
    e924:	10c25b26 	beq	r2,r3,f294 <___svfiprintf_internal_r+0xc84>
    e928:	d8c01a04 	addi	r3,sp,104
    e92c:	4808d0fa 	srli	r4,r9,3
    e930:	500a977a 	slli	r5,r10,29
    e934:	5014d0fa 	srli	r10,r10,3
    e938:	4a4001cc 	andi	r9,r9,7
    e93c:	48800c04 	addi	r2,r9,48
    e940:	18ffffc4 	addi	r3,r3,-1
    e944:	2912b03a 	or	r9,r5,r4
    e948:	18800005 	stb	r2,0(r3)
    e94c:	4a88b03a 	or	r4,r9,r10
    e950:	203ff61e 	bne	r4,zero,e92c <__alt_data_end+0xf800e92c>
    e954:	8900004c 	andi	r4,r17,1
    e958:	d8c02615 	stw	r3,152(sp)
    e95c:	2002951e 	bne	r4,zero,f3b4 <___svfiprintf_internal_r+0xda4>
    e960:	da801e17 	ldw	r10,120(sp)
    e964:	50f9c83a 	sub	fp,r10,r3
    e968:	df002015 	stw	fp,128(sp)
    e96c:	e400010e 	bge	fp,r16,e974 <___svfiprintf_internal_r+0x364>
    e970:	dc002015 	stw	r16,128(sp)
    e974:	5ac03fcc 	andi	r11,r11,255
    e978:	5ac0201c 	xori	r11,r11,128
    e97c:	5affe004 	addi	r11,r11,-128
    e980:	58006326 	beq	r11,zero,eb10 <___svfiprintf_internal_r+0x500>
    e984:	d8c02017 	ldw	r3,128(sp)
    e988:	18c00044 	addi	r3,r3,1
    e98c:	d8c02015 	stw	r3,128(sp)
    e990:	00005f06 	br	eb10 <___svfiprintf_internal_r+0x500>
    e994:	8c400414 	ori	r17,r17,16
    e998:	88c0080c 	andi	r3,r17,32
    e99c:	d8802317 	ldw	r2,140(sp)
    e9a0:	18027826 	beq	r3,zero,f384 <___svfiprintf_internal_r+0xd74>
    e9a4:	dac02317 	ldw	r11,140(sp)
    e9a8:	12400017 	ldw	r9,0(r2)
    e9ac:	12800117 	ldw	r10,4(r2)
    e9b0:	5ac00204 	addi	r11,r11,8
    e9b4:	dac02315 	stw	r11,140(sp)
    e9b8:	0005883a 	mov	r2,zero
    e9bc:	4a86b03a 	or	r3,r9,r10
    e9c0:	003fcc06 	br	e8f4 <__alt_data_end+0xf800e8f4>
    e9c4:	da802317 	ldw	r10,140(sp)
    e9c8:	dac02317 	ldw	r11,140(sp)
    e9cc:	52800017 	ldw	r10,0(r10)
    e9d0:	58800104 	addi	r2,r11,4
    e9d4:	da802115 	stw	r10,132(sp)
    e9d8:	50028a0e 	bge	r10,zero,f404 <___svfiprintf_internal_r+0xdf4>
    e9dc:	da802117 	ldw	r10,132(sp)
    e9e0:	d8802315 	stw	r2,140(sp)
    e9e4:	0295c83a 	sub	r10,zero,r10
    e9e8:	da802115 	stw	r10,132(sp)
    e9ec:	8c400114 	ori	r17,r17,4
    e9f0:	a9000007 	ldb	r4,0(r21)
    e9f4:	003f5206 	br	e740 <__alt_data_end+0xf800e740>
    e9f8:	da802317 	ldw	r10,140(sp)
    e9fc:	dac02317 	ldw	r11,140(sp)
    ea00:	d8001d85 	stb	zero,118(sp)
    ea04:	52800017 	ldw	r10,0(r10)
    ea08:	5dc00104 	addi	r23,r11,4
    ea0c:	da802615 	stw	r10,152(sp)
    ea10:	5002eb26 	beq	r10,zero,f5c0 <___svfiprintf_internal_r+0xfb0>
    ea14:	d9002617 	ldw	r4,152(sp)
    ea18:	8002d716 	blt	r16,zero,f578 <___svfiprintf_internal_r+0xf68>
    ea1c:	000b883a 	mov	r5,zero
    ea20:	800d883a 	mov	r6,r16
    ea24:	da002c15 	stw	r8,176(sp)
    ea28:	000d1840 	call	d184 <memchr>
    ea2c:	da002c17 	ldw	r8,176(sp)
    ea30:	1002fb26 	beq	r2,zero,f620 <___svfiprintf_internal_r+0x1010>
    ea34:	d8c02617 	ldw	r3,152(sp)
    ea38:	10f9c83a 	sub	fp,r2,r3
    ea3c:	8700010e 	bge	r16,fp,ea44 <___svfiprintf_internal_r+0x434>
    ea40:	8039883a 	mov	fp,r16
    ea44:	dac01d83 	ldbu	r11,118(sp)
    ea48:	ddc02315 	stw	r23,140(sp)
    ea4c:	0021883a 	mov	r16,zero
    ea50:	003fc506 	br	e968 <__alt_data_end+0xf800e968>
    ea54:	8c400814 	ori	r17,r17,32
    ea58:	a9000007 	ldb	r4,0(r21)
    ea5c:	003f3806 	br	e740 <__alt_data_end+0xf800e740>
    ea60:	dac02317 	ldw	r11,140(sp)
    ea64:	00800c04 	movi	r2,48
    ea68:	d8801d05 	stb	r2,116(sp)
    ea6c:	5a400017 	ldw	r9,0(r11)
    ea70:	00801e04 	movi	r2,120
    ea74:	d8801d45 	stb	r2,117(sp)
    ea78:	00800374 	movhi	r2,13
    ea7c:	1082f304 	addi	r2,r2,3020
    ea80:	5ac00104 	addi	r11,r11,4
    ea84:	d8802a15 	stw	r2,168(sp)
    ea88:	0015883a 	mov	r10,zero
    ea8c:	8c400094 	ori	r17,r17,2
    ea90:	dac02315 	stw	r11,140(sp)
    ea94:	00800084 	movi	r2,2
    ea98:	4807883a 	mov	r3,r9
    ea9c:	003f9506 	br	e8f4 <__alt_data_end+0xf800e8f4>
    eaa0:	d9801d85 	stb	r6,118(sp)
    eaa4:	8880080c 	andi	r2,r17,32
    eaa8:	d8c02317 	ldw	r3,140(sp)
    eaac:	10009926 	beq	r2,zero,ed14 <___svfiprintf_internal_r+0x704>
    eab0:	dac02317 	ldw	r11,140(sp)
    eab4:	18800117 	ldw	r2,4(r3)
    eab8:	1a400017 	ldw	r9,0(r3)
    eabc:	5ac00204 	addi	r11,r11,8
    eac0:	dac02315 	stw	r11,140(sp)
    eac4:	1015883a 	mov	r10,r2
    eac8:	10009d16 	blt	r2,zero,ed40 <___svfiprintf_internal_r+0x730>
    eacc:	dac01d83 	ldbu	r11,118(sp)
    ead0:	8039883a 	mov	fp,r16
    ead4:	00800044 	movi	r2,1
    ead8:	4a86b03a 	or	r3,r9,r10
    eadc:	003f8806 	br	e900 <__alt_data_end+0xf800e900>
    eae0:	dac02317 	ldw	r11,140(sp)
    eae4:	00c00044 	movi	r3,1
    eae8:	da801004 	addi	r10,sp,64
    eaec:	58800017 	ldw	r2,0(r11)
    eaf0:	5ac00104 	addi	r11,r11,4
    eaf4:	d8c02015 	stw	r3,128(sp)
    eaf8:	d8001d85 	stb	zero,118(sp)
    eafc:	d8801005 	stb	r2,64(sp)
    eb00:	dac02315 	stw	r11,140(sp)
    eb04:	1839883a 	mov	fp,r3
    eb08:	da802615 	stw	r10,152(sp)
    eb0c:	0021883a 	mov	r16,zero
    eb10:	8a80008c 	andi	r10,r17,2
    eb14:	da802215 	stw	r10,136(sp)
    eb18:	50000326 	beq	r10,zero,eb28 <___svfiprintf_internal_r+0x518>
    eb1c:	dac02017 	ldw	r11,128(sp)
    eb20:	5ac00084 	addi	r11,r11,2
    eb24:	dac02015 	stw	r11,128(sp)
    eb28:	88c0210c 	andi	r3,r17,132
    eb2c:	d8c02515 	stw	r3,148(sp)
    eb30:	1800bb1e 	bne	r3,zero,ee20 <___svfiprintf_internal_r+0x810>
    eb34:	da802117 	ldw	r10,132(sp)
    eb38:	dac02017 	ldw	r11,128(sp)
    eb3c:	52edc83a 	sub	r22,r10,r11
    eb40:	0580b70e 	bge	zero,r22,ee20 <___svfiprintf_internal_r+0x810>
    eb44:	02400404 	movi	r9,16
    eb48:	d8c01c17 	ldw	r3,112(sp)
    eb4c:	d8801b17 	ldw	r2,108(sp)
    eb50:	4d82a70e 	bge	r9,r22,f5f0 <___svfiprintf_internal_r+0xfe0>
    eb54:	01400374 	movhi	r5,13
    eb58:	29435804 	addi	r5,r5,3424
    eb5c:	d9402815 	stw	r5,160(sp)
    eb60:	05c001c4 	movi	r23,7
    eb64:	00000306 	br	eb74 <___svfiprintf_internal_r+0x564>
    eb68:	b5bffc04 	addi	r22,r22,-16
    eb6c:	42000204 	addi	r8,r8,8
    eb70:	4d80150e 	bge	r9,r22,ebc8 <___svfiprintf_internal_r+0x5b8>
    eb74:	02800374 	movhi	r10,13
    eb78:	18c00404 	addi	r3,r3,16
    eb7c:	10800044 	addi	r2,r2,1
    eb80:	52835804 	addi	r10,r10,3424
    eb84:	42800015 	stw	r10,0(r8)
    eb88:	42400115 	stw	r9,4(r8)
    eb8c:	d8c01c15 	stw	r3,112(sp)
    eb90:	d8801b15 	stw	r2,108(sp)
    eb94:	b8bff40e 	bge	r23,r2,eb68 <__alt_data_end+0xf800eb68>
    eb98:	9009883a 	mov	r4,r18
    eb9c:	a00b883a 	mov	r5,r20
    eba0:	d9801a04 	addi	r6,sp,104
    eba4:	da402c15 	stw	r9,176(sp)
    eba8:	000e4480 	call	e448 <__ssprint_r>
    ebac:	da402c17 	ldw	r9,176(sp)
    ebb0:	1001511e 	bne	r2,zero,f0f8 <___svfiprintf_internal_r+0xae8>
    ebb4:	b5bffc04 	addi	r22,r22,-16
    ebb8:	d8c01c17 	ldw	r3,112(sp)
    ebbc:	d8801b17 	ldw	r2,108(sp)
    ebc0:	d811883a 	mov	r8,sp
    ebc4:	4dbfeb16 	blt	r9,r22,eb74 <__alt_data_end+0xf800eb74>
    ebc8:	dac02817 	ldw	r11,160(sp)
    ebcc:	b0c7883a 	add	r3,r22,r3
    ebd0:	10800044 	addi	r2,r2,1
    ebd4:	42c00015 	stw	r11,0(r8)
    ebd8:	45800115 	stw	r22,4(r8)
    ebdc:	d8c01c15 	stw	r3,112(sp)
    ebe0:	d8801b15 	stw	r2,108(sp)
    ebe4:	010001c4 	movi	r4,7
    ebe8:	2081dd16 	blt	r4,r2,f360 <___svfiprintf_internal_r+0xd50>
    ebec:	42000204 	addi	r8,r8,8
    ebf0:	00008d06 	br	ee28 <___svfiprintf_internal_r+0x818>
    ebf4:	00c00374 	movhi	r3,13
    ebf8:	18c2ee04 	addi	r3,r3,3000
    ebfc:	d8c02a15 	stw	r3,168(sp)
    ec00:	d9801d85 	stb	r6,118(sp)
    ec04:	88c0080c 	andi	r3,r17,32
    ec08:	d8802317 	ldw	r2,140(sp)
    ec0c:	18003226 	beq	r3,zero,ecd8 <___svfiprintf_internal_r+0x6c8>
    ec10:	da802317 	ldw	r10,140(sp)
    ec14:	12400017 	ldw	r9,0(r2)
    ec18:	52800204 	addi	r10,r10,8
    ec1c:	da802315 	stw	r10,140(sp)
    ec20:	12800117 	ldw	r10,4(r2)
    ec24:	8880004c 	andi	r2,r17,1
    ec28:	1001be26 	beq	r2,zero,f324 <___svfiprintf_internal_r+0xd14>
    ec2c:	4a86b03a 	or	r3,r9,r10
    ec30:	1802291e 	bne	r3,zero,f4d8 <___svfiprintf_internal_r+0xec8>
    ec34:	00800084 	movi	r2,2
    ec38:	003f2e06 	br	e8f4 <__alt_data_end+0xf800e8f4>
    ec3c:	a9000007 	ldb	r4,0(r21)
    ec40:	a805883a 	mov	r2,r21
    ec44:	21c22a26 	beq	r4,r7,f4f0 <___svfiprintf_internal_r+0xee0>
    ec48:	8c400414 	ori	r17,r17,16
    ec4c:	003ebc06 	br	e740 <__alt_data_end+0xf800e740>
    ec50:	8c401014 	ori	r17,r17,64
    ec54:	a9000007 	ldb	r4,0(r21)
    ec58:	003eb906 	br	e740 <__alt_data_end+0xf800e740>
    ec5c:	d9801d85 	stb	r6,118(sp)
    ec60:	8880080c 	andi	r2,r17,32
    ec64:	1002131e 	bne	r2,zero,f4b4 <___svfiprintf_internal_r+0xea4>
    ec68:	8880040c 	andi	r2,r17,16
    ec6c:	1002241e 	bne	r2,zero,f500 <___svfiprintf_internal_r+0xef0>
    ec70:	8c40100c 	andi	r17,r17,64
    ec74:	88022226 	beq	r17,zero,f500 <___svfiprintf_internal_r+0xef0>
    ec78:	dac02317 	ldw	r11,140(sp)
    ec7c:	da802417 	ldw	r10,144(sp)
    ec80:	58800017 	ldw	r2,0(r11)
    ec84:	5ac00104 	addi	r11,r11,4
    ec88:	dac02315 	stw	r11,140(sp)
    ec8c:	1280000d 	sth	r10,0(r2)
    ec90:	003e8306 	br	e6a0 <__alt_data_end+0xf800e6a0>
    ec94:	8c400054 	ori	r17,r17,1
    ec98:	a9000007 	ldb	r4,0(r21)
    ec9c:	003ea806 	br	e740 <__alt_data_end+0xf800e740>
    eca0:	30803fcc 	andi	r2,r6,255
    eca4:	1080201c 	xori	r2,r2,128
    eca8:	10bfe004 	addi	r2,r2,-128
    ecac:	1001ff1e 	bne	r2,zero,f4ac <___svfiprintf_internal_r+0xe9c>
    ecb0:	01800804 	movi	r6,32
    ecb4:	a9000007 	ldb	r4,0(r21)
    ecb8:	003ea106 	br	e740 <__alt_data_end+0xf800e740>
    ecbc:	02c00374 	movhi	r11,13
    ecc0:	5ac2f304 	addi	r11,r11,3020
    ecc4:	dac02a15 	stw	r11,168(sp)
    ecc8:	d9801d85 	stb	r6,118(sp)
    eccc:	88c0080c 	andi	r3,r17,32
    ecd0:	d8802317 	ldw	r2,140(sp)
    ecd4:	183fce1e 	bne	r3,zero,ec10 <__alt_data_end+0xf800ec10>
    ecd8:	88c0040c 	andi	r3,r17,16
    ecdc:	1801ed1e 	bne	r3,zero,f494 <___svfiprintf_internal_r+0xe84>
    ece0:	88c0100c 	andi	r3,r17,64
    ece4:	18021a26 	beq	r3,zero,f550 <___svfiprintf_internal_r+0xf40>
    ece8:	da802317 	ldw	r10,140(sp)
    ecec:	1240000b 	ldhu	r9,0(r2)
    ecf0:	52800104 	addi	r10,r10,4
    ecf4:	da802315 	stw	r10,140(sp)
    ecf8:	0015883a 	mov	r10,zero
    ecfc:	003fc906 	br	ec24 <__alt_data_end+0xf800ec24>
    ed00:	8c400414 	ori	r17,r17,16
    ed04:	d9801d85 	stb	r6,118(sp)
    ed08:	8880080c 	andi	r2,r17,32
    ed0c:	d8c02317 	ldw	r3,140(sp)
    ed10:	103f671e 	bne	r2,zero,eab0 <__alt_data_end+0xf800eab0>
    ed14:	8880040c 	andi	r2,r17,16
    ed18:	1001c71e 	bne	r2,zero,f438 <___svfiprintf_internal_r+0xe28>
    ed1c:	8880100c 	andi	r2,r17,64
    ed20:	1001c526 	beq	r2,zero,f438 <___svfiprintf_internal_r+0xe28>
    ed24:	1a40000f 	ldh	r9,0(r3)
    ed28:	dac02317 	ldw	r11,140(sp)
    ed2c:	4815d7fa 	srai	r10,r9,31
    ed30:	5ac00104 	addi	r11,r11,4
    ed34:	dac02315 	stw	r11,140(sp)
    ed38:	5005883a 	mov	r2,r10
    ed3c:	103f630e 	bge	r2,zero,eacc <__alt_data_end+0xf800eacc>
    ed40:	0253c83a 	sub	r9,zero,r9
    ed44:	4804c03a 	cmpne	r2,r9,zero
    ed48:	0295c83a 	sub	r10,zero,r10
    ed4c:	5095c83a 	sub	r10,r10,r2
    ed50:	02c00b44 	movi	r11,45
    ed54:	dac01d85 	stb	r11,118(sp)
    ed58:	8039883a 	mov	fp,r16
    ed5c:	00800044 	movi	r2,1
    ed60:	4a86b03a 	or	r3,r9,r10
    ed64:	003ee606 	br	e900 <__alt_data_end+0xf800e900>
    ed68:	a815883a 	mov	r10,r21
    ed6c:	d8002115 	stw	zero,132(sp)
    ed70:	20bff404 	addi	r2,r4,-48
    ed74:	51000007 	ldb	r4,0(r10)
    ed78:	da802117 	ldw	r10,132(sp)
    ed7c:	ad400044 	addi	r21,r21,1
    ed80:	52c002a4 	muli	r11,r10,10
    ed84:	a815883a 	mov	r10,r21
    ed88:	5885883a 	add	r2,r11,r2
    ed8c:	d8802115 	stw	r2,132(sp)
    ed90:	20bff404 	addi	r2,r4,-48
    ed94:	28bff72e 	bgeu	r5,r2,ed74 <__alt_data_end+0xf800ed74>
    ed98:	20bff804 	addi	r2,r4,-32
    ed9c:	18be6b2e 	bgeu	r3,r2,e74c <__alt_data_end+0xf800e74c>
    eda0:	d9801d85 	stb	r6,118(sp)
    eda4:	2000ce26 	beq	r4,zero,f0e0 <___svfiprintf_internal_r+0xad0>
    eda8:	02800044 	movi	r10,1
    edac:	dac01004 	addi	r11,sp,64
    edb0:	da802015 	stw	r10,128(sp)
    edb4:	d9001005 	stb	r4,64(sp)
    edb8:	d8001d85 	stb	zero,118(sp)
    edbc:	5039883a 	mov	fp,r10
    edc0:	dac02615 	stw	r11,152(sp)
    edc4:	003f5106 	br	eb0c <__alt_data_end+0xf800eb0c>
    edc8:	8c402014 	ori	r17,r17,128
    edcc:	a9000007 	ldb	r4,0(r21)
    edd0:	003e5b06 	br	e740 <__alt_data_end+0xf800e740>
    edd4:	01800ac4 	movi	r6,43
    edd8:	a9000007 	ldb	r4,0(r21)
    eddc:	003e5806 	br	e740 <__alt_data_end+0xf800e740>
    ede0:	a9000007 	ldb	r4,0(r21)
    ede4:	aa800044 	addi	r10,r21,1
    ede8:	22421426 	beq	r4,r9,f63c <___svfiprintf_internal_r+0x102c>
    edec:	20bff404 	addi	r2,r4,-48
    edf0:	502b883a 	mov	r21,r10
    edf4:	0021883a 	mov	r16,zero
    edf8:	28be5236 	bltu	r5,r2,e744 <__alt_data_end+0xf800e744>
    edfc:	a9000007 	ldb	r4,0(r21)
    ee00:	840002a4 	muli	r16,r16,10
    ee04:	ad400044 	addi	r21,r21,1
    ee08:	1421883a 	add	r16,r2,r16
    ee0c:	20bff404 	addi	r2,r4,-48
    ee10:	28bffa2e 	bgeu	r5,r2,edfc <__alt_data_end+0xf800edfc>
    ee14:	803e4b0e 	bge	r16,zero,e744 <__alt_data_end+0xf800e744>
    ee18:	043fffc4 	movi	r16,-1
    ee1c:	003e4906 	br	e744 <__alt_data_end+0xf800e744>
    ee20:	d8c01c17 	ldw	r3,112(sp)
    ee24:	d8801b17 	ldw	r2,108(sp)
    ee28:	d9001d87 	ldb	r4,118(sp)
    ee2c:	20000b26 	beq	r4,zero,ee5c <___svfiprintf_internal_r+0x84c>
    ee30:	d9001d84 	addi	r4,sp,118
    ee34:	18c00044 	addi	r3,r3,1
    ee38:	10800044 	addi	r2,r2,1
    ee3c:	41000015 	stw	r4,0(r8)
    ee40:	01000044 	movi	r4,1
    ee44:	41000115 	stw	r4,4(r8)
    ee48:	d8c01c15 	stw	r3,112(sp)
    ee4c:	d8801b15 	stw	r2,108(sp)
    ee50:	010001c4 	movi	r4,7
    ee54:	20811e16 	blt	r4,r2,f2d0 <___svfiprintf_internal_r+0xcc0>
    ee58:	42000204 	addi	r8,r8,8
    ee5c:	da802217 	ldw	r10,136(sp)
    ee60:	50000b26 	beq	r10,zero,ee90 <___svfiprintf_internal_r+0x880>
    ee64:	d9001d04 	addi	r4,sp,116
    ee68:	18c00084 	addi	r3,r3,2
    ee6c:	10800044 	addi	r2,r2,1
    ee70:	41000015 	stw	r4,0(r8)
    ee74:	01000084 	movi	r4,2
    ee78:	41000115 	stw	r4,4(r8)
    ee7c:	d8c01c15 	stw	r3,112(sp)
    ee80:	d8801b15 	stw	r2,108(sp)
    ee84:	010001c4 	movi	r4,7
    ee88:	20811a16 	blt	r4,r2,f2f4 <___svfiprintf_internal_r+0xce4>
    ee8c:	42000204 	addi	r8,r8,8
    ee90:	dac02517 	ldw	r11,148(sp)
    ee94:	01002004 	movi	r4,128
    ee98:	5900a826 	beq	r11,r4,f13c <___svfiprintf_internal_r+0xb2c>
    ee9c:	8721c83a 	sub	r16,r16,fp
    eea0:	0400260e 	bge	zero,r16,ef3c <___svfiprintf_internal_r+0x92c>
    eea4:	01c00404 	movi	r7,16
    eea8:	3c01a50e 	bge	r7,r16,f540 <___svfiprintf_internal_r+0xf30>
    eeac:	01000374 	movhi	r4,13
    eeb0:	21035404 	addi	r4,r4,3408
    eeb4:	d9002215 	stw	r4,136(sp)
    eeb8:	382f883a 	mov	r23,r7
    eebc:	058001c4 	movi	r22,7
    eec0:	00000306 	br	eed0 <___svfiprintf_internal_r+0x8c0>
    eec4:	843ffc04 	addi	r16,r16,-16
    eec8:	42000204 	addi	r8,r8,8
    eecc:	bc00110e 	bge	r23,r16,ef14 <___svfiprintf_internal_r+0x904>
    eed0:	18c00404 	addi	r3,r3,16
    eed4:	10800044 	addi	r2,r2,1
    eed8:	44c00015 	stw	r19,0(r8)
    eedc:	45c00115 	stw	r23,4(r8)
    eee0:	d8c01c15 	stw	r3,112(sp)
    eee4:	d8801b15 	stw	r2,108(sp)
    eee8:	b0bff60e 	bge	r22,r2,eec4 <__alt_data_end+0xf800eec4>
    eeec:	9009883a 	mov	r4,r18
    eef0:	a00b883a 	mov	r5,r20
    eef4:	d9801a04 	addi	r6,sp,104
    eef8:	000e4480 	call	e448 <__ssprint_r>
    eefc:	10007e1e 	bne	r2,zero,f0f8 <___svfiprintf_internal_r+0xae8>
    ef00:	843ffc04 	addi	r16,r16,-16
    ef04:	d8c01c17 	ldw	r3,112(sp)
    ef08:	d8801b17 	ldw	r2,108(sp)
    ef0c:	d811883a 	mov	r8,sp
    ef10:	bc3fef16 	blt	r23,r16,eed0 <__alt_data_end+0xf800eed0>
    ef14:	da802217 	ldw	r10,136(sp)
    ef18:	1c07883a 	add	r3,r3,r16
    ef1c:	10800044 	addi	r2,r2,1
    ef20:	42800015 	stw	r10,0(r8)
    ef24:	44000115 	stw	r16,4(r8)
    ef28:	d8c01c15 	stw	r3,112(sp)
    ef2c:	d8801b15 	stw	r2,108(sp)
    ef30:	010001c4 	movi	r4,7
    ef34:	2080ce16 	blt	r4,r2,f270 <___svfiprintf_internal_r+0xc60>
    ef38:	42000204 	addi	r8,r8,8
    ef3c:	dac02617 	ldw	r11,152(sp)
    ef40:	e0c7883a 	add	r3,fp,r3
    ef44:	10800044 	addi	r2,r2,1
    ef48:	42c00015 	stw	r11,0(r8)
    ef4c:	47000115 	stw	fp,4(r8)
    ef50:	d8c01c15 	stw	r3,112(sp)
    ef54:	d8801b15 	stw	r2,108(sp)
    ef58:	010001c4 	movi	r4,7
    ef5c:	2080a316 	blt	r4,r2,f1ec <___svfiprintf_internal_r+0xbdc>
    ef60:	42000204 	addi	r8,r8,8
    ef64:	8c40010c 	andi	r17,r17,4
    ef68:	88002b26 	beq	r17,zero,f018 <___svfiprintf_internal_r+0xa08>
    ef6c:	da802117 	ldw	r10,132(sp)
    ef70:	dac02017 	ldw	r11,128(sp)
    ef74:	52e1c83a 	sub	r16,r10,r11
    ef78:	0400270e 	bge	zero,r16,f018 <___svfiprintf_internal_r+0xa08>
    ef7c:	04400404 	movi	r17,16
    ef80:	d8801b17 	ldw	r2,108(sp)
    ef84:	8c019e0e 	bge	r17,r16,f600 <___svfiprintf_internal_r+0xff0>
    ef88:	01400374 	movhi	r5,13
    ef8c:	29435804 	addi	r5,r5,3424
    ef90:	d9402815 	stw	r5,160(sp)
    ef94:	070001c4 	movi	fp,7
    ef98:	00000306 	br	efa8 <___svfiprintf_internal_r+0x998>
    ef9c:	843ffc04 	addi	r16,r16,-16
    efa0:	42000204 	addi	r8,r8,8
    efa4:	8c00130e 	bge	r17,r16,eff4 <___svfiprintf_internal_r+0x9e4>
    efa8:	02800374 	movhi	r10,13
    efac:	18c00404 	addi	r3,r3,16
    efb0:	10800044 	addi	r2,r2,1
    efb4:	52835804 	addi	r10,r10,3424
    efb8:	42800015 	stw	r10,0(r8)
    efbc:	44400115 	stw	r17,4(r8)
    efc0:	d8c01c15 	stw	r3,112(sp)
    efc4:	d8801b15 	stw	r2,108(sp)
    efc8:	e0bff40e 	bge	fp,r2,ef9c <__alt_data_end+0xf800ef9c>
    efcc:	9009883a 	mov	r4,r18
    efd0:	a00b883a 	mov	r5,r20
    efd4:	d9801a04 	addi	r6,sp,104
    efd8:	000e4480 	call	e448 <__ssprint_r>
    efdc:	1000461e 	bne	r2,zero,f0f8 <___svfiprintf_internal_r+0xae8>
    efe0:	843ffc04 	addi	r16,r16,-16
    efe4:	d8c01c17 	ldw	r3,112(sp)
    efe8:	d8801b17 	ldw	r2,108(sp)
    efec:	d811883a 	mov	r8,sp
    eff0:	8c3fed16 	blt	r17,r16,efa8 <__alt_data_end+0xf800efa8>
    eff4:	dac02817 	ldw	r11,160(sp)
    eff8:	1c07883a 	add	r3,r3,r16
    effc:	10800044 	addi	r2,r2,1
    f000:	42c00015 	stw	r11,0(r8)
    f004:	44000115 	stw	r16,4(r8)
    f008:	d8c01c15 	stw	r3,112(sp)
    f00c:	d8801b15 	stw	r2,108(sp)
    f010:	010001c4 	movi	r4,7
    f014:	2080fe16 	blt	r4,r2,f410 <___svfiprintf_internal_r+0xe00>
    f018:	dd802017 	ldw	r22,128(sp)
    f01c:	da802117 	ldw	r10,132(sp)
    f020:	b280010e 	bge	r22,r10,f028 <___svfiprintf_internal_r+0xa18>
    f024:	502d883a 	mov	r22,r10
    f028:	dac02417 	ldw	r11,144(sp)
    f02c:	5d97883a 	add	r11,r11,r22
    f030:	dac02415 	stw	r11,144(sp)
    f034:	1800751e 	bne	r3,zero,f20c <___svfiprintf_internal_r+0xbfc>
    f038:	a8800007 	ldb	r2,0(r21)
    f03c:	d8001b15 	stw	zero,108(sp)
    f040:	d811883a 	mov	r8,sp
    f044:	103d981e 	bne	r2,zero,e6a8 <__alt_data_end+0xf800e6a8>
    f048:	a82d883a 	mov	r22,r21
    f04c:	003daf06 	br	e70c <__alt_data_end+0xf800e70c>
    f050:	10803fcc 	andi	r2,r2,255
    f054:	00c00044 	movi	r3,1
    f058:	10fe311e 	bne	r2,r3,e920 <__alt_data_end+0xf800e920>
    f05c:	5000e126 	beq	r10,zero,f3e4 <___svfiprintf_internal_r+0xdd4>
    f060:	dc402015 	stw	r17,128(sp)
    f064:	dc002215 	stw	r16,136(sp)
    f068:	dd801a04 	addi	r22,sp,104
    f06c:	402f883a 	mov	r23,r8
    f070:	5839883a 	mov	fp,r11
    f074:	4821883a 	mov	r16,r9
    f078:	5023883a 	mov	r17,r10
    f07c:	8009883a 	mov	r4,r16
    f080:	880b883a 	mov	r5,r17
    f084:	01800284 	movi	r6,10
    f088:	000f883a 	mov	r7,zero
    f08c:	001051c0 	call	1051c <__umoddi3>
    f090:	10800c04 	addi	r2,r2,48
    f094:	b5bfffc4 	addi	r22,r22,-1
    f098:	8009883a 	mov	r4,r16
    f09c:	880b883a 	mov	r5,r17
    f0a0:	01800284 	movi	r6,10
    f0a4:	000f883a 	mov	r7,zero
    f0a8:	b0800005 	stb	r2,0(r22)
    f0ac:	000ff5c0 	call	ff5c <__udivdi3>
    f0b0:	1021883a 	mov	r16,r2
    f0b4:	10c4b03a 	or	r2,r2,r3
    f0b8:	1823883a 	mov	r17,r3
    f0bc:	103fef1e 	bne	r2,zero,f07c <__alt_data_end+0xf800f07c>
    f0c0:	da801e17 	ldw	r10,120(sp)
    f0c4:	e017883a 	mov	r11,fp
    f0c8:	b811883a 	mov	r8,r23
    f0cc:	dc402017 	ldw	r17,128(sp)
    f0d0:	dc002217 	ldw	r16,136(sp)
    f0d4:	dd802615 	stw	r22,152(sp)
    f0d8:	55b9c83a 	sub	fp,r10,r22
    f0dc:	003e2206 	br	e968 <__alt_data_end+0xf800e968>
    f0e0:	d8801c17 	ldw	r2,112(sp)
    f0e4:	10000426 	beq	r2,zero,f0f8 <___svfiprintf_internal_r+0xae8>
    f0e8:	d9002917 	ldw	r4,164(sp)
    f0ec:	d9402717 	ldw	r5,156(sp)
    f0f0:	d9801a04 	addi	r6,sp,104
    f0f4:	000e4480 	call	e448 <__ssprint_r>
    f0f8:	da802717 	ldw	r10,156(sp)
    f0fc:	5080030b 	ldhu	r2,12(r10)
    f100:	1080100c 	andi	r2,r2,64
    f104:	1000511e 	bne	r2,zero,f24c <___svfiprintf_internal_r+0xc3c>
    f108:	d8802417 	ldw	r2,144(sp)
    f10c:	dfc03617 	ldw	ra,216(sp)
    f110:	df003517 	ldw	fp,212(sp)
    f114:	ddc03417 	ldw	r23,208(sp)
    f118:	dd803317 	ldw	r22,204(sp)
    f11c:	dd403217 	ldw	r21,200(sp)
    f120:	dd003117 	ldw	r20,196(sp)
    f124:	dcc03017 	ldw	r19,192(sp)
    f128:	dc802f17 	ldw	r18,188(sp)
    f12c:	dc402e17 	ldw	r17,184(sp)
    f130:	dc002d17 	ldw	r16,180(sp)
    f134:	dec03704 	addi	sp,sp,220
    f138:	f800283a 	ret
    f13c:	da802117 	ldw	r10,132(sp)
    f140:	dac02017 	ldw	r11,128(sp)
    f144:	52edc83a 	sub	r22,r10,r11
    f148:	05bf540e 	bge	zero,r22,ee9c <__alt_data_end+0xf800ee9c>
    f14c:	02400404 	movi	r9,16
    f150:	4d812f0e 	bge	r9,r22,f610 <___svfiprintf_internal_r+0x1000>
    f154:	01400374 	movhi	r5,13
    f158:	29435404 	addi	r5,r5,3408
    f15c:	d9402215 	stw	r5,136(sp)
    f160:	05c001c4 	movi	r23,7
    f164:	00000306 	br	f174 <___svfiprintf_internal_r+0xb64>
    f168:	b5bffc04 	addi	r22,r22,-16
    f16c:	42000204 	addi	r8,r8,8
    f170:	4d80130e 	bge	r9,r22,f1c0 <___svfiprintf_internal_r+0xbb0>
    f174:	18c00404 	addi	r3,r3,16
    f178:	10800044 	addi	r2,r2,1
    f17c:	44c00015 	stw	r19,0(r8)
    f180:	42400115 	stw	r9,4(r8)
    f184:	d8c01c15 	stw	r3,112(sp)
    f188:	d8801b15 	stw	r2,108(sp)
    f18c:	b8bff60e 	bge	r23,r2,f168 <__alt_data_end+0xf800f168>
    f190:	9009883a 	mov	r4,r18
    f194:	a00b883a 	mov	r5,r20
    f198:	d9801a04 	addi	r6,sp,104
    f19c:	da402c15 	stw	r9,176(sp)
    f1a0:	000e4480 	call	e448 <__ssprint_r>
    f1a4:	da402c17 	ldw	r9,176(sp)
    f1a8:	103fd31e 	bne	r2,zero,f0f8 <__alt_data_end+0xf800f0f8>
    f1ac:	b5bffc04 	addi	r22,r22,-16
    f1b0:	d8c01c17 	ldw	r3,112(sp)
    f1b4:	d8801b17 	ldw	r2,108(sp)
    f1b8:	d811883a 	mov	r8,sp
    f1bc:	4dbfed16 	blt	r9,r22,f174 <__alt_data_end+0xf800f174>
    f1c0:	da802217 	ldw	r10,136(sp)
    f1c4:	1d87883a 	add	r3,r3,r22
    f1c8:	10800044 	addi	r2,r2,1
    f1cc:	42800015 	stw	r10,0(r8)
    f1d0:	45800115 	stw	r22,4(r8)
    f1d4:	d8c01c15 	stw	r3,112(sp)
    f1d8:	d8801b15 	stw	r2,108(sp)
    f1dc:	010001c4 	movi	r4,7
    f1e0:	2080ce16 	blt	r4,r2,f51c <___svfiprintf_internal_r+0xf0c>
    f1e4:	42000204 	addi	r8,r8,8
    f1e8:	003f2c06 	br	ee9c <__alt_data_end+0xf800ee9c>
    f1ec:	9009883a 	mov	r4,r18
    f1f0:	a00b883a 	mov	r5,r20
    f1f4:	d9801a04 	addi	r6,sp,104
    f1f8:	000e4480 	call	e448 <__ssprint_r>
    f1fc:	103fbe1e 	bne	r2,zero,f0f8 <__alt_data_end+0xf800f0f8>
    f200:	d8c01c17 	ldw	r3,112(sp)
    f204:	d811883a 	mov	r8,sp
    f208:	003f5606 	br	ef64 <__alt_data_end+0xf800ef64>
    f20c:	9009883a 	mov	r4,r18
    f210:	a00b883a 	mov	r5,r20
    f214:	d9801a04 	addi	r6,sp,104
    f218:	000e4480 	call	e448 <__ssprint_r>
    f21c:	103f8626 	beq	r2,zero,f038 <__alt_data_end+0xf800f038>
    f220:	003fb506 	br	f0f8 <__alt_data_end+0xf800f0f8>
    f224:	10803fcc 	andi	r2,r2,255
    f228:	10003b1e 	bne	r2,zero,f318 <___svfiprintf_internal_r+0xd08>
    f22c:	8880004c 	andi	r2,r17,1
    f230:	10007e26 	beq	r2,zero,f42c <___svfiprintf_internal_r+0xe1c>
    f234:	00800c04 	movi	r2,48
    f238:	d8c019c4 	addi	r3,sp,103
    f23c:	d88019c5 	stb	r2,103(sp)
    f240:	df002b17 	ldw	fp,172(sp)
    f244:	d8c02615 	stw	r3,152(sp)
    f248:	003dc706 	br	e968 <__alt_data_end+0xf800e968>
    f24c:	00bfffc4 	movi	r2,-1
    f250:	003fae06 	br	f10c <__alt_data_end+0xf800f10c>
    f254:	9009883a 	mov	r4,r18
    f258:	a00b883a 	mov	r5,r20
    f25c:	d9801a04 	addi	r6,sp,104
    f260:	000e4480 	call	e448 <__ssprint_r>
    f264:	103fa41e 	bne	r2,zero,f0f8 <__alt_data_end+0xf800f0f8>
    f268:	d811883a 	mov	r8,sp
    f26c:	003d2406 	br	e700 <__alt_data_end+0xf800e700>
    f270:	9009883a 	mov	r4,r18
    f274:	a00b883a 	mov	r5,r20
    f278:	d9801a04 	addi	r6,sp,104
    f27c:	000e4480 	call	e448 <__ssprint_r>
    f280:	103f9d1e 	bne	r2,zero,f0f8 <__alt_data_end+0xf800f0f8>
    f284:	d8c01c17 	ldw	r3,112(sp)
    f288:	d8801b17 	ldw	r2,108(sp)
    f28c:	d811883a 	mov	r8,sp
    f290:	003f2a06 	br	ef3c <__alt_data_end+0xf800ef3c>
    f294:	d9402a17 	ldw	r5,168(sp)
    f298:	d8c01a04 	addi	r3,sp,104
    f29c:	488003cc 	andi	r2,r9,15
    f2a0:	5008973a 	slli	r4,r10,28
    f2a4:	2885883a 	add	r2,r5,r2
    f2a8:	4812d13a 	srli	r9,r9,4
    f2ac:	10800003 	ldbu	r2,0(r2)
    f2b0:	5014d13a 	srli	r10,r10,4
    f2b4:	18ffffc4 	addi	r3,r3,-1
    f2b8:	2252b03a 	or	r9,r4,r9
    f2bc:	18800005 	stb	r2,0(r3)
    f2c0:	4a84b03a 	or	r2,r9,r10
    f2c4:	103ff51e 	bne	r2,zero,f29c <__alt_data_end+0xf800f29c>
    f2c8:	d8c02615 	stw	r3,152(sp)
    f2cc:	003da406 	br	e960 <__alt_data_end+0xf800e960>
    f2d0:	9009883a 	mov	r4,r18
    f2d4:	a00b883a 	mov	r5,r20
    f2d8:	d9801a04 	addi	r6,sp,104
    f2dc:	000e4480 	call	e448 <__ssprint_r>
    f2e0:	103f851e 	bne	r2,zero,f0f8 <__alt_data_end+0xf800f0f8>
    f2e4:	d8c01c17 	ldw	r3,112(sp)
    f2e8:	d8801b17 	ldw	r2,108(sp)
    f2ec:	d811883a 	mov	r8,sp
    f2f0:	003eda06 	br	ee5c <__alt_data_end+0xf800ee5c>
    f2f4:	9009883a 	mov	r4,r18
    f2f8:	a00b883a 	mov	r5,r20
    f2fc:	d9801a04 	addi	r6,sp,104
    f300:	000e4480 	call	e448 <__ssprint_r>
    f304:	103f7c1e 	bne	r2,zero,f0f8 <__alt_data_end+0xf800f0f8>
    f308:	d8c01c17 	ldw	r3,112(sp)
    f30c:	d8801b17 	ldw	r2,108(sp)
    f310:	d811883a 	mov	r8,sp
    f314:	003ede06 	br	ee90 <__alt_data_end+0xf800ee90>
    f318:	da801a04 	addi	r10,sp,104
    f31c:	da802615 	stw	r10,152(sp)
    f320:	003d9106 	br	e968 <__alt_data_end+0xf800e968>
    f324:	00800084 	movi	r2,2
    f328:	4a86b03a 	or	r3,r9,r10
    f32c:	003d7106 	br	e8f4 <__alt_data_end+0xf800e8f4>
    f330:	88c0040c 	andi	r3,r17,16
    f334:	18004f1e 	bne	r3,zero,f474 <___svfiprintf_internal_r+0xe64>
    f338:	88c0100c 	andi	r3,r17,64
    f33c:	18004d26 	beq	r3,zero,f474 <___svfiprintf_internal_r+0xe64>
    f340:	dac02317 	ldw	r11,140(sp)
    f344:	1240000b 	ldhu	r9,0(r2)
    f348:	0015883a 	mov	r10,zero
    f34c:	5ac00104 	addi	r11,r11,4
    f350:	dac02315 	stw	r11,140(sp)
    f354:	00800044 	movi	r2,1
    f358:	4807883a 	mov	r3,r9
    f35c:	003d6506 	br	e8f4 <__alt_data_end+0xf800e8f4>
    f360:	9009883a 	mov	r4,r18
    f364:	a00b883a 	mov	r5,r20
    f368:	d9801a04 	addi	r6,sp,104
    f36c:	000e4480 	call	e448 <__ssprint_r>
    f370:	103f611e 	bne	r2,zero,f0f8 <__alt_data_end+0xf800f0f8>
    f374:	d8c01c17 	ldw	r3,112(sp)
    f378:	d8801b17 	ldw	r2,108(sp)
    f37c:	d811883a 	mov	r8,sp
    f380:	003ea906 	br	ee28 <__alt_data_end+0xf800ee28>
    f384:	88c0040c 	andi	r3,r17,16
    f388:	1800321e 	bne	r3,zero,f454 <___svfiprintf_internal_r+0xe44>
    f38c:	88c0100c 	andi	r3,r17,64
    f390:	18003026 	beq	r3,zero,f454 <___svfiprintf_internal_r+0xe44>
    f394:	dac02317 	ldw	r11,140(sp)
    f398:	1240000b 	ldhu	r9,0(r2)
    f39c:	0015883a 	mov	r10,zero
    f3a0:	5ac00104 	addi	r11,r11,4
    f3a4:	dac02315 	stw	r11,140(sp)
    f3a8:	0005883a 	mov	r2,zero
    f3ac:	4807883a 	mov	r3,r9
    f3b0:	003d5006 	br	e8f4 <__alt_data_end+0xf800e8f4>
    f3b4:	10803fcc 	andi	r2,r2,255
    f3b8:	1080201c 	xori	r2,r2,128
    f3bc:	10bfe004 	addi	r2,r2,-128
    f3c0:	01000c04 	movi	r4,48
    f3c4:	11006826 	beq	r2,r4,f568 <___svfiprintf_internal_r+0xf58>
    f3c8:	da802617 	ldw	r10,152(sp)
    f3cc:	d8801e17 	ldw	r2,120(sp)
    f3d0:	193fffc5 	stb	r4,-1(r3)
    f3d4:	52bfffc4 	addi	r10,r10,-1
    f3d8:	da802615 	stw	r10,152(sp)
    f3dc:	12b9c83a 	sub	fp,r2,r10
    f3e0:	003d6106 	br	e968 <__alt_data_end+0xf800e968>
    f3e4:	00800244 	movi	r2,9
    f3e8:	127f1d36 	bltu	r2,r9,f060 <__alt_data_end+0xf800f060>
    f3ec:	4a400c04 	addi	r9,r9,48
    f3f0:	d8c019c4 	addi	r3,sp,103
    f3f4:	da4019c5 	stb	r9,103(sp)
    f3f8:	df002b17 	ldw	fp,172(sp)
    f3fc:	d8c02615 	stw	r3,152(sp)
    f400:	003d5906 	br	e968 <__alt_data_end+0xf800e968>
    f404:	d8802315 	stw	r2,140(sp)
    f408:	a9000007 	ldb	r4,0(r21)
    f40c:	003ccc06 	br	e740 <__alt_data_end+0xf800e740>
    f410:	9009883a 	mov	r4,r18
    f414:	a00b883a 	mov	r5,r20
    f418:	d9801a04 	addi	r6,sp,104
    f41c:	000e4480 	call	e448 <__ssprint_r>
    f420:	103f351e 	bne	r2,zero,f0f8 <__alt_data_end+0xf800f0f8>
    f424:	d8c01c17 	ldw	r3,112(sp)
    f428:	003efb06 	br	f018 <__alt_data_end+0xf800f018>
    f42c:	d8c01a04 	addi	r3,sp,104
    f430:	d8c02615 	stw	r3,152(sp)
    f434:	003d4c06 	br	e968 <__alt_data_end+0xf800e968>
    f438:	da802317 	ldw	r10,140(sp)
    f43c:	1a400017 	ldw	r9,0(r3)
    f440:	52800104 	addi	r10,r10,4
    f444:	da802315 	stw	r10,140(sp)
    f448:	4815d7fa 	srai	r10,r9,31
    f44c:	5005883a 	mov	r2,r10
    f450:	003d9d06 	br	eac8 <__alt_data_end+0xf800eac8>
    f454:	da802317 	ldw	r10,140(sp)
    f458:	12400017 	ldw	r9,0(r2)
    f45c:	0005883a 	mov	r2,zero
    f460:	52800104 	addi	r10,r10,4
    f464:	da802315 	stw	r10,140(sp)
    f468:	4807883a 	mov	r3,r9
    f46c:	0015883a 	mov	r10,zero
    f470:	003d2006 	br	e8f4 <__alt_data_end+0xf800e8f4>
    f474:	da802317 	ldw	r10,140(sp)
    f478:	12400017 	ldw	r9,0(r2)
    f47c:	00800044 	movi	r2,1
    f480:	52800104 	addi	r10,r10,4
    f484:	da802315 	stw	r10,140(sp)
    f488:	4807883a 	mov	r3,r9
    f48c:	0015883a 	mov	r10,zero
    f490:	003d1806 	br	e8f4 <__alt_data_end+0xf800e8f4>
    f494:	dac02317 	ldw	r11,140(sp)
    f498:	12400017 	ldw	r9,0(r2)
    f49c:	0015883a 	mov	r10,zero
    f4a0:	5ac00104 	addi	r11,r11,4
    f4a4:	dac02315 	stw	r11,140(sp)
    f4a8:	003dde06 	br	ec24 <__alt_data_end+0xf800ec24>
    f4ac:	a9000007 	ldb	r4,0(r21)
    f4b0:	003ca306 	br	e740 <__alt_data_end+0xf800e740>
    f4b4:	dac02317 	ldw	r11,140(sp)
    f4b8:	da802417 	ldw	r10,144(sp)
    f4bc:	58800017 	ldw	r2,0(r11)
    f4c0:	5007d7fa 	srai	r3,r10,31
    f4c4:	5ac00104 	addi	r11,r11,4
    f4c8:	dac02315 	stw	r11,140(sp)
    f4cc:	12800015 	stw	r10,0(r2)
    f4d0:	10c00115 	stw	r3,4(r2)
    f4d4:	003c7206 	br	e6a0 <__alt_data_end+0xf800e6a0>
    f4d8:	00800c04 	movi	r2,48
    f4dc:	d8801d05 	stb	r2,116(sp)
    f4e0:	d9001d45 	stb	r4,117(sp)
    f4e4:	8c400094 	ori	r17,r17,2
    f4e8:	00800084 	movi	r2,2
    f4ec:	003d0106 	br	e8f4 <__alt_data_end+0xf800e8f4>
    f4f0:	ad400044 	addi	r21,r21,1
    f4f4:	8c400814 	ori	r17,r17,32
    f4f8:	11000047 	ldb	r4,1(r2)
    f4fc:	003c9006 	br	e740 <__alt_data_end+0xf800e740>
    f500:	dac02317 	ldw	r11,140(sp)
    f504:	da802417 	ldw	r10,144(sp)
    f508:	58800017 	ldw	r2,0(r11)
    f50c:	5ac00104 	addi	r11,r11,4
    f510:	dac02315 	stw	r11,140(sp)
    f514:	12800015 	stw	r10,0(r2)
    f518:	003c6106 	br	e6a0 <__alt_data_end+0xf800e6a0>
    f51c:	9009883a 	mov	r4,r18
    f520:	a00b883a 	mov	r5,r20
    f524:	d9801a04 	addi	r6,sp,104
    f528:	000e4480 	call	e448 <__ssprint_r>
    f52c:	103ef21e 	bne	r2,zero,f0f8 <__alt_data_end+0xf800f0f8>
    f530:	d8c01c17 	ldw	r3,112(sp)
    f534:	d8801b17 	ldw	r2,108(sp)
    f538:	d811883a 	mov	r8,sp
    f53c:	003e5706 	br	ee9c <__alt_data_end+0xf800ee9c>
    f540:	02c00374 	movhi	r11,13
    f544:	5ac35404 	addi	r11,r11,3408
    f548:	dac02215 	stw	r11,136(sp)
    f54c:	003e7106 	br	ef14 <__alt_data_end+0xf800ef14>
    f550:	dac02317 	ldw	r11,140(sp)
    f554:	12400017 	ldw	r9,0(r2)
    f558:	0015883a 	mov	r10,zero
    f55c:	5ac00104 	addi	r11,r11,4
    f560:	dac02315 	stw	r11,140(sp)
    f564:	003daf06 	br	ec24 <__alt_data_end+0xf800ec24>
    f568:	da801e17 	ldw	r10,120(sp)
    f56c:	d8c02617 	ldw	r3,152(sp)
    f570:	50f9c83a 	sub	fp,r10,r3
    f574:	003cfc06 	br	e968 <__alt_data_end+0xf800e968>
    f578:	da002c15 	stw	r8,176(sp)
    f57c:	00093400 	call	9340 <strlen>
    f580:	1039883a 	mov	fp,r2
    f584:	dac01d83 	ldbu	r11,118(sp)
    f588:	ddc02315 	stw	r23,140(sp)
    f58c:	0021883a 	mov	r16,zero
    f590:	da002c17 	ldw	r8,176(sp)
    f594:	003cf406 	br	e968 <__alt_data_end+0xf800e968>
    f598:	04001004 	movi	r16,64
    f59c:	800b883a 	mov	r5,r16
    f5a0:	0008a800 	call	8a80 <_malloc_r>
    f5a4:	da802717 	ldw	r10,156(sp)
    f5a8:	50800015 	stw	r2,0(r10)
    f5ac:	50800415 	stw	r2,16(r10)
    f5b0:	10002c26 	beq	r2,zero,f664 <___svfiprintf_internal_r+0x1054>
    f5b4:	da802717 	ldw	r10,156(sp)
    f5b8:	54000515 	stw	r16,20(r10)
    f5bc:	003c2806 	br	e660 <__alt_data_end+0xf800e660>
    f5c0:	00800184 	movi	r2,6
    f5c4:	1400012e 	bgeu	r2,r16,f5cc <___svfiprintf_internal_r+0xfbc>
    f5c8:	1021883a 	mov	r16,r2
    f5cc:	8039883a 	mov	fp,r16
    f5d0:	802d883a 	mov	r22,r16
    f5d4:	80001716 	blt	r16,zero,f634 <___svfiprintf_internal_r+0x1024>
    f5d8:	00800374 	movhi	r2,13
    f5dc:	1082f804 	addi	r2,r2,3040
    f5e0:	dd802015 	stw	r22,128(sp)
    f5e4:	ddc02315 	stw	r23,140(sp)
    f5e8:	d8802615 	stw	r2,152(sp)
    f5ec:	003d4706 	br	eb0c <__alt_data_end+0xf800eb0c>
    f5f0:	01000374 	movhi	r4,13
    f5f4:	21035804 	addi	r4,r4,3424
    f5f8:	d9002815 	stw	r4,160(sp)
    f5fc:	003d7206 	br	ebc8 <__alt_data_end+0xf800ebc8>
    f600:	01000374 	movhi	r4,13
    f604:	21035804 	addi	r4,r4,3424
    f608:	d9002815 	stw	r4,160(sp)
    f60c:	003e7906 	br	eff4 <__alt_data_end+0xf800eff4>
    f610:	01000374 	movhi	r4,13
    f614:	21035404 	addi	r4,r4,3408
    f618:	d9002215 	stw	r4,136(sp)
    f61c:	003ee806 	br	f1c0 <__alt_data_end+0xf800f1c0>
    f620:	8039883a 	mov	fp,r16
    f624:	dac01d83 	ldbu	r11,118(sp)
    f628:	ddc02315 	stw	r23,140(sp)
    f62c:	0021883a 	mov	r16,zero
    f630:	003ccd06 	br	e968 <__alt_data_end+0xf800e968>
    f634:	002d883a 	mov	r22,zero
    f638:	003fe706 	br	f5d8 <__alt_data_end+0xf800f5d8>
    f63c:	dac02317 	ldw	r11,140(sp)
    f640:	a805883a 	mov	r2,r21
    f644:	502b883a 	mov	r21,r10
    f648:	5c000017 	ldw	r16,0(r11)
    f64c:	59000104 	addi	r4,r11,4
    f650:	d9002315 	stw	r4,140(sp)
    f654:	803fa80e 	bge	r16,zero,f4f8 <__alt_data_end+0xf800f4f8>
    f658:	043fffc4 	movi	r16,-1
    f65c:	11000047 	ldb	r4,1(r2)
    f660:	003c3706 	br	e740 <__alt_data_end+0xf800e740>
    f664:	dac02917 	ldw	r11,164(sp)
    f668:	00800304 	movi	r2,12
    f66c:	58800015 	stw	r2,0(r11)
    f670:	00bfffc4 	movi	r2,-1
    f674:	003ea506 	br	f10c <__alt_data_end+0xf800f10c>

0000f678 <_calloc_r>:
    f678:	298b383a 	mul	r5,r5,r6
    f67c:	defffe04 	addi	sp,sp,-8
    f680:	dc000015 	stw	r16,0(sp)
    f684:	dfc00115 	stw	ra,4(sp)
    f688:	0008a800 	call	8a80 <_malloc_r>
    f68c:	1021883a 	mov	r16,r2
    f690:	10002826 	beq	r2,zero,f734 <_calloc_r+0xbc>
    f694:	11bfff17 	ldw	r6,-4(r2)
    f698:	00bfff04 	movi	r2,-4
    f69c:	00c00904 	movi	r3,36
    f6a0:	308c703a 	and	r6,r6,r2
    f6a4:	308d883a 	add	r6,r6,r2
    f6a8:	19801436 	bltu	r3,r6,f6fc <_calloc_r+0x84>
    f6ac:	008004c4 	movi	r2,19
    f6b0:	11800936 	bltu	r2,r6,f6d8 <_calloc_r+0x60>
    f6b4:	8005883a 	mov	r2,r16
    f6b8:	10000015 	stw	zero,0(r2)
    f6bc:	10000115 	stw	zero,4(r2)
    f6c0:	10000215 	stw	zero,8(r2)
    f6c4:	8005883a 	mov	r2,r16
    f6c8:	dfc00117 	ldw	ra,4(sp)
    f6cc:	dc000017 	ldw	r16,0(sp)
    f6d0:	dec00204 	addi	sp,sp,8
    f6d4:	f800283a 	ret
    f6d8:	80000015 	stw	zero,0(r16)
    f6dc:	80000115 	stw	zero,4(r16)
    f6e0:	008006c4 	movi	r2,27
    f6e4:	11800d2e 	bgeu	r2,r6,f71c <_calloc_r+0xa4>
    f6e8:	80000215 	stw	zero,8(r16)
    f6ec:	80000315 	stw	zero,12(r16)
    f6f0:	30c00c26 	beq	r6,r3,f724 <_calloc_r+0xac>
    f6f4:	80800404 	addi	r2,r16,16
    f6f8:	003fef06 	br	f6b8 <__alt_data_end+0xf800f6b8>
    f6fc:	8009883a 	mov	r4,r16
    f700:	000b883a 	mov	r5,zero
    f704:	000f8980 	call	f898 <memset>
    f708:	8005883a 	mov	r2,r16
    f70c:	dfc00117 	ldw	ra,4(sp)
    f710:	dc000017 	ldw	r16,0(sp)
    f714:	dec00204 	addi	sp,sp,8
    f718:	f800283a 	ret
    f71c:	80800204 	addi	r2,r16,8
    f720:	003fe506 	br	f6b8 <__alt_data_end+0xf800f6b8>
    f724:	80000415 	stw	zero,16(r16)
    f728:	80800604 	addi	r2,r16,24
    f72c:	80000515 	stw	zero,20(r16)
    f730:	003fe106 	br	f6b8 <__alt_data_end+0xf800f6b8>
    f734:	0005883a 	mov	r2,zero
    f738:	003fe306 	br	f6c8 <__alt_data_end+0xf800f6c8>

0000f73c <memmove>:
    f73c:	2005883a 	mov	r2,r4
    f740:	29000b2e 	bgeu	r5,r4,f770 <memmove+0x34>
    f744:	298f883a 	add	r7,r5,r6
    f748:	21c0092e 	bgeu	r4,r7,f770 <memmove+0x34>
    f74c:	2187883a 	add	r3,r4,r6
    f750:	198bc83a 	sub	r5,r3,r6
    f754:	30004b26 	beq	r6,zero,f884 <memmove+0x148>
    f758:	39ffffc4 	addi	r7,r7,-1
    f75c:	39000003 	ldbu	r4,0(r7)
    f760:	18ffffc4 	addi	r3,r3,-1
    f764:	19000005 	stb	r4,0(r3)
    f768:	197ffb1e 	bne	r3,r5,f758 <__alt_data_end+0xf800f758>
    f76c:	f800283a 	ret
    f770:	00c003c4 	movi	r3,15
    f774:	1980412e 	bgeu	r3,r6,f87c <memmove+0x140>
    f778:	1146b03a 	or	r3,r2,r5
    f77c:	18c000cc 	andi	r3,r3,3
    f780:	1800411e 	bne	r3,zero,f888 <memmove+0x14c>
    f784:	33fffc04 	addi	r15,r6,-16
    f788:	781ed13a 	srli	r15,r15,4
    f78c:	28c00104 	addi	r3,r5,4
    f790:	13400104 	addi	r13,r2,4
    f794:	781c913a 	slli	r14,r15,4
    f798:	2b000204 	addi	r12,r5,8
    f79c:	12c00204 	addi	r11,r2,8
    f7a0:	73800504 	addi	r14,r14,20
    f7a4:	2a800304 	addi	r10,r5,12
    f7a8:	12400304 	addi	r9,r2,12
    f7ac:	2b9d883a 	add	r14,r5,r14
    f7b0:	2811883a 	mov	r8,r5
    f7b4:	100f883a 	mov	r7,r2
    f7b8:	41000017 	ldw	r4,0(r8)
    f7bc:	39c00404 	addi	r7,r7,16
    f7c0:	18c00404 	addi	r3,r3,16
    f7c4:	393ffc15 	stw	r4,-16(r7)
    f7c8:	193ffc17 	ldw	r4,-16(r3)
    f7cc:	6b400404 	addi	r13,r13,16
    f7d0:	5ac00404 	addi	r11,r11,16
    f7d4:	693ffc15 	stw	r4,-16(r13)
    f7d8:	61000017 	ldw	r4,0(r12)
    f7dc:	4a400404 	addi	r9,r9,16
    f7e0:	42000404 	addi	r8,r8,16
    f7e4:	593ffc15 	stw	r4,-16(r11)
    f7e8:	51000017 	ldw	r4,0(r10)
    f7ec:	63000404 	addi	r12,r12,16
    f7f0:	52800404 	addi	r10,r10,16
    f7f4:	493ffc15 	stw	r4,-16(r9)
    f7f8:	1bbfef1e 	bne	r3,r14,f7b8 <__alt_data_end+0xf800f7b8>
    f7fc:	79000044 	addi	r4,r15,1
    f800:	2008913a 	slli	r4,r4,4
    f804:	328003cc 	andi	r10,r6,15
    f808:	02c000c4 	movi	r11,3
    f80c:	1107883a 	add	r3,r2,r4
    f810:	290b883a 	add	r5,r5,r4
    f814:	5a801e2e 	bgeu	r11,r10,f890 <memmove+0x154>
    f818:	1813883a 	mov	r9,r3
    f81c:	2811883a 	mov	r8,r5
    f820:	500f883a 	mov	r7,r10
    f824:	41000017 	ldw	r4,0(r8)
    f828:	4a400104 	addi	r9,r9,4
    f82c:	39ffff04 	addi	r7,r7,-4
    f830:	493fff15 	stw	r4,-4(r9)
    f834:	42000104 	addi	r8,r8,4
    f838:	59fffa36 	bltu	r11,r7,f824 <__alt_data_end+0xf800f824>
    f83c:	513fff04 	addi	r4,r10,-4
    f840:	2008d0ba 	srli	r4,r4,2
    f844:	318000cc 	andi	r6,r6,3
    f848:	21000044 	addi	r4,r4,1
    f84c:	2109883a 	add	r4,r4,r4
    f850:	2109883a 	add	r4,r4,r4
    f854:	1907883a 	add	r3,r3,r4
    f858:	290b883a 	add	r5,r5,r4
    f85c:	30000926 	beq	r6,zero,f884 <memmove+0x148>
    f860:	198d883a 	add	r6,r3,r6
    f864:	29c00003 	ldbu	r7,0(r5)
    f868:	18c00044 	addi	r3,r3,1
    f86c:	29400044 	addi	r5,r5,1
    f870:	19ffffc5 	stb	r7,-1(r3)
    f874:	19bffb1e 	bne	r3,r6,f864 <__alt_data_end+0xf800f864>
    f878:	f800283a 	ret
    f87c:	1007883a 	mov	r3,r2
    f880:	003ff606 	br	f85c <__alt_data_end+0xf800f85c>
    f884:	f800283a 	ret
    f888:	1007883a 	mov	r3,r2
    f88c:	003ff406 	br	f860 <__alt_data_end+0xf800f860>
    f890:	500d883a 	mov	r6,r10
    f894:	003ff106 	br	f85c <__alt_data_end+0xf800f85c>

0000f898 <memset>:
    f898:	20c000cc 	andi	r3,r4,3
    f89c:	2005883a 	mov	r2,r4
    f8a0:	18004326 	beq	r3,zero,f9b0 <memset+0x118>
    f8a4:	31ffffc4 	addi	r7,r6,-1
    f8a8:	30004026 	beq	r6,zero,f9ac <memset+0x114>
    f8ac:	2813883a 	mov	r9,r5
    f8b0:	200d883a 	mov	r6,r4
    f8b4:	2007883a 	mov	r3,r4
    f8b8:	00000406 	br	f8cc <memset+0x34>
    f8bc:	3a3fffc4 	addi	r8,r7,-1
    f8c0:	31800044 	addi	r6,r6,1
    f8c4:	38003926 	beq	r7,zero,f9ac <memset+0x114>
    f8c8:	400f883a 	mov	r7,r8
    f8cc:	18c00044 	addi	r3,r3,1
    f8d0:	32400005 	stb	r9,0(r6)
    f8d4:	1a0000cc 	andi	r8,r3,3
    f8d8:	403ff81e 	bne	r8,zero,f8bc <__alt_data_end+0xf800f8bc>
    f8dc:	010000c4 	movi	r4,3
    f8e0:	21c02d2e 	bgeu	r4,r7,f998 <memset+0x100>
    f8e4:	29803fcc 	andi	r6,r5,255
    f8e8:	3008923a 	slli	r4,r6,8
    f8ec:	218cb03a 	or	r6,r4,r6
    f8f0:	3008943a 	slli	r4,r6,16
    f8f4:	218cb03a 	or	r6,r4,r6
    f8f8:	010003c4 	movi	r4,15
    f8fc:	21c0182e 	bgeu	r4,r7,f960 <memset+0xc8>
    f900:	3b3ffc04 	addi	r12,r7,-16
    f904:	6018d13a 	srli	r12,r12,4
    f908:	1a000104 	addi	r8,r3,4
    f90c:	1ac00204 	addi	r11,r3,8
    f910:	6008913a 	slli	r4,r12,4
    f914:	1a800304 	addi	r10,r3,12
    f918:	1813883a 	mov	r9,r3
    f91c:	21000504 	addi	r4,r4,20
    f920:	1909883a 	add	r4,r3,r4
    f924:	49800015 	stw	r6,0(r9)
    f928:	41800015 	stw	r6,0(r8)
    f92c:	59800015 	stw	r6,0(r11)
    f930:	51800015 	stw	r6,0(r10)
    f934:	42000404 	addi	r8,r8,16
    f938:	4a400404 	addi	r9,r9,16
    f93c:	5ac00404 	addi	r11,r11,16
    f940:	52800404 	addi	r10,r10,16
    f944:	413ff71e 	bne	r8,r4,f924 <__alt_data_end+0xf800f924>
    f948:	63000044 	addi	r12,r12,1
    f94c:	6018913a 	slli	r12,r12,4
    f950:	39c003cc 	andi	r7,r7,15
    f954:	010000c4 	movi	r4,3
    f958:	1b07883a 	add	r3,r3,r12
    f95c:	21c00e2e 	bgeu	r4,r7,f998 <memset+0x100>
    f960:	1813883a 	mov	r9,r3
    f964:	3811883a 	mov	r8,r7
    f968:	010000c4 	movi	r4,3
    f96c:	49800015 	stw	r6,0(r9)
    f970:	423fff04 	addi	r8,r8,-4
    f974:	4a400104 	addi	r9,r9,4
    f978:	223ffc36 	bltu	r4,r8,f96c <__alt_data_end+0xf800f96c>
    f97c:	393fff04 	addi	r4,r7,-4
    f980:	2008d0ba 	srli	r4,r4,2
    f984:	39c000cc 	andi	r7,r7,3
    f988:	21000044 	addi	r4,r4,1
    f98c:	2109883a 	add	r4,r4,r4
    f990:	2109883a 	add	r4,r4,r4
    f994:	1907883a 	add	r3,r3,r4
    f998:	38000426 	beq	r7,zero,f9ac <memset+0x114>
    f99c:	19cf883a 	add	r7,r3,r7
    f9a0:	19400005 	stb	r5,0(r3)
    f9a4:	18c00044 	addi	r3,r3,1
    f9a8:	19fffd1e 	bne	r3,r7,f9a0 <__alt_data_end+0xf800f9a0>
    f9ac:	f800283a 	ret
    f9b0:	2007883a 	mov	r3,r4
    f9b4:	300f883a 	mov	r7,r6
    f9b8:	003fc806 	br	f8dc <__alt_data_end+0xf800f8dc>

0000f9bc <_realloc_r>:
    f9bc:	defff604 	addi	sp,sp,-40
    f9c0:	dcc00315 	stw	r19,12(sp)
    f9c4:	dc400115 	stw	r17,4(sp)
    f9c8:	dfc00915 	stw	ra,36(sp)
    f9cc:	df000815 	stw	fp,32(sp)
    f9d0:	ddc00715 	stw	r23,28(sp)
    f9d4:	dd800615 	stw	r22,24(sp)
    f9d8:	dd400515 	stw	r21,20(sp)
    f9dc:	dd000415 	stw	r20,16(sp)
    f9e0:	dc800215 	stw	r18,8(sp)
    f9e4:	dc000015 	stw	r16,0(sp)
    f9e8:	2827883a 	mov	r19,r5
    f9ec:	3023883a 	mov	r17,r6
    f9f0:	2800bf26 	beq	r5,zero,fcf0 <_realloc_r+0x334>
    f9f4:	2025883a 	mov	r18,r4
    f9f8:	00131a40 	call	131a4 <__malloc_lock>
    f9fc:	98ffff17 	ldw	r3,-4(r19)
    fa00:	01bfff04 	movi	r6,-4
    fa04:	890002c4 	addi	r4,r17,11
    fa08:	01c00584 	movi	r7,22
    fa0c:	9d7ffe04 	addi	r21,r19,-8
    fa10:	19a0703a 	and	r16,r3,r6
    fa14:	39003f2e 	bgeu	r7,r4,fb14 <_realloc_r+0x158>
    fa18:	053ffe04 	movi	r20,-8
    fa1c:	2528703a 	and	r20,r4,r20
    fa20:	a00f883a 	mov	r7,r20
    fa24:	a0008216 	blt	r20,zero,fc30 <_realloc_r+0x274>
    fa28:	a4408136 	bltu	r20,r17,fc30 <_realloc_r+0x274>
    fa2c:	81c03c0e 	bge	r16,r7,fb20 <_realloc_r+0x164>
    fa30:	07000374 	movhi	fp,13
    fa34:	e7038c04 	addi	fp,fp,3632
    fa38:	e1000217 	ldw	r4,8(fp)
    fa3c:	ac05883a 	add	r2,r21,r16
    fa40:	2080bf26 	beq	r4,r2,fd40 <_realloc_r+0x384>
    fa44:	11000117 	ldw	r4,4(r2)
    fa48:	023fff84 	movi	r8,-2
    fa4c:	2210703a 	and	r8,r4,r8
    fa50:	1211883a 	add	r8,r2,r8
    fa54:	41400117 	ldw	r5,4(r8)
    fa58:	2940004c 	andi	r5,r5,1
    fa5c:	28004a1e 	bne	r5,zero,fb88 <_realloc_r+0x1cc>
    fa60:	017fff04 	movi	r5,-4
    fa64:	2148703a 	and	r4,r4,r5
    fa68:	2409883a 	add	r4,r4,r16
    fa6c:	21c0ad0e 	bge	r4,r7,fd24 <_realloc_r+0x368>
    fa70:	18c0004c 	andi	r3,r3,1
    fa74:	18007f1e 	bne	r3,zero,fc74 <_realloc_r+0x2b8>
    fa78:	9dfffe17 	ldw	r23,-8(r19)
    fa7c:	adefc83a 	sub	r23,r21,r23
    fa80:	bd800117 	ldw	r22,4(r23)
    fa84:	b14a703a 	and	r5,r22,r5
    fa88:	216d883a 	add	r22,r4,r5
    fa8c:	b1c04516 	blt	r22,r7,fba4 <_realloc_r+0x1e8>
    fa90:	10c00317 	ldw	r3,12(r2)
    fa94:	10800217 	ldw	r2,8(r2)
    fa98:	81bfff04 	addi	r6,r16,-4
    fa9c:	bc400204 	addi	r17,r23,8
    faa0:	10c00315 	stw	r3,12(r2)
    faa4:	18800215 	stw	r2,8(r3)
    faa8:	b9400217 	ldw	r5,8(r23)
    faac:	b8c00317 	ldw	r3,12(r23)
    fab0:	00800904 	movi	r2,36
    fab4:	28c00315 	stw	r3,12(r5)
    fab8:	19400215 	stw	r5,8(r3)
    fabc:	1180ef36 	bltu	r2,r6,fe7c <_realloc_r+0x4c0>
    fac0:	008004c4 	movi	r2,19
    fac4:	1180da2e 	bgeu	r2,r6,fe30 <_realloc_r+0x474>
    fac8:	98800017 	ldw	r2,0(r19)
    facc:	b8800215 	stw	r2,8(r23)
    fad0:	98800117 	ldw	r2,4(r19)
    fad4:	b8800315 	stw	r2,12(r23)
    fad8:	008006c4 	movi	r2,27
    fadc:	1180fc2e 	bgeu	r2,r6,fed0 <_realloc_r+0x514>
    fae0:	98800217 	ldw	r2,8(r19)
    fae4:	b8800415 	stw	r2,16(r23)
    fae8:	98800317 	ldw	r2,12(r19)
    faec:	b8800515 	stw	r2,20(r23)
    faf0:	00800904 	movi	r2,36
    faf4:	3080421e 	bne	r6,r2,fc00 <_realloc_r+0x244>
    faf8:	98800417 	ldw	r2,16(r19)
    fafc:	9cc00604 	addi	r19,r19,24
    fb00:	b8c00804 	addi	r3,r23,32
    fb04:	b8800615 	stw	r2,24(r23)
    fb08:	98bfff17 	ldw	r2,-4(r19)
    fb0c:	b8800715 	stw	r2,28(r23)
    fb10:	00003d06 	br	fc08 <_realloc_r+0x24c>
    fb14:	01c00404 	movi	r7,16
    fb18:	3829883a 	mov	r20,r7
    fb1c:	003fc206 	br	fa28 <__alt_data_end+0xf800fa28>
    fb20:	9823883a 	mov	r17,r19
    fb24:	850fc83a 	sub	r7,r16,r20
    fb28:	008003c4 	movi	r2,15
    fb2c:	18c0004c 	andi	r3,r3,1
    fb30:	11c04336 	bltu	r2,r7,fc40 <_realloc_r+0x284>
    fb34:	1c06b03a 	or	r3,r3,r16
    fb38:	a8c00115 	stw	r3,4(r21)
    fb3c:	ac21883a 	add	r16,r21,r16
    fb40:	80c00117 	ldw	r3,4(r16)
    fb44:	18c00054 	ori	r3,r3,1
    fb48:	80c00115 	stw	r3,4(r16)
    fb4c:	9009883a 	mov	r4,r18
    fb50:	00131c40 	call	131c4 <__malloc_unlock>
    fb54:	8805883a 	mov	r2,r17
    fb58:	dfc00917 	ldw	ra,36(sp)
    fb5c:	df000817 	ldw	fp,32(sp)
    fb60:	ddc00717 	ldw	r23,28(sp)
    fb64:	dd800617 	ldw	r22,24(sp)
    fb68:	dd400517 	ldw	r21,20(sp)
    fb6c:	dd000417 	ldw	r20,16(sp)
    fb70:	dcc00317 	ldw	r19,12(sp)
    fb74:	dc800217 	ldw	r18,8(sp)
    fb78:	dc400117 	ldw	r17,4(sp)
    fb7c:	dc000017 	ldw	r16,0(sp)
    fb80:	dec00a04 	addi	sp,sp,40
    fb84:	f800283a 	ret
    fb88:	18c0004c 	andi	r3,r3,1
    fb8c:	1800391e 	bne	r3,zero,fc74 <_realloc_r+0x2b8>
    fb90:	9dfffe17 	ldw	r23,-8(r19)
    fb94:	00bfff04 	movi	r2,-4
    fb98:	adefc83a 	sub	r23,r21,r23
    fb9c:	b9400117 	ldw	r5,4(r23)
    fba0:	288a703a 	and	r5,r5,r2
    fba4:	2c2d883a 	add	r22,r5,r16
    fba8:	b1c03216 	blt	r22,r7,fc74 <_realloc_r+0x2b8>
    fbac:	b8800317 	ldw	r2,12(r23)
    fbb0:	b8c00217 	ldw	r3,8(r23)
    fbb4:	81bfff04 	addi	r6,r16,-4
    fbb8:	01000904 	movi	r4,36
    fbbc:	18800315 	stw	r2,12(r3)
    fbc0:	10c00215 	stw	r3,8(r2)
    fbc4:	bc400204 	addi	r17,r23,8
    fbc8:	2180ac36 	bltu	r4,r6,fe7c <_realloc_r+0x4c0>
    fbcc:	008004c4 	movi	r2,19
    fbd0:	1180972e 	bgeu	r2,r6,fe30 <_realloc_r+0x474>
    fbd4:	98800017 	ldw	r2,0(r19)
    fbd8:	b8800215 	stw	r2,8(r23)
    fbdc:	98800117 	ldw	r2,4(r19)
    fbe0:	b8800315 	stw	r2,12(r23)
    fbe4:	008006c4 	movi	r2,27
    fbe8:	1180b92e 	bgeu	r2,r6,fed0 <_realloc_r+0x514>
    fbec:	98800217 	ldw	r2,8(r19)
    fbf0:	b8800415 	stw	r2,16(r23)
    fbf4:	98800317 	ldw	r2,12(r19)
    fbf8:	b8800515 	stw	r2,20(r23)
    fbfc:	313fbe26 	beq	r6,r4,faf8 <__alt_data_end+0xf800faf8>
    fc00:	b8c00604 	addi	r3,r23,24
    fc04:	9cc00404 	addi	r19,r19,16
    fc08:	98800017 	ldw	r2,0(r19)
    fc0c:	b021883a 	mov	r16,r22
    fc10:	b82b883a 	mov	r21,r23
    fc14:	18800015 	stw	r2,0(r3)
    fc18:	98800117 	ldw	r2,4(r19)
    fc1c:	18800115 	stw	r2,4(r3)
    fc20:	98800217 	ldw	r2,8(r19)
    fc24:	18800215 	stw	r2,8(r3)
    fc28:	b8c00117 	ldw	r3,4(r23)
    fc2c:	003fbd06 	br	fb24 <__alt_data_end+0xf800fb24>
    fc30:	00800304 	movi	r2,12
    fc34:	90800015 	stw	r2,0(r18)
    fc38:	0005883a 	mov	r2,zero
    fc3c:	003fc606 	br	fb58 <__alt_data_end+0xf800fb58>
    fc40:	1d06b03a 	or	r3,r3,r20
    fc44:	ad0b883a 	add	r5,r21,r20
    fc48:	a8c00115 	stw	r3,4(r21)
    fc4c:	38800054 	ori	r2,r7,1
    fc50:	28800115 	stw	r2,4(r5)
    fc54:	29cf883a 	add	r7,r5,r7
    fc58:	38800117 	ldw	r2,4(r7)
    fc5c:	9009883a 	mov	r4,r18
    fc60:	29400204 	addi	r5,r5,8
    fc64:	10800054 	ori	r2,r2,1
    fc68:	38800115 	stw	r2,4(r7)
    fc6c:	000cdb40 	call	cdb4 <_free_r>
    fc70:	003fb606 	br	fb4c <__alt_data_end+0xf800fb4c>
    fc74:	880b883a 	mov	r5,r17
    fc78:	9009883a 	mov	r4,r18
    fc7c:	0008a800 	call	8a80 <_malloc_r>
    fc80:	1023883a 	mov	r17,r2
    fc84:	1000aa26 	beq	r2,zero,ff30 <_realloc_r+0x574>
    fc88:	98ffff17 	ldw	r3,-4(r19)
    fc8c:	113ffe04 	addi	r4,r2,-8
    fc90:	00bfff84 	movi	r2,-2
    fc94:	1884703a 	and	r2,r3,r2
    fc98:	a885883a 	add	r2,r21,r2
    fc9c:	20808626 	beq	r4,r2,feb8 <_realloc_r+0x4fc>
    fca0:	81bfff04 	addi	r6,r16,-4
    fca4:	00800904 	movi	r2,36
    fca8:	11807036 	bltu	r2,r6,fe6c <_realloc_r+0x4b0>
    fcac:	00c004c4 	movi	r3,19
    fcb0:	19805636 	bltu	r3,r6,fe0c <_realloc_r+0x450>
    fcb4:	8805883a 	mov	r2,r17
    fcb8:	9807883a 	mov	r3,r19
    fcbc:	19000017 	ldw	r4,0(r3)
    fcc0:	11000015 	stw	r4,0(r2)
    fcc4:	19000117 	ldw	r4,4(r3)
    fcc8:	11000115 	stw	r4,4(r2)
    fccc:	18c00217 	ldw	r3,8(r3)
    fcd0:	10c00215 	stw	r3,8(r2)
    fcd4:	980b883a 	mov	r5,r19
    fcd8:	9009883a 	mov	r4,r18
    fcdc:	000cdb40 	call	cdb4 <_free_r>
    fce0:	9009883a 	mov	r4,r18
    fce4:	00131c40 	call	131c4 <__malloc_unlock>
    fce8:	8805883a 	mov	r2,r17
    fcec:	003f9a06 	br	fb58 <__alt_data_end+0xf800fb58>
    fcf0:	300b883a 	mov	r5,r6
    fcf4:	dfc00917 	ldw	ra,36(sp)
    fcf8:	df000817 	ldw	fp,32(sp)
    fcfc:	ddc00717 	ldw	r23,28(sp)
    fd00:	dd800617 	ldw	r22,24(sp)
    fd04:	dd400517 	ldw	r21,20(sp)
    fd08:	dd000417 	ldw	r20,16(sp)
    fd0c:	dcc00317 	ldw	r19,12(sp)
    fd10:	dc800217 	ldw	r18,8(sp)
    fd14:	dc400117 	ldw	r17,4(sp)
    fd18:	dc000017 	ldw	r16,0(sp)
    fd1c:	dec00a04 	addi	sp,sp,40
    fd20:	0008a801 	jmpi	8a80 <_malloc_r>
    fd24:	11400317 	ldw	r5,12(r2)
    fd28:	10800217 	ldw	r2,8(r2)
    fd2c:	9823883a 	mov	r17,r19
    fd30:	2021883a 	mov	r16,r4
    fd34:	11400315 	stw	r5,12(r2)
    fd38:	28800215 	stw	r2,8(r5)
    fd3c:	003f7906 	br	fb24 <__alt_data_end+0xf800fb24>
    fd40:	21000117 	ldw	r4,4(r4)
    fd44:	00bfff04 	movi	r2,-4
    fd48:	a1800404 	addi	r6,r20,16
    fd4c:	2088703a 	and	r4,r4,r2
    fd50:	2409883a 	add	r4,r4,r16
    fd54:	2180380e 	bge	r4,r6,fe38 <_realloc_r+0x47c>
    fd58:	18c0004c 	andi	r3,r3,1
    fd5c:	183fc51e 	bne	r3,zero,fc74 <__alt_data_end+0xf800fc74>
    fd60:	9dfffe17 	ldw	r23,-8(r19)
    fd64:	adefc83a 	sub	r23,r21,r23
    fd68:	b9400117 	ldw	r5,4(r23)
    fd6c:	288a703a 	and	r5,r5,r2
    fd70:	216d883a 	add	r22,r4,r5
    fd74:	b1bf8b16 	blt	r22,r6,fba4 <__alt_data_end+0xf800fba4>
    fd78:	b8800317 	ldw	r2,12(r23)
    fd7c:	b8c00217 	ldw	r3,8(r23)
    fd80:	81bfff04 	addi	r6,r16,-4
    fd84:	01000904 	movi	r4,36
    fd88:	18800315 	stw	r2,12(r3)
    fd8c:	10c00215 	stw	r3,8(r2)
    fd90:	bc400204 	addi	r17,r23,8
    fd94:	21805a36 	bltu	r4,r6,ff00 <_realloc_r+0x544>
    fd98:	008004c4 	movi	r2,19
    fd9c:	1180562e 	bgeu	r2,r6,fef8 <_realloc_r+0x53c>
    fda0:	98800017 	ldw	r2,0(r19)
    fda4:	b8800215 	stw	r2,8(r23)
    fda8:	98800117 	ldw	r2,4(r19)
    fdac:	b8800315 	stw	r2,12(r23)
    fdb0:	008006c4 	movi	r2,27
    fdb4:	11805636 	bltu	r2,r6,ff10 <_realloc_r+0x554>
    fdb8:	b8800404 	addi	r2,r23,16
    fdbc:	9cc00204 	addi	r19,r19,8
    fdc0:	98c00017 	ldw	r3,0(r19)
    fdc4:	10c00015 	stw	r3,0(r2)
    fdc8:	98c00117 	ldw	r3,4(r19)
    fdcc:	10c00115 	stw	r3,4(r2)
    fdd0:	98c00217 	ldw	r3,8(r19)
    fdd4:	10c00215 	stw	r3,8(r2)
    fdd8:	bd07883a 	add	r3,r23,r20
    fddc:	b505c83a 	sub	r2,r22,r20
    fde0:	e0c00215 	stw	r3,8(fp)
    fde4:	10800054 	ori	r2,r2,1
    fde8:	18800115 	stw	r2,4(r3)
    fdec:	b8800117 	ldw	r2,4(r23)
    fdf0:	9009883a 	mov	r4,r18
    fdf4:	1080004c 	andi	r2,r2,1
    fdf8:	a0a8b03a 	or	r20,r20,r2
    fdfc:	bd000115 	stw	r20,4(r23)
    fe00:	00131c40 	call	131c4 <__malloc_unlock>
    fe04:	8805883a 	mov	r2,r17
    fe08:	003f5306 	br	fb58 <__alt_data_end+0xf800fb58>
    fe0c:	98c00017 	ldw	r3,0(r19)
    fe10:	88c00015 	stw	r3,0(r17)
    fe14:	98c00117 	ldw	r3,4(r19)
    fe18:	88c00115 	stw	r3,4(r17)
    fe1c:	00c006c4 	movi	r3,27
    fe20:	19801d36 	bltu	r3,r6,fe98 <_realloc_r+0x4dc>
    fe24:	88800204 	addi	r2,r17,8
    fe28:	98c00204 	addi	r3,r19,8
    fe2c:	003fa306 	br	fcbc <__alt_data_end+0xf800fcbc>
    fe30:	8807883a 	mov	r3,r17
    fe34:	003f7406 	br	fc08 <__alt_data_end+0xf800fc08>
    fe38:	ad2b883a 	add	r21,r21,r20
    fe3c:	2505c83a 	sub	r2,r4,r20
    fe40:	e5400215 	stw	r21,8(fp)
    fe44:	10800054 	ori	r2,r2,1
    fe48:	a8800115 	stw	r2,4(r21)
    fe4c:	98bfff17 	ldw	r2,-4(r19)
    fe50:	9009883a 	mov	r4,r18
    fe54:	1080004c 	andi	r2,r2,1
    fe58:	a0a8b03a 	or	r20,r20,r2
    fe5c:	9d3fff15 	stw	r20,-4(r19)
    fe60:	00131c40 	call	131c4 <__malloc_unlock>
    fe64:	9805883a 	mov	r2,r19
    fe68:	003f3b06 	br	fb58 <__alt_data_end+0xf800fb58>
    fe6c:	8809883a 	mov	r4,r17
    fe70:	980b883a 	mov	r5,r19
    fe74:	000f73c0 	call	f73c <memmove>
    fe78:	003f9606 	br	fcd4 <__alt_data_end+0xf800fcd4>
    fe7c:	8809883a 	mov	r4,r17
    fe80:	980b883a 	mov	r5,r19
    fe84:	000f73c0 	call	f73c <memmove>
    fe88:	b8c00117 	ldw	r3,4(r23)
    fe8c:	b021883a 	mov	r16,r22
    fe90:	b82b883a 	mov	r21,r23
    fe94:	003f2306 	br	fb24 <__alt_data_end+0xf800fb24>
    fe98:	98c00217 	ldw	r3,8(r19)
    fe9c:	88c00215 	stw	r3,8(r17)
    fea0:	98c00317 	ldw	r3,12(r19)
    fea4:	88c00315 	stw	r3,12(r17)
    fea8:	30800c26 	beq	r6,r2,fedc <_realloc_r+0x520>
    feac:	88800404 	addi	r2,r17,16
    feb0:	98c00404 	addi	r3,r19,16
    feb4:	003f8106 	br	fcbc <__alt_data_end+0xf800fcbc>
    feb8:	893fff17 	ldw	r4,-4(r17)
    febc:	00bfff04 	movi	r2,-4
    fec0:	9823883a 	mov	r17,r19
    fec4:	2084703a 	and	r2,r4,r2
    fec8:	80a1883a 	add	r16,r16,r2
    fecc:	003f1506 	br	fb24 <__alt_data_end+0xf800fb24>
    fed0:	b8c00404 	addi	r3,r23,16
    fed4:	9cc00204 	addi	r19,r19,8
    fed8:	003f4b06 	br	fc08 <__alt_data_end+0xf800fc08>
    fedc:	99000417 	ldw	r4,16(r19)
    fee0:	88800604 	addi	r2,r17,24
    fee4:	98c00604 	addi	r3,r19,24
    fee8:	89000415 	stw	r4,16(r17)
    feec:	99000517 	ldw	r4,20(r19)
    fef0:	89000515 	stw	r4,20(r17)
    fef4:	003f7106 	br	fcbc <__alt_data_end+0xf800fcbc>
    fef8:	8805883a 	mov	r2,r17
    fefc:	003fb006 	br	fdc0 <__alt_data_end+0xf800fdc0>
    ff00:	8809883a 	mov	r4,r17
    ff04:	980b883a 	mov	r5,r19
    ff08:	000f73c0 	call	f73c <memmove>
    ff0c:	003fb206 	br	fdd8 <__alt_data_end+0xf800fdd8>
    ff10:	98800217 	ldw	r2,8(r19)
    ff14:	b8800415 	stw	r2,16(r23)
    ff18:	98800317 	ldw	r2,12(r19)
    ff1c:	b8800515 	stw	r2,20(r23)
    ff20:	31000726 	beq	r6,r4,ff40 <_realloc_r+0x584>
    ff24:	b8800604 	addi	r2,r23,24
    ff28:	9cc00404 	addi	r19,r19,16
    ff2c:	003fa406 	br	fdc0 <__alt_data_end+0xf800fdc0>
    ff30:	9009883a 	mov	r4,r18
    ff34:	00131c40 	call	131c4 <__malloc_unlock>
    ff38:	0005883a 	mov	r2,zero
    ff3c:	003f0606 	br	fb58 <__alt_data_end+0xf800fb58>
    ff40:	98c00417 	ldw	r3,16(r19)
    ff44:	9cc00604 	addi	r19,r19,24
    ff48:	b8800804 	addi	r2,r23,32
    ff4c:	b8c00615 	stw	r3,24(r23)
    ff50:	98ffff17 	ldw	r3,-4(r19)
    ff54:	b8c00715 	stw	r3,28(r23)
    ff58:	003f9906 	br	fdc0 <__alt_data_end+0xf800fdc0>

0000ff5c <__udivdi3>:
    ff5c:	defff504 	addi	sp,sp,-44
    ff60:	dcc00415 	stw	r19,16(sp)
    ff64:	dc000115 	stw	r16,4(sp)
    ff68:	dfc00a15 	stw	ra,40(sp)
    ff6c:	df000915 	stw	fp,36(sp)
    ff70:	ddc00815 	stw	r23,32(sp)
    ff74:	dd800715 	stw	r22,28(sp)
    ff78:	dd400615 	stw	r21,24(sp)
    ff7c:	dd000515 	stw	r20,20(sp)
    ff80:	dc800315 	stw	r18,12(sp)
    ff84:	dc400215 	stw	r17,8(sp)
    ff88:	2027883a 	mov	r19,r4
    ff8c:	2821883a 	mov	r16,r5
    ff90:	3800421e 	bne	r7,zero,1009c <__udivdi3+0x140>
    ff94:	3025883a 	mov	r18,r6
    ff98:	2023883a 	mov	r17,r4
    ff9c:	2980542e 	bgeu	r5,r6,100f0 <__udivdi3+0x194>
    ffa0:	00bfffd4 	movui	r2,65535
    ffa4:	282d883a 	mov	r22,r5
    ffa8:	1180a836 	bltu	r2,r6,1024c <__udivdi3+0x2f0>
    ffac:	00803fc4 	movi	r2,255
    ffb0:	1181422e 	bgeu	r2,r6,104bc <__udivdi3+0x560>
    ffb4:	00800204 	movi	r2,8
    ffb8:	1007883a 	mov	r3,r2
    ffbc:	3084d83a 	srl	r2,r6,r2
    ffc0:	01000374 	movhi	r4,13
    ffc4:	2102aa04 	addi	r4,r4,2728
    ffc8:	2085883a 	add	r2,r4,r2
    ffcc:	10800003 	ldbu	r2,0(r2)
    ffd0:	10c7883a 	add	r3,r2,r3
    ffd4:	00800804 	movi	r2,32
    ffd8:	10c5c83a 	sub	r2,r2,r3
    ffdc:	10000526 	beq	r2,zero,fff4 <__udivdi3+0x98>
    ffe0:	80a0983a 	sll	r16,r16,r2
    ffe4:	98c6d83a 	srl	r3,r19,r3
    ffe8:	30a4983a 	sll	r18,r6,r2
    ffec:	98a2983a 	sll	r17,r19,r2
    fff0:	80ecb03a 	or	r22,r16,r3
    fff4:	902ad43a 	srli	r21,r18,16
    fff8:	b009883a 	mov	r4,r22
    fffc:	953fffcc 	andi	r20,r18,65535
   10000:	a80b883a 	mov	r5,r21
   10004:	000841c0 	call	841c <__umodsi3>
   10008:	b009883a 	mov	r4,r22
   1000c:	a80b883a 	mov	r5,r21
   10010:	1027883a 	mov	r19,r2
   10014:	00084140 	call	8414 <__udivsi3>
   10018:	1021883a 	mov	r16,r2
   1001c:	8806d43a 	srli	r3,r17,16
   10020:	9804943a 	slli	r2,r19,16
   10024:	8527383a 	mul	r19,r16,r20
   10028:	10c4b03a 	or	r2,r2,r3
   1002c:	14c0052e 	bgeu	r2,r19,10044 <__udivdi3+0xe8>
   10030:	1485883a 	add	r2,r2,r18
   10034:	80ffffc4 	addi	r3,r16,-1
   10038:	14800136 	bltu	r2,r18,10040 <__udivdi3+0xe4>
   1003c:	14c13436 	bltu	r2,r19,10510 <__udivdi3+0x5b4>
   10040:	1821883a 	mov	r16,r3
   10044:	14e7c83a 	sub	r19,r2,r19
   10048:	9809883a 	mov	r4,r19
   1004c:	a80b883a 	mov	r5,r21
   10050:	000841c0 	call	841c <__umodsi3>
   10054:	102d883a 	mov	r22,r2
   10058:	9809883a 	mov	r4,r19
   1005c:	a80b883a 	mov	r5,r21
   10060:	00084140 	call	8414 <__udivsi3>
   10064:	b02c943a 	slli	r22,r22,16
   10068:	1529383a 	mul	r20,r2,r20
   1006c:	8c7fffcc 	andi	r17,r17,65535
   10070:	b462b03a 	or	r17,r22,r17
   10074:	8d00052e 	bgeu	r17,r20,1008c <__udivdi3+0x130>
   10078:	8ca3883a 	add	r17,r17,r18
   1007c:	10ffffc4 	addi	r3,r2,-1
   10080:	8c80f636 	bltu	r17,r18,1045c <__udivdi3+0x500>
   10084:	8d00f52e 	bgeu	r17,r20,1045c <__udivdi3+0x500>
   10088:	10bfff84 	addi	r2,r2,-2
   1008c:	8020943a 	slli	r16,r16,16
   10090:	0007883a 	mov	r3,zero
   10094:	1404b03a 	or	r2,r2,r16
   10098:	00005b06 	br	10208 <__udivdi3+0x2ac>
   1009c:	29c05836 	bltu	r5,r7,10200 <__udivdi3+0x2a4>
   100a0:	00bfffd4 	movui	r2,65535
   100a4:	11c0642e 	bgeu	r2,r7,10238 <__udivdi3+0x2dc>
   100a8:	00804034 	movhi	r2,256
   100ac:	10bfffc4 	addi	r2,r2,-1
   100b0:	11c0f32e 	bgeu	r2,r7,10480 <__udivdi3+0x524>
   100b4:	00c00604 	movi	r3,24
   100b8:	180b883a 	mov	r5,r3
   100bc:	38c6d83a 	srl	r3,r7,r3
   100c0:	00800374 	movhi	r2,13
   100c4:	1082aa04 	addi	r2,r2,2728
   100c8:	10c7883a 	add	r3,r2,r3
   100cc:	18c00003 	ldbu	r3,0(r3)
   100d0:	01000804 	movi	r4,32
   100d4:	1947883a 	add	r3,r3,r5
   100d8:	20e5c83a 	sub	r18,r4,r3
   100dc:	9000661e 	bne	r18,zero,10278 <__udivdi3+0x31c>
   100e0:	3c00f936 	bltu	r7,r16,104c8 <__udivdi3+0x56c>
   100e4:	9985403a 	cmpgeu	r2,r19,r6
   100e8:	0007883a 	mov	r3,zero
   100ec:	00004606 	br	10208 <__udivdi3+0x2ac>
   100f0:	3000041e 	bne	r6,zero,10104 <__udivdi3+0x1a8>
   100f4:	01000044 	movi	r4,1
   100f8:	000b883a 	mov	r5,zero
   100fc:	00084140 	call	8414 <__udivsi3>
   10100:	1025883a 	mov	r18,r2
   10104:	00bfffd4 	movui	r2,65535
   10108:	1480562e 	bgeu	r2,r18,10264 <__udivdi3+0x308>
   1010c:	00804034 	movhi	r2,256
   10110:	10bfffc4 	addi	r2,r2,-1
   10114:	1480e32e 	bgeu	r2,r18,104a4 <__udivdi3+0x548>
   10118:	00800604 	movi	r2,24
   1011c:	1007883a 	mov	r3,r2
   10120:	9084d83a 	srl	r2,r18,r2
   10124:	01000374 	movhi	r4,13
   10128:	2102aa04 	addi	r4,r4,2728
   1012c:	2085883a 	add	r2,r4,r2
   10130:	10800003 	ldbu	r2,0(r2)
   10134:	10c5883a 	add	r2,r2,r3
   10138:	00c00804 	movi	r3,32
   1013c:	1887c83a 	sub	r3,r3,r2
   10140:	1800911e 	bne	r3,zero,10388 <__udivdi3+0x42c>
   10144:	9028d43a 	srli	r20,r18,16
   10148:	84a1c83a 	sub	r16,r16,r18
   1014c:	957fffcc 	andi	r21,r18,65535
   10150:	00c00044 	movi	r3,1
   10154:	8009883a 	mov	r4,r16
   10158:	a00b883a 	mov	r5,r20
   1015c:	d8c00015 	stw	r3,0(sp)
   10160:	000841c0 	call	841c <__umodsi3>
   10164:	8009883a 	mov	r4,r16
   10168:	a00b883a 	mov	r5,r20
   1016c:	1027883a 	mov	r19,r2
   10170:	00084140 	call	8414 <__udivsi3>
   10174:	1021883a 	mov	r16,r2
   10178:	880cd43a 	srli	r6,r17,16
   1017c:	9804943a 	slli	r2,r19,16
   10180:	8567383a 	mul	r19,r16,r21
   10184:	d8c00017 	ldw	r3,0(sp)
   10188:	1188b03a 	or	r4,r2,r6
   1018c:	24c0052e 	bgeu	r4,r19,101a4 <__udivdi3+0x248>
   10190:	2489883a 	add	r4,r4,r18
   10194:	80bfffc4 	addi	r2,r16,-1
   10198:	24800136 	bltu	r4,r18,101a0 <__udivdi3+0x244>
   1019c:	24c0d936 	bltu	r4,r19,10504 <__udivdi3+0x5a8>
   101a0:	1021883a 	mov	r16,r2
   101a4:	24e7c83a 	sub	r19,r4,r19
   101a8:	9809883a 	mov	r4,r19
   101ac:	a00b883a 	mov	r5,r20
   101b0:	d8c00015 	stw	r3,0(sp)
   101b4:	000841c0 	call	841c <__umodsi3>
   101b8:	102d883a 	mov	r22,r2
   101bc:	9809883a 	mov	r4,r19
   101c0:	a00b883a 	mov	r5,r20
   101c4:	00084140 	call	8414 <__udivsi3>
   101c8:	b02c943a 	slli	r22,r22,16
   101cc:	156b383a 	mul	r21,r2,r21
   101d0:	8c7fffcc 	andi	r17,r17,65535
   101d4:	b462b03a 	or	r17,r22,r17
   101d8:	d8c00017 	ldw	r3,0(sp)
   101dc:	8d40052e 	bgeu	r17,r21,101f4 <__udivdi3+0x298>
   101e0:	8ca3883a 	add	r17,r17,r18
   101e4:	113fffc4 	addi	r4,r2,-1
   101e8:	8c809a36 	bltu	r17,r18,10454 <__udivdi3+0x4f8>
   101ec:	8d40992e 	bgeu	r17,r21,10454 <__udivdi3+0x4f8>
   101f0:	10bfff84 	addi	r2,r2,-2
   101f4:	8020943a 	slli	r16,r16,16
   101f8:	1404b03a 	or	r2,r2,r16
   101fc:	00000206 	br	10208 <__udivdi3+0x2ac>
   10200:	0007883a 	mov	r3,zero
   10204:	0005883a 	mov	r2,zero
   10208:	dfc00a17 	ldw	ra,40(sp)
   1020c:	df000917 	ldw	fp,36(sp)
   10210:	ddc00817 	ldw	r23,32(sp)
   10214:	dd800717 	ldw	r22,28(sp)
   10218:	dd400617 	ldw	r21,24(sp)
   1021c:	dd000517 	ldw	r20,20(sp)
   10220:	dcc00417 	ldw	r19,16(sp)
   10224:	dc800317 	ldw	r18,12(sp)
   10228:	dc400217 	ldw	r17,8(sp)
   1022c:	dc000117 	ldw	r16,4(sp)
   10230:	dec00b04 	addi	sp,sp,44
   10234:	f800283a 	ret
   10238:	00803fc4 	movi	r2,255
   1023c:	11c0932e 	bgeu	r2,r7,1048c <__udivdi3+0x530>
   10240:	00c00204 	movi	r3,8
   10244:	180b883a 	mov	r5,r3
   10248:	003f9c06 	br	100bc <__alt_data_end+0xf80100bc>
   1024c:	00804034 	movhi	r2,256
   10250:	10bfffc4 	addi	r2,r2,-1
   10254:	1180902e 	bgeu	r2,r6,10498 <__udivdi3+0x53c>
   10258:	00800604 	movi	r2,24
   1025c:	1007883a 	mov	r3,r2
   10260:	003f5606 	br	ffbc <__alt_data_end+0xf800ffbc>
   10264:	00803fc4 	movi	r2,255
   10268:	1480912e 	bgeu	r2,r18,104b0 <__udivdi3+0x554>
   1026c:	00800204 	movi	r2,8
   10270:	1007883a 	mov	r3,r2
   10274:	003faa06 	br	10120 <__alt_data_end+0xf8010120>
   10278:	30eed83a 	srl	r23,r6,r3
   1027c:	3c8e983a 	sll	r7,r7,r18
   10280:	80f8d83a 	srl	fp,r16,r3
   10284:	98c6d83a 	srl	r3,r19,r3
   10288:	3deeb03a 	or	r23,r7,r23
   1028c:	b828d43a 	srli	r20,r23,16
   10290:	84a0983a 	sll	r16,r16,r18
   10294:	e009883a 	mov	r4,fp
   10298:	a00b883a 	mov	r5,r20
   1029c:	80e2b03a 	or	r17,r16,r3
   102a0:	34aa983a 	sll	r21,r6,r18
   102a4:	000841c0 	call	841c <__umodsi3>
   102a8:	e009883a 	mov	r4,fp
   102ac:	a00b883a 	mov	r5,r20
   102b0:	102d883a 	mov	r22,r2
   102b4:	00084140 	call	8414 <__udivsi3>
   102b8:	1021883a 	mov	r16,r2
   102bc:	bf3fffcc 	andi	fp,r23,65535
   102c0:	b004943a 	slli	r2,r22,16
   102c4:	8808d43a 	srli	r4,r17,16
   102c8:	872d383a 	mul	r22,r16,fp
   102cc:	1104b03a 	or	r2,r2,r4
   102d0:	1580042e 	bgeu	r2,r22,102e4 <__udivdi3+0x388>
   102d4:	15c5883a 	add	r2,r2,r23
   102d8:	80ffffc4 	addi	r3,r16,-1
   102dc:	15c0812e 	bgeu	r2,r23,104e4 <__udivdi3+0x588>
   102e0:	1821883a 	mov	r16,r3
   102e4:	15adc83a 	sub	r22,r2,r22
   102e8:	b009883a 	mov	r4,r22
   102ec:	a00b883a 	mov	r5,r20
   102f0:	000841c0 	call	841c <__umodsi3>
   102f4:	a00b883a 	mov	r5,r20
   102f8:	b009883a 	mov	r4,r22
   102fc:	d8800015 	stw	r2,0(sp)
   10300:	00084140 	call	8414 <__udivsi3>
   10304:	d8c00017 	ldw	r3,0(sp)
   10308:	170b383a 	mul	r5,r2,fp
   1030c:	8c7fffcc 	andi	r17,r17,65535
   10310:	1806943a 	slli	r3,r3,16
   10314:	1c46b03a 	or	r3,r3,r17
   10318:	1940042e 	bgeu	r3,r5,1032c <__udivdi3+0x3d0>
   1031c:	1dc7883a 	add	r3,r3,r23
   10320:	113fffc4 	addi	r4,r2,-1
   10324:	1dc06b2e 	bgeu	r3,r23,104d4 <__udivdi3+0x578>
   10328:	2005883a 	mov	r2,r4
   1032c:	8020943a 	slli	r16,r16,16
   10330:	a9ffffcc 	andi	r7,r21,65535
   10334:	a82ad43a 	srli	r21,r21,16
   10338:	1404b03a 	or	r2,r2,r16
   1033c:	113fffcc 	andi	r4,r2,65535
   10340:	100cd43a 	srli	r6,r2,16
   10344:	21d3383a 	mul	r9,r4,r7
   10348:	2549383a 	mul	r4,r4,r21
   1034c:	31cf383a 	mul	r7,r6,r7
   10350:	4810d43a 	srli	r8,r9,16
   10354:	1947c83a 	sub	r3,r3,r5
   10358:	3909883a 	add	r4,r7,r4
   1035c:	2209883a 	add	r4,r4,r8
   10360:	354d383a 	mul	r6,r6,r21
   10364:	21c0022e 	bgeu	r4,r7,10370 <__udivdi3+0x414>
   10368:	01400074 	movhi	r5,1
   1036c:	314d883a 	add	r6,r6,r5
   10370:	202ad43a 	srli	r21,r4,16
   10374:	354d883a 	add	r6,r6,r21
   10378:	19803f36 	bltu	r3,r6,10478 <__udivdi3+0x51c>
   1037c:	19803926 	beq	r3,r6,10464 <__udivdi3+0x508>
   10380:	0007883a 	mov	r3,zero
   10384:	003fa006 	br	10208 <__alt_data_end+0xf8010208>
   10388:	90e4983a 	sll	r18,r18,r3
   1038c:	80aad83a 	srl	r21,r16,r2
   10390:	80e0983a 	sll	r16,r16,r3
   10394:	9028d43a 	srli	r20,r18,16
   10398:	9884d83a 	srl	r2,r19,r2
   1039c:	a809883a 	mov	r4,r21
   103a0:	a00b883a 	mov	r5,r20
   103a4:	80acb03a 	or	r22,r16,r2
   103a8:	98e2983a 	sll	r17,r19,r3
   103ac:	000841c0 	call	841c <__umodsi3>
   103b0:	a809883a 	mov	r4,r21
   103b4:	a00b883a 	mov	r5,r20
   103b8:	1021883a 	mov	r16,r2
   103bc:	00084140 	call	8414 <__udivsi3>
   103c0:	957fffcc 	andi	r21,r18,65535
   103c4:	8020943a 	slli	r16,r16,16
   103c8:	b00ad43a 	srli	r5,r22,16
   103cc:	1567383a 	mul	r19,r2,r21
   103d0:	102f883a 	mov	r23,r2
   103d4:	8148b03a 	or	r4,r16,r5
   103d8:	24c0062e 	bgeu	r4,r19,103f4 <__udivdi3+0x498>
   103dc:	2489883a 	add	r4,r4,r18
   103e0:	10bfffc4 	addi	r2,r2,-1
   103e4:	24804536 	bltu	r4,r18,104fc <__udivdi3+0x5a0>
   103e8:	24c0442e 	bgeu	r4,r19,104fc <__udivdi3+0x5a0>
   103ec:	bdffff84 	addi	r23,r23,-2
   103f0:	2489883a 	add	r4,r4,r18
   103f4:	24e7c83a 	sub	r19,r4,r19
   103f8:	9809883a 	mov	r4,r19
   103fc:	a00b883a 	mov	r5,r20
   10400:	000841c0 	call	841c <__umodsi3>
   10404:	1021883a 	mov	r16,r2
   10408:	9809883a 	mov	r4,r19
   1040c:	a00b883a 	mov	r5,r20
   10410:	00084140 	call	8414 <__udivsi3>
   10414:	8020943a 	slli	r16,r16,16
   10418:	1007883a 	mov	r3,r2
   1041c:	1545383a 	mul	r2,r2,r21
   10420:	b13fffcc 	andi	r4,r22,65535
   10424:	8108b03a 	or	r4,r16,r4
   10428:	2080062e 	bgeu	r4,r2,10444 <__udivdi3+0x4e8>
   1042c:	2489883a 	add	r4,r4,r18
   10430:	197fffc4 	addi	r5,r3,-1
   10434:	24802f36 	bltu	r4,r18,104f4 <__udivdi3+0x598>
   10438:	20802e2e 	bgeu	r4,r2,104f4 <__udivdi3+0x598>
   1043c:	18ffff84 	addi	r3,r3,-2
   10440:	2489883a 	add	r4,r4,r18
   10444:	b82e943a 	slli	r23,r23,16
   10448:	20a1c83a 	sub	r16,r4,r2
   1044c:	1dc6b03a 	or	r3,r3,r23
   10450:	003f4006 	br	10154 <__alt_data_end+0xf8010154>
   10454:	2005883a 	mov	r2,r4
   10458:	003f6606 	br	101f4 <__alt_data_end+0xf80101f4>
   1045c:	1805883a 	mov	r2,r3
   10460:	003f0a06 	br	1008c <__alt_data_end+0xf801008c>
   10464:	2006943a 	slli	r3,r4,16
   10468:	9c88983a 	sll	r4,r19,r18
   1046c:	4a7fffcc 	andi	r9,r9,65535
   10470:	1a47883a 	add	r3,r3,r9
   10474:	20ffc22e 	bgeu	r4,r3,10380 <__alt_data_end+0xf8010380>
   10478:	10bfffc4 	addi	r2,r2,-1
   1047c:	003fc006 	br	10380 <__alt_data_end+0xf8010380>
   10480:	00c00404 	movi	r3,16
   10484:	180b883a 	mov	r5,r3
   10488:	003f0c06 	br	100bc <__alt_data_end+0xf80100bc>
   1048c:	0007883a 	mov	r3,zero
   10490:	000b883a 	mov	r5,zero
   10494:	003f0906 	br	100bc <__alt_data_end+0xf80100bc>
   10498:	00800404 	movi	r2,16
   1049c:	1007883a 	mov	r3,r2
   104a0:	003ec606 	br	ffbc <__alt_data_end+0xf800ffbc>
   104a4:	00800404 	movi	r2,16
   104a8:	1007883a 	mov	r3,r2
   104ac:	003f1c06 	br	10120 <__alt_data_end+0xf8010120>
   104b0:	0005883a 	mov	r2,zero
   104b4:	0007883a 	mov	r3,zero
   104b8:	003f1906 	br	10120 <__alt_data_end+0xf8010120>
   104bc:	0005883a 	mov	r2,zero
   104c0:	0007883a 	mov	r3,zero
   104c4:	003ebd06 	br	ffbc <__alt_data_end+0xf800ffbc>
   104c8:	0007883a 	mov	r3,zero
   104cc:	00800044 	movi	r2,1
   104d0:	003f4d06 	br	10208 <__alt_data_end+0xf8010208>
   104d4:	197f942e 	bgeu	r3,r5,10328 <__alt_data_end+0xf8010328>
   104d8:	10bfff84 	addi	r2,r2,-2
   104dc:	1dc7883a 	add	r3,r3,r23
   104e0:	003f9206 	br	1032c <__alt_data_end+0xf801032c>
   104e4:	15bf7e2e 	bgeu	r2,r22,102e0 <__alt_data_end+0xf80102e0>
   104e8:	843fff84 	addi	r16,r16,-2
   104ec:	15c5883a 	add	r2,r2,r23
   104f0:	003f7c06 	br	102e4 <__alt_data_end+0xf80102e4>
   104f4:	2807883a 	mov	r3,r5
   104f8:	003fd206 	br	10444 <__alt_data_end+0xf8010444>
   104fc:	102f883a 	mov	r23,r2
   10500:	003fbc06 	br	103f4 <__alt_data_end+0xf80103f4>
   10504:	843fff84 	addi	r16,r16,-2
   10508:	2489883a 	add	r4,r4,r18
   1050c:	003f2506 	br	101a4 <__alt_data_end+0xf80101a4>
   10510:	843fff84 	addi	r16,r16,-2
   10514:	1485883a 	add	r2,r2,r18
   10518:	003eca06 	br	10044 <__alt_data_end+0xf8010044>

0001051c <__umoddi3>:
   1051c:	defff404 	addi	sp,sp,-48
   10520:	ddc00915 	stw	r23,36(sp)
   10524:	dc400315 	stw	r17,12(sp)
   10528:	dc000215 	stw	r16,8(sp)
   1052c:	dfc00b15 	stw	ra,44(sp)
   10530:	df000a15 	stw	fp,40(sp)
   10534:	dd800815 	stw	r22,32(sp)
   10538:	dd400715 	stw	r21,28(sp)
   1053c:	dd000615 	stw	r20,24(sp)
   10540:	dcc00515 	stw	r19,20(sp)
   10544:	dc800415 	stw	r18,16(sp)
   10548:	2021883a 	mov	r16,r4
   1054c:	2823883a 	mov	r17,r5
   10550:	282f883a 	mov	r23,r5
   10554:	3800381e 	bne	r7,zero,10638 <__umoddi3+0x11c>
   10558:	3027883a 	mov	r19,r6
   1055c:	2029883a 	mov	r20,r4
   10560:	29804e2e 	bgeu	r5,r6,1069c <__umoddi3+0x180>
   10564:	00bfffd4 	movui	r2,65535
   10568:	11809c36 	bltu	r2,r6,107dc <__umoddi3+0x2c0>
   1056c:	00803fc4 	movi	r2,255
   10570:	11813b2e 	bgeu	r2,r6,10a60 <__umoddi3+0x544>
   10574:	01400204 	movi	r5,8
   10578:	2805883a 	mov	r2,r5
   1057c:	314ad83a 	srl	r5,r6,r5
   10580:	00c00374 	movhi	r3,13
   10584:	18c2aa04 	addi	r3,r3,2728
   10588:	194b883a 	add	r5,r3,r5
   1058c:	29000003 	ldbu	r4,0(r5)
   10590:	2089883a 	add	r4,r4,r2
   10594:	00800804 	movi	r2,32
   10598:	1105c83a 	sub	r2,r2,r4
   1059c:	1000ec26 	beq	r2,zero,10950 <__umoddi3+0x434>
   105a0:	88a2983a 	sll	r17,r17,r2
   105a4:	8108d83a 	srl	r4,r16,r4
   105a8:	30a6983a 	sll	r19,r6,r2
   105ac:	80a8983a 	sll	r20,r16,r2
   105b0:	1025883a 	mov	r18,r2
   105b4:	892eb03a 	or	r23,r17,r4
   105b8:	982cd43a 	srli	r22,r19,16
   105bc:	b809883a 	mov	r4,r23
   105c0:	9d7fffcc 	andi	r21,r19,65535
   105c4:	b00b883a 	mov	r5,r22
   105c8:	000841c0 	call	841c <__umodsi3>
   105cc:	b809883a 	mov	r4,r23
   105d0:	b00b883a 	mov	r5,r22
   105d4:	1021883a 	mov	r16,r2
   105d8:	00084140 	call	8414 <__udivsi3>
   105dc:	8020943a 	slli	r16,r16,16
   105e0:	a00cd43a 	srli	r6,r20,16
   105e4:	1545383a 	mul	r2,r2,r21
   105e8:	8188b03a 	or	r4,r16,r6
   105ec:	2080042e 	bgeu	r4,r2,10600 <__umoddi3+0xe4>
   105f0:	24c9883a 	add	r4,r4,r19
   105f4:	24c00236 	bltu	r4,r19,10600 <__umoddi3+0xe4>
   105f8:	2080012e 	bgeu	r4,r2,10600 <__umoddi3+0xe4>
   105fc:	24c9883a 	add	r4,r4,r19
   10600:	20a3c83a 	sub	r17,r4,r2
   10604:	8809883a 	mov	r4,r17
   10608:	b00b883a 	mov	r5,r22
   1060c:	000841c0 	call	841c <__umodsi3>
   10610:	8809883a 	mov	r4,r17
   10614:	b00b883a 	mov	r5,r22
   10618:	1021883a 	mov	r16,r2
   1061c:	00084140 	call	8414 <__udivsi3>
   10620:	8006943a 	slli	r3,r16,16
   10624:	1545383a 	mul	r2,r2,r21
   10628:	a13fffcc 	andi	r4,r20,65535
   1062c:	1906b03a 	or	r3,r3,r4
   10630:	1880532e 	bgeu	r3,r2,10780 <__umoddi3+0x264>
   10634:	00004e06 	br	10770 <__umoddi3+0x254>
   10638:	29c05536 	bltu	r5,r7,10790 <__umoddi3+0x274>
   1063c:	00bfffd4 	movui	r2,65535
   10640:	11c0612e 	bgeu	r2,r7,107c8 <__umoddi3+0x2ac>
   10644:	00804034 	movhi	r2,256
   10648:	10bfffc4 	addi	r2,r2,-1
   1064c:	11c0f82e 	bgeu	r2,r7,10a30 <__umoddi3+0x514>
   10650:	01400604 	movi	r5,24
   10654:	282b883a 	mov	r21,r5
   10658:	394ad83a 	srl	r5,r7,r5
   1065c:	00c00374 	movhi	r3,13
   10660:	18c2aa04 	addi	r3,r3,2728
   10664:	194b883a 	add	r5,r3,r5
   10668:	28800003 	ldbu	r2,0(r5)
   1066c:	00c00804 	movi	r3,32
   10670:	156b883a 	add	r21,r2,r21
   10674:	1d69c83a 	sub	r20,r3,r21
   10678:	a000631e 	bne	r20,zero,10808 <__umoddi3+0x2ec>
   1067c:	3c400136 	bltu	r7,r17,10684 <__umoddi3+0x168>
   10680:	81810436 	bltu	r16,r6,10a94 <__umoddi3+0x578>
   10684:	8185c83a 	sub	r2,r16,r6
   10688:	89e3c83a 	sub	r17,r17,r7
   1068c:	8087803a 	cmpltu	r3,r16,r2
   10690:	88efc83a 	sub	r23,r17,r3
   10694:	b807883a 	mov	r3,r23
   10698:	00003f06 	br	10798 <__umoddi3+0x27c>
   1069c:	3000041e 	bne	r6,zero,106b0 <__umoddi3+0x194>
   106a0:	01000044 	movi	r4,1
   106a4:	000b883a 	mov	r5,zero
   106a8:	00084140 	call	8414 <__udivsi3>
   106ac:	1027883a 	mov	r19,r2
   106b0:	00bfffd4 	movui	r2,65535
   106b4:	14c04f2e 	bgeu	r2,r19,107f4 <__umoddi3+0x2d8>
   106b8:	00804034 	movhi	r2,256
   106bc:	10bfffc4 	addi	r2,r2,-1
   106c0:	14c0e42e 	bgeu	r2,r19,10a54 <__umoddi3+0x538>
   106c4:	00800604 	movi	r2,24
   106c8:	1007883a 	mov	r3,r2
   106cc:	9884d83a 	srl	r2,r19,r2
   106d0:	01000374 	movhi	r4,13
   106d4:	2102aa04 	addi	r4,r4,2728
   106d8:	2085883a 	add	r2,r4,r2
   106dc:	11000003 	ldbu	r4,0(r2)
   106e0:	00800804 	movi	r2,32
   106e4:	20c7883a 	add	r3,r4,r3
   106e8:	10c5c83a 	sub	r2,r2,r3
   106ec:	10009a1e 	bne	r2,zero,10958 <__umoddi3+0x43c>
   106f0:	982cd43a 	srli	r22,r19,16
   106f4:	8ce3c83a 	sub	r17,r17,r19
   106f8:	9c3fffcc 	andi	r16,r19,65535
   106fc:	0025883a 	mov	r18,zero
   10700:	8809883a 	mov	r4,r17
   10704:	b00b883a 	mov	r5,r22
   10708:	000841c0 	call	841c <__umodsi3>
   1070c:	8809883a 	mov	r4,r17
   10710:	b00b883a 	mov	r5,r22
   10714:	102b883a 	mov	r21,r2
   10718:	00084140 	call	8414 <__udivsi3>
   1071c:	a806943a 	slli	r3,r21,16
   10720:	a008d43a 	srli	r4,r20,16
   10724:	1405383a 	mul	r2,r2,r16
   10728:	190cb03a 	or	r6,r3,r4
   1072c:	3080032e 	bgeu	r6,r2,1073c <__umoddi3+0x220>
   10730:	34cd883a 	add	r6,r6,r19
   10734:	34c00136 	bltu	r6,r19,1073c <__umoddi3+0x220>
   10738:	3080d436 	bltu	r6,r2,10a8c <__umoddi3+0x570>
   1073c:	30abc83a 	sub	r21,r6,r2
   10740:	a809883a 	mov	r4,r21
   10744:	b00b883a 	mov	r5,r22
   10748:	000841c0 	call	841c <__umodsi3>
   1074c:	1023883a 	mov	r17,r2
   10750:	a809883a 	mov	r4,r21
   10754:	b00b883a 	mov	r5,r22
   10758:	00084140 	call	8414 <__udivsi3>
   1075c:	8822943a 	slli	r17,r17,16
   10760:	1405383a 	mul	r2,r2,r16
   10764:	a13fffcc 	andi	r4,r20,65535
   10768:	8906b03a 	or	r3,r17,r4
   1076c:	1880042e 	bgeu	r3,r2,10780 <__umoddi3+0x264>
   10770:	1cc7883a 	add	r3,r3,r19
   10774:	1cc00236 	bltu	r3,r19,10780 <__umoddi3+0x264>
   10778:	1880012e 	bgeu	r3,r2,10780 <__umoddi3+0x264>
   1077c:	1cc7883a 	add	r3,r3,r19
   10780:	1887c83a 	sub	r3,r3,r2
   10784:	1c84d83a 	srl	r2,r3,r18
   10788:	0007883a 	mov	r3,zero
   1078c:	00000206 	br	10798 <__umoddi3+0x27c>
   10790:	2005883a 	mov	r2,r4
   10794:	2807883a 	mov	r3,r5
   10798:	dfc00b17 	ldw	ra,44(sp)
   1079c:	df000a17 	ldw	fp,40(sp)
   107a0:	ddc00917 	ldw	r23,36(sp)
   107a4:	dd800817 	ldw	r22,32(sp)
   107a8:	dd400717 	ldw	r21,28(sp)
   107ac:	dd000617 	ldw	r20,24(sp)
   107b0:	dcc00517 	ldw	r19,20(sp)
   107b4:	dc800417 	ldw	r18,16(sp)
   107b8:	dc400317 	ldw	r17,12(sp)
   107bc:	dc000217 	ldw	r16,8(sp)
   107c0:	dec00c04 	addi	sp,sp,48
   107c4:	f800283a 	ret
   107c8:	00803fc4 	movi	r2,255
   107cc:	11c0952e 	bgeu	r2,r7,10a24 <__umoddi3+0x508>
   107d0:	01400204 	movi	r5,8
   107d4:	282b883a 	mov	r21,r5
   107d8:	003f9f06 	br	10658 <__alt_data_end+0xf8010658>
   107dc:	00804034 	movhi	r2,256
   107e0:	10bfffc4 	addi	r2,r2,-1
   107e4:	1180952e 	bgeu	r2,r6,10a3c <__umoddi3+0x520>
   107e8:	01400604 	movi	r5,24
   107ec:	2805883a 	mov	r2,r5
   107f0:	003f6206 	br	1057c <__alt_data_end+0xf801057c>
   107f4:	00803fc4 	movi	r2,255
   107f8:	14c0932e 	bgeu	r2,r19,10a48 <__umoddi3+0x52c>
   107fc:	00800204 	movi	r2,8
   10800:	1007883a 	mov	r3,r2
   10804:	003fb106 	br	106cc <__alt_data_end+0xf80106cc>
   10808:	3548d83a 	srl	r4,r6,r21
   1080c:	3d0e983a 	sll	r7,r7,r20
   10810:	8d10983a 	sll	r8,r17,r20
   10814:	8d6cd83a 	srl	r22,r17,r21
   10818:	3922b03a 	or	r17,r7,r4
   1081c:	882ed43a 	srli	r23,r17,16
   10820:	8564d83a 	srl	r18,r16,r21
   10824:	b009883a 	mov	r4,r22
   10828:	b80b883a 	mov	r5,r23
   1082c:	44a4b03a 	or	r18,r8,r18
   10830:	3526983a 	sll	r19,r6,r20
   10834:	000841c0 	call	841c <__umodsi3>
   10838:	b009883a 	mov	r4,r22
   1083c:	b80b883a 	mov	r5,r23
   10840:	1039883a 	mov	fp,r2
   10844:	00084140 	call	8414 <__udivsi3>
   10848:	102d883a 	mov	r22,r2
   1084c:	8a3fffcc 	andi	r8,r17,65535
   10850:	e004943a 	slli	r2,fp,16
   10854:	900cd43a 	srli	r6,r18,16
   10858:	b239383a 	mul	fp,r22,r8
   1085c:	8520983a 	sll	r16,r16,r20
   10860:	118ab03a 	or	r5,r2,r6
   10864:	2f00042e 	bgeu	r5,fp,10878 <__umoddi3+0x35c>
   10868:	2c4b883a 	add	r5,r5,r17
   1086c:	b0bfffc4 	addi	r2,r22,-1
   10870:	2c40822e 	bgeu	r5,r17,10a7c <__umoddi3+0x560>
   10874:	102d883a 	mov	r22,r2
   10878:	2f39c83a 	sub	fp,r5,fp
   1087c:	e009883a 	mov	r4,fp
   10880:	b80b883a 	mov	r5,r23
   10884:	da000115 	stw	r8,4(sp)
   10888:	000841c0 	call	841c <__umodsi3>
   1088c:	e009883a 	mov	r4,fp
   10890:	b80b883a 	mov	r5,r23
   10894:	d8800015 	stw	r2,0(sp)
   10898:	00084140 	call	8414 <__udivsi3>
   1089c:	d9800017 	ldw	r6,0(sp)
   108a0:	da000117 	ldw	r8,4(sp)
   108a4:	94bfffcc 	andi	r18,r18,65535
   108a8:	300c943a 	slli	r6,r6,16
   108ac:	1209383a 	mul	r4,r2,r8
   108b0:	3490b03a 	or	r8,r6,r18
   108b4:	4100042e 	bgeu	r8,r4,108c8 <__umoddi3+0x3ac>
   108b8:	4451883a 	add	r8,r8,r17
   108bc:	10ffffc4 	addi	r3,r2,-1
   108c0:	44406a2e 	bgeu	r8,r17,10a6c <__umoddi3+0x550>
   108c4:	1805883a 	mov	r2,r3
   108c8:	b012943a 	slli	r9,r22,16
   108cc:	9abfffcc 	andi	r10,r19,65535
   108d0:	980ed43a 	srli	r7,r19,16
   108d4:	124ab03a 	or	r5,r2,r9
   108d8:	2a7fffcc 	andi	r9,r5,65535
   108dc:	280ad43a 	srli	r5,r5,16
   108e0:	4a8d383a 	mul	r6,r9,r10
   108e4:	49d3383a 	mul	r9,r9,r7
   108e8:	2a95383a 	mul	r10,r5,r10
   108ec:	3004d43a 	srli	r2,r6,16
   108f0:	4111c83a 	sub	r8,r8,r4
   108f4:	5253883a 	add	r9,r10,r9
   108f8:	4893883a 	add	r9,r9,r2
   108fc:	29cb383a 	mul	r5,r5,r7
   10900:	4a80022e 	bgeu	r9,r10,1090c <__umoddi3+0x3f0>
   10904:	00800074 	movhi	r2,1
   10908:	288b883a 	add	r5,r5,r2
   1090c:	4808d43a 	srli	r4,r9,16
   10910:	4812943a 	slli	r9,r9,16
   10914:	31bfffcc 	andi	r6,r6,65535
   10918:	290b883a 	add	r5,r5,r4
   1091c:	498d883a 	add	r6,r9,r6
   10920:	41403a36 	bltu	r8,r5,10a0c <__umoddi3+0x4f0>
   10924:	41405d26 	beq	r8,r5,10a9c <__umoddi3+0x580>
   10928:	4149c83a 	sub	r4,r8,r5
   1092c:	300f883a 	mov	r7,r6
   10930:	81cfc83a 	sub	r7,r16,r7
   10934:	81c7803a 	cmpltu	r3,r16,r7
   10938:	20c7c83a 	sub	r3,r4,r3
   1093c:	1d44983a 	sll	r2,r3,r21
   10940:	3d0ed83a 	srl	r7,r7,r20
   10944:	1d06d83a 	srl	r3,r3,r20
   10948:	11c4b03a 	or	r2,r2,r7
   1094c:	003f9206 	br	10798 <__alt_data_end+0xf8010798>
   10950:	0025883a 	mov	r18,zero
   10954:	003f1806 	br	105b8 <__alt_data_end+0xf80105b8>
   10958:	98a6983a 	sll	r19,r19,r2
   1095c:	88e8d83a 	srl	r20,r17,r3
   10960:	80c6d83a 	srl	r3,r16,r3
   10964:	982cd43a 	srli	r22,r19,16
   10968:	88a2983a 	sll	r17,r17,r2
   1096c:	a009883a 	mov	r4,r20
   10970:	b00b883a 	mov	r5,r22
   10974:	88eab03a 	or	r21,r17,r3
   10978:	1025883a 	mov	r18,r2
   1097c:	000841c0 	call	841c <__umodsi3>
   10980:	a009883a 	mov	r4,r20
   10984:	b00b883a 	mov	r5,r22
   10988:	1023883a 	mov	r17,r2
   1098c:	00084140 	call	8414 <__udivsi3>
   10990:	9f3fffcc 	andi	fp,r19,65535
   10994:	8822943a 	slli	r17,r17,16
   10998:	a80ad43a 	srli	r5,r21,16
   1099c:	1705383a 	mul	r2,r2,fp
   109a0:	84a8983a 	sll	r20,r16,r18
   109a4:	8948b03a 	or	r4,r17,r5
   109a8:	2080042e 	bgeu	r4,r2,109bc <__umoddi3+0x4a0>
   109ac:	24c9883a 	add	r4,r4,r19
   109b0:	24c00236 	bltu	r4,r19,109bc <__umoddi3+0x4a0>
   109b4:	2080012e 	bgeu	r4,r2,109bc <__umoddi3+0x4a0>
   109b8:	24c9883a 	add	r4,r4,r19
   109bc:	20afc83a 	sub	r23,r4,r2
   109c0:	b809883a 	mov	r4,r23
   109c4:	b00b883a 	mov	r5,r22
   109c8:	000841c0 	call	841c <__umodsi3>
   109cc:	1023883a 	mov	r17,r2
   109d0:	b809883a 	mov	r4,r23
   109d4:	b00b883a 	mov	r5,r22
   109d8:	00084140 	call	8414 <__udivsi3>
   109dc:	8822943a 	slli	r17,r17,16
   109e0:	1705383a 	mul	r2,r2,fp
   109e4:	a93fffcc 	andi	r4,r21,65535
   109e8:	8908b03a 	or	r4,r17,r4
   109ec:	2080042e 	bgeu	r4,r2,10a00 <__umoddi3+0x4e4>
   109f0:	24c9883a 	add	r4,r4,r19
   109f4:	24c00236 	bltu	r4,r19,10a00 <__umoddi3+0x4e4>
   109f8:	2080012e 	bgeu	r4,r2,10a00 <__umoddi3+0x4e4>
   109fc:	24c9883a 	add	r4,r4,r19
   10a00:	20a3c83a 	sub	r17,r4,r2
   10a04:	e021883a 	mov	r16,fp
   10a08:	003f3d06 	br	10700 <__alt_data_end+0xf8010700>
   10a0c:	34cfc83a 	sub	r7,r6,r19
   10a10:	2c4bc83a 	sub	r5,r5,r17
   10a14:	31cd803a 	cmpltu	r6,r6,r7
   10a18:	298dc83a 	sub	r6,r5,r6
   10a1c:	4189c83a 	sub	r4,r8,r6
   10a20:	003fc306 	br	10930 <__alt_data_end+0xf8010930>
   10a24:	000b883a 	mov	r5,zero
   10a28:	002b883a 	mov	r21,zero
   10a2c:	003f0a06 	br	10658 <__alt_data_end+0xf8010658>
   10a30:	01400404 	movi	r5,16
   10a34:	282b883a 	mov	r21,r5
   10a38:	003f0706 	br	10658 <__alt_data_end+0xf8010658>
   10a3c:	01400404 	movi	r5,16
   10a40:	2805883a 	mov	r2,r5
   10a44:	003ecd06 	br	1057c <__alt_data_end+0xf801057c>
   10a48:	0005883a 	mov	r2,zero
   10a4c:	0007883a 	mov	r3,zero
   10a50:	003f1e06 	br	106cc <__alt_data_end+0xf80106cc>
   10a54:	00800404 	movi	r2,16
   10a58:	1007883a 	mov	r3,r2
   10a5c:	003f1b06 	br	106cc <__alt_data_end+0xf80106cc>
   10a60:	000b883a 	mov	r5,zero
   10a64:	0005883a 	mov	r2,zero
   10a68:	003ec406 	br	1057c <__alt_data_end+0xf801057c>
   10a6c:	413f952e 	bgeu	r8,r4,108c4 <__alt_data_end+0xf80108c4>
   10a70:	10bfff84 	addi	r2,r2,-2
   10a74:	4451883a 	add	r8,r8,r17
   10a78:	003f9306 	br	108c8 <__alt_data_end+0xf80108c8>
   10a7c:	2f3f7d2e 	bgeu	r5,fp,10874 <__alt_data_end+0xf8010874>
   10a80:	b5bfff84 	addi	r22,r22,-2
   10a84:	2c4b883a 	add	r5,r5,r17
   10a88:	003f7b06 	br	10878 <__alt_data_end+0xf8010878>
   10a8c:	34cd883a 	add	r6,r6,r19
   10a90:	003f2a06 	br	1073c <__alt_data_end+0xf801073c>
   10a94:	8005883a 	mov	r2,r16
   10a98:	003efe06 	br	10694 <__alt_data_end+0xf8010694>
   10a9c:	81bfdb36 	bltu	r16,r6,10a0c <__alt_data_end+0xf8010a0c>
   10aa0:	300f883a 	mov	r7,r6
   10aa4:	0009883a 	mov	r4,zero
   10aa8:	003fa106 	br	10930 <__alt_data_end+0xf8010930>

00010aac <__adddf3>:
   10aac:	02000434 	movhi	r8,16
   10ab0:	423fffc4 	addi	r8,r8,-1
   10ab4:	defffb04 	addi	sp,sp,-20
   10ab8:	2a12703a 	and	r9,r5,r8
   10abc:	2806d7fa 	srli	r3,r5,31
   10ac0:	3a10703a 	and	r8,r7,r8
   10ac4:	3804d53a 	srli	r2,r7,20
   10ac8:	3014d77a 	srli	r10,r6,29
   10acc:	dc000015 	stw	r16,0(sp)
   10ad0:	481290fa 	slli	r9,r9,3
   10ad4:	2820d53a 	srli	r16,r5,20
   10ad8:	401090fa 	slli	r8,r8,3
   10adc:	200ad77a 	srli	r5,r4,29
   10ae0:	380ed7fa 	srli	r7,r7,31
   10ae4:	dc800215 	stw	r18,8(sp)
   10ae8:	dc400115 	stw	r17,4(sp)
   10aec:	dfc00415 	stw	ra,16(sp)
   10af0:	dcc00315 	stw	r19,12(sp)
   10af4:	1c803fcc 	andi	r18,r3,255
   10af8:	8401ffcc 	andi	r16,r16,2047
   10afc:	494ab03a 	or	r5,r9,r5
   10b00:	202290fa 	slli	r17,r4,3
   10b04:	1081ffcc 	andi	r2,r2,2047
   10b08:	4290b03a 	or	r8,r8,r10
   10b0c:	300c90fa 	slli	r6,r6,3
   10b10:	91c07026 	beq	r18,r7,10cd4 <__adddf3+0x228>
   10b14:	8087c83a 	sub	r3,r16,r2
   10b18:	00c0b30e 	bge	zero,r3,10de8 <__adddf3+0x33c>
   10b1c:	10002a1e 	bne	r2,zero,10bc8 <__adddf3+0x11c>
   10b20:	4184b03a 	or	r2,r8,r6
   10b24:	1000991e 	bne	r2,zero,10d8c <__adddf3+0x2e0>
   10b28:	888001cc 	andi	r2,r17,7
   10b2c:	10005b26 	beq	r2,zero,10c9c <__adddf3+0x1f0>
   10b30:	88c003cc 	andi	r3,r17,15
   10b34:	00800104 	movi	r2,4
   10b38:	18805826 	beq	r3,r2,10c9c <__adddf3+0x1f0>
   10b3c:	89800104 	addi	r6,r17,4
   10b40:	3463803a 	cmpltu	r17,r6,r17
   10b44:	2c4b883a 	add	r5,r5,r17
   10b48:	2880202c 	andhi	r2,r5,128
   10b4c:	9007883a 	mov	r3,r18
   10b50:	3023883a 	mov	r17,r6
   10b54:	10005426 	beq	r2,zero,10ca8 <__adddf3+0x1fc>
   10b58:	84000044 	addi	r16,r16,1
   10b5c:	0081ffc4 	movi	r2,2047
   10b60:	8080c126 	beq	r16,r2,10e68 <__adddf3+0x3bc>
   10b64:	013fe034 	movhi	r4,65408
   10b68:	213fffc4 	addi	r4,r4,-1
   10b6c:	290a703a 	and	r5,r5,r4
   10b70:	2804977a 	slli	r2,r5,29
   10b74:	280a927a 	slli	r5,r5,9
   10b78:	8822d0fa 	srli	r17,r17,3
   10b7c:	8401ffcc 	andi	r16,r16,2047
   10b80:	2808d33a 	srli	r4,r5,12
   10b84:	1444b03a 	or	r2,r2,r17
   10b88:	8401ffcc 	andi	r16,r16,2047
   10b8c:	800a953a 	slli	r5,r16,20
   10b90:	18c03fcc 	andi	r3,r3,255
   10b94:	04000434 	movhi	r16,16
   10b98:	180697fa 	slli	r3,r3,31
   10b9c:	843fffc4 	addi	r16,r16,-1
   10ba0:	2420703a 	and	r16,r4,r16
   10ba4:	8160b03a 	or	r16,r16,r5
   10ba8:	80c6b03a 	or	r3,r16,r3
   10bac:	dfc00417 	ldw	ra,16(sp)
   10bb0:	dcc00317 	ldw	r19,12(sp)
   10bb4:	dc800217 	ldw	r18,8(sp)
   10bb8:	dc400117 	ldw	r17,4(sp)
   10bbc:	dc000017 	ldw	r16,0(sp)
   10bc0:	dec00504 	addi	sp,sp,20
   10bc4:	f800283a 	ret
   10bc8:	0081ffc4 	movi	r2,2047
   10bcc:	80bfd626 	beq	r16,r2,10b28 <__alt_data_end+0xf8010b28>
   10bd0:	42002034 	orhi	r8,r8,128
   10bd4:	00800e04 	movi	r2,56
   10bd8:	10c0a616 	blt	r2,r3,10e74 <__adddf3+0x3c8>
   10bdc:	008007c4 	movi	r2,31
   10be0:	10c0c916 	blt	r2,r3,10f08 <__adddf3+0x45c>
   10be4:	00800804 	movi	r2,32
   10be8:	10c5c83a 	sub	r2,r2,r3
   10bec:	408e983a 	sll	r7,r8,r2
   10bf0:	30c8d83a 	srl	r4,r6,r3
   10bf4:	3084983a 	sll	r2,r6,r2
   10bf8:	40c6d83a 	srl	r3,r8,r3
   10bfc:	390cb03a 	or	r6,r7,r4
   10c00:	1004c03a 	cmpne	r2,r2,zero
   10c04:	308cb03a 	or	r6,r6,r2
   10c08:	898dc83a 	sub	r6,r17,r6
   10c0c:	89a3803a 	cmpltu	r17,r17,r6
   10c10:	28cbc83a 	sub	r5,r5,r3
   10c14:	2c4bc83a 	sub	r5,r5,r17
   10c18:	3023883a 	mov	r17,r6
   10c1c:	2880202c 	andhi	r2,r5,128
   10c20:	10006d26 	beq	r2,zero,10dd8 <__adddf3+0x32c>
   10c24:	04c02034 	movhi	r19,128
   10c28:	9cffffc4 	addi	r19,r19,-1
   10c2c:	2ce6703a 	and	r19,r5,r19
   10c30:	98007e26 	beq	r19,zero,10e2c <__adddf3+0x380>
   10c34:	9809883a 	mov	r4,r19
   10c38:	00089f40 	call	89f4 <__clzsi2>
   10c3c:	10fffe04 	addi	r3,r2,-8
   10c40:	010007c4 	movi	r4,31
   10c44:	20c07f16 	blt	r4,r3,10e44 <__adddf3+0x398>
   10c48:	01400a04 	movi	r5,40
   10c4c:	2885c83a 	sub	r2,r5,r2
   10c50:	888ad83a 	srl	r5,r17,r2
   10c54:	98e6983a 	sll	r19,r19,r3
   10c58:	88e2983a 	sll	r17,r17,r3
   10c5c:	2ce6b03a 	or	r19,r5,r19
   10c60:	1c007c16 	blt	r3,r16,10e54 <__adddf3+0x3a8>
   10c64:	1c21c83a 	sub	r16,r3,r16
   10c68:	81400044 	addi	r5,r16,1
   10c6c:	00c007c4 	movi	r3,31
   10c70:	19409816 	blt	r3,r5,10ed4 <__adddf3+0x428>
   10c74:	1c21c83a 	sub	r16,r3,r16
   10c78:	8c08983a 	sll	r4,r17,r16
   10c7c:	8946d83a 	srl	r3,r17,r5
   10c80:	9c20983a 	sll	r16,r19,r16
   10c84:	2008c03a 	cmpne	r4,r4,zero
   10c88:	994ad83a 	srl	r5,r19,r5
   10c8c:	1c06b03a 	or	r3,r3,r16
   10c90:	1922b03a 	or	r17,r3,r4
   10c94:	0021883a 	mov	r16,zero
   10c98:	003fa306 	br	10b28 <__alt_data_end+0xf8010b28>
   10c9c:	2880202c 	andhi	r2,r5,128
   10ca0:	9007883a 	mov	r3,r18
   10ca4:	103fac1e 	bne	r2,zero,10b58 <__alt_data_end+0xf8010b58>
   10ca8:	2804977a 	slli	r2,r5,29
   10cac:	8822d0fa 	srli	r17,r17,3
   10cb0:	0101ffc4 	movi	r4,2047
   10cb4:	280ad0fa 	srli	r5,r5,3
   10cb8:	1444b03a 	or	r2,r2,r17
   10cbc:	81002c26 	beq	r16,r4,10d70 <__adddf3+0x2c4>
   10cc0:	8120703a 	and	r16,r16,r4
   10cc4:	01000434 	movhi	r4,16
   10cc8:	213fffc4 	addi	r4,r4,-1
   10ccc:	2908703a 	and	r4,r5,r4
   10cd0:	003fad06 	br	10b88 <__alt_data_end+0xf8010b88>
   10cd4:	8089c83a 	sub	r4,r16,r2
   10cd8:	01006a0e 	bge	zero,r4,10e84 <__adddf3+0x3d8>
   10cdc:	10003326 	beq	r2,zero,10dac <__adddf3+0x300>
   10ce0:	0081ffc4 	movi	r2,2047
   10ce4:	80bf9026 	beq	r16,r2,10b28 <__alt_data_end+0xf8010b28>
   10ce8:	42002034 	orhi	r8,r8,128
   10cec:	00800e04 	movi	r2,56
   10cf0:	1100b116 	blt	r2,r4,10fb8 <__adddf3+0x50c>
   10cf4:	008007c4 	movi	r2,31
   10cf8:	1100e216 	blt	r2,r4,11084 <__adddf3+0x5d8>
   10cfc:	00800804 	movi	r2,32
   10d00:	1105c83a 	sub	r2,r2,r4
   10d04:	4092983a 	sll	r9,r8,r2
   10d08:	310ed83a 	srl	r7,r6,r4
   10d0c:	3084983a 	sll	r2,r6,r2
   10d10:	4110d83a 	srl	r8,r8,r4
   10d14:	49ccb03a 	or	r6,r9,r7
   10d18:	1004c03a 	cmpne	r2,r2,zero
   10d1c:	308cb03a 	or	r6,r6,r2
   10d20:	344d883a 	add	r6,r6,r17
   10d24:	3463803a 	cmpltu	r17,r6,r17
   10d28:	414b883a 	add	r5,r8,r5
   10d2c:	2c4b883a 	add	r5,r5,r17
   10d30:	3023883a 	mov	r17,r6
   10d34:	2880202c 	andhi	r2,r5,128
   10d38:	10002726 	beq	r2,zero,10dd8 <__adddf3+0x32c>
   10d3c:	84000044 	addi	r16,r16,1
   10d40:	0081ffc4 	movi	r2,2047
   10d44:	8080ae26 	beq	r16,r2,11000 <__adddf3+0x554>
   10d48:	00bfe034 	movhi	r2,65408
   10d4c:	10bfffc4 	addi	r2,r2,-1
   10d50:	288a703a 	and	r5,r5,r2
   10d54:	880cd07a 	srli	r6,r17,1
   10d58:	280897fa 	slli	r4,r5,31
   10d5c:	88c0004c 	andi	r3,r17,1
   10d60:	30e2b03a 	or	r17,r6,r3
   10d64:	280ad07a 	srli	r5,r5,1
   10d68:	8922b03a 	or	r17,r17,r4
   10d6c:	003f6e06 	br	10b28 <__alt_data_end+0xf8010b28>
   10d70:	1148b03a 	or	r4,r2,r5
   10d74:	20003c26 	beq	r4,zero,10e68 <__adddf3+0x3bc>
   10d78:	29000234 	orhi	r4,r5,8
   10d7c:	01400434 	movhi	r5,16
   10d80:	297fffc4 	addi	r5,r5,-1
   10d84:	2148703a 	and	r4,r4,r5
   10d88:	003f7f06 	br	10b88 <__alt_data_end+0xf8010b88>
   10d8c:	18ffffc4 	addi	r3,r3,-1
   10d90:	18004d1e 	bne	r3,zero,10ec8 <__adddf3+0x41c>
   10d94:	898dc83a 	sub	r6,r17,r6
   10d98:	89a3803a 	cmpltu	r17,r17,r6
   10d9c:	2a0bc83a 	sub	r5,r5,r8
   10da0:	2c4bc83a 	sub	r5,r5,r17
   10da4:	3023883a 	mov	r17,r6
   10da8:	003f9c06 	br	10c1c <__alt_data_end+0xf8010c1c>
   10dac:	4184b03a 	or	r2,r8,r6
   10db0:	103f5d26 	beq	r2,zero,10b28 <__alt_data_end+0xf8010b28>
   10db4:	213fffc4 	addi	r4,r4,-1
   10db8:	203fd926 	beq	r4,zero,10d20 <__alt_data_end+0xf8010d20>
   10dbc:	0081ffc4 	movi	r2,2047
   10dc0:	80bfca1e 	bne	r16,r2,10cec <__alt_data_end+0xf8010cec>
   10dc4:	003f5806 	br	10b28 <__alt_data_end+0xf8010b28>
   10dc8:	10c8b03a 	or	r4,r2,r3
   10dcc:	20008b26 	beq	r4,zero,10ffc <__adddf3+0x550>
   10dd0:	100b883a 	mov	r5,r2
   10dd4:	1823883a 	mov	r17,r3
   10dd8:	888001cc 	andi	r2,r17,7
   10ddc:	103f541e 	bne	r2,zero,10b30 <__alt_data_end+0xf8010b30>
   10de0:	9007883a 	mov	r3,r18
   10de4:	003fb006 	br	10ca8 <__alt_data_end+0xf8010ca8>
   10de8:	1800531e 	bne	r3,zero,10f38 <__adddf3+0x48c>
   10dec:	80800044 	addi	r2,r16,1
   10df0:	1081ffcc 	andi	r2,r2,2047
   10df4:	00c00044 	movi	r3,1
   10df8:	1880990e 	bge	r3,r2,11060 <__adddf3+0x5b4>
   10dfc:	8985c83a 	sub	r2,r17,r6
   10e00:	8887803a 	cmpltu	r3,r17,r2
   10e04:	2a27c83a 	sub	r19,r5,r8
   10e08:	98e7c83a 	sub	r19,r19,r3
   10e0c:	98c0202c 	andhi	r3,r19,128
   10e10:	18006226 	beq	r3,zero,10f9c <__adddf3+0x4f0>
   10e14:	3463c83a 	sub	r17,r6,r17
   10e18:	4151c83a 	sub	r8,r8,r5
   10e1c:	344d803a 	cmpltu	r6,r6,r17
   10e20:	41a7c83a 	sub	r19,r8,r6
   10e24:	3825883a 	mov	r18,r7
   10e28:	983f821e 	bne	r19,zero,10c34 <__alt_data_end+0xf8010c34>
   10e2c:	8809883a 	mov	r4,r17
   10e30:	00089f40 	call	89f4 <__clzsi2>
   10e34:	10800804 	addi	r2,r2,32
   10e38:	10fffe04 	addi	r3,r2,-8
   10e3c:	010007c4 	movi	r4,31
   10e40:	20ff810e 	bge	r4,r3,10c48 <__alt_data_end+0xf8010c48>
   10e44:	14fff604 	addi	r19,r2,-40
   10e48:	8ce6983a 	sll	r19,r17,r19
   10e4c:	0023883a 	mov	r17,zero
   10e50:	1c3f840e 	bge	r3,r16,10c64 <__alt_data_end+0xf8010c64>
   10e54:	017fe034 	movhi	r5,65408
   10e58:	297fffc4 	addi	r5,r5,-1
   10e5c:	80e1c83a 	sub	r16,r16,r3
   10e60:	994a703a 	and	r5,r19,r5
   10e64:	003f3006 	br	10b28 <__alt_data_end+0xf8010b28>
   10e68:	0009883a 	mov	r4,zero
   10e6c:	0005883a 	mov	r2,zero
   10e70:	003f4506 	br	10b88 <__alt_data_end+0xf8010b88>
   10e74:	418cb03a 	or	r6,r8,r6
   10e78:	300cc03a 	cmpne	r6,r6,zero
   10e7c:	0007883a 	mov	r3,zero
   10e80:	003f6106 	br	10c08 <__alt_data_end+0xf8010c08>
   10e84:	2000921e 	bne	r4,zero,110d0 <__adddf3+0x624>
   10e88:	80800044 	addi	r2,r16,1
   10e8c:	11c1ffcc 	andi	r7,r2,2047
   10e90:	01000044 	movi	r4,1
   10e94:	21c0610e 	bge	r4,r7,1101c <__adddf3+0x570>
   10e98:	0101ffc4 	movi	r4,2047
   10e9c:	1100a326 	beq	r2,r4,1112c <__adddf3+0x680>
   10ea0:	344d883a 	add	r6,r6,r17
   10ea4:	3463803a 	cmpltu	r17,r6,r17
   10ea8:	414b883a 	add	r5,r8,r5
   10eac:	2c4b883a 	add	r5,r5,r17
   10eb0:	282297fa 	slli	r17,r5,31
   10eb4:	300cd07a 	srli	r6,r6,1
   10eb8:	280ad07a 	srli	r5,r5,1
   10ebc:	1021883a 	mov	r16,r2
   10ec0:	89a2b03a 	or	r17,r17,r6
   10ec4:	003f1806 	br	10b28 <__alt_data_end+0xf8010b28>
   10ec8:	0081ffc4 	movi	r2,2047
   10ecc:	80bf411e 	bne	r16,r2,10bd4 <__alt_data_end+0xf8010bd4>
   10ed0:	003f1506 	br	10b28 <__alt_data_end+0xf8010b28>
   10ed4:	80bff844 	addi	r2,r16,-31
   10ed8:	00c00804 	movi	r3,32
   10edc:	9884d83a 	srl	r2,r19,r2
   10ee0:	28c04a26 	beq	r5,r3,1100c <__adddf3+0x560>
   10ee4:	00c00fc4 	movi	r3,63
   10ee8:	1c21c83a 	sub	r16,r3,r16
   10eec:	9c26983a 	sll	r19,r19,r16
   10ef0:	9c62b03a 	or	r17,r19,r17
   10ef4:	8822c03a 	cmpne	r17,r17,zero
   10ef8:	88a2b03a 	or	r17,r17,r2
   10efc:	000b883a 	mov	r5,zero
   10f00:	0021883a 	mov	r16,zero
   10f04:	003fb406 	br	10dd8 <__alt_data_end+0xf8010dd8>
   10f08:	18bff804 	addi	r2,r3,-32
   10f0c:	01000804 	movi	r4,32
   10f10:	4084d83a 	srl	r2,r8,r2
   10f14:	19003f26 	beq	r3,r4,11014 <__adddf3+0x568>
   10f18:	01001004 	movi	r4,64
   10f1c:	20c7c83a 	sub	r3,r4,r3
   10f20:	40d0983a 	sll	r8,r8,r3
   10f24:	418cb03a 	or	r6,r8,r6
   10f28:	300cc03a 	cmpne	r6,r6,zero
   10f2c:	308cb03a 	or	r6,r6,r2
   10f30:	0007883a 	mov	r3,zero
   10f34:	003f3406 	br	10c08 <__alt_data_end+0xf8010c08>
   10f38:	80002326 	beq	r16,zero,10fc8 <__adddf3+0x51c>
   10f3c:	0101ffc4 	movi	r4,2047
   10f40:	11005e26 	beq	r2,r4,110bc <__adddf3+0x610>
   10f44:	00c7c83a 	sub	r3,zero,r3
   10f48:	29402034 	orhi	r5,r5,128
   10f4c:	01000e04 	movi	r4,56
   10f50:	20c07216 	blt	r4,r3,1111c <__adddf3+0x670>
   10f54:	010007c4 	movi	r4,31
   10f58:	20c0ce16 	blt	r4,r3,11294 <__adddf3+0x7e8>
   10f5c:	01000804 	movi	r4,32
   10f60:	20c9c83a 	sub	r4,r4,r3
   10f64:	2914983a 	sll	r10,r5,r4
   10f68:	88d2d83a 	srl	r9,r17,r3
   10f6c:	8908983a 	sll	r4,r17,r4
   10f70:	28c6d83a 	srl	r3,r5,r3
   10f74:	5262b03a 	or	r17,r10,r9
   10f78:	2008c03a 	cmpne	r4,r4,zero
   10f7c:	8922b03a 	or	r17,r17,r4
   10f80:	3463c83a 	sub	r17,r6,r17
   10f84:	40c7c83a 	sub	r3,r8,r3
   10f88:	344d803a 	cmpltu	r6,r6,r17
   10f8c:	198bc83a 	sub	r5,r3,r6
   10f90:	1021883a 	mov	r16,r2
   10f94:	3825883a 	mov	r18,r7
   10f98:	003f2006 	br	10c1c <__alt_data_end+0xf8010c1c>
   10f9c:	9886b03a 	or	r3,r19,r2
   10fa0:	1800141e 	bne	r3,zero,10ff4 <__adddf3+0x548>
   10fa4:	0007883a 	mov	r3,zero
   10fa8:	000b883a 	mov	r5,zero
   10fac:	0023883a 	mov	r17,zero
   10fb0:	0021883a 	mov	r16,zero
   10fb4:	003f3c06 	br	10ca8 <__alt_data_end+0xf8010ca8>
   10fb8:	418cb03a 	or	r6,r8,r6
   10fbc:	300cc03a 	cmpne	r6,r6,zero
   10fc0:	0011883a 	mov	r8,zero
   10fc4:	003f5606 	br	10d20 <__alt_data_end+0xf8010d20>
   10fc8:	2c48b03a 	or	r4,r5,r17
   10fcc:	20003b26 	beq	r4,zero,110bc <__adddf3+0x610>
   10fd0:	00c6303a 	nor	r3,zero,r3
   10fd4:	1800371e 	bne	r3,zero,110b4 <__adddf3+0x608>
   10fd8:	3463c83a 	sub	r17,r6,r17
   10fdc:	414bc83a 	sub	r5,r8,r5
   10fe0:	344d803a 	cmpltu	r6,r6,r17
   10fe4:	298bc83a 	sub	r5,r5,r6
   10fe8:	1021883a 	mov	r16,r2
   10fec:	3825883a 	mov	r18,r7
   10ff0:	003f0a06 	br	10c1c <__alt_data_end+0xf8010c1c>
   10ff4:	1023883a 	mov	r17,r2
   10ff8:	003f0d06 	br	10c30 <__alt_data_end+0xf8010c30>
   10ffc:	0007883a 	mov	r3,zero
   11000:	000b883a 	mov	r5,zero
   11004:	0023883a 	mov	r17,zero
   11008:	003f2706 	br	10ca8 <__alt_data_end+0xf8010ca8>
   1100c:	0027883a 	mov	r19,zero
   11010:	003fb706 	br	10ef0 <__alt_data_end+0xf8010ef0>
   11014:	0011883a 	mov	r8,zero
   11018:	003fc206 	br	10f24 <__alt_data_end+0xf8010f24>
   1101c:	2c44b03a 	or	r2,r5,r17
   11020:	8000871e 	bne	r16,zero,11240 <__adddf3+0x794>
   11024:	1000b126 	beq	r2,zero,112ec <__adddf3+0x840>
   11028:	4184b03a 	or	r2,r8,r6
   1102c:	103ebe26 	beq	r2,zero,10b28 <__alt_data_end+0xf8010b28>
   11030:	3445883a 	add	r2,r6,r17
   11034:	1463803a 	cmpltu	r17,r2,r17
   11038:	414b883a 	add	r5,r8,r5
   1103c:	2c4b883a 	add	r5,r5,r17
   11040:	28c0202c 	andhi	r3,r5,128
   11044:	1023883a 	mov	r17,r2
   11048:	183f6326 	beq	r3,zero,10dd8 <__alt_data_end+0xf8010dd8>
   1104c:	00bfe034 	movhi	r2,65408
   11050:	10bfffc4 	addi	r2,r2,-1
   11054:	2021883a 	mov	r16,r4
   11058:	288a703a 	and	r5,r5,r2
   1105c:	003eb206 	br	10b28 <__alt_data_end+0xf8010b28>
   11060:	2c44b03a 	or	r2,r5,r17
   11064:	8000251e 	bne	r16,zero,110fc <__adddf3+0x650>
   11068:	10004b1e 	bne	r2,zero,11198 <__adddf3+0x6ec>
   1106c:	4184b03a 	or	r2,r8,r6
   11070:	103fe226 	beq	r2,zero,10ffc <__alt_data_end+0xf8010ffc>
   11074:	400b883a 	mov	r5,r8
   11078:	3023883a 	mov	r17,r6
   1107c:	3825883a 	mov	r18,r7
   11080:	003ea906 	br	10b28 <__alt_data_end+0xf8010b28>
   11084:	20bff804 	addi	r2,r4,-32
   11088:	01c00804 	movi	r7,32
   1108c:	4084d83a 	srl	r2,r8,r2
   11090:	21c07e26 	beq	r4,r7,1128c <__adddf3+0x7e0>
   11094:	01c01004 	movi	r7,64
   11098:	3909c83a 	sub	r4,r7,r4
   1109c:	4110983a 	sll	r8,r8,r4
   110a0:	418cb03a 	or	r6,r8,r6
   110a4:	300cc03a 	cmpne	r6,r6,zero
   110a8:	308cb03a 	or	r6,r6,r2
   110ac:	0011883a 	mov	r8,zero
   110b0:	003f1b06 	br	10d20 <__alt_data_end+0xf8010d20>
   110b4:	0101ffc4 	movi	r4,2047
   110b8:	113fa41e 	bne	r2,r4,10f4c <__alt_data_end+0xf8010f4c>
   110bc:	400b883a 	mov	r5,r8
   110c0:	3023883a 	mov	r17,r6
   110c4:	1021883a 	mov	r16,r2
   110c8:	3825883a 	mov	r18,r7
   110cc:	003e9606 	br	10b28 <__alt_data_end+0xf8010b28>
   110d0:	80001a1e 	bne	r16,zero,1113c <__adddf3+0x690>
   110d4:	2c4eb03a 	or	r7,r5,r17
   110d8:	38005526 	beq	r7,zero,11230 <__adddf3+0x784>
   110dc:	0108303a 	nor	r4,zero,r4
   110e0:	2000511e 	bne	r4,zero,11228 <__adddf3+0x77c>
   110e4:	89a3883a 	add	r17,r17,r6
   110e8:	414b883a 	add	r5,r8,r5
   110ec:	898d803a 	cmpltu	r6,r17,r6
   110f0:	298b883a 	add	r5,r5,r6
   110f4:	1021883a 	mov	r16,r2
   110f8:	003f0e06 	br	10d34 <__alt_data_end+0xf8010d34>
   110fc:	1000341e 	bne	r2,zero,111d0 <__adddf3+0x724>
   11100:	4184b03a 	or	r2,r8,r6
   11104:	10006f26 	beq	r2,zero,112c4 <__adddf3+0x818>
   11108:	400b883a 	mov	r5,r8
   1110c:	3023883a 	mov	r17,r6
   11110:	3825883a 	mov	r18,r7
   11114:	0401ffc4 	movi	r16,2047
   11118:	003e8306 	br	10b28 <__alt_data_end+0xf8010b28>
   1111c:	2c62b03a 	or	r17,r5,r17
   11120:	8822c03a 	cmpne	r17,r17,zero
   11124:	0007883a 	mov	r3,zero
   11128:	003f9506 	br	10f80 <__alt_data_end+0xf8010f80>
   1112c:	1021883a 	mov	r16,r2
   11130:	000b883a 	mov	r5,zero
   11134:	0023883a 	mov	r17,zero
   11138:	003edb06 	br	10ca8 <__alt_data_end+0xf8010ca8>
   1113c:	01c1ffc4 	movi	r7,2047
   11140:	11c03b26 	beq	r2,r7,11230 <__adddf3+0x784>
   11144:	0109c83a 	sub	r4,zero,r4
   11148:	29402034 	orhi	r5,r5,128
   1114c:	01c00e04 	movi	r7,56
   11150:	39006216 	blt	r7,r4,112dc <__adddf3+0x830>
   11154:	01c007c4 	movi	r7,31
   11158:	39006b16 	blt	r7,r4,11308 <__adddf3+0x85c>
   1115c:	01c00804 	movi	r7,32
   11160:	390fc83a 	sub	r7,r7,r4
   11164:	29d4983a 	sll	r10,r5,r7
   11168:	8912d83a 	srl	r9,r17,r4
   1116c:	89ce983a 	sll	r7,r17,r7
   11170:	2908d83a 	srl	r4,r5,r4
   11174:	5262b03a 	or	r17,r10,r9
   11178:	380ac03a 	cmpne	r5,r7,zero
   1117c:	8962b03a 	or	r17,r17,r5
   11180:	89a3883a 	add	r17,r17,r6
   11184:	2211883a 	add	r8,r4,r8
   11188:	898d803a 	cmpltu	r6,r17,r6
   1118c:	418b883a 	add	r5,r8,r6
   11190:	1021883a 	mov	r16,r2
   11194:	003ee706 	br	10d34 <__alt_data_end+0xf8010d34>
   11198:	4184b03a 	or	r2,r8,r6
   1119c:	103e6226 	beq	r2,zero,10b28 <__alt_data_end+0xf8010b28>
   111a0:	8987c83a 	sub	r3,r17,r6
   111a4:	88c9803a 	cmpltu	r4,r17,r3
   111a8:	2a05c83a 	sub	r2,r5,r8
   111ac:	1105c83a 	sub	r2,r2,r4
   111b0:	1100202c 	andhi	r4,r2,128
   111b4:	203f0426 	beq	r4,zero,10dc8 <__alt_data_end+0xf8010dc8>
   111b8:	3463c83a 	sub	r17,r6,r17
   111bc:	414bc83a 	sub	r5,r8,r5
   111c0:	344d803a 	cmpltu	r6,r6,r17
   111c4:	298bc83a 	sub	r5,r5,r6
   111c8:	3825883a 	mov	r18,r7
   111cc:	003e5606 	br	10b28 <__alt_data_end+0xf8010b28>
   111d0:	4184b03a 	or	r2,r8,r6
   111d4:	10002b26 	beq	r2,zero,11284 <__adddf3+0x7d8>
   111d8:	2804d0fa 	srli	r2,r5,3
   111dc:	8822d0fa 	srli	r17,r17,3
   111e0:	280a977a 	slli	r5,r5,29
   111e4:	10c0022c 	andhi	r3,r2,8
   111e8:	2c62b03a 	or	r17,r5,r17
   111ec:	18000826 	beq	r3,zero,11210 <__adddf3+0x764>
   111f0:	4008d0fa 	srli	r4,r8,3
   111f4:	20c0022c 	andhi	r3,r4,8
   111f8:	1800051e 	bne	r3,zero,11210 <__adddf3+0x764>
   111fc:	300cd0fa 	srli	r6,r6,3
   11200:	4010977a 	slli	r8,r8,29
   11204:	2005883a 	mov	r2,r4
   11208:	3825883a 	mov	r18,r7
   1120c:	41a2b03a 	or	r17,r8,r6
   11210:	880ad77a 	srli	r5,r17,29
   11214:	100490fa 	slli	r2,r2,3
   11218:	882290fa 	slli	r17,r17,3
   1121c:	0401ffc4 	movi	r16,2047
   11220:	288ab03a 	or	r5,r5,r2
   11224:	003e4006 	br	10b28 <__alt_data_end+0xf8010b28>
   11228:	01c1ffc4 	movi	r7,2047
   1122c:	11ffc71e 	bne	r2,r7,1114c <__alt_data_end+0xf801114c>
   11230:	400b883a 	mov	r5,r8
   11234:	3023883a 	mov	r17,r6
   11238:	1021883a 	mov	r16,r2
   1123c:	003e3a06 	br	10b28 <__alt_data_end+0xf8010b28>
   11240:	10002d26 	beq	r2,zero,112f8 <__adddf3+0x84c>
   11244:	4184b03a 	or	r2,r8,r6
   11248:	10000e26 	beq	r2,zero,11284 <__adddf3+0x7d8>
   1124c:	2804d0fa 	srli	r2,r5,3
   11250:	8822d0fa 	srli	r17,r17,3
   11254:	280a977a 	slli	r5,r5,29
   11258:	10c0022c 	andhi	r3,r2,8
   1125c:	2c62b03a 	or	r17,r5,r17
   11260:	183feb26 	beq	r3,zero,11210 <__alt_data_end+0xf8011210>
   11264:	4008d0fa 	srli	r4,r8,3
   11268:	20c0022c 	andhi	r3,r4,8
   1126c:	183fe81e 	bne	r3,zero,11210 <__alt_data_end+0xf8011210>
   11270:	300cd0fa 	srli	r6,r6,3
   11274:	4010977a 	slli	r8,r8,29
   11278:	2005883a 	mov	r2,r4
   1127c:	41a2b03a 	or	r17,r8,r6
   11280:	003fe306 	br	11210 <__alt_data_end+0xf8011210>
   11284:	0401ffc4 	movi	r16,2047
   11288:	003e2706 	br	10b28 <__alt_data_end+0xf8010b28>
   1128c:	0011883a 	mov	r8,zero
   11290:	003f8306 	br	110a0 <__alt_data_end+0xf80110a0>
   11294:	193ff804 	addi	r4,r3,-32
   11298:	02400804 	movi	r9,32
   1129c:	2908d83a 	srl	r4,r5,r4
   112a0:	1a402526 	beq	r3,r9,11338 <__adddf3+0x88c>
   112a4:	02401004 	movi	r9,64
   112a8:	48c7c83a 	sub	r3,r9,r3
   112ac:	28ca983a 	sll	r5,r5,r3
   112b0:	2c62b03a 	or	r17,r5,r17
   112b4:	8822c03a 	cmpne	r17,r17,zero
   112b8:	8922b03a 	or	r17,r17,r4
   112bc:	0007883a 	mov	r3,zero
   112c0:	003f2f06 	br	10f80 <__alt_data_end+0xf8010f80>
   112c4:	01402034 	movhi	r5,128
   112c8:	0007883a 	mov	r3,zero
   112cc:	297fffc4 	addi	r5,r5,-1
   112d0:	047ffe04 	movi	r17,-8
   112d4:	0401ffc4 	movi	r16,2047
   112d8:	003e7306 	br	10ca8 <__alt_data_end+0xf8010ca8>
   112dc:	2c62b03a 	or	r17,r5,r17
   112e0:	8822c03a 	cmpne	r17,r17,zero
   112e4:	0009883a 	mov	r4,zero
   112e8:	003fa506 	br	11180 <__alt_data_end+0xf8011180>
   112ec:	400b883a 	mov	r5,r8
   112f0:	3023883a 	mov	r17,r6
   112f4:	003e0c06 	br	10b28 <__alt_data_end+0xf8010b28>
   112f8:	400b883a 	mov	r5,r8
   112fc:	3023883a 	mov	r17,r6
   11300:	0401ffc4 	movi	r16,2047
   11304:	003e0806 	br	10b28 <__alt_data_end+0xf8010b28>
   11308:	21fff804 	addi	r7,r4,-32
   1130c:	02400804 	movi	r9,32
   11310:	29ced83a 	srl	r7,r5,r7
   11314:	22400a26 	beq	r4,r9,11340 <__adddf3+0x894>
   11318:	02401004 	movi	r9,64
   1131c:	4909c83a 	sub	r4,r9,r4
   11320:	290a983a 	sll	r5,r5,r4
   11324:	2c62b03a 	or	r17,r5,r17
   11328:	8822c03a 	cmpne	r17,r17,zero
   1132c:	89e2b03a 	or	r17,r17,r7
   11330:	0009883a 	mov	r4,zero
   11334:	003f9206 	br	11180 <__alt_data_end+0xf8011180>
   11338:	000b883a 	mov	r5,zero
   1133c:	003fdc06 	br	112b0 <__alt_data_end+0xf80112b0>
   11340:	000b883a 	mov	r5,zero
   11344:	003ff706 	br	11324 <__alt_data_end+0xf8011324>

00011348 <__divdf3>:
   11348:	defff204 	addi	sp,sp,-56
   1134c:	dd000815 	stw	r20,32(sp)
   11350:	2828d53a 	srli	r20,r5,20
   11354:	dd800a15 	stw	r22,40(sp)
   11358:	282cd7fa 	srli	r22,r5,31
   1135c:	dc000415 	stw	r16,16(sp)
   11360:	04000434 	movhi	r16,16
   11364:	df000c15 	stw	fp,48(sp)
   11368:	dcc00715 	stw	r19,28(sp)
   1136c:	dc800615 	stw	r18,24(sp)
   11370:	dc400515 	stw	r17,20(sp)
   11374:	843fffc4 	addi	r16,r16,-1
   11378:	dfc00d15 	stw	ra,52(sp)
   1137c:	ddc00b15 	stw	r23,44(sp)
   11380:	dd400915 	stw	r21,36(sp)
   11384:	a501ffcc 	andi	r20,r20,2047
   11388:	2025883a 	mov	r18,r4
   1138c:	2027883a 	mov	r19,r4
   11390:	2c22703a 	and	r17,r5,r16
   11394:	b7003fcc 	andi	fp,r22,255
   11398:	a0005e26 	beq	r20,zero,11514 <__divdf3+0x1cc>
   1139c:	0081ffc4 	movi	r2,2047
   113a0:	a0803526 	beq	r20,r2,11478 <__divdf3+0x130>
   113a4:	8c000434 	orhi	r16,r17,16
   113a8:	2004d77a 	srli	r2,r4,29
   113ac:	802090fa 	slli	r16,r16,3
   113b0:	202690fa 	slli	r19,r4,3
   113b4:	a53f0044 	addi	r20,r20,-1023
   113b8:	80a2b03a 	or	r17,r16,r2
   113bc:	0025883a 	mov	r18,zero
   113c0:	0011883a 	mov	r8,zero
   113c4:	380ad53a 	srli	r5,r7,20
   113c8:	382ed7fa 	srli	r23,r7,31
   113cc:	04000434 	movhi	r16,16
   113d0:	843fffc4 	addi	r16,r16,-1
   113d4:	2941ffcc 	andi	r5,r5,2047
   113d8:	302b883a 	mov	r21,r6
   113dc:	3c20703a 	and	r16,r7,r16
   113e0:	ba403fcc 	andi	r9,r23,255
   113e4:	28006726 	beq	r5,zero,11584 <__divdf3+0x23c>
   113e8:	0081ffc4 	movi	r2,2047
   113ec:	28805f26 	beq	r5,r2,1156c <__divdf3+0x224>
   113f0:	84000434 	orhi	r16,r16,16
   113f4:	3004d77a 	srli	r2,r6,29
   113f8:	802090fa 	slli	r16,r16,3
   113fc:	302a90fa 	slli	r21,r6,3
   11400:	297f0044 	addi	r5,r5,-1023
   11404:	80a0b03a 	or	r16,r16,r2
   11408:	000f883a 	mov	r7,zero
   1140c:	3c86b03a 	or	r3,r7,r18
   11410:	180690ba 	slli	r3,r3,2
   11414:	00800074 	movhi	r2,1
   11418:	10850e04 	addi	r2,r2,5176
   1141c:	1887883a 	add	r3,r3,r2
   11420:	18c00017 	ldw	r3,0(r3)
   11424:	b5c8f03a 	xor	r4,r22,r23
   11428:	200d883a 	mov	r6,r4
   1142c:	24803fcc 	andi	r18,r4,255
   11430:	a169c83a 	sub	r20,r20,r5
   11434:	1800683a 	jmp	r3
   11438:	00011680 	call	1168 <setDefaultScrollBarY+0x344>
   1143c:	000114b0 	cmpltui	zero,zero,1106
   11440:	00011644 	movi	zero,1113
   11444:	00011494 	movui	zero,1106
   11448:	00011644 	movi	zero,1113
   1144c:	00011618 	cmpnei	zero,zero,1112
   11450:	00011644 	movi	zero,1113
   11454:	00011494 	movui	zero,1106
   11458:	000114b0 	cmpltui	zero,zero,1106
   1145c:	000114b0 	cmpltui	zero,zero,1106
   11460:	00011618 	cmpnei	zero,zero,1112
   11464:	00011494 	movui	zero,1106
   11468:	000114a4 	muli	zero,zero,1106
   1146c:	000114a4 	muli	zero,zero,1106
   11470:	000114a4 	muli	zero,zero,1106
   11474:	00011654 	movui	zero,1113
   11478:	8904b03a 	or	r2,r17,r4
   1147c:	1000631e 	bne	r2,zero,1160c <__divdf3+0x2c4>
   11480:	04800204 	movi	r18,8
   11484:	0023883a 	mov	r17,zero
   11488:	0027883a 	mov	r19,zero
   1148c:	02000084 	movi	r8,2
   11490:	003fcc06 	br	113c4 <__alt_data_end+0xf80113c4>
   11494:	8023883a 	mov	r17,r16
   11498:	a827883a 	mov	r19,r21
   1149c:	4839883a 	mov	fp,r9
   114a0:	3811883a 	mov	r8,r7
   114a4:	00800084 	movi	r2,2
   114a8:	40812a1e 	bne	r8,r2,11954 <__divdf3+0x60c>
   114ac:	e025883a 	mov	r18,fp
   114b0:	9180004c 	andi	r6,r18,1
   114b4:	0101ffc4 	movi	r4,2047
   114b8:	000b883a 	mov	r5,zero
   114bc:	0027883a 	mov	r19,zero
   114c0:	2008953a 	slli	r4,r4,20
   114c4:	30c03fcc 	andi	r3,r6,255
   114c8:	04000434 	movhi	r16,16
   114cc:	180697fa 	slli	r3,r3,31
   114d0:	843fffc4 	addi	r16,r16,-1
   114d4:	2c20703a 	and	r16,r5,r16
   114d8:	8120b03a 	or	r16,r16,r4
   114dc:	80c6b03a 	or	r3,r16,r3
   114e0:	9805883a 	mov	r2,r19
   114e4:	dfc00d17 	ldw	ra,52(sp)
   114e8:	df000c17 	ldw	fp,48(sp)
   114ec:	ddc00b17 	ldw	r23,44(sp)
   114f0:	dd800a17 	ldw	r22,40(sp)
   114f4:	dd400917 	ldw	r21,36(sp)
   114f8:	dd000817 	ldw	r20,32(sp)
   114fc:	dcc00717 	ldw	r19,28(sp)
   11500:	dc800617 	ldw	r18,24(sp)
   11504:	dc400517 	ldw	r17,20(sp)
   11508:	dc000417 	ldw	r16,16(sp)
   1150c:	dec00e04 	addi	sp,sp,56
   11510:	f800283a 	ret
   11514:	8904b03a 	or	r2,r17,r4
   11518:	10003726 	beq	r2,zero,115f8 <__divdf3+0x2b0>
   1151c:	88011c26 	beq	r17,zero,11990 <__divdf3+0x648>
   11520:	8809883a 	mov	r4,r17
   11524:	d9800315 	stw	r6,12(sp)
   11528:	d9c00115 	stw	r7,4(sp)
   1152c:	00089f40 	call	89f4 <__clzsi2>
   11530:	d9800317 	ldw	r6,12(sp)
   11534:	d9c00117 	ldw	r7,4(sp)
   11538:	1007883a 	mov	r3,r2
   1153c:	01000a04 	movi	r4,40
   11540:	1cfffe04 	addi	r19,r3,-8
   11544:	20c9c83a 	sub	r4,r4,r3
   11548:	8cca983a 	sll	r5,r17,r19
   1154c:	9108d83a 	srl	r4,r18,r4
   11550:	94e6983a 	sll	r19,r18,r19
   11554:	2162b03a 	or	r17,r4,r5
   11558:	053f0344 	movi	r20,-1011
   1155c:	a0e9c83a 	sub	r20,r20,r3
   11560:	0025883a 	mov	r18,zero
   11564:	0011883a 	mov	r8,zero
   11568:	003f9606 	br	113c4 <__alt_data_end+0xf80113c4>
   1156c:	8184b03a 	or	r2,r16,r6
   11570:	10001f1e 	bne	r2,zero,115f0 <__divdf3+0x2a8>
   11574:	0021883a 	mov	r16,zero
   11578:	002b883a 	mov	r21,zero
   1157c:	01c00084 	movi	r7,2
   11580:	003fa206 	br	1140c <__alt_data_end+0xf801140c>
   11584:	8184b03a 	or	r2,r16,r6
   11588:	10001526 	beq	r2,zero,115e0 <__divdf3+0x298>
   1158c:	80010c26 	beq	r16,zero,119c0 <__divdf3+0x678>
   11590:	8009883a 	mov	r4,r16
   11594:	d9800315 	stw	r6,12(sp)
   11598:	da000215 	stw	r8,8(sp)
   1159c:	da400015 	stw	r9,0(sp)
   115a0:	00089f40 	call	89f4 <__clzsi2>
   115a4:	d9800317 	ldw	r6,12(sp)
   115a8:	da000217 	ldw	r8,8(sp)
   115ac:	da400017 	ldw	r9,0(sp)
   115b0:	1007883a 	mov	r3,r2
   115b4:	01000a04 	movi	r4,40
   115b8:	1d7ffe04 	addi	r21,r3,-8
   115bc:	20c9c83a 	sub	r4,r4,r3
   115c0:	8560983a 	sll	r16,r16,r21
   115c4:	3108d83a 	srl	r4,r6,r4
   115c8:	356a983a 	sll	r21,r6,r21
   115cc:	2420b03a 	or	r16,r4,r16
   115d0:	017f0344 	movi	r5,-1011
   115d4:	28cbc83a 	sub	r5,r5,r3
   115d8:	000f883a 	mov	r7,zero
   115dc:	003f8b06 	br	1140c <__alt_data_end+0xf801140c>
   115e0:	0021883a 	mov	r16,zero
   115e4:	002b883a 	mov	r21,zero
   115e8:	01c00044 	movi	r7,1
   115ec:	003f8706 	br	1140c <__alt_data_end+0xf801140c>
   115f0:	01c000c4 	movi	r7,3
   115f4:	003f8506 	br	1140c <__alt_data_end+0xf801140c>
   115f8:	04800104 	movi	r18,4
   115fc:	0023883a 	mov	r17,zero
   11600:	0027883a 	mov	r19,zero
   11604:	02000044 	movi	r8,1
   11608:	003f6e06 	br	113c4 <__alt_data_end+0xf80113c4>
   1160c:	04800304 	movi	r18,12
   11610:	020000c4 	movi	r8,3
   11614:	003f6b06 	br	113c4 <__alt_data_end+0xf80113c4>
   11618:	01400434 	movhi	r5,16
   1161c:	000d883a 	mov	r6,zero
   11620:	297fffc4 	addi	r5,r5,-1
   11624:	04ffffc4 	movi	r19,-1
   11628:	0101ffc4 	movi	r4,2047
   1162c:	003fa406 	br	114c0 <__alt_data_end+0xf80114c0>
   11630:	043f0084 	movi	r16,-1022
   11634:	8521c83a 	sub	r16,r16,r20
   11638:	00800e04 	movi	r2,56
   1163c:	1401200e 	bge	r2,r16,11ac0 <__divdf3+0x778>
   11640:	9180004c 	andi	r6,r18,1
   11644:	0009883a 	mov	r4,zero
   11648:	000b883a 	mov	r5,zero
   1164c:	0027883a 	mov	r19,zero
   11650:	003f9b06 	br	114c0 <__alt_data_end+0xf80114c0>
   11654:	8880022c 	andhi	r2,r17,8
   11658:	1000c726 	beq	r2,zero,11978 <__divdf3+0x630>
   1165c:	8080022c 	andhi	r2,r16,8
   11660:	1000c51e 	bne	r2,zero,11978 <__divdf3+0x630>
   11664:	00800434 	movhi	r2,16
   11668:	81400234 	orhi	r5,r16,8
   1166c:	10bfffc4 	addi	r2,r2,-1
   11670:	b80d883a 	mov	r6,r23
   11674:	288a703a 	and	r5,r5,r2
   11678:	a827883a 	mov	r19,r21
   1167c:	003fea06 	br	11628 <__alt_data_end+0xf8011628>
   11680:	8440ea36 	bltu	r16,r17,11a2c <__divdf3+0x6e4>
   11684:	8c00e826 	beq	r17,r16,11a28 <__divdf3+0x6e0>
   11688:	a53fffc4 	addi	r20,r20,-1
   1168c:	882d883a 	mov	r22,r17
   11690:	000d883a 	mov	r6,zero
   11694:	a804d63a 	srli	r2,r21,24
   11698:	8020923a 	slli	r16,r16,8
   1169c:	b009883a 	mov	r4,r22
   116a0:	d9800315 	stw	r6,12(sp)
   116a4:	1420b03a 	or	r16,r2,r16
   116a8:	802ed43a 	srli	r23,r16,16
   116ac:	873fffcc 	andi	fp,r16,65535
   116b0:	a82a923a 	slli	r21,r21,8
   116b4:	b80b883a 	mov	r5,r23
   116b8:	00084140 	call	8414 <__udivsi3>
   116bc:	b009883a 	mov	r4,r22
   116c0:	b80b883a 	mov	r5,r23
   116c4:	1023883a 	mov	r17,r2
   116c8:	000841c0 	call	841c <__umodsi3>
   116cc:	1004943a 	slli	r2,r2,16
   116d0:	9808d43a 	srli	r4,r19,16
   116d4:	8f2d383a 	mul	r22,r17,fp
   116d8:	d9800317 	ldw	r6,12(sp)
   116dc:	1106b03a 	or	r3,r2,r4
   116e0:	1d80062e 	bgeu	r3,r22,116fc <__divdf3+0x3b4>
   116e4:	1c07883a 	add	r3,r3,r16
   116e8:	88bfffc4 	addi	r2,r17,-1
   116ec:	1c00dc36 	bltu	r3,r16,11a60 <__divdf3+0x718>
   116f0:	1d80db2e 	bgeu	r3,r22,11a60 <__divdf3+0x718>
   116f4:	8c7fff84 	addi	r17,r17,-2
   116f8:	1c07883a 	add	r3,r3,r16
   116fc:	1dadc83a 	sub	r22,r3,r22
   11700:	b009883a 	mov	r4,r22
   11704:	b80b883a 	mov	r5,r23
   11708:	d9800315 	stw	r6,12(sp)
   1170c:	00084140 	call	8414 <__udivsi3>
   11710:	b009883a 	mov	r4,r22
   11714:	b80b883a 	mov	r5,r23
   11718:	d8800015 	stw	r2,0(sp)
   1171c:	000841c0 	call	841c <__umodsi3>
   11720:	da400017 	ldw	r9,0(sp)
   11724:	1004943a 	slli	r2,r2,16
   11728:	9cffffcc 	andi	r19,r19,65535
   1172c:	4f07383a 	mul	r3,r9,fp
   11730:	14c8b03a 	or	r4,r2,r19
   11734:	d9800317 	ldw	r6,12(sp)
   11738:	20c0062e 	bgeu	r4,r3,11754 <__divdf3+0x40c>
   1173c:	2409883a 	add	r4,r4,r16
   11740:	48bfffc4 	addi	r2,r9,-1
   11744:	2400c436 	bltu	r4,r16,11a58 <__divdf3+0x710>
   11748:	20c0c32e 	bgeu	r4,r3,11a58 <__divdf3+0x710>
   1174c:	4a7fff84 	addi	r9,r9,-2
   11750:	2409883a 	add	r4,r4,r16
   11754:	8822943a 	slli	r17,r17,16
   11758:	a80ed43a 	srli	r7,r21,16
   1175c:	aa3fffcc 	andi	r8,r21,65535
   11760:	4c62b03a 	or	r17,r9,r17
   11764:	8816d43a 	srli	r11,r17,16
   11768:	897fffcc 	andi	r5,r17,65535
   1176c:	2a15383a 	mul	r10,r5,r8
   11770:	5a19383a 	mul	r12,r11,r8
   11774:	29cb383a 	mul	r5,r5,r7
   11778:	5012d43a 	srli	r9,r10,16
   1177c:	20c5c83a 	sub	r2,r4,r3
   11780:	614b883a 	add	r5,r12,r5
   11784:	2a4b883a 	add	r5,r5,r9
   11788:	59c7383a 	mul	r3,r11,r7
   1178c:	2b00022e 	bgeu	r5,r12,11798 <__divdf3+0x450>
   11790:	01000074 	movhi	r4,1
   11794:	1907883a 	add	r3,r3,r4
   11798:	2808d43a 	srli	r4,r5,16
   1179c:	280a943a 	slli	r5,r5,16
   117a0:	54ffffcc 	andi	r19,r10,65535
   117a4:	1907883a 	add	r3,r3,r4
   117a8:	2ccb883a 	add	r5,r5,r19
   117ac:	10c09336 	bltu	r2,r3,119fc <__divdf3+0x6b4>
   117b0:	10c0ad26 	beq	r2,r3,11a68 <__divdf3+0x720>
   117b4:	10c7c83a 	sub	r3,r2,r3
   117b8:	3167c83a 	sub	r19,r6,r5
   117bc:	34ed803a 	cmpltu	r22,r6,r19
   117c0:	1dadc83a 	sub	r22,r3,r22
   117c4:	b400b226 	beq	r22,r16,11a90 <__divdf3+0x748>
   117c8:	b009883a 	mov	r4,r22
   117cc:	b80b883a 	mov	r5,r23
   117d0:	d9c00115 	stw	r7,4(sp)
   117d4:	da000215 	stw	r8,8(sp)
   117d8:	00084140 	call	8414 <__udivsi3>
   117dc:	b009883a 	mov	r4,r22
   117e0:	b80b883a 	mov	r5,r23
   117e4:	d8800315 	stw	r2,12(sp)
   117e8:	000841c0 	call	841c <__umodsi3>
   117ec:	d9800317 	ldw	r6,12(sp)
   117f0:	1004943a 	slli	r2,r2,16
   117f4:	9808d43a 	srli	r4,r19,16
   117f8:	372d383a 	mul	r22,r6,fp
   117fc:	d9c00117 	ldw	r7,4(sp)
   11800:	1106b03a 	or	r3,r2,r4
   11804:	da000217 	ldw	r8,8(sp)
   11808:	1d80062e 	bgeu	r3,r22,11824 <__divdf3+0x4dc>
   1180c:	1c07883a 	add	r3,r3,r16
   11810:	30bfffc4 	addi	r2,r6,-1
   11814:	1c00a036 	bltu	r3,r16,11a98 <__divdf3+0x750>
   11818:	1d809f2e 	bgeu	r3,r22,11a98 <__divdf3+0x750>
   1181c:	31bfff84 	addi	r6,r6,-2
   11820:	1c07883a 	add	r3,r3,r16
   11824:	1dadc83a 	sub	r22,r3,r22
   11828:	b009883a 	mov	r4,r22
   1182c:	b80b883a 	mov	r5,r23
   11830:	d9800315 	stw	r6,12(sp)
   11834:	d9c00115 	stw	r7,4(sp)
   11838:	da000215 	stw	r8,8(sp)
   1183c:	00084140 	call	8414 <__udivsi3>
   11840:	b009883a 	mov	r4,r22
   11844:	b80b883a 	mov	r5,r23
   11848:	d8800015 	stw	r2,0(sp)
   1184c:	000841c0 	call	841c <__umodsi3>
   11850:	da400017 	ldw	r9,0(sp)
   11854:	1004943a 	slli	r2,r2,16
   11858:	993fffcc 	andi	r4,r19,65535
   1185c:	4f39383a 	mul	fp,r9,fp
   11860:	1106b03a 	or	r3,r2,r4
   11864:	d9800317 	ldw	r6,12(sp)
   11868:	d9c00117 	ldw	r7,4(sp)
   1186c:	da000217 	ldw	r8,8(sp)
   11870:	1f00062e 	bgeu	r3,fp,1188c <__divdf3+0x544>
   11874:	1c07883a 	add	r3,r3,r16
   11878:	48bfffc4 	addi	r2,r9,-1
   1187c:	1c008836 	bltu	r3,r16,11aa0 <__divdf3+0x758>
   11880:	1f00872e 	bgeu	r3,fp,11aa0 <__divdf3+0x758>
   11884:	4a7fff84 	addi	r9,r9,-2
   11888:	1c07883a 	add	r3,r3,r16
   1188c:	3008943a 	slli	r4,r6,16
   11890:	1f07c83a 	sub	r3,r3,fp
   11894:	4926b03a 	or	r19,r9,r4
   11898:	993fffcc 	andi	r4,r19,65535
   1189c:	980cd43a 	srli	r6,r19,16
   118a0:	220b383a 	mul	r5,r4,r8
   118a4:	21c5383a 	mul	r2,r4,r7
   118a8:	3211383a 	mul	r8,r6,r8
   118ac:	2808d43a 	srli	r4,r5,16
   118b0:	31cf383a 	mul	r7,r6,r7
   118b4:	4085883a 	add	r2,r8,r2
   118b8:	1105883a 	add	r2,r2,r4
   118bc:	1200022e 	bgeu	r2,r8,118c8 <__divdf3+0x580>
   118c0:	01000074 	movhi	r4,1
   118c4:	390f883a 	add	r7,r7,r4
   118c8:	1008d43a 	srli	r4,r2,16
   118cc:	1004943a 	slli	r2,r2,16
   118d0:	297fffcc 	andi	r5,r5,65535
   118d4:	390f883a 	add	r7,r7,r4
   118d8:	1145883a 	add	r2,r2,r5
   118dc:	19c06536 	bltu	r3,r7,11a74 <__divdf3+0x72c>
   118e0:	19c09f26 	beq	r3,r7,11b60 <__divdf3+0x818>
   118e4:	9cc00054 	ori	r19,r19,1
   118e8:	a100ffc4 	addi	r4,r20,1023
   118ec:	013f500e 	bge	zero,r4,11630 <__alt_data_end+0xf8011630>
   118f0:	988001cc 	andi	r2,r19,7
   118f4:	10000726 	beq	r2,zero,11914 <__divdf3+0x5cc>
   118f8:	98c003cc 	andi	r3,r19,15
   118fc:	00800104 	movi	r2,4
   11900:	18800426 	beq	r3,r2,11914 <__divdf3+0x5cc>
   11904:	9885883a 	add	r2,r19,r2
   11908:	14e1803a 	cmpltu	r16,r2,r19
   1190c:	8c23883a 	add	r17,r17,r16
   11910:	1027883a 	mov	r19,r2
   11914:	8880402c 	andhi	r2,r17,256
   11918:	10000426 	beq	r2,zero,1192c <__divdf3+0x5e4>
   1191c:	00bfc034 	movhi	r2,65280
   11920:	10bfffc4 	addi	r2,r2,-1
   11924:	a1010004 	addi	r4,r20,1024
   11928:	88a2703a 	and	r17,r17,r2
   1192c:	0081ff84 	movi	r2,2046
   11930:	113edf16 	blt	r2,r4,114b0 <__alt_data_end+0xf80114b0>
   11934:	9826d0fa 	srli	r19,r19,3
   11938:	8804977a 	slli	r2,r17,29
   1193c:	8820927a 	slli	r16,r17,9
   11940:	2101ffcc 	andi	r4,r4,2047
   11944:	14e6b03a 	or	r19,r2,r19
   11948:	800ad33a 	srli	r5,r16,12
   1194c:	9180004c 	andi	r6,r18,1
   11950:	003edb06 	br	114c0 <__alt_data_end+0xf80114c0>
   11954:	008000c4 	movi	r2,3
   11958:	4080a826 	beq	r8,r2,11bfc <__divdf3+0x8b4>
   1195c:	00800044 	movi	r2,1
   11960:	4080551e 	bne	r8,r2,11ab8 <__divdf3+0x770>
   11964:	e00d883a 	mov	r6,fp
   11968:	0009883a 	mov	r4,zero
   1196c:	000b883a 	mov	r5,zero
   11970:	0027883a 	mov	r19,zero
   11974:	003ed206 	br	114c0 <__alt_data_end+0xf80114c0>
   11978:	00800434 	movhi	r2,16
   1197c:	89400234 	orhi	r5,r17,8
   11980:	10bfffc4 	addi	r2,r2,-1
   11984:	b00d883a 	mov	r6,r22
   11988:	288a703a 	and	r5,r5,r2
   1198c:	003f2606 	br	11628 <__alt_data_end+0xf8011628>
   11990:	d9800315 	stw	r6,12(sp)
   11994:	d9c00115 	stw	r7,4(sp)
   11998:	00089f40 	call	89f4 <__clzsi2>
   1199c:	10c00804 	addi	r3,r2,32
   119a0:	010009c4 	movi	r4,39
   119a4:	d9800317 	ldw	r6,12(sp)
   119a8:	d9c00117 	ldw	r7,4(sp)
   119ac:	20fee30e 	bge	r4,r3,1153c <__alt_data_end+0xf801153c>
   119b0:	117ffe04 	addi	r5,r2,-8
   119b4:	9162983a 	sll	r17,r18,r5
   119b8:	0027883a 	mov	r19,zero
   119bc:	003ee606 	br	11558 <__alt_data_end+0xf8011558>
   119c0:	3009883a 	mov	r4,r6
   119c4:	d9800315 	stw	r6,12(sp)
   119c8:	da000215 	stw	r8,8(sp)
   119cc:	da400015 	stw	r9,0(sp)
   119d0:	00089f40 	call	89f4 <__clzsi2>
   119d4:	10c00804 	addi	r3,r2,32
   119d8:	010009c4 	movi	r4,39
   119dc:	d9800317 	ldw	r6,12(sp)
   119e0:	da000217 	ldw	r8,8(sp)
   119e4:	da400017 	ldw	r9,0(sp)
   119e8:	20fef20e 	bge	r4,r3,115b4 <__alt_data_end+0xf80115b4>
   119ec:	10bffe04 	addi	r2,r2,-8
   119f0:	a8a0983a 	sll	r16,r21,r2
   119f4:	002b883a 	mov	r21,zero
   119f8:	003ef506 	br	115d0 <__alt_data_end+0xf80115d0>
   119fc:	354d883a 	add	r6,r6,r21
   11a00:	3549803a 	cmpltu	r4,r6,r21
   11a04:	2409883a 	add	r4,r4,r16
   11a08:	2089883a 	add	r4,r4,r2
   11a0c:	88bfffc4 	addi	r2,r17,-1
   11a10:	81000c2e 	bgeu	r16,r4,11a44 <__divdf3+0x6fc>
   11a14:	20c04436 	bltu	r4,r3,11b28 <__divdf3+0x7e0>
   11a18:	19006f26 	beq	r3,r4,11bd8 <__divdf3+0x890>
   11a1c:	20c7c83a 	sub	r3,r4,r3
   11a20:	1023883a 	mov	r17,r2
   11a24:	003f6406 	br	117b8 <__alt_data_end+0xf80117b8>
   11a28:	9d7f1736 	bltu	r19,r21,11688 <__alt_data_end+0xf8011688>
   11a2c:	9806d07a 	srli	r3,r19,1
   11a30:	880497fa 	slli	r2,r17,31
   11a34:	980c97fa 	slli	r6,r19,31
   11a38:	882cd07a 	srli	r22,r17,1
   11a3c:	18a6b03a 	or	r19,r3,r2
   11a40:	003f1406 	br	11694 <__alt_data_end+0xf8011694>
   11a44:	243ff51e 	bne	r4,r16,11a1c <__alt_data_end+0xf8011a1c>
   11a48:	357ff22e 	bgeu	r6,r21,11a14 <__alt_data_end+0xf8011a14>
   11a4c:	80c7c83a 	sub	r3,r16,r3
   11a50:	1023883a 	mov	r17,r2
   11a54:	003f5806 	br	117b8 <__alt_data_end+0xf80117b8>
   11a58:	1013883a 	mov	r9,r2
   11a5c:	003f3d06 	br	11754 <__alt_data_end+0xf8011754>
   11a60:	1023883a 	mov	r17,r2
   11a64:	003f2506 	br	116fc <__alt_data_end+0xf80116fc>
   11a68:	317fe436 	bltu	r6,r5,119fc <__alt_data_end+0xf80119fc>
   11a6c:	0007883a 	mov	r3,zero
   11a70:	003f5106 	br	117b8 <__alt_data_end+0xf80117b8>
   11a74:	1c07883a 	add	r3,r3,r16
   11a78:	993fffc4 	addi	r4,r19,-1
   11a7c:	1c000a2e 	bgeu	r3,r16,11aa8 <__divdf3+0x760>
   11a80:	2027883a 	mov	r19,r4
   11a84:	19ff971e 	bne	r3,r7,118e4 <__alt_data_end+0xf80118e4>
   11a88:	a8bf961e 	bne	r21,r2,118e4 <__alt_data_end+0xf80118e4>
   11a8c:	003f9606 	br	118e8 <__alt_data_end+0xf80118e8>
   11a90:	04ffffc4 	movi	r19,-1
   11a94:	003f9406 	br	118e8 <__alt_data_end+0xf80118e8>
   11a98:	100d883a 	mov	r6,r2
   11a9c:	003f6106 	br	11824 <__alt_data_end+0xf8011824>
   11aa0:	1013883a 	mov	r9,r2
   11aa4:	003f7906 	br	1188c <__alt_data_end+0xf801188c>
   11aa8:	19c02636 	bltu	r3,r7,11b44 <__divdf3+0x7fc>
   11aac:	38c04d26 	beq	r7,r3,11be4 <__divdf3+0x89c>
   11ab0:	2027883a 	mov	r19,r4
   11ab4:	003f8b06 	br	118e4 <__alt_data_end+0xf80118e4>
   11ab8:	e025883a 	mov	r18,fp
   11abc:	003f8a06 	br	118e8 <__alt_data_end+0xf80118e8>
   11ac0:	008007c4 	movi	r2,31
   11ac4:	14002a16 	blt	r2,r16,11b70 <__divdf3+0x828>
   11ac8:	a5010784 	addi	r20,r20,1054
   11acc:	8d04983a 	sll	r2,r17,r20
   11ad0:	9c06d83a 	srl	r3,r19,r16
   11ad4:	9d28983a 	sll	r20,r19,r20
   11ad8:	8c20d83a 	srl	r16,r17,r16
   11adc:	1886b03a 	or	r3,r3,r2
   11ae0:	a004c03a 	cmpne	r2,r20,zero
   11ae4:	1884b03a 	or	r2,r3,r2
   11ae8:	10c001cc 	andi	r3,r2,7
   11aec:	18000726 	beq	r3,zero,11b0c <__divdf3+0x7c4>
   11af0:	110003cc 	andi	r4,r2,15
   11af4:	00c00104 	movi	r3,4
   11af8:	20c00426 	beq	r4,r3,11b0c <__divdf3+0x7c4>
   11afc:	10c00104 	addi	r3,r2,4
   11b00:	1885803a 	cmpltu	r2,r3,r2
   11b04:	80a1883a 	add	r16,r16,r2
   11b08:	1805883a 	mov	r2,r3
   11b0c:	80c0202c 	andhi	r3,r16,128
   11b10:	18002d26 	beq	r3,zero,11bc8 <__divdf3+0x880>
   11b14:	9180004c 	andi	r6,r18,1
   11b18:	01000044 	movi	r4,1
   11b1c:	000b883a 	mov	r5,zero
   11b20:	0027883a 	mov	r19,zero
   11b24:	003e6606 	br	114c0 <__alt_data_end+0xf80114c0>
   11b28:	354d883a 	add	r6,r6,r21
   11b2c:	356d803a 	cmpltu	r22,r6,r21
   11b30:	b42d883a 	add	r22,r22,r16
   11b34:	b12d883a 	add	r22,r22,r4
   11b38:	8c7fff84 	addi	r17,r17,-2
   11b3c:	b0c7c83a 	sub	r3,r22,r3
   11b40:	003f1d06 	br	117b8 <__alt_data_end+0xf80117b8>
   11b44:	ad4b883a 	add	r5,r21,r21
   11b48:	2d6b803a 	cmpltu	r21,r5,r21
   11b4c:	ac2b883a 	add	r21,r21,r16
   11b50:	1d47883a 	add	r3,r3,r21
   11b54:	993fff84 	addi	r4,r19,-2
   11b58:	282b883a 	mov	r21,r5
   11b5c:	003fc806 	br	11a80 <__alt_data_end+0xf8011a80>
   11b60:	103fc41e 	bne	r2,zero,11a74 <__alt_data_end+0xf8011a74>
   11b64:	002b883a 	mov	r21,zero
   11b68:	a8bf5e1e 	bne	r21,r2,118e4 <__alt_data_end+0xf80118e4>
   11b6c:	003f5e06 	br	118e8 <__alt_data_end+0xf80118e8>
   11b70:	00bef884 	movi	r2,-1054
   11b74:	1505c83a 	sub	r2,r2,r20
   11b78:	00c00804 	movi	r3,32
   11b7c:	8884d83a 	srl	r2,r17,r2
   11b80:	80c01c26 	beq	r16,r3,11bf4 <__divdf3+0x8ac>
   11b84:	a0c10f84 	addi	r3,r20,1086
   11b88:	88c6983a 	sll	r3,r17,r3
   11b8c:	1cc6b03a 	or	r3,r3,r19
   11b90:	1806c03a 	cmpne	r3,r3,zero
   11b94:	1884b03a 	or	r2,r3,r2
   11b98:	140001cc 	andi	r16,r2,7
   11b9c:	8000061e 	bne	r16,zero,11bb8 <__divdf3+0x870>
   11ba0:	000b883a 	mov	r5,zero
   11ba4:	1004d0fa 	srli	r2,r2,3
   11ba8:	9180004c 	andi	r6,r18,1
   11bac:	0009883a 	mov	r4,zero
   11bb0:	1426b03a 	or	r19,r2,r16
   11bb4:	003e4206 	br	114c0 <__alt_data_end+0xf80114c0>
   11bb8:	110003cc 	andi	r4,r2,15
   11bbc:	00c00104 	movi	r3,4
   11bc0:	0021883a 	mov	r16,zero
   11bc4:	20ffcd1e 	bne	r4,r3,11afc <__alt_data_end+0xf8011afc>
   11bc8:	800a927a 	slli	r5,r16,9
   11bcc:	8020977a 	slli	r16,r16,29
   11bd0:	280ad33a 	srli	r5,r5,12
   11bd4:	003ff306 	br	11ba4 <__alt_data_end+0xf8011ba4>
   11bd8:	317fd336 	bltu	r6,r5,11b28 <__alt_data_end+0xf8011b28>
   11bdc:	1023883a 	mov	r17,r2
   11be0:	003fa206 	br	11a6c <__alt_data_end+0xf8011a6c>
   11be4:	a8bfd736 	bltu	r21,r2,11b44 <__alt_data_end+0xf8011b44>
   11be8:	2027883a 	mov	r19,r4
   11bec:	a8bf3d1e 	bne	r21,r2,118e4 <__alt_data_end+0xf80118e4>
   11bf0:	003f3d06 	br	118e8 <__alt_data_end+0xf80118e8>
   11bf4:	0007883a 	mov	r3,zero
   11bf8:	003fe406 	br	11b8c <__alt_data_end+0xf8011b8c>
   11bfc:	00800434 	movhi	r2,16
   11c00:	89400234 	orhi	r5,r17,8
   11c04:	10bfffc4 	addi	r2,r2,-1
   11c08:	e00d883a 	mov	r6,fp
   11c0c:	288a703a 	and	r5,r5,r2
   11c10:	003e8506 	br	11628 <__alt_data_end+0xf8011628>

00011c14 <__eqdf2>:
   11c14:	2804d53a 	srli	r2,r5,20
   11c18:	3806d53a 	srli	r3,r7,20
   11c1c:	02000434 	movhi	r8,16
   11c20:	423fffc4 	addi	r8,r8,-1
   11c24:	1081ffcc 	andi	r2,r2,2047
   11c28:	0241ffc4 	movi	r9,2047
   11c2c:	2a14703a 	and	r10,r5,r8
   11c30:	18c1ffcc 	andi	r3,r3,2047
   11c34:	3a10703a 	and	r8,r7,r8
   11c38:	280ad7fa 	srli	r5,r5,31
   11c3c:	380ed7fa 	srli	r7,r7,31
   11c40:	12400f26 	beq	r2,r9,11c80 <__eqdf2+0x6c>
   11c44:	0241ffc4 	movi	r9,2047
   11c48:	1a400326 	beq	r3,r9,11c58 <__eqdf2+0x44>
   11c4c:	10c00526 	beq	r2,r3,11c64 <__eqdf2+0x50>
   11c50:	00800044 	movi	r2,1
   11c54:	f800283a 	ret
   11c58:	4192b03a 	or	r9,r8,r6
   11c5c:	483ffc1e 	bne	r9,zero,11c50 <__alt_data_end+0xf8011c50>
   11c60:	10fffb1e 	bne	r2,r3,11c50 <__alt_data_end+0xf8011c50>
   11c64:	523ffa1e 	bne	r10,r8,11c50 <__alt_data_end+0xf8011c50>
   11c68:	21bff91e 	bne	r4,r6,11c50 <__alt_data_end+0xf8011c50>
   11c6c:	29c00826 	beq	r5,r7,11c90 <__eqdf2+0x7c>
   11c70:	103ff71e 	bne	r2,zero,11c50 <__alt_data_end+0xf8011c50>
   11c74:	5104b03a 	or	r2,r10,r4
   11c78:	1004c03a 	cmpne	r2,r2,zero
   11c7c:	f800283a 	ret
   11c80:	5112b03a 	or	r9,r10,r4
   11c84:	483fef26 	beq	r9,zero,11c44 <__alt_data_end+0xf8011c44>
   11c88:	00800044 	movi	r2,1
   11c8c:	f800283a 	ret
   11c90:	0005883a 	mov	r2,zero
   11c94:	f800283a 	ret

00011c98 <__gedf2>:
   11c98:	2804d53a 	srli	r2,r5,20
   11c9c:	3806d53a 	srli	r3,r7,20
   11ca0:	02000434 	movhi	r8,16
   11ca4:	423fffc4 	addi	r8,r8,-1
   11ca8:	0241ffc4 	movi	r9,2047
   11cac:	1081ffcc 	andi	r2,r2,2047
   11cb0:	2a14703a 	and	r10,r5,r8
   11cb4:	1a46703a 	and	r3,r3,r9
   11cb8:	3a10703a 	and	r8,r7,r8
   11cbc:	280ad7fa 	srli	r5,r5,31
   11cc0:	380ed7fa 	srli	r7,r7,31
   11cc4:	12400b26 	beq	r2,r9,11cf4 <__gedf2+0x5c>
   11cc8:	1a401626 	beq	r3,r9,11d24 <__gedf2+0x8c>
   11ccc:	10000c1e 	bne	r2,zero,11d00 <__gedf2+0x68>
   11cd0:	5112b03a 	or	r9,r10,r4
   11cd4:	4813003a 	cmpeq	r9,r9,zero
   11cd8:	4817883a 	mov	r11,r9
   11cdc:	18000c1e 	bne	r3,zero,11d10 <__gedf2+0x78>
   11ce0:	4198b03a 	or	r12,r8,r6
   11ce4:	60000a1e 	bne	r12,zero,11d10 <__gedf2+0x78>
   11ce8:	48001326 	beq	r9,zero,11d38 <__gedf2+0xa0>
   11cec:	0005883a 	mov	r2,zero
   11cf0:	f800283a 	ret
   11cf4:	5112b03a 	or	r9,r10,r4
   11cf8:	4800191e 	bne	r9,zero,11d60 <__gedf2+0xc8>
   11cfc:	18800926 	beq	r3,r2,11d24 <__gedf2+0x8c>
   11d00:	18000b1e 	bne	r3,zero,11d30 <__gedf2+0x98>
   11d04:	4192b03a 	or	r9,r8,r6
   11d08:	0017883a 	mov	r11,zero
   11d0c:	48000a26 	beq	r9,zero,11d38 <__gedf2+0xa0>
   11d10:	39c03fcc 	andi	r7,r7,255
   11d14:	58000726 	beq	r11,zero,11d34 <__gedf2+0x9c>
   11d18:	3800081e 	bne	r7,zero,11d3c <__gedf2+0xa4>
   11d1c:	00bfffc4 	movi	r2,-1
   11d20:	f800283a 	ret
   11d24:	4192b03a 	or	r9,r8,r6
   11d28:	48000d1e 	bne	r9,zero,11d60 <__gedf2+0xc8>
   11d2c:	103fe826 	beq	r2,zero,11cd0 <__alt_data_end+0xf8011cd0>
   11d30:	39c03fcc 	andi	r7,r7,255
   11d34:	29c00326 	beq	r5,r7,11d44 <__gedf2+0xac>
   11d38:	283ff81e 	bne	r5,zero,11d1c <__alt_data_end+0xf8011d1c>
   11d3c:	00800044 	movi	r2,1
   11d40:	f800283a 	ret
   11d44:	18bffc16 	blt	r3,r2,11d38 <__alt_data_end+0xf8011d38>
   11d48:	10c00316 	blt	r2,r3,11d58 <__gedf2+0xc0>
   11d4c:	42bffa36 	bltu	r8,r10,11d38 <__alt_data_end+0xf8011d38>
   11d50:	52000526 	beq	r10,r8,11d68 <__gedf2+0xd0>
   11d54:	523fe52e 	bgeu	r10,r8,11cec <__alt_data_end+0xf8011cec>
   11d58:	283ff026 	beq	r5,zero,11d1c <__alt_data_end+0xf8011d1c>
   11d5c:	003ff706 	br	11d3c <__alt_data_end+0xf8011d3c>
   11d60:	00bfff84 	movi	r2,-2
   11d64:	f800283a 	ret
   11d68:	313ff336 	bltu	r6,r4,11d38 <__alt_data_end+0xf8011d38>
   11d6c:	21bfdf2e 	bgeu	r4,r6,11cec <__alt_data_end+0xf8011cec>
   11d70:	283fea26 	beq	r5,zero,11d1c <__alt_data_end+0xf8011d1c>
   11d74:	003ff106 	br	11d3c <__alt_data_end+0xf8011d3c>

00011d78 <__ledf2>:
   11d78:	2804d53a 	srli	r2,r5,20
   11d7c:	3810d53a 	srli	r8,r7,20
   11d80:	00c00434 	movhi	r3,16
   11d84:	18ffffc4 	addi	r3,r3,-1
   11d88:	0241ffc4 	movi	r9,2047
   11d8c:	1081ffcc 	andi	r2,r2,2047
   11d90:	28d4703a 	and	r10,r5,r3
   11d94:	4250703a 	and	r8,r8,r9
   11d98:	38c6703a 	and	r3,r7,r3
   11d9c:	280ad7fa 	srli	r5,r5,31
   11da0:	380ed7fa 	srli	r7,r7,31
   11da4:	12400b26 	beq	r2,r9,11dd4 <__ledf2+0x5c>
   11da8:	42401926 	beq	r8,r9,11e10 <__ledf2+0x98>
   11dac:	10000c1e 	bne	r2,zero,11de0 <__ledf2+0x68>
   11db0:	5112b03a 	or	r9,r10,r4
   11db4:	4813003a 	cmpeq	r9,r9,zero
   11db8:	4817883a 	mov	r11,r9
   11dbc:	40000f26 	beq	r8,zero,11dfc <__ledf2+0x84>
   11dc0:	39c03fcc 	andi	r7,r7,255
   11dc4:	58001826 	beq	r11,zero,11e28 <__ledf2+0xb0>
   11dc8:	38000a1e 	bne	r7,zero,11df4 <__ledf2+0x7c>
   11dcc:	00bfffc4 	movi	r2,-1
   11dd0:	f800283a 	ret
   11dd4:	5112b03a 	or	r9,r10,r4
   11dd8:	48000f1e 	bne	r9,zero,11e18 <__ledf2+0xa0>
   11ddc:	40800c26 	beq	r8,r2,11e10 <__ledf2+0x98>
   11de0:	4000101e 	bne	r8,zero,11e24 <__ledf2+0xac>
   11de4:	1992b03a 	or	r9,r3,r6
   11de8:	0017883a 	mov	r11,zero
   11dec:	483ff41e 	bne	r9,zero,11dc0 <__alt_data_end+0xf8011dc0>
   11df0:	283ff61e 	bne	r5,zero,11dcc <__alt_data_end+0xf8011dcc>
   11df4:	00800044 	movi	r2,1
   11df8:	f800283a 	ret
   11dfc:	1998b03a 	or	r12,r3,r6
   11e00:	603fef1e 	bne	r12,zero,11dc0 <__alt_data_end+0xf8011dc0>
   11e04:	483ffa26 	beq	r9,zero,11df0 <__alt_data_end+0xf8011df0>
   11e08:	0005883a 	mov	r2,zero
   11e0c:	f800283a 	ret
   11e10:	1992b03a 	or	r9,r3,r6
   11e14:	48000226 	beq	r9,zero,11e20 <__ledf2+0xa8>
   11e18:	00800084 	movi	r2,2
   11e1c:	f800283a 	ret
   11e20:	103fe326 	beq	r2,zero,11db0 <__alt_data_end+0xf8011db0>
   11e24:	39c03fcc 	andi	r7,r7,255
   11e28:	29fff11e 	bne	r5,r7,11df0 <__alt_data_end+0xf8011df0>
   11e2c:	40bff016 	blt	r8,r2,11df0 <__alt_data_end+0xf8011df0>
   11e30:	12000316 	blt	r2,r8,11e40 <__ledf2+0xc8>
   11e34:	1abfee36 	bltu	r3,r10,11df0 <__alt_data_end+0xf8011df0>
   11e38:	50c00326 	beq	r10,r3,11e48 <__ledf2+0xd0>
   11e3c:	50fff22e 	bgeu	r10,r3,11e08 <__alt_data_end+0xf8011e08>
   11e40:	283fe226 	beq	r5,zero,11dcc <__alt_data_end+0xf8011dcc>
   11e44:	003feb06 	br	11df4 <__alt_data_end+0xf8011df4>
   11e48:	313fe936 	bltu	r6,r4,11df0 <__alt_data_end+0xf8011df0>
   11e4c:	21bfee2e 	bgeu	r4,r6,11e08 <__alt_data_end+0xf8011e08>
   11e50:	283fde26 	beq	r5,zero,11dcc <__alt_data_end+0xf8011dcc>
   11e54:	003fe706 	br	11df4 <__alt_data_end+0xf8011df4>

00011e58 <__muldf3>:
   11e58:	defff204 	addi	sp,sp,-56
   11e5c:	2804d53a 	srli	r2,r5,20
   11e60:	dd800a15 	stw	r22,40(sp)
   11e64:	282cd7fa 	srli	r22,r5,31
   11e68:	dc000415 	stw	r16,16(sp)
   11e6c:	04000434 	movhi	r16,16
   11e70:	df000c15 	stw	fp,48(sp)
   11e74:	dd000815 	stw	r20,32(sp)
   11e78:	dcc00715 	stw	r19,28(sp)
   11e7c:	dc800615 	stw	r18,24(sp)
   11e80:	dc400515 	stw	r17,20(sp)
   11e84:	843fffc4 	addi	r16,r16,-1
   11e88:	dfc00d15 	stw	ra,52(sp)
   11e8c:	ddc00b15 	stw	r23,44(sp)
   11e90:	dd400915 	stw	r21,36(sp)
   11e94:	1501ffcc 	andi	r20,r2,2047
   11e98:	2023883a 	mov	r17,r4
   11e9c:	2025883a 	mov	r18,r4
   11ea0:	2c20703a 	and	r16,r5,r16
   11ea4:	b027883a 	mov	r19,r22
   11ea8:	b7003fcc 	andi	fp,r22,255
   11eac:	a0005926 	beq	r20,zero,12014 <__muldf3+0x1bc>
   11eb0:	0081ffc4 	movi	r2,2047
   11eb4:	a0803426 	beq	r20,r2,11f88 <__muldf3+0x130>
   11eb8:	84000434 	orhi	r16,r16,16
   11ebc:	2004d77a 	srli	r2,r4,29
   11ec0:	802090fa 	slli	r16,r16,3
   11ec4:	202490fa 	slli	r18,r4,3
   11ec8:	a53f0044 	addi	r20,r20,-1023
   11ecc:	80a0b03a 	or	r16,r16,r2
   11ed0:	002b883a 	mov	r21,zero
   11ed4:	0015883a 	mov	r10,zero
   11ed8:	3812d53a 	srli	r9,r7,20
   11edc:	3806d7fa 	srli	r3,r7,31
   11ee0:	02000434 	movhi	r8,16
   11ee4:	423fffc4 	addi	r8,r8,-1
   11ee8:	4941ffcc 	andi	r5,r9,2047
   11eec:	302f883a 	mov	r23,r6
   11ef0:	3a22703a 	and	r17,r7,r8
   11ef4:	1ac03fcc 	andi	r11,r3,255
   11ef8:	28006226 	beq	r5,zero,12084 <__muldf3+0x22c>
   11efc:	0081ffc4 	movi	r2,2047
   11f00:	28805a26 	beq	r5,r2,1206c <__muldf3+0x214>
   11f04:	8a000434 	orhi	r8,r17,16
   11f08:	3004d77a 	srli	r2,r6,29
   11f0c:	401090fa 	slli	r8,r8,3
   11f10:	302e90fa 	slli	r23,r6,3
   11f14:	297f0044 	addi	r5,r5,-1023
   11f18:	40a2b03a 	or	r17,r8,r2
   11f1c:	0013883a 	mov	r9,zero
   11f20:	4d4cb03a 	or	r6,r9,r21
   11f24:	300c90ba 	slli	r6,r6,2
   11f28:	02000074 	movhi	r8,1
   11f2c:	4207d204 	addi	r8,r8,8008
   11f30:	320d883a 	add	r6,r6,r8
   11f34:	31800017 	ldw	r6,0(r6)
   11f38:	a14b883a 	add	r5,r20,r5
   11f3c:	1dacf03a 	xor	r22,r3,r22
   11f40:	2b000044 	addi	r12,r5,1
   11f44:	3000683a 	jmp	r6
   11f48:	00012184 	movi	zero,1158
   11f4c:	00012170 	cmpltui	zero,zero,1157
   11f50:	00012170 	cmpltui	zero,zero,1157
   11f54:	0001215c 	xori	zero,zero,1157
   11f58:	00011fa4 	muli	zero,zero,1150
   11f5c:	00011fa4 	muli	zero,zero,1150
   11f60:	00012144 	movi	zero,1157
   11f64:	0001215c 	xori	zero,zero,1157
   11f68:	00011fa4 	muli	zero,zero,1150
   11f6c:	00012144 	movi	zero,1157
   11f70:	00011fa4 	muli	zero,zero,1150
   11f74:	0001215c 	xori	zero,zero,1157
   11f78:	00011fa8 	cmpgeui	zero,zero,1150
   11f7c:	00011fa8 	cmpgeui	zero,zero,1150
   11f80:	00011fa8 	cmpgeui	zero,zero,1150
   11f84:	00012380 	call	1238 <setDefaultScrollBarY+0x414>
   11f88:	8104b03a 	or	r2,r16,r4
   11f8c:	10006a1e 	bne	r2,zero,12138 <__muldf3+0x2e0>
   11f90:	05400204 	movi	r21,8
   11f94:	0021883a 	mov	r16,zero
   11f98:	0025883a 	mov	r18,zero
   11f9c:	02800084 	movi	r10,2
   11fa0:	003fcd06 	br	11ed8 <__alt_data_end+0xf8011ed8>
   11fa4:	b039883a 	mov	fp,r22
   11fa8:	00800084 	movi	r2,2
   11fac:	50804e1e 	bne	r10,r2,120e8 <__muldf3+0x290>
   11fb0:	e4c0004c 	andi	r19,fp,1
   11fb4:	0101ffc4 	movi	r4,2047
   11fb8:	0021883a 	mov	r16,zero
   11fbc:	0025883a 	mov	r18,zero
   11fc0:	2008953a 	slli	r4,r4,20
   11fc4:	98c03fcc 	andi	r3,r19,255
   11fc8:	01400434 	movhi	r5,16
   11fcc:	297fffc4 	addi	r5,r5,-1
   11fd0:	180697fa 	slli	r3,r3,31
   11fd4:	8160703a 	and	r16,r16,r5
   11fd8:	8120b03a 	or	r16,r16,r4
   11fdc:	80c6b03a 	or	r3,r16,r3
   11fe0:	9005883a 	mov	r2,r18
   11fe4:	dfc00d17 	ldw	ra,52(sp)
   11fe8:	df000c17 	ldw	fp,48(sp)
   11fec:	ddc00b17 	ldw	r23,44(sp)
   11ff0:	dd800a17 	ldw	r22,40(sp)
   11ff4:	dd400917 	ldw	r21,36(sp)
   11ff8:	dd000817 	ldw	r20,32(sp)
   11ffc:	dcc00717 	ldw	r19,28(sp)
   12000:	dc800617 	ldw	r18,24(sp)
   12004:	dc400517 	ldw	r17,20(sp)
   12008:	dc000417 	ldw	r16,16(sp)
   1200c:	dec00e04 	addi	sp,sp,56
   12010:	f800283a 	ret
   12014:	8104b03a 	or	r2,r16,r4
   12018:	10004226 	beq	r2,zero,12124 <__muldf3+0x2cc>
   1201c:	8000f926 	beq	r16,zero,12404 <__muldf3+0x5ac>
   12020:	8009883a 	mov	r4,r16
   12024:	d9800315 	stw	r6,12(sp)
   12028:	d9c00015 	stw	r7,0(sp)
   1202c:	00089f40 	call	89f4 <__clzsi2>
   12030:	d9800317 	ldw	r6,12(sp)
   12034:	d9c00017 	ldw	r7,0(sp)
   12038:	1007883a 	mov	r3,r2
   1203c:	01000a04 	movi	r4,40
   12040:	18bffe04 	addi	r2,r3,-8
   12044:	20c9c83a 	sub	r4,r4,r3
   12048:	80a0983a 	sll	r16,r16,r2
   1204c:	8908d83a 	srl	r4,r17,r4
   12050:	88a4983a 	sll	r18,r17,r2
   12054:	2420b03a 	or	r16,r4,r16
   12058:	017f0344 	movi	r5,-1011
   1205c:	28e9c83a 	sub	r20,r5,r3
   12060:	002b883a 	mov	r21,zero
   12064:	0015883a 	mov	r10,zero
   12068:	003f9b06 	br	11ed8 <__alt_data_end+0xf8011ed8>
   1206c:	8984b03a 	or	r2,r17,r6
   12070:	10002a1e 	bne	r2,zero,1211c <__muldf3+0x2c4>
   12074:	0023883a 	mov	r17,zero
   12078:	002f883a 	mov	r23,zero
   1207c:	02400084 	movi	r9,2
   12080:	003fa706 	br	11f20 <__alt_data_end+0xf8011f20>
   12084:	8984b03a 	or	r2,r17,r6
   12088:	10002026 	beq	r2,zero,1210c <__muldf3+0x2b4>
   1208c:	8800cc26 	beq	r17,zero,123c0 <__muldf3+0x568>
   12090:	8809883a 	mov	r4,r17
   12094:	d8c00215 	stw	r3,8(sp)
   12098:	d9800315 	stw	r6,12(sp)
   1209c:	da800015 	stw	r10,0(sp)
   120a0:	dac00115 	stw	r11,4(sp)
   120a4:	00089f40 	call	89f4 <__clzsi2>
   120a8:	d8c00217 	ldw	r3,8(sp)
   120ac:	d9800317 	ldw	r6,12(sp)
   120b0:	da800017 	ldw	r10,0(sp)
   120b4:	dac00117 	ldw	r11,4(sp)
   120b8:	1009883a 	mov	r4,r2
   120bc:	01400a04 	movi	r5,40
   120c0:	25fffe04 	addi	r23,r4,-8
   120c4:	290bc83a 	sub	r5,r5,r4
   120c8:	8dd0983a 	sll	r8,r17,r23
   120cc:	314ad83a 	srl	r5,r6,r5
   120d0:	35ee983a 	sll	r23,r6,r23
   120d4:	2a22b03a 	or	r17,r5,r8
   120d8:	017f0344 	movi	r5,-1011
   120dc:	290bc83a 	sub	r5,r5,r4
   120e0:	0013883a 	mov	r9,zero
   120e4:	003f8e06 	br	11f20 <__alt_data_end+0xf8011f20>
   120e8:	008000c4 	movi	r2,3
   120ec:	50811d26 	beq	r10,r2,12564 <__muldf3+0x70c>
   120f0:	00800044 	movi	r2,1
   120f4:	5080e01e 	bne	r10,r2,12478 <__muldf3+0x620>
   120f8:	e0a6703a 	and	r19,fp,r2
   120fc:	0009883a 	mov	r4,zero
   12100:	0021883a 	mov	r16,zero
   12104:	0025883a 	mov	r18,zero
   12108:	003fad06 	br	11fc0 <__alt_data_end+0xf8011fc0>
   1210c:	0023883a 	mov	r17,zero
   12110:	002f883a 	mov	r23,zero
   12114:	02400044 	movi	r9,1
   12118:	003f8106 	br	11f20 <__alt_data_end+0xf8011f20>
   1211c:	024000c4 	movi	r9,3
   12120:	003f7f06 	br	11f20 <__alt_data_end+0xf8011f20>
   12124:	05400104 	movi	r21,4
   12128:	0021883a 	mov	r16,zero
   1212c:	0025883a 	mov	r18,zero
   12130:	02800044 	movi	r10,1
   12134:	003f6806 	br	11ed8 <__alt_data_end+0xf8011ed8>
   12138:	05400304 	movi	r21,12
   1213c:	028000c4 	movi	r10,3
   12140:	003f6506 	br	11ed8 <__alt_data_end+0xf8011ed8>
   12144:	04000434 	movhi	r16,16
   12148:	0027883a 	mov	r19,zero
   1214c:	843fffc4 	addi	r16,r16,-1
   12150:	04bfffc4 	movi	r18,-1
   12154:	0101ffc4 	movi	r4,2047
   12158:	003f9906 	br	11fc0 <__alt_data_end+0xf8011fc0>
   1215c:	8821883a 	mov	r16,r17
   12160:	b825883a 	mov	r18,r23
   12164:	5839883a 	mov	fp,r11
   12168:	4815883a 	mov	r10,r9
   1216c:	003f8e06 	br	11fa8 <__alt_data_end+0xf8011fa8>
   12170:	8821883a 	mov	r16,r17
   12174:	b825883a 	mov	r18,r23
   12178:	b039883a 	mov	fp,r22
   1217c:	4815883a 	mov	r10,r9
   12180:	003f8906 	br	11fa8 <__alt_data_end+0xf8011fa8>
   12184:	b80cd43a 	srli	r6,r23,16
   12188:	9006d43a 	srli	r3,r18,16
   1218c:	90bfffcc 	andi	r2,r18,65535
   12190:	bdffffcc 	andi	r23,r23,65535
   12194:	b891383a 	mul	r8,r23,r2
   12198:	b8c9383a 	mul	r4,r23,r3
   1219c:	309b383a 	mul	r13,r6,r2
   121a0:	400ed43a 	srli	r7,r8,16
   121a4:	30df383a 	mul	r15,r6,r3
   121a8:	235b883a 	add	r13,r4,r13
   121ac:	69db883a 	add	r13,r13,r7
   121b0:	6900022e 	bgeu	r13,r4,121bc <__muldf3+0x364>
   121b4:	01000074 	movhi	r4,1
   121b8:	791f883a 	add	r15,r15,r4
   121bc:	8828d43a 	srli	r20,r17,16
   121c0:	8c7fffcc 	andi	r17,r17,65535
   121c4:	888f383a 	mul	r7,r17,r2
   121c8:	88d3383a 	mul	r9,r17,r3
   121cc:	a0a5383a 	mul	r18,r20,r2
   121d0:	3816d43a 	srli	r11,r7,16
   121d4:	6814943a 	slli	r10,r13,16
   121d8:	4ca5883a 	add	r18,r9,r18
   121dc:	423fffcc 	andi	r8,r8,65535
   121e0:	92e5883a 	add	r18,r18,r11
   121e4:	6808d43a 	srli	r4,r13,16
   121e8:	5215883a 	add	r10,r10,r8
   121ec:	a0c7383a 	mul	r3,r20,r3
   121f0:	9240022e 	bgeu	r18,r9,121fc <__muldf3+0x3a4>
   121f4:	00800074 	movhi	r2,1
   121f8:	1887883a 	add	r3,r3,r2
   121fc:	802ad43a 	srli	r21,r16,16
   12200:	80bfffcc 	andi	r2,r16,65535
   12204:	b893383a 	mul	r9,r23,r2
   12208:	3091383a 	mul	r8,r6,r2
   1220c:	bd6f383a 	mul	r23,r23,r21
   12210:	9026943a 	slli	r19,r18,16
   12214:	481ad43a 	srli	r13,r9,16
   12218:	9024d43a 	srli	r18,r18,16
   1221c:	39ffffcc 	andi	r7,r7,65535
   12220:	ba11883a 	add	r8,r23,r8
   12224:	99e7883a 	add	r19,r19,r7
   12228:	4351883a 	add	r8,r8,r13
   1222c:	1c97883a 	add	r11,r3,r18
   12230:	354d383a 	mul	r6,r6,r21
   12234:	9925883a 	add	r18,r19,r4
   12238:	45c0022e 	bgeu	r8,r23,12244 <__muldf3+0x3ec>
   1223c:	00c00074 	movhi	r3,1
   12240:	30cd883a 	add	r6,r6,r3
   12244:	8889383a 	mul	r4,r17,r2
   12248:	8d63383a 	mul	r17,r17,r21
   1224c:	a085383a 	mul	r2,r20,r2
   12250:	200ed43a 	srli	r7,r4,16
   12254:	401cd43a 	srli	r14,r8,16
   12258:	401a943a 	slli	r13,r8,16
   1225c:	8885883a 	add	r2,r17,r2
   12260:	4a3fffcc 	andi	r8,r9,65535
   12264:	11c5883a 	add	r2,r2,r7
   12268:	339d883a 	add	r14,r6,r14
   1226c:	6a11883a 	add	r8,r13,r8
   12270:	a561383a 	mul	r16,r20,r21
   12274:	1440022e 	bgeu	r2,r17,12280 <__muldf3+0x428>
   12278:	00c00074 	movhi	r3,1
   1227c:	80e1883a 	add	r16,r16,r3
   12280:	1006943a 	slli	r3,r2,16
   12284:	213fffcc 	andi	r4,r4,65535
   12288:	93db883a 	add	r13,r18,r15
   1228c:	1909883a 	add	r4,r3,r4
   12290:	22c7883a 	add	r3,r4,r11
   12294:	6cd3803a 	cmpltu	r9,r13,r19
   12298:	6a09883a 	add	r4,r13,r8
   1229c:	1a5b883a 	add	r13,r3,r9
   122a0:	2211803a 	cmpltu	r8,r4,r8
   122a4:	734d883a 	add	r6,r14,r13
   122a8:	100ed43a 	srli	r7,r2,16
   122ac:	6a53803a 	cmpltu	r9,r13,r9
   122b0:	3205883a 	add	r2,r6,r8
   122b4:	1ac7803a 	cmpltu	r3,r3,r11
   122b8:	1211803a 	cmpltu	r8,r2,r8
   122bc:	48c6b03a 	or	r3,r9,r3
   122c0:	338d803a 	cmpltu	r6,r6,r14
   122c4:	19c7883a 	add	r3,r3,r7
   122c8:	418cb03a 	or	r6,r8,r6
   122cc:	1987883a 	add	r3,r3,r6
   122d0:	2024927a 	slli	r18,r4,9
   122d4:	1c07883a 	add	r3,r3,r16
   122d8:	1806927a 	slli	r3,r3,9
   122dc:	1020d5fa 	srli	r16,r2,23
   122e0:	2008d5fa 	srli	r4,r4,23
   122e4:	9294b03a 	or	r10,r18,r10
   122e8:	1004927a 	slli	r2,r2,9
   122ec:	5024c03a 	cmpne	r18,r10,zero
   122f0:	1c20b03a 	or	r16,r3,r16
   122f4:	9108b03a 	or	r4,r18,r4
   122f8:	80c0402c 	andhi	r3,r16,256
   122fc:	20a4b03a 	or	r18,r4,r2
   12300:	18000726 	beq	r3,zero,12320 <__muldf3+0x4c8>
   12304:	9006d07a 	srli	r3,r18,1
   12308:	800897fa 	slli	r4,r16,31
   1230c:	9080004c 	andi	r2,r18,1
   12310:	8020d07a 	srli	r16,r16,1
   12314:	10c4b03a 	or	r2,r2,r3
   12318:	1124b03a 	or	r18,r2,r4
   1231c:	600b883a 	mov	r5,r12
   12320:	2900ffc4 	addi	r4,r5,1023
   12324:	01004b0e 	bge	zero,r4,12454 <__muldf3+0x5fc>
   12328:	908001cc 	andi	r2,r18,7
   1232c:	10000726 	beq	r2,zero,1234c <__muldf3+0x4f4>
   12330:	90c003cc 	andi	r3,r18,15
   12334:	00800104 	movi	r2,4
   12338:	18800426 	beq	r3,r2,1234c <__muldf3+0x4f4>
   1233c:	9087883a 	add	r3,r18,r2
   12340:	1c85803a 	cmpltu	r2,r3,r18
   12344:	80a1883a 	add	r16,r16,r2
   12348:	1825883a 	mov	r18,r3
   1234c:	8080402c 	andhi	r2,r16,256
   12350:	10000426 	beq	r2,zero,12364 <__muldf3+0x50c>
   12354:	00bfc034 	movhi	r2,65280
   12358:	10bfffc4 	addi	r2,r2,-1
   1235c:	29010004 	addi	r4,r5,1024
   12360:	80a0703a 	and	r16,r16,r2
   12364:	0081ff84 	movi	r2,2046
   12368:	1100320e 	bge	r2,r4,12434 <__muldf3+0x5dc>
   1236c:	b4c0004c 	andi	r19,r22,1
   12370:	0101ffc4 	movi	r4,2047
   12374:	0021883a 	mov	r16,zero
   12378:	0025883a 	mov	r18,zero
   1237c:	003f1006 	br	11fc0 <__alt_data_end+0xf8011fc0>
   12380:	8080022c 	andhi	r2,r16,8
   12384:	10000926 	beq	r2,zero,123ac <__muldf3+0x554>
   12388:	8880022c 	andhi	r2,r17,8
   1238c:	1000071e 	bne	r2,zero,123ac <__muldf3+0x554>
   12390:	00800434 	movhi	r2,16
   12394:	8c000234 	orhi	r16,r17,8
   12398:	10bfffc4 	addi	r2,r2,-1
   1239c:	1827883a 	mov	r19,r3
   123a0:	80a0703a 	and	r16,r16,r2
   123a4:	b825883a 	mov	r18,r23
   123a8:	003f6a06 	br	12154 <__alt_data_end+0xf8012154>
   123ac:	00800434 	movhi	r2,16
   123b0:	84000234 	orhi	r16,r16,8
   123b4:	10bfffc4 	addi	r2,r2,-1
   123b8:	80a0703a 	and	r16,r16,r2
   123bc:	003f6506 	br	12154 <__alt_data_end+0xf8012154>
   123c0:	3009883a 	mov	r4,r6
   123c4:	d8c00215 	stw	r3,8(sp)
   123c8:	d9800315 	stw	r6,12(sp)
   123cc:	da800015 	stw	r10,0(sp)
   123d0:	dac00115 	stw	r11,4(sp)
   123d4:	00089f40 	call	89f4 <__clzsi2>
   123d8:	11000804 	addi	r4,r2,32
   123dc:	014009c4 	movi	r5,39
   123e0:	d8c00217 	ldw	r3,8(sp)
   123e4:	d9800317 	ldw	r6,12(sp)
   123e8:	da800017 	ldw	r10,0(sp)
   123ec:	dac00117 	ldw	r11,4(sp)
   123f0:	293f320e 	bge	r5,r4,120bc <__alt_data_end+0xf80120bc>
   123f4:	10bffe04 	addi	r2,r2,-8
   123f8:	b8a2983a 	sll	r17,r23,r2
   123fc:	002f883a 	mov	r23,zero
   12400:	003f3506 	br	120d8 <__alt_data_end+0xf80120d8>
   12404:	d9800315 	stw	r6,12(sp)
   12408:	d9c00015 	stw	r7,0(sp)
   1240c:	00089f40 	call	89f4 <__clzsi2>
   12410:	10c00804 	addi	r3,r2,32
   12414:	010009c4 	movi	r4,39
   12418:	d9800317 	ldw	r6,12(sp)
   1241c:	d9c00017 	ldw	r7,0(sp)
   12420:	20ff060e 	bge	r4,r3,1203c <__alt_data_end+0xf801203c>
   12424:	10bffe04 	addi	r2,r2,-8
   12428:	88a0983a 	sll	r16,r17,r2
   1242c:	0025883a 	mov	r18,zero
   12430:	003f0906 	br	12058 <__alt_data_end+0xf8012058>
   12434:	9004d0fa 	srli	r2,r18,3
   12438:	8024977a 	slli	r18,r16,29
   1243c:	8020927a 	slli	r16,r16,9
   12440:	2101ffcc 	andi	r4,r4,2047
   12444:	90a4b03a 	or	r18,r18,r2
   12448:	8020d33a 	srli	r16,r16,12
   1244c:	b4c0004c 	andi	r19,r22,1
   12450:	003edb06 	br	11fc0 <__alt_data_end+0xf8011fc0>
   12454:	00ff0084 	movi	r3,-1022
   12458:	1947c83a 	sub	r3,r3,r5
   1245c:	00800e04 	movi	r2,56
   12460:	10c0080e 	bge	r2,r3,12484 <__muldf3+0x62c>
   12464:	b4c0004c 	andi	r19,r22,1
   12468:	0009883a 	mov	r4,zero
   1246c:	0021883a 	mov	r16,zero
   12470:	0025883a 	mov	r18,zero
   12474:	003ed206 	br	11fc0 <__alt_data_end+0xf8011fc0>
   12478:	600b883a 	mov	r5,r12
   1247c:	e02d883a 	mov	r22,fp
   12480:	003fa706 	br	12320 <__alt_data_end+0xf8012320>
   12484:	008007c4 	movi	r2,31
   12488:	10c01816 	blt	r2,r3,124ec <__muldf3+0x694>
   1248c:	29410784 	addi	r5,r5,1054
   12490:	8144983a 	sll	r2,r16,r5
   12494:	90c8d83a 	srl	r4,r18,r3
   12498:	914a983a 	sll	r5,r18,r5
   1249c:	80c6d83a 	srl	r3,r16,r3
   124a0:	2088b03a 	or	r4,r4,r2
   124a4:	2804c03a 	cmpne	r2,r5,zero
   124a8:	2084b03a 	or	r2,r4,r2
   124ac:	110001cc 	andi	r4,r2,7
   124b0:	20000726 	beq	r4,zero,124d0 <__muldf3+0x678>
   124b4:	114003cc 	andi	r5,r2,15
   124b8:	01000104 	movi	r4,4
   124bc:	29000426 	beq	r5,r4,124d0 <__muldf3+0x678>
   124c0:	11000104 	addi	r4,r2,4
   124c4:	2085803a 	cmpltu	r2,r4,r2
   124c8:	1887883a 	add	r3,r3,r2
   124cc:	2005883a 	mov	r2,r4
   124d0:	1900202c 	andhi	r4,r3,128
   124d4:	20001826 	beq	r4,zero,12538 <__muldf3+0x6e0>
   124d8:	b4c0004c 	andi	r19,r22,1
   124dc:	01000044 	movi	r4,1
   124e0:	0021883a 	mov	r16,zero
   124e4:	0025883a 	mov	r18,zero
   124e8:	003eb506 	br	11fc0 <__alt_data_end+0xf8011fc0>
   124ec:	00bef884 	movi	r2,-1054
   124f0:	1145c83a 	sub	r2,r2,r5
   124f4:	8088d83a 	srl	r4,r16,r2
   124f8:	00800804 	movi	r2,32
   124fc:	18801726 	beq	r3,r2,1255c <__muldf3+0x704>
   12500:	28810f84 	addi	r2,r5,1086
   12504:	8084983a 	sll	r2,r16,r2
   12508:	1484b03a 	or	r2,r2,r18
   1250c:	1004c03a 	cmpne	r2,r2,zero
   12510:	1104b03a 	or	r2,r2,r4
   12514:	10c001cc 	andi	r3,r2,7
   12518:	18000b1e 	bne	r3,zero,12548 <__muldf3+0x6f0>
   1251c:	0021883a 	mov	r16,zero
   12520:	1004d0fa 	srli	r2,r2,3
   12524:	b4c0004c 	andi	r19,r22,1
   12528:	0009883a 	mov	r4,zero
   1252c:	10e4b03a 	or	r18,r2,r3
   12530:	003ea306 	br	11fc0 <__alt_data_end+0xf8011fc0>
   12534:	0007883a 	mov	r3,zero
   12538:	1820927a 	slli	r16,r3,9
   1253c:	1806977a 	slli	r3,r3,29
   12540:	8020d33a 	srli	r16,r16,12
   12544:	003ff606 	br	12520 <__alt_data_end+0xf8012520>
   12548:	110003cc 	andi	r4,r2,15
   1254c:	00c00104 	movi	r3,4
   12550:	20fff826 	beq	r4,r3,12534 <__alt_data_end+0xf8012534>
   12554:	0007883a 	mov	r3,zero
   12558:	003fd906 	br	124c0 <__alt_data_end+0xf80124c0>
   1255c:	0005883a 	mov	r2,zero
   12560:	003fe906 	br	12508 <__alt_data_end+0xf8012508>
   12564:	00800434 	movhi	r2,16
   12568:	84000234 	orhi	r16,r16,8
   1256c:	10bfffc4 	addi	r2,r2,-1
   12570:	e4c0004c 	andi	r19,fp,1
   12574:	80a0703a 	and	r16,r16,r2
   12578:	003ef606 	br	12154 <__alt_data_end+0xf8012154>

0001257c <__subdf3>:
   1257c:	00c00434 	movhi	r3,16
   12580:	18ffffc4 	addi	r3,r3,-1
   12584:	defffb04 	addi	sp,sp,-20
   12588:	28d2703a 	and	r9,r5,r3
   1258c:	3814d53a 	srli	r10,r7,20
   12590:	38c6703a 	and	r3,r7,r3
   12594:	3004d77a 	srli	r2,r6,29
   12598:	dc800215 	stw	r18,8(sp)
   1259c:	dc000015 	stw	r16,0(sp)
   125a0:	2824d7fa 	srli	r18,r5,31
   125a4:	2820d53a 	srli	r16,r5,20
   125a8:	481290fa 	slli	r9,r9,3
   125ac:	200ad77a 	srli	r5,r4,29
   125b0:	180690fa 	slli	r3,r3,3
   125b4:	dc400115 	stw	r17,4(sp)
   125b8:	dfc00415 	stw	ra,16(sp)
   125bc:	202290fa 	slli	r17,r4,3
   125c0:	dcc00315 	stw	r19,12(sp)
   125c4:	5281ffcc 	andi	r10,r10,2047
   125c8:	0101ffc4 	movi	r4,2047
   125cc:	9011883a 	mov	r8,r18
   125d0:	8401ffcc 	andi	r16,r16,2047
   125d4:	94803fcc 	andi	r18,r18,255
   125d8:	494ab03a 	or	r5,r9,r5
   125dc:	380ed7fa 	srli	r7,r7,31
   125e0:	1886b03a 	or	r3,r3,r2
   125e4:	300c90fa 	slli	r6,r6,3
   125e8:	51009026 	beq	r10,r4,1282c <__subdf3+0x2b0>
   125ec:	39c0005c 	xori	r7,r7,1
   125f0:	8285c83a 	sub	r2,r16,r10
   125f4:	91c06f26 	beq	r18,r7,127b4 <__subdf3+0x238>
   125f8:	0080b10e 	bge	zero,r2,128c0 <__subdf3+0x344>
   125fc:	50002a1e 	bne	r10,zero,126a8 <__subdf3+0x12c>
   12600:	1988b03a 	or	r4,r3,r6
   12604:	2000941e 	bne	r4,zero,12858 <__subdf3+0x2dc>
   12608:	888001cc 	andi	r2,r17,7
   1260c:	10005b26 	beq	r2,zero,1277c <__subdf3+0x200>
   12610:	88c003cc 	andi	r3,r17,15
   12614:	00800104 	movi	r2,4
   12618:	18805826 	beq	r3,r2,1277c <__subdf3+0x200>
   1261c:	88c00104 	addi	r3,r17,4
   12620:	1c63803a 	cmpltu	r17,r3,r17
   12624:	2c4b883a 	add	r5,r5,r17
   12628:	2880202c 	andhi	r2,r5,128
   1262c:	9200004c 	andi	r8,r18,1
   12630:	1823883a 	mov	r17,r3
   12634:	10005426 	beq	r2,zero,12788 <__subdf3+0x20c>
   12638:	84000044 	addi	r16,r16,1
   1263c:	0081ffc4 	movi	r2,2047
   12640:	8080bf26 	beq	r16,r2,12940 <__subdf3+0x3c4>
   12644:	013fe034 	movhi	r4,65408
   12648:	213fffc4 	addi	r4,r4,-1
   1264c:	290a703a 	and	r5,r5,r4
   12650:	2804977a 	slli	r2,r5,29
   12654:	280a927a 	slli	r5,r5,9
   12658:	8822d0fa 	srli	r17,r17,3
   1265c:	8401ffcc 	andi	r16,r16,2047
   12660:	2808d33a 	srli	r4,r5,12
   12664:	1444b03a 	or	r2,r2,r17
   12668:	8401ffcc 	andi	r16,r16,2047
   1266c:	800a953a 	slli	r5,r16,20
   12670:	40c03fcc 	andi	r3,r8,255
   12674:	04000434 	movhi	r16,16
   12678:	180697fa 	slli	r3,r3,31
   1267c:	843fffc4 	addi	r16,r16,-1
   12680:	2420703a 	and	r16,r4,r16
   12684:	8160b03a 	or	r16,r16,r5
   12688:	80c6b03a 	or	r3,r16,r3
   1268c:	dfc00417 	ldw	ra,16(sp)
   12690:	dcc00317 	ldw	r19,12(sp)
   12694:	dc800217 	ldw	r18,8(sp)
   12698:	dc400117 	ldw	r17,4(sp)
   1269c:	dc000017 	ldw	r16,0(sp)
   126a0:	dec00504 	addi	sp,sp,20
   126a4:	f800283a 	ret
   126a8:	0101ffc4 	movi	r4,2047
   126ac:	813fd626 	beq	r16,r4,12608 <__alt_data_end+0xf8012608>
   126b0:	18c02034 	orhi	r3,r3,128
   126b4:	01000e04 	movi	r4,56
   126b8:	2080a416 	blt	r4,r2,1294c <__subdf3+0x3d0>
   126bc:	010007c4 	movi	r4,31
   126c0:	2080c716 	blt	r4,r2,129e0 <__subdf3+0x464>
   126c4:	01000804 	movi	r4,32
   126c8:	2089c83a 	sub	r4,r4,r2
   126cc:	1910983a 	sll	r8,r3,r4
   126d0:	308ed83a 	srl	r7,r6,r2
   126d4:	3108983a 	sll	r4,r6,r4
   126d8:	1884d83a 	srl	r2,r3,r2
   126dc:	41ccb03a 	or	r6,r8,r7
   126e0:	2008c03a 	cmpne	r4,r4,zero
   126e4:	310cb03a 	or	r6,r6,r4
   126e8:	898dc83a 	sub	r6,r17,r6
   126ec:	89a3803a 	cmpltu	r17,r17,r6
   126f0:	288bc83a 	sub	r5,r5,r2
   126f4:	2c4bc83a 	sub	r5,r5,r17
   126f8:	3023883a 	mov	r17,r6
   126fc:	2880202c 	andhi	r2,r5,128
   12700:	10006b26 	beq	r2,zero,128b0 <__subdf3+0x334>
   12704:	04c02034 	movhi	r19,128
   12708:	9cffffc4 	addi	r19,r19,-1
   1270c:	2ce6703a 	and	r19,r5,r19
   12710:	98007c26 	beq	r19,zero,12904 <__subdf3+0x388>
   12714:	9809883a 	mov	r4,r19
   12718:	00089f40 	call	89f4 <__clzsi2>
   1271c:	10fffe04 	addi	r3,r2,-8
   12720:	010007c4 	movi	r4,31
   12724:	20c07d16 	blt	r4,r3,1291c <__subdf3+0x3a0>
   12728:	01400a04 	movi	r5,40
   1272c:	2885c83a 	sub	r2,r5,r2
   12730:	888ad83a 	srl	r5,r17,r2
   12734:	98e6983a 	sll	r19,r19,r3
   12738:	88e2983a 	sll	r17,r17,r3
   1273c:	2ce6b03a 	or	r19,r5,r19
   12740:	1c007a16 	blt	r3,r16,1292c <__subdf3+0x3b0>
   12744:	1c21c83a 	sub	r16,r3,r16
   12748:	81400044 	addi	r5,r16,1
   1274c:	00c007c4 	movi	r3,31
   12750:	19409616 	blt	r3,r5,129ac <__subdf3+0x430>
   12754:	1c21c83a 	sub	r16,r3,r16
   12758:	8c08983a 	sll	r4,r17,r16
   1275c:	8946d83a 	srl	r3,r17,r5
   12760:	9c20983a 	sll	r16,r19,r16
   12764:	2008c03a 	cmpne	r4,r4,zero
   12768:	994ad83a 	srl	r5,r19,r5
   1276c:	1c06b03a 	or	r3,r3,r16
   12770:	1922b03a 	or	r17,r3,r4
   12774:	0021883a 	mov	r16,zero
   12778:	003fa306 	br	12608 <__alt_data_end+0xf8012608>
   1277c:	2880202c 	andhi	r2,r5,128
   12780:	9200004c 	andi	r8,r18,1
   12784:	103fac1e 	bne	r2,zero,12638 <__alt_data_end+0xf8012638>
   12788:	2804977a 	slli	r2,r5,29
   1278c:	8822d0fa 	srli	r17,r17,3
   12790:	00c1ffc4 	movi	r3,2047
   12794:	280ad0fa 	srli	r5,r5,3
   12798:	1444b03a 	or	r2,r2,r17
   1279c:	80c02726 	beq	r16,r3,1283c <__subdf3+0x2c0>
   127a0:	01000434 	movhi	r4,16
   127a4:	213fffc4 	addi	r4,r4,-1
   127a8:	80e0703a 	and	r16,r16,r3
   127ac:	2908703a 	and	r4,r5,r4
   127b0:	003fad06 	br	12668 <__alt_data_end+0xf8012668>
   127b4:	0080690e 	bge	zero,r2,1295c <__subdf3+0x3e0>
   127b8:	50002f26 	beq	r10,zero,12878 <__subdf3+0x2fc>
   127bc:	0101ffc4 	movi	r4,2047
   127c0:	813f9126 	beq	r16,r4,12608 <__alt_data_end+0xf8012608>
   127c4:	18c02034 	orhi	r3,r3,128
   127c8:	01000e04 	movi	r4,56
   127cc:	2080b00e 	bge	r4,r2,12a90 <__subdf3+0x514>
   127d0:	198cb03a 	or	r6,r3,r6
   127d4:	300ec03a 	cmpne	r7,r6,zero
   127d8:	0005883a 	mov	r2,zero
   127dc:	3c4f883a 	add	r7,r7,r17
   127e0:	3c63803a 	cmpltu	r17,r7,r17
   127e4:	114b883a 	add	r5,r2,r5
   127e8:	2c4b883a 	add	r5,r5,r17
   127ec:	3823883a 	mov	r17,r7
   127f0:	2880202c 	andhi	r2,r5,128
   127f4:	10002e26 	beq	r2,zero,128b0 <__subdf3+0x334>
   127f8:	84000044 	addi	r16,r16,1
   127fc:	0081ffc4 	movi	r2,2047
   12800:	8080de26 	beq	r16,r2,12b7c <__subdf3+0x600>
   12804:	00bfe034 	movhi	r2,65408
   12808:	10bfffc4 	addi	r2,r2,-1
   1280c:	288a703a 	and	r5,r5,r2
   12810:	880cd07a 	srli	r6,r17,1
   12814:	280897fa 	slli	r4,r5,31
   12818:	88c0004c 	andi	r3,r17,1
   1281c:	30e2b03a 	or	r17,r6,r3
   12820:	280ad07a 	srli	r5,r5,1
   12824:	8922b03a 	or	r17,r17,r4
   12828:	003f7706 	br	12608 <__alt_data_end+0xf8012608>
   1282c:	1984b03a 	or	r2,r3,r6
   12830:	103f6e26 	beq	r2,zero,125ec <__alt_data_end+0xf80125ec>
   12834:	39c03fcc 	andi	r7,r7,255
   12838:	003f6d06 	br	125f0 <__alt_data_end+0xf80125f0>
   1283c:	1146b03a 	or	r3,r2,r5
   12840:	18003f26 	beq	r3,zero,12940 <__subdf3+0x3c4>
   12844:	00c00434 	movhi	r3,16
   12848:	29000234 	orhi	r4,r5,8
   1284c:	18ffffc4 	addi	r3,r3,-1
   12850:	20c8703a 	and	r4,r4,r3
   12854:	003f8406 	br	12668 <__alt_data_end+0xf8012668>
   12858:	10bfffc4 	addi	r2,r2,-1
   1285c:	1000501e 	bne	r2,zero,129a0 <__subdf3+0x424>
   12860:	898fc83a 	sub	r7,r17,r6
   12864:	89e3803a 	cmpltu	r17,r17,r7
   12868:	28cbc83a 	sub	r5,r5,r3
   1286c:	2c4bc83a 	sub	r5,r5,r17
   12870:	3823883a 	mov	r17,r7
   12874:	003fa106 	br	126fc <__alt_data_end+0xf80126fc>
   12878:	1988b03a 	or	r4,r3,r6
   1287c:	203f6226 	beq	r4,zero,12608 <__alt_data_end+0xf8012608>
   12880:	10bfffc4 	addi	r2,r2,-1
   12884:	10009b1e 	bne	r2,zero,12af4 <__subdf3+0x578>
   12888:	344d883a 	add	r6,r6,r17
   1288c:	3463803a 	cmpltu	r17,r6,r17
   12890:	194b883a 	add	r5,r3,r5
   12894:	2c4b883a 	add	r5,r5,r17
   12898:	3023883a 	mov	r17,r6
   1289c:	003fd406 	br	127f0 <__alt_data_end+0xf80127f0>
   128a0:	1106b03a 	or	r3,r2,r4
   128a4:	1800b426 	beq	r3,zero,12b78 <__subdf3+0x5fc>
   128a8:	100b883a 	mov	r5,r2
   128ac:	2023883a 	mov	r17,r4
   128b0:	888001cc 	andi	r2,r17,7
   128b4:	103f561e 	bne	r2,zero,12610 <__alt_data_end+0xf8012610>
   128b8:	9200004c 	andi	r8,r18,1
   128bc:	003fb206 	br	12788 <__alt_data_end+0xf8012788>
   128c0:	1000531e 	bne	r2,zero,12a10 <__subdf3+0x494>
   128c4:	80800044 	addi	r2,r16,1
   128c8:	1081ffcc 	andi	r2,r2,2047
   128cc:	01000044 	movi	r4,1
   128d0:	2080a00e 	bge	r4,r2,12b54 <__subdf3+0x5d8>
   128d4:	8985c83a 	sub	r2,r17,r6
   128d8:	8889803a 	cmpltu	r4,r17,r2
   128dc:	28e7c83a 	sub	r19,r5,r3
   128e0:	9927c83a 	sub	r19,r19,r4
   128e4:	9900202c 	andhi	r4,r19,128
   128e8:	20006226 	beq	r4,zero,12a74 <__subdf3+0x4f8>
   128ec:	3463c83a 	sub	r17,r6,r17
   128f0:	194bc83a 	sub	r5,r3,r5
   128f4:	344d803a 	cmpltu	r6,r6,r17
   128f8:	29a7c83a 	sub	r19,r5,r6
   128fc:	3825883a 	mov	r18,r7
   12900:	983f841e 	bne	r19,zero,12714 <__alt_data_end+0xf8012714>
   12904:	8809883a 	mov	r4,r17
   12908:	00089f40 	call	89f4 <__clzsi2>
   1290c:	10800804 	addi	r2,r2,32
   12910:	10fffe04 	addi	r3,r2,-8
   12914:	010007c4 	movi	r4,31
   12918:	20ff830e 	bge	r4,r3,12728 <__alt_data_end+0xf8012728>
   1291c:	14fff604 	addi	r19,r2,-40
   12920:	8ce6983a 	sll	r19,r17,r19
   12924:	0023883a 	mov	r17,zero
   12928:	1c3f860e 	bge	r3,r16,12744 <__alt_data_end+0xf8012744>
   1292c:	017fe034 	movhi	r5,65408
   12930:	297fffc4 	addi	r5,r5,-1
   12934:	80e1c83a 	sub	r16,r16,r3
   12938:	994a703a 	and	r5,r19,r5
   1293c:	003f3206 	br	12608 <__alt_data_end+0xf8012608>
   12940:	0009883a 	mov	r4,zero
   12944:	0005883a 	mov	r2,zero
   12948:	003f4706 	br	12668 <__alt_data_end+0xf8012668>
   1294c:	198cb03a 	or	r6,r3,r6
   12950:	300cc03a 	cmpne	r6,r6,zero
   12954:	0005883a 	mov	r2,zero
   12958:	003f6306 	br	126e8 <__alt_data_end+0xf80126e8>
   1295c:	10009d1e 	bne	r2,zero,12bd4 <__subdf3+0x658>
   12960:	81c00044 	addi	r7,r16,1
   12964:	3881ffcc 	andi	r2,r7,2047
   12968:	02400044 	movi	r9,1
   1296c:	4880680e 	bge	r9,r2,12b10 <__subdf3+0x594>
   12970:	0081ffc4 	movi	r2,2047
   12974:	3880ae26 	beq	r7,r2,12c30 <__subdf3+0x6b4>
   12978:	344d883a 	add	r6,r6,r17
   1297c:	3463803a 	cmpltu	r17,r6,r17
   12980:	194b883a 	add	r5,r3,r5
   12984:	2c4b883a 	add	r5,r5,r17
   12988:	282297fa 	slli	r17,r5,31
   1298c:	300cd07a 	srli	r6,r6,1
   12990:	280ad07a 	srli	r5,r5,1
   12994:	3821883a 	mov	r16,r7
   12998:	89a2b03a 	or	r17,r17,r6
   1299c:	003f1a06 	br	12608 <__alt_data_end+0xf8012608>
   129a0:	0101ffc4 	movi	r4,2047
   129a4:	813f431e 	bne	r16,r4,126b4 <__alt_data_end+0xf80126b4>
   129a8:	003f1706 	br	12608 <__alt_data_end+0xf8012608>
   129ac:	80bff844 	addi	r2,r16,-31
   129b0:	00c00804 	movi	r3,32
   129b4:	9884d83a 	srl	r2,r19,r2
   129b8:	28c05126 	beq	r5,r3,12b00 <__subdf3+0x584>
   129bc:	00c00fc4 	movi	r3,63
   129c0:	1c21c83a 	sub	r16,r3,r16
   129c4:	9c26983a 	sll	r19,r19,r16
   129c8:	9c62b03a 	or	r17,r19,r17
   129cc:	8822c03a 	cmpne	r17,r17,zero
   129d0:	88a2b03a 	or	r17,r17,r2
   129d4:	000b883a 	mov	r5,zero
   129d8:	0021883a 	mov	r16,zero
   129dc:	003fb406 	br	128b0 <__alt_data_end+0xf80128b0>
   129e0:	113ff804 	addi	r4,r2,-32
   129e4:	01c00804 	movi	r7,32
   129e8:	1908d83a 	srl	r4,r3,r4
   129ec:	11c04626 	beq	r2,r7,12b08 <__subdf3+0x58c>
   129f0:	01c01004 	movi	r7,64
   129f4:	3885c83a 	sub	r2,r7,r2
   129f8:	1884983a 	sll	r2,r3,r2
   129fc:	118cb03a 	or	r6,r2,r6
   12a00:	300cc03a 	cmpne	r6,r6,zero
   12a04:	310cb03a 	or	r6,r6,r4
   12a08:	0005883a 	mov	r2,zero
   12a0c:	003f3606 	br	126e8 <__alt_data_end+0xf80126e8>
   12a10:	80002b26 	beq	r16,zero,12ac0 <__subdf3+0x544>
   12a14:	0101ffc4 	movi	r4,2047
   12a18:	51006926 	beq	r10,r4,12bc0 <__subdf3+0x644>
   12a1c:	0085c83a 	sub	r2,zero,r2
   12a20:	29402034 	orhi	r5,r5,128
   12a24:	01000e04 	movi	r4,56
   12a28:	20807d16 	blt	r4,r2,12c20 <__subdf3+0x6a4>
   12a2c:	010007c4 	movi	r4,31
   12a30:	2080d916 	blt	r4,r2,12d98 <__subdf3+0x81c>
   12a34:	01000804 	movi	r4,32
   12a38:	2089c83a 	sub	r4,r4,r2
   12a3c:	2912983a 	sll	r9,r5,r4
   12a40:	8890d83a 	srl	r8,r17,r2
   12a44:	8908983a 	sll	r4,r17,r4
   12a48:	2884d83a 	srl	r2,r5,r2
   12a4c:	4a22b03a 	or	r17,r9,r8
   12a50:	2008c03a 	cmpne	r4,r4,zero
   12a54:	8922b03a 	or	r17,r17,r4
   12a58:	3463c83a 	sub	r17,r6,r17
   12a5c:	1885c83a 	sub	r2,r3,r2
   12a60:	344d803a 	cmpltu	r6,r6,r17
   12a64:	118bc83a 	sub	r5,r2,r6
   12a68:	5021883a 	mov	r16,r10
   12a6c:	3825883a 	mov	r18,r7
   12a70:	003f2206 	br	126fc <__alt_data_end+0xf80126fc>
   12a74:	9886b03a 	or	r3,r19,r2
   12a78:	18001c1e 	bne	r3,zero,12aec <__subdf3+0x570>
   12a7c:	0011883a 	mov	r8,zero
   12a80:	000b883a 	mov	r5,zero
   12a84:	0023883a 	mov	r17,zero
   12a88:	0021883a 	mov	r16,zero
   12a8c:	003f3e06 	br	12788 <__alt_data_end+0xf8012788>
   12a90:	010007c4 	movi	r4,31
   12a94:	20803c16 	blt	r4,r2,12b88 <__subdf3+0x60c>
   12a98:	01000804 	movi	r4,32
   12a9c:	2089c83a 	sub	r4,r4,r2
   12aa0:	1912983a 	sll	r9,r3,r4
   12aa4:	308ed83a 	srl	r7,r6,r2
   12aa8:	3108983a 	sll	r4,r6,r4
   12aac:	1884d83a 	srl	r2,r3,r2
   12ab0:	49ceb03a 	or	r7,r9,r7
   12ab4:	2008c03a 	cmpne	r4,r4,zero
   12ab8:	390eb03a 	or	r7,r7,r4
   12abc:	003f4706 	br	127dc <__alt_data_end+0xf80127dc>
   12ac0:	2c48b03a 	or	r4,r5,r17
   12ac4:	20003e26 	beq	r4,zero,12bc0 <__subdf3+0x644>
   12ac8:	0084303a 	nor	r2,zero,r2
   12acc:	10003a1e 	bne	r2,zero,12bb8 <__subdf3+0x63c>
   12ad0:	3463c83a 	sub	r17,r6,r17
   12ad4:	194bc83a 	sub	r5,r3,r5
   12ad8:	344d803a 	cmpltu	r6,r6,r17
   12adc:	298bc83a 	sub	r5,r5,r6
   12ae0:	5021883a 	mov	r16,r10
   12ae4:	3825883a 	mov	r18,r7
   12ae8:	003f0406 	br	126fc <__alt_data_end+0xf80126fc>
   12aec:	1023883a 	mov	r17,r2
   12af0:	003f0706 	br	12710 <__alt_data_end+0xf8012710>
   12af4:	0101ffc4 	movi	r4,2047
   12af8:	813f331e 	bne	r16,r4,127c8 <__alt_data_end+0xf80127c8>
   12afc:	003ec206 	br	12608 <__alt_data_end+0xf8012608>
   12b00:	0027883a 	mov	r19,zero
   12b04:	003fb006 	br	129c8 <__alt_data_end+0xf80129c8>
   12b08:	0005883a 	mov	r2,zero
   12b0c:	003fbb06 	br	129fc <__alt_data_end+0xf80129fc>
   12b10:	2c44b03a 	or	r2,r5,r17
   12b14:	80008b1e 	bne	r16,zero,12d44 <__subdf3+0x7c8>
   12b18:	1000b526 	beq	r2,zero,12df0 <__subdf3+0x874>
   12b1c:	1984b03a 	or	r2,r3,r6
   12b20:	103eb926 	beq	r2,zero,12608 <__alt_data_end+0xf8012608>
   12b24:	3449883a 	add	r4,r6,r17
   12b28:	2463803a 	cmpltu	r17,r4,r17
   12b2c:	194b883a 	add	r5,r3,r5
   12b30:	2c4b883a 	add	r5,r5,r17
   12b34:	2880202c 	andhi	r2,r5,128
   12b38:	2023883a 	mov	r17,r4
   12b3c:	103f5c26 	beq	r2,zero,128b0 <__alt_data_end+0xf80128b0>
   12b40:	00bfe034 	movhi	r2,65408
   12b44:	10bfffc4 	addi	r2,r2,-1
   12b48:	4821883a 	mov	r16,r9
   12b4c:	288a703a 	and	r5,r5,r2
   12b50:	003ead06 	br	12608 <__alt_data_end+0xf8012608>
   12b54:	2c44b03a 	or	r2,r5,r17
   12b58:	8000291e 	bne	r16,zero,12c00 <__subdf3+0x684>
   12b5c:	10004f1e 	bne	r2,zero,12c9c <__subdf3+0x720>
   12b60:	1984b03a 	or	r2,r3,r6
   12b64:	10000426 	beq	r2,zero,12b78 <__subdf3+0x5fc>
   12b68:	180b883a 	mov	r5,r3
   12b6c:	3023883a 	mov	r17,r6
   12b70:	3825883a 	mov	r18,r7
   12b74:	003ea406 	br	12608 <__alt_data_end+0xf8012608>
   12b78:	0011883a 	mov	r8,zero
   12b7c:	000b883a 	mov	r5,zero
   12b80:	0023883a 	mov	r17,zero
   12b84:	003f0006 	br	12788 <__alt_data_end+0xf8012788>
   12b88:	11fff804 	addi	r7,r2,-32
   12b8c:	19c8d83a 	srl	r4,r3,r7
   12b90:	01c00804 	movi	r7,32
   12b94:	11c07e26 	beq	r2,r7,12d90 <__subdf3+0x814>
   12b98:	01c01004 	movi	r7,64
   12b9c:	3885c83a 	sub	r2,r7,r2
   12ba0:	1884983a 	sll	r2,r3,r2
   12ba4:	118cb03a 	or	r6,r2,r6
   12ba8:	300ec03a 	cmpne	r7,r6,zero
   12bac:	390eb03a 	or	r7,r7,r4
   12bb0:	0005883a 	mov	r2,zero
   12bb4:	003f0906 	br	127dc <__alt_data_end+0xf80127dc>
   12bb8:	0101ffc4 	movi	r4,2047
   12bbc:	513f991e 	bne	r10,r4,12a24 <__alt_data_end+0xf8012a24>
   12bc0:	180b883a 	mov	r5,r3
   12bc4:	3023883a 	mov	r17,r6
   12bc8:	5021883a 	mov	r16,r10
   12bcc:	3825883a 	mov	r18,r7
   12bd0:	003e8d06 	br	12608 <__alt_data_end+0xf8012608>
   12bd4:	80001a1e 	bne	r16,zero,12c40 <__subdf3+0x6c4>
   12bd8:	2c48b03a 	or	r4,r5,r17
   12bdc:	20005526 	beq	r4,zero,12d34 <__subdf3+0x7b8>
   12be0:	0084303a 	nor	r2,zero,r2
   12be4:	1000511e 	bne	r2,zero,12d2c <__subdf3+0x7b0>
   12be8:	89a3883a 	add	r17,r17,r6
   12bec:	194b883a 	add	r5,r3,r5
   12bf0:	898d803a 	cmpltu	r6,r17,r6
   12bf4:	298b883a 	add	r5,r5,r6
   12bf8:	5021883a 	mov	r16,r10
   12bfc:	003efc06 	br	127f0 <__alt_data_end+0xf80127f0>
   12c00:	1000341e 	bne	r2,zero,12cd4 <__subdf3+0x758>
   12c04:	1984b03a 	or	r2,r3,r6
   12c08:	10006f26 	beq	r2,zero,12dc8 <__subdf3+0x84c>
   12c0c:	180b883a 	mov	r5,r3
   12c10:	3023883a 	mov	r17,r6
   12c14:	3825883a 	mov	r18,r7
   12c18:	0401ffc4 	movi	r16,2047
   12c1c:	003e7a06 	br	12608 <__alt_data_end+0xf8012608>
   12c20:	2c62b03a 	or	r17,r5,r17
   12c24:	8822c03a 	cmpne	r17,r17,zero
   12c28:	0005883a 	mov	r2,zero
   12c2c:	003f8a06 	br	12a58 <__alt_data_end+0xf8012a58>
   12c30:	3821883a 	mov	r16,r7
   12c34:	000b883a 	mov	r5,zero
   12c38:	0023883a 	mov	r17,zero
   12c3c:	003ed206 	br	12788 <__alt_data_end+0xf8012788>
   12c40:	0101ffc4 	movi	r4,2047
   12c44:	51003b26 	beq	r10,r4,12d34 <__subdf3+0x7b8>
   12c48:	0085c83a 	sub	r2,zero,r2
   12c4c:	29402034 	orhi	r5,r5,128
   12c50:	01000e04 	movi	r4,56
   12c54:	20806216 	blt	r4,r2,12de0 <__subdf3+0x864>
   12c58:	010007c4 	movi	r4,31
   12c5c:	20806b16 	blt	r4,r2,12e0c <__subdf3+0x890>
   12c60:	01000804 	movi	r4,32
   12c64:	2089c83a 	sub	r4,r4,r2
   12c68:	2912983a 	sll	r9,r5,r4
   12c6c:	888ed83a 	srl	r7,r17,r2
   12c70:	8908983a 	sll	r4,r17,r4
   12c74:	2884d83a 	srl	r2,r5,r2
   12c78:	49e2b03a 	or	r17,r9,r7
   12c7c:	2008c03a 	cmpne	r4,r4,zero
   12c80:	8922b03a 	or	r17,r17,r4
   12c84:	89a3883a 	add	r17,r17,r6
   12c88:	10c5883a 	add	r2,r2,r3
   12c8c:	898d803a 	cmpltu	r6,r17,r6
   12c90:	118b883a 	add	r5,r2,r6
   12c94:	5021883a 	mov	r16,r10
   12c98:	003ed506 	br	127f0 <__alt_data_end+0xf80127f0>
   12c9c:	1984b03a 	or	r2,r3,r6
   12ca0:	103e5926 	beq	r2,zero,12608 <__alt_data_end+0xf8012608>
   12ca4:	8989c83a 	sub	r4,r17,r6
   12ca8:	8911803a 	cmpltu	r8,r17,r4
   12cac:	28c5c83a 	sub	r2,r5,r3
   12cb0:	1205c83a 	sub	r2,r2,r8
   12cb4:	1200202c 	andhi	r8,r2,128
   12cb8:	403ef926 	beq	r8,zero,128a0 <__alt_data_end+0xf80128a0>
   12cbc:	3463c83a 	sub	r17,r6,r17
   12cc0:	194bc83a 	sub	r5,r3,r5
   12cc4:	344d803a 	cmpltu	r6,r6,r17
   12cc8:	298bc83a 	sub	r5,r5,r6
   12ccc:	3825883a 	mov	r18,r7
   12cd0:	003e4d06 	br	12608 <__alt_data_end+0xf8012608>
   12cd4:	1984b03a 	or	r2,r3,r6
   12cd8:	10002b26 	beq	r2,zero,12d88 <__subdf3+0x80c>
   12cdc:	2808d0fa 	srli	r4,r5,3
   12ce0:	8822d0fa 	srli	r17,r17,3
   12ce4:	280a977a 	slli	r5,r5,29
   12ce8:	2080022c 	andhi	r2,r4,8
   12cec:	2c62b03a 	or	r17,r5,r17
   12cf0:	10000826 	beq	r2,zero,12d14 <__subdf3+0x798>
   12cf4:	1810d0fa 	srli	r8,r3,3
   12cf8:	4080022c 	andhi	r2,r8,8
   12cfc:	1000051e 	bne	r2,zero,12d14 <__subdf3+0x798>
   12d00:	300cd0fa 	srli	r6,r6,3
   12d04:	1804977a 	slli	r2,r3,29
   12d08:	4009883a 	mov	r4,r8
   12d0c:	3825883a 	mov	r18,r7
   12d10:	11a2b03a 	or	r17,r2,r6
   12d14:	880ad77a 	srli	r5,r17,29
   12d18:	200890fa 	slli	r4,r4,3
   12d1c:	882290fa 	slli	r17,r17,3
   12d20:	0401ffc4 	movi	r16,2047
   12d24:	290ab03a 	or	r5,r5,r4
   12d28:	003e3706 	br	12608 <__alt_data_end+0xf8012608>
   12d2c:	0101ffc4 	movi	r4,2047
   12d30:	513fc71e 	bne	r10,r4,12c50 <__alt_data_end+0xf8012c50>
   12d34:	180b883a 	mov	r5,r3
   12d38:	3023883a 	mov	r17,r6
   12d3c:	5021883a 	mov	r16,r10
   12d40:	003e3106 	br	12608 <__alt_data_end+0xf8012608>
   12d44:	10002d26 	beq	r2,zero,12dfc <__subdf3+0x880>
   12d48:	1984b03a 	or	r2,r3,r6
   12d4c:	10000e26 	beq	r2,zero,12d88 <__subdf3+0x80c>
   12d50:	2808d0fa 	srli	r4,r5,3
   12d54:	8822d0fa 	srli	r17,r17,3
   12d58:	280a977a 	slli	r5,r5,29
   12d5c:	2080022c 	andhi	r2,r4,8
   12d60:	2c62b03a 	or	r17,r5,r17
   12d64:	103feb26 	beq	r2,zero,12d14 <__alt_data_end+0xf8012d14>
   12d68:	180ed0fa 	srli	r7,r3,3
   12d6c:	3880022c 	andhi	r2,r7,8
   12d70:	103fe81e 	bne	r2,zero,12d14 <__alt_data_end+0xf8012d14>
   12d74:	300cd0fa 	srli	r6,r6,3
   12d78:	1804977a 	slli	r2,r3,29
   12d7c:	3809883a 	mov	r4,r7
   12d80:	11a2b03a 	or	r17,r2,r6
   12d84:	003fe306 	br	12d14 <__alt_data_end+0xf8012d14>
   12d88:	0401ffc4 	movi	r16,2047
   12d8c:	003e1e06 	br	12608 <__alt_data_end+0xf8012608>
   12d90:	0005883a 	mov	r2,zero
   12d94:	003f8306 	br	12ba4 <__alt_data_end+0xf8012ba4>
   12d98:	113ff804 	addi	r4,r2,-32
   12d9c:	02000804 	movi	r8,32
   12da0:	2908d83a 	srl	r4,r5,r4
   12da4:	12002526 	beq	r2,r8,12e3c <__subdf3+0x8c0>
   12da8:	02001004 	movi	r8,64
   12dac:	4085c83a 	sub	r2,r8,r2
   12db0:	288a983a 	sll	r5,r5,r2
   12db4:	2c62b03a 	or	r17,r5,r17
   12db8:	8822c03a 	cmpne	r17,r17,zero
   12dbc:	8922b03a 	or	r17,r17,r4
   12dc0:	0005883a 	mov	r2,zero
   12dc4:	003f2406 	br	12a58 <__alt_data_end+0xf8012a58>
   12dc8:	01402034 	movhi	r5,128
   12dcc:	0011883a 	mov	r8,zero
   12dd0:	297fffc4 	addi	r5,r5,-1
   12dd4:	047ffe04 	movi	r17,-8
   12dd8:	0401ffc4 	movi	r16,2047
   12ddc:	003e6a06 	br	12788 <__alt_data_end+0xf8012788>
   12de0:	2c62b03a 	or	r17,r5,r17
   12de4:	8822c03a 	cmpne	r17,r17,zero
   12de8:	0005883a 	mov	r2,zero
   12dec:	003fa506 	br	12c84 <__alt_data_end+0xf8012c84>
   12df0:	180b883a 	mov	r5,r3
   12df4:	3023883a 	mov	r17,r6
   12df8:	003e0306 	br	12608 <__alt_data_end+0xf8012608>
   12dfc:	180b883a 	mov	r5,r3
   12e00:	3023883a 	mov	r17,r6
   12e04:	0401ffc4 	movi	r16,2047
   12e08:	003dff06 	br	12608 <__alt_data_end+0xf8012608>
   12e0c:	113ff804 	addi	r4,r2,-32
   12e10:	01c00804 	movi	r7,32
   12e14:	2908d83a 	srl	r4,r5,r4
   12e18:	11c00a26 	beq	r2,r7,12e44 <__subdf3+0x8c8>
   12e1c:	01c01004 	movi	r7,64
   12e20:	3885c83a 	sub	r2,r7,r2
   12e24:	288a983a 	sll	r5,r5,r2
   12e28:	2c62b03a 	or	r17,r5,r17
   12e2c:	8822c03a 	cmpne	r17,r17,zero
   12e30:	8922b03a 	or	r17,r17,r4
   12e34:	0005883a 	mov	r2,zero
   12e38:	003f9206 	br	12c84 <__alt_data_end+0xf8012c84>
   12e3c:	000b883a 	mov	r5,zero
   12e40:	003fdc06 	br	12db4 <__alt_data_end+0xf8012db4>
   12e44:	000b883a 	mov	r5,zero
   12e48:	003ff706 	br	12e28 <__alt_data_end+0xf8012e28>

00012e4c <__fixdfsi>:
   12e4c:	2806d53a 	srli	r3,r5,20
   12e50:	00800434 	movhi	r2,16
   12e54:	10bfffc4 	addi	r2,r2,-1
   12e58:	18c1ffcc 	andi	r3,r3,2047
   12e5c:	0180ff84 	movi	r6,1022
   12e60:	2884703a 	and	r2,r5,r2
   12e64:	280ad7fa 	srli	r5,r5,31
   12e68:	30c0130e 	bge	r6,r3,12eb8 <__fixdfsi+0x6c>
   12e6c:	01810744 	movi	r6,1053
   12e70:	30c00d16 	blt	r6,r3,12ea8 <__fixdfsi+0x5c>
   12e74:	01810cc4 	movi	r6,1075
   12e78:	30cdc83a 	sub	r6,r6,r3
   12e7c:	01c007c4 	movi	r7,31
   12e80:	10800434 	orhi	r2,r2,16
   12e84:	39800e0e 	bge	r7,r6,12ec0 <__fixdfsi+0x74>
   12e88:	010104c4 	movi	r4,1043
   12e8c:	20c7c83a 	sub	r3,r4,r3
   12e90:	10c6d83a 	srl	r3,r2,r3
   12e94:	29403fcc 	andi	r5,r5,255
   12e98:	0145c83a 	sub	r2,zero,r5
   12e9c:	1884f03a 	xor	r2,r3,r2
   12ea0:	1145883a 	add	r2,r2,r5
   12ea4:	f800283a 	ret
   12ea8:	00a00034 	movhi	r2,32768
   12eac:	10bfffc4 	addi	r2,r2,-1
   12eb0:	2885883a 	add	r2,r5,r2
   12eb4:	f800283a 	ret
   12eb8:	0005883a 	mov	r2,zero
   12ebc:	f800283a 	ret
   12ec0:	18fefb44 	addi	r3,r3,-1043
   12ec4:	2188d83a 	srl	r4,r4,r6
   12ec8:	10c6983a 	sll	r3,r2,r3
   12ecc:	20c6b03a 	or	r3,r4,r3
   12ed0:	003ff006 	br	12e94 <__alt_data_end+0xf8012e94>

00012ed4 <__floatsidf>:
   12ed4:	defffd04 	addi	sp,sp,-12
   12ed8:	dc400115 	stw	r17,4(sp)
   12edc:	dfc00215 	stw	ra,8(sp)
   12ee0:	dc000015 	stw	r16,0(sp)
   12ee4:	2023883a 	mov	r17,r4
   12ee8:	20001426 	beq	r4,zero,12f3c <__floatsidf+0x68>
   12eec:	2020d7fa 	srli	r16,r4,31
   12ef0:	80000126 	beq	r16,zero,12ef8 <__floatsidf+0x24>
   12ef4:	0123c83a 	sub	r17,zero,r4
   12ef8:	8809883a 	mov	r4,r17
   12efc:	00089f40 	call	89f4 <__clzsi2>
   12f00:	01410784 	movi	r5,1054
   12f04:	00c00284 	movi	r3,10
   12f08:	288bc83a 	sub	r5,r5,r2
   12f0c:	18801c16 	blt	r3,r2,12f80 <__floatsidf+0xac>
   12f10:	00c002c4 	movi	r3,11
   12f14:	1887c83a 	sub	r3,r3,r2
   12f18:	88c8d83a 	srl	r4,r17,r3
   12f1c:	00c00434 	movhi	r3,16
   12f20:	18ffffc4 	addi	r3,r3,-1
   12f24:	10800544 	addi	r2,r2,21
   12f28:	20c8703a 	and	r4,r4,r3
   12f2c:	8884983a 	sll	r2,r17,r2
   12f30:	28c1ffcc 	andi	r3,r5,2047
   12f34:	800d883a 	mov	r6,r16
   12f38:	00000406 	br	12f4c <__floatsidf+0x78>
   12f3c:	000d883a 	mov	r6,zero
   12f40:	0007883a 	mov	r3,zero
   12f44:	0009883a 	mov	r4,zero
   12f48:	0005883a 	mov	r2,zero
   12f4c:	180a953a 	slli	r5,r3,20
   12f50:	31803fcc 	andi	r6,r6,255
   12f54:	00c00434 	movhi	r3,16
   12f58:	300c97fa 	slli	r6,r6,31
   12f5c:	18ffffc4 	addi	r3,r3,-1
   12f60:	20c6703a 	and	r3,r4,r3
   12f64:	1946b03a 	or	r3,r3,r5
   12f68:	1986b03a 	or	r3,r3,r6
   12f6c:	dfc00217 	ldw	ra,8(sp)
   12f70:	dc400117 	ldw	r17,4(sp)
   12f74:	dc000017 	ldw	r16,0(sp)
   12f78:	dec00304 	addi	sp,sp,12
   12f7c:	f800283a 	ret
   12f80:	10fffd44 	addi	r3,r2,-11
   12f84:	88c8983a 	sll	r4,r17,r3
   12f88:	00800434 	movhi	r2,16
   12f8c:	10bfffc4 	addi	r2,r2,-1
   12f90:	2088703a 	and	r4,r4,r2
   12f94:	28c1ffcc 	andi	r3,r5,2047
   12f98:	800d883a 	mov	r6,r16
   12f9c:	0005883a 	mov	r2,zero
   12fa0:	003fea06 	br	12f4c <__alt_data_end+0xf8012f4c>

00012fa4 <__floatunsidf>:
   12fa4:	defffe04 	addi	sp,sp,-8
   12fa8:	dc000015 	stw	r16,0(sp)
   12fac:	dfc00115 	stw	ra,4(sp)
   12fb0:	2021883a 	mov	r16,r4
   12fb4:	20001026 	beq	r4,zero,12ff8 <__floatunsidf+0x54>
   12fb8:	00089f40 	call	89f4 <__clzsi2>
   12fbc:	01410784 	movi	r5,1054
   12fc0:	100d883a 	mov	r6,r2
   12fc4:	288bc83a 	sub	r5,r5,r2
   12fc8:	00800284 	movi	r2,10
   12fcc:	11801616 	blt	r2,r6,13028 <__floatunsidf+0x84>
   12fd0:	008002c4 	movi	r2,11
   12fd4:	1185c83a 	sub	r2,r2,r6
   12fd8:	8084d83a 	srl	r2,r16,r2
   12fdc:	00c00434 	movhi	r3,16
   12fe0:	31c00544 	addi	r7,r6,21
   12fe4:	18ffffc4 	addi	r3,r3,-1
   12fe8:	81e0983a 	sll	r16,r16,r7
   12fec:	10cc703a 	and	r6,r2,r3
   12ff0:	2941ffcc 	andi	r5,r5,2047
   12ff4:	00000206 	br	13000 <__floatunsidf+0x5c>
   12ff8:	000b883a 	mov	r5,zero
   12ffc:	000d883a 	mov	r6,zero
   13000:	280a953a 	slli	r5,r5,20
   13004:	00c00434 	movhi	r3,16
   13008:	18ffffc4 	addi	r3,r3,-1
   1300c:	30c6703a 	and	r3,r6,r3
   13010:	8005883a 	mov	r2,r16
   13014:	1946b03a 	or	r3,r3,r5
   13018:	dfc00117 	ldw	ra,4(sp)
   1301c:	dc000017 	ldw	r16,0(sp)
   13020:	dec00204 	addi	sp,sp,8
   13024:	f800283a 	ret
   13028:	31bffd44 	addi	r6,r6,-11
   1302c:	818c983a 	sll	r6,r16,r6
   13030:	00800434 	movhi	r2,16
   13034:	10bfffc4 	addi	r2,r2,-1
   13038:	2941ffcc 	andi	r5,r5,2047
   1303c:	0021883a 	mov	r16,zero
   13040:	308c703a 	and	r6,r6,r2
   13044:	003fee06 	br	13000 <__alt_data_end+0xf8013000>

00013048 <alt_load_section>:
 */

static void ALT_INLINE alt_load_section (alt_u32* from, 
                                         alt_u32* to, 
                                         alt_u32* end)
{
   13048:	defffc04 	addi	sp,sp,-16
   1304c:	df000315 	stw	fp,12(sp)
   13050:	df000304 	addi	fp,sp,12
   13054:	e13ffd15 	stw	r4,-12(fp)
   13058:	e17ffe15 	stw	r5,-8(fp)
   1305c:	e1bfff15 	stw	r6,-4(fp)
  if (to != from)
   13060:	e0fffe17 	ldw	r3,-8(fp)
   13064:	e0bffd17 	ldw	r2,-12(fp)
   13068:	18800c26 	beq	r3,r2,1309c <alt_load_section+0x54>
  {
    while( to != end )
   1306c:	00000806 	br	13090 <alt_load_section+0x48>
    {
      *to++ = *from++;
   13070:	e0bffe17 	ldw	r2,-8(fp)
   13074:	10c00104 	addi	r3,r2,4
   13078:	e0fffe15 	stw	r3,-8(fp)
   1307c:	e0fffd17 	ldw	r3,-12(fp)
   13080:	19000104 	addi	r4,r3,4
   13084:	e13ffd15 	stw	r4,-12(fp)
   13088:	18c00017 	ldw	r3,0(r3)
   1308c:	10c00015 	stw	r3,0(r2)
                                         alt_u32* to, 
                                         alt_u32* end)
{
  if (to != from)
  {
    while( to != end )
   13090:	e0fffe17 	ldw	r3,-8(fp)
   13094:	e0bfff17 	ldw	r2,-4(fp)
   13098:	18bff51e 	bne	r3,r2,13070 <__alt_data_end+0xf8013070>
    {
      *to++ = *from++;
    }
  }
}
   1309c:	e037883a 	mov	sp,fp
   130a0:	df000017 	ldw	fp,0(sp)
   130a4:	dec00104 	addi	sp,sp,4
   130a8:	f800283a 	ret

000130ac <alt_load>:
 * there is no bootloader, so this application is responsible for loading to
 * RAM any sections that are required.
 */  

void alt_load (void)
{
   130ac:	defffe04 	addi	sp,sp,-8
   130b0:	dfc00115 	stw	ra,4(sp)
   130b4:	df000015 	stw	fp,0(sp)
   130b8:	d839883a 	mov	fp,sp
  /* 
   * Copy the .rwdata section. 
   */

  alt_load_section (&__flash_rwdata_start, 
   130bc:	01000374 	movhi	r4,13
   130c0:	210a9a04 	addi	r4,r4,10856
   130c4:	01400374 	movhi	r5,13
   130c8:	29438c04 	addi	r5,r5,3632
   130cc:	01800374 	movhi	r6,13
   130d0:	318a9a04 	addi	r6,r6,10856
   130d4:	00130480 	call	13048 <alt_load_section>

  /*
   * Copy the exception handler.
   */

  alt_load_section (&__flash_exceptions_start, 
   130d8:	01000034 	movhi	r4,0
   130dc:	21000804 	addi	r4,r4,32
   130e0:	01400034 	movhi	r5,0
   130e4:	29400804 	addi	r5,r5,32
   130e8:	01800034 	movhi	r6,0
   130ec:	31809104 	addi	r6,r6,580
   130f0:	00130480 	call	13048 <alt_load_section>

  /*
   * Copy the .rodata section.
   */

  alt_load_section (&__flash_rodata_start, 
   130f4:	01000074 	movhi	r4,1
   130f8:	21144a04 	addi	r4,r4,20776
   130fc:	01400074 	movhi	r5,1
   13100:	29544a04 	addi	r5,r5,20776
   13104:	01800374 	movhi	r6,13
   13108:	31838c04 	addi	r6,r6,3632
   1310c:	00130480 	call	13048 <alt_load_section>
  
  /*
   * Now ensure that the caches are in synch.
   */
  
  alt_dcache_flush_all();
   13110:	00140400 	call	14040 <alt_dcache_flush_all>
  alt_icache_flush_all();
   13114:	001425c0 	call	1425c <alt_icache_flush_all>
}
   13118:	e037883a 	mov	sp,fp
   1311c:	dfc00117 	ldw	ra,4(sp)
   13120:	df000017 	ldw	fp,0(sp)
   13124:	dec00204 	addi	sp,sp,8
   13128:	f800283a 	ret

0001312c <alt_main>:
 * devices/filesystems/components in the system; and call the entry point for
 * the users application, i.e. main().
 */

void alt_main (void)
{
   1312c:	defffd04 	addi	sp,sp,-12
   13130:	dfc00215 	stw	ra,8(sp)
   13134:	df000115 	stw	fp,4(sp)
   13138:	df000104 	addi	fp,sp,4
#endif

  /* ALT LOG - please see HAL/sys/alt_log_printf.h for details */
  ALT_LOG_PRINT_BOOT("[alt_main.c] Entering alt_main, calling alt_irq_init.\r\n");
  /* Initialize the interrupt controller. */
  alt_irq_init (NULL);
   1313c:	0009883a 	mov	r4,zero
   13140:	00132cc0 	call	132cc <alt_irq_init>

  /* Initialize the operating system */
  ALT_LOG_PRINT_BOOT("[alt_main.c] Done alt_irq_init, calling alt_os_init.\r\n");
  ALT_OS_INIT();
   13144:	0001883a 	nop
  ALT_LOG_PRINT_BOOT("[alt_main.c] Done OS Init, calling alt_sem_create.\r\n");
  ALT_SEM_CREATE (&alt_fd_list_lock, 1);

  /* Initialize the device drivers/software components. */
  ALT_LOG_PRINT_BOOT("[alt_main.c] Calling alt_sys_init.\r\n");
  alt_sys_init();
   13148:	00133000 	call	13300 <alt_sys_init>
   * devices be present (not equal to /dev/null) and if direct drivers
   * aren't being used.
   */

    ALT_LOG_PRINT_BOOT("[alt_main.c] Redirecting IO.\r\n");
    alt_io_redirect(ALT_STDOUT, ALT_STDIN, ALT_STDERR);
   1314c:	01000374 	movhi	r4,13
   13150:	21035c04 	addi	r4,r4,3440
   13154:	01400374 	movhi	r5,13
   13158:	29435c04 	addi	r5,r5,3440
   1315c:	01800374 	movhi	r6,13
   13160:	31835c04 	addi	r6,r6,3440
   13164:	001434c0 	call	1434c <alt_io_redirect>
  /* 
   * Call the C++ constructors 
   */

  ALT_LOG_PRINT_BOOT("[alt_main.c] Calling C++ constructors.\r\n");
  _do_ctors ();
   13168:	00141a40 	call	141a4 <_do_ctors>
   * redefined as _exit()). This is in the interest of reducing code footprint,
   * in that the atexit() overhead is removed when it's not needed.
   */

  ALT_LOG_PRINT_BOOT("[alt_main.c] Calling atexit.\r\n");
  atexit (_do_dtors);
   1316c:	01000074 	movhi	r4,1
   13170:	21108004 	addi	r4,r4,16896
   13174:	0014d840 	call	14d84 <atexit>
  ALT_LOG_PRINT_BOOT("[alt_main.c] Calling main.\r\n");

#ifdef ALT_NO_EXIT
  main (alt_argc, alt_argv, alt_envp);
#else
  result = main (alt_argc, alt_argv, alt_envp);
   13178:	d1272b17 	ldw	r4,-25428(gp)
   1317c:	d0e72c17 	ldw	r3,-25424(gp)
   13180:	d0a72d17 	ldw	r2,-25420(gp)
   13184:	180b883a 	mov	r5,r3
   13188:	100d883a 	mov	r6,r2
   1318c:	00003bc0 	call	3bc <main>
   13190:	e0bfff15 	stw	r2,-4(fp)
  close(STDOUT_FILENO);
   13194:	01000044 	movi	r4,1
   13198:	0013f700 	call	13f70 <close>
  exit (result);
   1319c:	e13fff17 	ldw	r4,-4(fp)
   131a0:	0014d980 	call	14d98 <exit>

000131a4 <__malloc_lock>:
 * configuration is single threaded, so there is nothing to do here. Note that 
 * this requires that malloc is never called by an interrupt service routine.
 */

void __malloc_lock ( struct _reent *_r )
{
   131a4:	defffe04 	addi	sp,sp,-8
   131a8:	df000115 	stw	fp,4(sp)
   131ac:	df000104 	addi	fp,sp,4
   131b0:	e13fff15 	stw	r4,-4(fp)
}
   131b4:	e037883a 	mov	sp,fp
   131b8:	df000017 	ldw	fp,0(sp)
   131bc:	dec00104 	addi	sp,sp,4
   131c0:	f800283a 	ret

000131c4 <__malloc_unlock>:
/*
 *
 */

void __malloc_unlock ( struct _reent *_r )
{
   131c4:	defffe04 	addi	sp,sp,-8
   131c8:	df000115 	stw	fp,4(sp)
   131cc:	df000104 	addi	fp,sp,4
   131d0:	e13fff15 	stw	r4,-4(fp)
}
   131d4:	e037883a 	mov	sp,fp
   131d8:	df000017 	ldw	fp,0(sp)
   131dc:	dec00104 	addi	sp,sp,4
   131e0:	f800283a 	ret

000131e4 <sbrk>:
#endif
 
caddr_t ALT_SBRK (int incr) __attribute__ ((no_instrument_function ));

caddr_t ALT_SBRK (int incr)
{ 
   131e4:	defff904 	addi	sp,sp,-28
   131e8:	df000615 	stw	fp,24(sp)
   131ec:	df000604 	addi	fp,sp,24
   131f0:	e13fff15 	stw	r4,-4(fp)
static ALT_INLINE alt_irq_context ALT_ALWAYS_INLINE 
       alt_irq_disable_all (void)
{
  alt_irq_context context;

  NIOS2_READ_STATUS (context);
   131f4:	0005303a 	rdctl	r2,status
   131f8:	e0bffc15 	stw	r2,-16(fp)

  NIOS2_WRITE_STATUS (context & ~NIOS2_STATUS_PIE_MSK);
   131fc:	e0fffc17 	ldw	r3,-16(fp)
   13200:	00bfff84 	movi	r2,-2
   13204:	1884703a 	and	r2,r3,r2
   13208:	1001703a 	wrctl	status,r2
  
  return context;
   1320c:	e0bffc17 	ldw	r2,-16(fp)
  alt_irq_context context;
  char *prev_heap_end; 

  context = alt_irq_disable_all();
   13210:	e0bffa15 	stw	r2,-24(fp)

  /* Always return data aligned on a word boundary */
  heap_end = (char *)(((unsigned int)heap_end + 3) & ~3);
   13214:	d0a00c17 	ldw	r2,-32720(gp)
   13218:	10c000c4 	addi	r3,r2,3
   1321c:	00bfff04 	movi	r2,-4
   13220:	1884703a 	and	r2,r3,r2
   13224:	d0a00c15 	stw	r2,-32720(gp)
  if (((heap_end + incr) - __alt_heap_start) > ALT_MAX_HEAP_BYTES) {
    alt_irq_enable_all(context);
    return (caddr_t)-1;
  }
#else
  if ((heap_end + incr) > __alt_heap_limit) {
   13228:	d0e00c17 	ldw	r3,-32720(gp)
   1322c:	e0bfff17 	ldw	r2,-4(fp)
   13230:	1887883a 	add	r3,r3,r2
   13234:	00820034 	movhi	r2,2048
   13238:	10800004 	addi	r2,r2,0
   1323c:	10c0062e 	bgeu	r2,r3,13258 <sbrk+0x74>
   13240:	e0bffa17 	ldw	r2,-24(fp)
   13244:	e0bffd15 	stw	r2,-12(fp)
  status &= ~NIOS2_STATUS_PIE_MSK;
  status |= (context & NIOS2_STATUS_PIE_MSK);
  
  NIOS2_WRITE_STATUS (status);
#else
  NIOS2_WRITE_STATUS (context);
   13248:	e0bffd17 	ldw	r2,-12(fp)
   1324c:	1001703a 	wrctl	status,r2
    alt_irq_enable_all(context);
    return (caddr_t)-1;
   13250:	00bfffc4 	movi	r2,-1
   13254:	00000b06 	br	13284 <sbrk+0xa0>
  }
#endif

  prev_heap_end = heap_end; 
   13258:	d0a00c17 	ldw	r2,-32720(gp)
   1325c:	e0bffb15 	stw	r2,-20(fp)
  heap_end += incr; 
   13260:	d0e00c17 	ldw	r3,-32720(gp)
   13264:	e0bfff17 	ldw	r2,-4(fp)
   13268:	1885883a 	add	r2,r3,r2
   1326c:	d0a00c15 	stw	r2,-32720(gp)
   13270:	e0bffa17 	ldw	r2,-24(fp)
   13274:	e0bffe15 	stw	r2,-8(fp)
   13278:	e0bffe17 	ldw	r2,-8(fp)
   1327c:	1001703a 	wrctl	status,r2

#endif

  alt_irq_enable_all(context);

  return (caddr_t) prev_heap_end; 
   13280:	e0bffb17 	ldw	r2,-20(fp)
} 
   13284:	e037883a 	mov	sp,fp
   13288:	df000017 	ldw	fp,0(sp)
   1328c:	dec00104 	addi	sp,sp,4
   13290:	f800283a 	ret

00013294 <alt_dev_reg>:
 */

extern int alt_fs_reg  (alt_dev* dev); 

static ALT_INLINE int alt_dev_reg (alt_dev* dev)
{
   13294:	defffd04 	addi	sp,sp,-12
   13298:	dfc00215 	stw	ra,8(sp)
   1329c:	df000115 	stw	fp,4(sp)
   132a0:	df000104 	addi	fp,sp,4
   132a4:	e13fff15 	stw	r4,-4(fp)
  extern alt_llist alt_dev_list;

  return alt_dev_llist_insert ((alt_dev_llist*) dev, &alt_dev_list);
   132a8:	e13fff17 	ldw	r4,-4(fp)
   132ac:	01400374 	movhi	r5,13
   132b0:	294a9304 	addi	r5,r5,10828
   132b4:	00141000 	call	14100 <alt_dev_llist_insert>
}
   132b8:	e037883a 	mov	sp,fp
   132bc:	dfc00117 	ldw	ra,4(sp)
   132c0:	df000017 	ldw	fp,0(sp)
   132c4:	dec00204 	addi	sp,sp,8
   132c8:	f800283a 	ret

000132cc <alt_irq_init>:
 * The "base" parameter is ignored and only
 * present for backwards-compatibility.
 */

void alt_irq_init ( const void* base )
{
   132cc:	defffd04 	addi	sp,sp,-12
   132d0:	dfc00215 	stw	ra,8(sp)
   132d4:	df000115 	stw	fp,4(sp)
   132d8:	df000104 	addi	fp,sp,4
   132dc:	e13fff15 	stw	r4,-4(fp)
    ALTERA_NIOS2_GEN2_IRQ_INIT ( CPU, cpu);
   132e0:	00149e40 	call	149e4 <altera_nios2_gen2_irq_init>
 * alt_irq_cpu_enable_interrupts() enables the CPU to start taking interrupts.
 */
static ALT_INLINE void ALT_ALWAYS_INLINE 
       alt_irq_cpu_enable_interrupts (void)
{
    NIOS2_WRITE_STATUS(NIOS2_STATUS_PIE_MSK
   132e4:	00800044 	movi	r2,1
   132e8:	1001703a 	wrctl	status,r2
    alt_irq_cpu_enable_interrupts();
}
   132ec:	e037883a 	mov	sp,fp
   132f0:	dfc00117 	ldw	ra,4(sp)
   132f4:	df000017 	ldw	fp,0(sp)
   132f8:	dec00204 	addi	sp,sp,8
   132fc:	f800283a 	ret

00013300 <alt_sys_init>:
 * Initialize the non-interrupt controller devices.
 * Called after alt_irq_init().
 */

void alt_sys_init( void )
{
   13300:	defffe04 	addi	sp,sp,-8
   13304:	dfc00115 	stw	ra,4(sp)
   13308:	df000015 	stw	fp,0(sp)
   1330c:	d839883a 	mov	fp,sp
    ALTERA_AVALON_JTAG_UART_INIT ( JTAG_UART, jtag_uart);
   13310:	01000374 	movhi	r4,13
   13314:	2105bf04 	addi	r4,r4,5884
   13318:	000b883a 	mov	r5,zero
   1331c:	000d883a 	mov	r6,zero
   13320:	00135000 	call	13500 <altera_avalon_jtag_uart_init>
   13324:	01000374 	movhi	r4,13
   13328:	2105b504 	addi	r4,r4,5844
   1332c:	00132940 	call	13294 <alt_dev_reg>
    ALTERA_AVALON_SYSID_QSYS_INIT ( SYSID0, sysid0);
   13330:	0001883a 	nop
    ALTERA_UP_AVALON_PARALLEL_PORT_INIT ( LED_GREEN, led_green);
   13334:	01000374 	movhi	r4,13
   13338:	2109cd04 	addi	r4,r4,10036
   1333c:	00132940 	call	13294 <alt_dev_reg>
    ALTERA_UP_AVALON_PARALLEL_PORT_INIT ( LED_RED, led_red);
   13340:	01000374 	movhi	r4,13
   13344:	2109d804 	addi	r4,r4,10080
   13348:	00132940 	call	13294 <alt_dev_reg>
    ALTERA_UP_AVALON_PARALLEL_PORT_INIT ( PUSH_BUTTONS, push_buttons);
   1334c:	01000374 	movhi	r4,13
   13350:	2109e304 	addi	r4,r4,10124
   13354:	00132940 	call	13294 <alt_dev_reg>
    ALTERA_UP_AVALON_PARALLEL_PORT_INIT ( SEG7_0TO3, seg7_0to3);
   13358:	01000374 	movhi	r4,13
   1335c:	2109ee04 	addi	r4,r4,10168
   13360:	00132940 	call	13294 <alt_dev_reg>
    ALTERA_UP_AVALON_PARALLEL_PORT_INIT ( SEG7_4TO7, seg7_4to7);
   13364:	01000374 	movhi	r4,13
   13368:	2109f904 	addi	r4,r4,10212
   1336c:	00132940 	call	13294 <alt_dev_reg>
    ALTERA_UP_AVALON_PARALLEL_PORT_INIT ( SLIDER_SWITCH, slider_switch);
   13370:	01000374 	movhi	r4,13
   13374:	210a0404 	addi	r4,r4,10256
   13378:	00132940 	call	13294 <alt_dev_reg>
    ALTERA_UP_SD_CARD_AVALON_INTERFACE_INIT ( ALTERA_UP_SD_CARD_AVALON_INTERFACE_0, Altera_UP_SD_Card_Avalon_Interface_0);
   1337c:	01000374 	movhi	r4,13
   13380:	210a0f04 	addi	r4,r4,10300
   13384:	00132940 	call	13294 <alt_dev_reg>
}
   13388:	e037883a 	mov	sp,fp
   1338c:	dfc00117 	ldw	ra,4(sp)
   13390:	df000017 	ldw	fp,0(sp)
   13394:	dec00204 	addi	sp,sp,8
   13398:	f800283a 	ret

0001339c <altera_avalon_jtag_uart_read_fd>:
 *
 */

int 
altera_avalon_jtag_uart_read_fd(alt_fd* fd, char* buffer, int space)
{
   1339c:	defffa04 	addi	sp,sp,-24
   133a0:	dfc00515 	stw	ra,20(sp)
   133a4:	df000415 	stw	fp,16(sp)
   133a8:	df000404 	addi	fp,sp,16
   133ac:	e13ffd15 	stw	r4,-12(fp)
   133b0:	e17ffe15 	stw	r5,-8(fp)
   133b4:	e1bfff15 	stw	r6,-4(fp)
    altera_avalon_jtag_uart_dev* dev = (altera_avalon_jtag_uart_dev*) fd->dev; 
   133b8:	e0bffd17 	ldw	r2,-12(fp)
   133bc:	10800017 	ldw	r2,0(r2)
   133c0:	e0bffc15 	stw	r2,-16(fp)

    return altera_avalon_jtag_uart_read(&dev->state, buffer, space,
   133c4:	e0bffc17 	ldw	r2,-16(fp)
   133c8:	10c00a04 	addi	r3,r2,40
   133cc:	e0bffd17 	ldw	r2,-12(fp)
   133d0:	10800217 	ldw	r2,8(r2)
   133d4:	1809883a 	mov	r4,r3
   133d8:	e17ffe17 	ldw	r5,-8(fp)
   133dc:	e1bfff17 	ldw	r6,-4(fp)
   133e0:	100f883a 	mov	r7,r2
   133e4:	00139bc0 	call	139bc <altera_avalon_jtag_uart_read>
      fd->fd_flags);
}
   133e8:	e037883a 	mov	sp,fp
   133ec:	dfc00117 	ldw	ra,4(sp)
   133f0:	df000017 	ldw	fp,0(sp)
   133f4:	dec00204 	addi	sp,sp,8
   133f8:	f800283a 	ret

000133fc <altera_avalon_jtag_uart_write_fd>:

int 
altera_avalon_jtag_uart_write_fd(alt_fd* fd, const char* buffer, int space)
{
   133fc:	defffa04 	addi	sp,sp,-24
   13400:	dfc00515 	stw	ra,20(sp)
   13404:	df000415 	stw	fp,16(sp)
   13408:	df000404 	addi	fp,sp,16
   1340c:	e13ffd15 	stw	r4,-12(fp)
   13410:	e17ffe15 	stw	r5,-8(fp)
   13414:	e1bfff15 	stw	r6,-4(fp)
    altera_avalon_jtag_uart_dev* dev = (altera_avalon_jtag_uart_dev*) fd->dev; 
   13418:	e0bffd17 	ldw	r2,-12(fp)
   1341c:	10800017 	ldw	r2,0(r2)
   13420:	e0bffc15 	stw	r2,-16(fp)

    return altera_avalon_jtag_uart_write(&dev->state, buffer, space,
   13424:	e0bffc17 	ldw	r2,-16(fp)
   13428:	10c00a04 	addi	r3,r2,40
   1342c:	e0bffd17 	ldw	r2,-12(fp)
   13430:	10800217 	ldw	r2,8(r2)
   13434:	1809883a 	mov	r4,r3
   13438:	e17ffe17 	ldw	r5,-8(fp)
   1343c:	e1bfff17 	ldw	r6,-4(fp)
   13440:	100f883a 	mov	r7,r2
   13444:	0013bc80 	call	13bc8 <altera_avalon_jtag_uart_write>
      fd->fd_flags);
}
   13448:	e037883a 	mov	sp,fp
   1344c:	dfc00117 	ldw	ra,4(sp)
   13450:	df000017 	ldw	fp,0(sp)
   13454:	dec00204 	addi	sp,sp,8
   13458:	f800283a 	ret

0001345c <altera_avalon_jtag_uart_close_fd>:

#ifndef ALTERA_AVALON_JTAG_UART_SMALL

int 
altera_avalon_jtag_uart_close_fd(alt_fd* fd)
{
   1345c:	defffc04 	addi	sp,sp,-16
   13460:	dfc00315 	stw	ra,12(sp)
   13464:	df000215 	stw	fp,8(sp)
   13468:	df000204 	addi	fp,sp,8
   1346c:	e13fff15 	stw	r4,-4(fp)
    altera_avalon_jtag_uart_dev* dev = (altera_avalon_jtag_uart_dev*) fd->dev; 
   13470:	e0bfff17 	ldw	r2,-4(fp)
   13474:	10800017 	ldw	r2,0(r2)
   13478:	e0bffe15 	stw	r2,-8(fp)

    return altera_avalon_jtag_uart_close(&dev->state, fd->fd_flags);
   1347c:	e0bffe17 	ldw	r2,-8(fp)
   13480:	10c00a04 	addi	r3,r2,40
   13484:	e0bfff17 	ldw	r2,-4(fp)
   13488:	10800217 	ldw	r2,8(r2)
   1348c:	1809883a 	mov	r4,r3
   13490:	100b883a 	mov	r5,r2
   13494:	00138680 	call	13868 <altera_avalon_jtag_uart_close>
}
   13498:	e037883a 	mov	sp,fp
   1349c:	dfc00117 	ldw	ra,4(sp)
   134a0:	df000017 	ldw	fp,0(sp)
   134a4:	dec00204 	addi	sp,sp,8
   134a8:	f800283a 	ret

000134ac <altera_avalon_jtag_uart_ioctl_fd>:

int 
altera_avalon_jtag_uart_ioctl_fd(alt_fd* fd, int req, void* arg)
{
   134ac:	defffa04 	addi	sp,sp,-24
   134b0:	dfc00515 	stw	ra,20(sp)
   134b4:	df000415 	stw	fp,16(sp)
   134b8:	df000404 	addi	fp,sp,16
   134bc:	e13ffd15 	stw	r4,-12(fp)
   134c0:	e17ffe15 	stw	r5,-8(fp)
   134c4:	e1bfff15 	stw	r6,-4(fp)
    altera_avalon_jtag_uart_dev* dev = (altera_avalon_jtag_uart_dev*) fd->dev;
   134c8:	e0bffd17 	ldw	r2,-12(fp)
   134cc:	10800017 	ldw	r2,0(r2)
   134d0:	e0bffc15 	stw	r2,-16(fp)

    return altera_avalon_jtag_uart_ioctl(&dev->state, req, arg);
   134d4:	e0bffc17 	ldw	r2,-16(fp)
   134d8:	10800a04 	addi	r2,r2,40
   134dc:	1009883a 	mov	r4,r2
   134e0:	e17ffe17 	ldw	r5,-8(fp)
   134e4:	e1bfff17 	ldw	r6,-4(fp)
   134e8:	00138d00 	call	138d0 <altera_avalon_jtag_uart_ioctl>
}
   134ec:	e037883a 	mov	sp,fp
   134f0:	dfc00117 	ldw	ra,4(sp)
   134f4:	df000017 	ldw	fp,0(sp)
   134f8:	dec00204 	addi	sp,sp,8
   134fc:	f800283a 	ret

00013500 <altera_avalon_jtag_uart_init>:
 * Return 1 on sucessful IRQ register and 0 on failure.
 */

void altera_avalon_jtag_uart_init(altera_avalon_jtag_uart_state* sp, 
                                  int irq_controller_id, int irq)
{
   13500:	defffb04 	addi	sp,sp,-20
   13504:	dfc00415 	stw	ra,16(sp)
   13508:	df000315 	stw	fp,12(sp)
   1350c:	df000304 	addi	fp,sp,12
   13510:	e13ffd15 	stw	r4,-12(fp)
   13514:	e17ffe15 	stw	r5,-8(fp)
   13518:	e1bfff15 	stw	r6,-4(fp)
  ALT_FLAG_CREATE(&sp->events, 0);
  ALT_SEM_CREATE(&sp->read_lock, 1);
  ALT_SEM_CREATE(&sp->write_lock, 1);

  /* enable read interrupts at the device */
  sp->irq_enable = ALTERA_AVALON_JTAG_UART_CONTROL_RE_MSK;
   1351c:	e0bffd17 	ldw	r2,-12(fp)
   13520:	00c00044 	movi	r3,1
   13524:	10c00815 	stw	r3,32(r2)

  IOWR_ALTERA_AVALON_JTAG_UART_CONTROL(sp->base, sp->irq_enable); 
   13528:	e0bffd17 	ldw	r2,-12(fp)
   1352c:	10800017 	ldw	r2,0(r2)
   13530:	10800104 	addi	r2,r2,4
   13534:	1007883a 	mov	r3,r2
   13538:	e0bffd17 	ldw	r2,-12(fp)
   1353c:	10800817 	ldw	r2,32(r2)
   13540:	18800035 	stwio	r2,0(r3)
  /* register the interrupt handler */
#ifdef ALT_ENHANCED_INTERRUPT_API_PRESENT
  alt_ic_isr_register(irq_controller_id, irq, altera_avalon_jtag_uart_irq, 
                      sp, NULL);
#else
  alt_irq_register(irq, sp, altera_avalon_jtag_uart_irq);
   13544:	e0bfff17 	ldw	r2,-4(fp)
   13548:	1009883a 	mov	r4,r2
   1354c:	e17ffd17 	ldw	r5,-12(fp)
   13550:	01800074 	movhi	r6,1
   13554:	318d6e04 	addi	r6,r6,13752
   13558:	00143c40 	call	143c4 <alt_irq_register>
#endif  

  /* Register an alarm to go off every second to check for presence of host */
  sp->host_inactive = 0;
   1355c:	e0bffd17 	ldw	r2,-12(fp)
   13560:	10000915 	stw	zero,36(r2)

  if (alt_alarm_start(&sp->alarm, alt_ticks_per_second(), 
   13564:	e0bffd17 	ldw	r2,-12(fp)
   13568:	10c00204 	addi	r3,r2,8
 * Obtain the system clock rate in ticks/s. 
 */

static ALT_INLINE alt_u32 ALT_ALWAYS_INLINE alt_ticks_per_second (void)
{
  return _alt_tick_rate;
   1356c:	00800374 	movhi	r2,13
   13570:	1091b304 	addi	r2,r2,18124
   13574:	10800017 	ldw	r2,0(r2)
   13578:	1809883a 	mov	r4,r3
   1357c:	100b883a 	mov	r5,r2
   13580:	01800074 	movhi	r6,1
   13584:	318df004 	addi	r6,r6,14272
   13588:	e1fffd17 	ldw	r7,-12(fp)
   1358c:	0013de00 	call	13de0 <alt_alarm_start>
   13590:	1000040e 	bge	r2,zero,135a4 <altera_avalon_jtag_uart_init+0xa4>
    &altera_avalon_jtag_uart_timeout, sp) < 0)
  {
    /* If we can't set the alarm then record "don't know if host present" 
     * and behave as though the host is present.
     */
    sp->timeout = INT_MAX;
   13594:	e0fffd17 	ldw	r3,-12(fp)
   13598:	00a00034 	movhi	r2,32768
   1359c:	10bfffc4 	addi	r2,r2,-1
   135a0:	18800115 	stw	r2,4(r3)
  }

  /* ALT_LOG - see altera_hal/HAL/inc/sys/alt_log_printf.h */ 
  ALT_LOG_JTAG_UART_ALARM_REGISTER(sp, sp->base);
}
   135a4:	e037883a 	mov	sp,fp
   135a8:	dfc00117 	ldw	ra,4(sp)
   135ac:	df000017 	ldw	fp,0(sp)
   135b0:	dec00204 	addi	sp,sp,8
   135b4:	f800283a 	ret

000135b8 <altera_avalon_jtag_uart_irq>:
#ifdef ALT_ENHANCED_INTERRUPT_API_PRESENT
static void altera_avalon_jtag_uart_irq(void* context)
#else
static void altera_avalon_jtag_uart_irq(void* context, alt_u32 id)
#endif
{
   135b8:	defff704 	addi	sp,sp,-36
   135bc:	df000815 	stw	fp,32(sp)
   135c0:	df000804 	addi	fp,sp,32
   135c4:	e13ffe15 	stw	r4,-8(fp)
   135c8:	e17fff15 	stw	r5,-4(fp)
  altera_avalon_jtag_uart_state* sp = (altera_avalon_jtag_uart_state*) context;
   135cc:	e0bffe17 	ldw	r2,-8(fp)
   135d0:	e0bffa15 	stw	r2,-24(fp)
  unsigned int base = sp->base;
   135d4:	e0bffa17 	ldw	r2,-24(fp)
   135d8:	10800017 	ldw	r2,0(r2)
   135dc:	e0bffb15 	stw	r2,-20(fp)
  /* ALT_LOG - see altera_hal/HAL/inc/sys/alt_log_printf.h */ 
  ALT_LOG_JTAG_UART_ISR_FUNCTION(base, sp);

  for ( ; ; )
  {
    unsigned int control = IORD_ALTERA_AVALON_JTAG_UART_CONTROL(base);
   135e0:	e0bffb17 	ldw	r2,-20(fp)
   135e4:	10800104 	addi	r2,r2,4
   135e8:	10800037 	ldwio	r2,0(r2)
   135ec:	e0bffc15 	stw	r2,-16(fp)

    /* Return once nothing more to do */
    if ((control & (ALTERA_AVALON_JTAG_UART_CONTROL_RI_MSK | ALTERA_AVALON_JTAG_UART_CONTROL_WI_MSK)) == 0)
   135f0:	e0bffc17 	ldw	r2,-16(fp)
   135f4:	1080c00c 	andi	r2,r2,768
   135f8:	1000011e 	bne	r2,zero,13600 <altera_avalon_jtag_uart_irq+0x48>
      break;
   135fc:	00006c06 	br	137b0 <altera_avalon_jtag_uart_irq+0x1f8>

    if (control & ALTERA_AVALON_JTAG_UART_CONTROL_RI_MSK)
   13600:	e0bffc17 	ldw	r2,-16(fp)
   13604:	1080400c 	andi	r2,r2,256
   13608:	10003426 	beq	r2,zero,136dc <altera_avalon_jtag_uart_irq+0x124>
    {
      /* process a read irq.  Start by assuming that there is data in the
       * receive FIFO (otherwise why would we have been interrupted?)
       */
      unsigned int data = 1 << ALTERA_AVALON_JTAG_UART_DATA_RAVAIL_OFST;
   1360c:	00800074 	movhi	r2,1
   13610:	e0bff815 	stw	r2,-32(fp)
      for ( ; ; )
      {
        /* Check whether there is space in the buffer.  If not then we must not
         * read any characters from the buffer as they will be lost.
         */
        unsigned int next = (sp->rx_in + 1) % ALTERA_AVALON_JTAG_UART_BUF_LEN;
   13614:	e0bffa17 	ldw	r2,-24(fp)
   13618:	10800a17 	ldw	r2,40(r2)
   1361c:	10800044 	addi	r2,r2,1
   13620:	1081ffcc 	andi	r2,r2,2047
   13624:	e0bffd15 	stw	r2,-12(fp)
        if (next == sp->rx_out)
   13628:	e0bffa17 	ldw	r2,-24(fp)
   1362c:	10c00b17 	ldw	r3,44(r2)
   13630:	e0bffd17 	ldw	r2,-12(fp)
   13634:	1880011e 	bne	r3,r2,1363c <altera_avalon_jtag_uart_irq+0x84>
          break;
   13638:	00001606 	br	13694 <altera_avalon_jtag_uart_irq+0xdc>

        /* Try to remove a character from the FIFO and find out whether there
         * are any more characters remaining.
         */
        data = IORD_ALTERA_AVALON_JTAG_UART_DATA(base);
   1363c:	e0bffb17 	ldw	r2,-20(fp)
   13640:	10800037 	ldwio	r2,0(r2)
   13644:	e0bff815 	stw	r2,-32(fp)
        
        if ((data & ALTERA_AVALON_JTAG_UART_DATA_RVALID_MSK) == 0)
   13648:	e0bff817 	ldw	r2,-32(fp)
   1364c:	10a0000c 	andi	r2,r2,32768
   13650:	1000011e 	bne	r2,zero,13658 <altera_avalon_jtag_uart_irq+0xa0>
          break;
   13654:	00000f06 	br	13694 <altera_avalon_jtag_uart_irq+0xdc>

        sp->rx_buf[sp->rx_in] = (data & ALTERA_AVALON_JTAG_UART_DATA_DATA_MSK) >> ALTERA_AVALON_JTAG_UART_DATA_DATA_OFST;
   13658:	e0bffa17 	ldw	r2,-24(fp)
   1365c:	10800a17 	ldw	r2,40(r2)
   13660:	e0fff817 	ldw	r3,-32(fp)
   13664:	1809883a 	mov	r4,r3
   13668:	e0fffa17 	ldw	r3,-24(fp)
   1366c:	1885883a 	add	r2,r3,r2
   13670:	10800e04 	addi	r2,r2,56
   13674:	11000005 	stb	r4,0(r2)
        sp->rx_in = (sp->rx_in + 1) % ALTERA_AVALON_JTAG_UART_BUF_LEN;
   13678:	e0bffa17 	ldw	r2,-24(fp)
   1367c:	10800a17 	ldw	r2,40(r2)
   13680:	10800044 	addi	r2,r2,1
   13684:	10c1ffcc 	andi	r3,r2,2047
   13688:	e0bffa17 	ldw	r2,-24(fp)
   1368c:	10c00a15 	stw	r3,40(r2)

        /* Post an event to notify jtag_uart_read that a character has been read */
        ALT_FLAG_POST (sp->events, ALT_JTAG_UART_READ_RDY, OS_FLAG_SET);
      }
   13690:	003fe006 	br	13614 <__alt_data_end+0xf8013614>

      if (data & ALTERA_AVALON_JTAG_UART_DATA_RAVAIL_MSK)
   13694:	e0bff817 	ldw	r2,-32(fp)
   13698:	10bfffec 	andhi	r2,r2,65535
   1369c:	10000f26 	beq	r2,zero,136dc <altera_avalon_jtag_uart_irq+0x124>
      {
        /* If there is still data available here then the buffer is full 
         * so turn off receive interrupts until some space becomes available.
         */
        sp->irq_enable &= ~ALTERA_AVALON_JTAG_UART_CONTROL_RE_MSK;
   136a0:	e0bffa17 	ldw	r2,-24(fp)
   136a4:	10c00817 	ldw	r3,32(r2)
   136a8:	00bfff84 	movi	r2,-2
   136ac:	1886703a 	and	r3,r3,r2
   136b0:	e0bffa17 	ldw	r2,-24(fp)
   136b4:	10c00815 	stw	r3,32(r2)
        IOWR_ALTERA_AVALON_JTAG_UART_CONTROL(base, sp->irq_enable);
   136b8:	e0bffb17 	ldw	r2,-20(fp)
   136bc:	10800104 	addi	r2,r2,4
   136c0:	1007883a 	mov	r3,r2
   136c4:	e0bffa17 	ldw	r2,-24(fp)
   136c8:	10800817 	ldw	r2,32(r2)
   136cc:	18800035 	stwio	r2,0(r3)
        
        /* Dummy read to ensure IRQ is cleared prior to ISR completion */
        IORD_ALTERA_AVALON_JTAG_UART_CONTROL(base);
   136d0:	e0bffb17 	ldw	r2,-20(fp)
   136d4:	10800104 	addi	r2,r2,4
   136d8:	10800037 	ldwio	r2,0(r2)
      }
    }

    if (control & ALTERA_AVALON_JTAG_UART_CONTROL_WI_MSK)
   136dc:	e0bffc17 	ldw	r2,-16(fp)
   136e0:	1080800c 	andi	r2,r2,512
   136e4:	10003126 	beq	r2,zero,137ac <altera_avalon_jtag_uart_irq+0x1f4>
    {
      /* process a write irq */
      unsigned int space = (control & ALTERA_AVALON_JTAG_UART_CONTROL_WSPACE_MSK) >> ALTERA_AVALON_JTAG_UART_CONTROL_WSPACE_OFST;
   136e8:	e0bffc17 	ldw	r2,-16(fp)
   136ec:	1004d43a 	srli	r2,r2,16
   136f0:	e0bff915 	stw	r2,-28(fp)

      while (space > 0 && sp->tx_out != sp->tx_in)
   136f4:	00001406 	br	13748 <altera_avalon_jtag_uart_irq+0x190>
      {
        IOWR_ALTERA_AVALON_JTAG_UART_DATA(base, sp->tx_buf[sp->tx_out]);
   136f8:	e0bffb17 	ldw	r2,-20(fp)
   136fc:	e0fffa17 	ldw	r3,-24(fp)
   13700:	18c00d17 	ldw	r3,52(r3)
   13704:	e13ffa17 	ldw	r4,-24(fp)
   13708:	20c7883a 	add	r3,r4,r3
   1370c:	18c20e04 	addi	r3,r3,2104
   13710:	18c00003 	ldbu	r3,0(r3)
   13714:	18c03fcc 	andi	r3,r3,255
   13718:	18c0201c 	xori	r3,r3,128
   1371c:	18ffe004 	addi	r3,r3,-128
   13720:	10c00035 	stwio	r3,0(r2)

        sp->tx_out = (sp->tx_out + 1) % ALTERA_AVALON_JTAG_UART_BUF_LEN;
   13724:	e0bffa17 	ldw	r2,-24(fp)
   13728:	10800d17 	ldw	r2,52(r2)
   1372c:	10800044 	addi	r2,r2,1
   13730:	10c1ffcc 	andi	r3,r2,2047
   13734:	e0bffa17 	ldw	r2,-24(fp)
   13738:	10c00d15 	stw	r3,52(r2)

        /* Post an event to notify jtag_uart_write that a character has been written */
        ALT_FLAG_POST (sp->events, ALT_JTAG_UART_WRITE_RDY, OS_FLAG_SET);

        space--;
   1373c:	e0bff917 	ldw	r2,-28(fp)
   13740:	10bfffc4 	addi	r2,r2,-1
   13744:	e0bff915 	stw	r2,-28(fp)
    if (control & ALTERA_AVALON_JTAG_UART_CONTROL_WI_MSK)
    {
      /* process a write irq */
      unsigned int space = (control & ALTERA_AVALON_JTAG_UART_CONTROL_WSPACE_MSK) >> ALTERA_AVALON_JTAG_UART_CONTROL_WSPACE_OFST;

      while (space > 0 && sp->tx_out != sp->tx_in)
   13748:	e0bff917 	ldw	r2,-28(fp)
   1374c:	10000526 	beq	r2,zero,13764 <altera_avalon_jtag_uart_irq+0x1ac>
   13750:	e0bffa17 	ldw	r2,-24(fp)
   13754:	10c00d17 	ldw	r3,52(r2)
   13758:	e0bffa17 	ldw	r2,-24(fp)
   1375c:	10800c17 	ldw	r2,48(r2)
   13760:	18bfe51e 	bne	r3,r2,136f8 <__alt_data_end+0xf80136f8>
        ALT_FLAG_POST (sp->events, ALT_JTAG_UART_WRITE_RDY, OS_FLAG_SET);

        space--;
      }

      if (space > 0)
   13764:	e0bff917 	ldw	r2,-28(fp)
   13768:	10001026 	beq	r2,zero,137ac <altera_avalon_jtag_uart_irq+0x1f4>
      {
        /* If we don't have any more data available then turn off the TX interrupt */
        sp->irq_enable &= ~ALTERA_AVALON_JTAG_UART_CONTROL_WE_MSK;
   1376c:	e0bffa17 	ldw	r2,-24(fp)
   13770:	10c00817 	ldw	r3,32(r2)
   13774:	00bfff44 	movi	r2,-3
   13778:	1886703a 	and	r3,r3,r2
   1377c:	e0bffa17 	ldw	r2,-24(fp)
   13780:	10c00815 	stw	r3,32(r2)
        IOWR_ALTERA_AVALON_JTAG_UART_CONTROL(sp->base, sp->irq_enable);
   13784:	e0bffa17 	ldw	r2,-24(fp)
   13788:	10800017 	ldw	r2,0(r2)
   1378c:	10800104 	addi	r2,r2,4
   13790:	1007883a 	mov	r3,r2
   13794:	e0bffa17 	ldw	r2,-24(fp)
   13798:	10800817 	ldw	r2,32(r2)
   1379c:	18800035 	stwio	r2,0(r3)
        
        /* Dummy read to ensure IRQ is cleared prior to ISR completion */
        IORD_ALTERA_AVALON_JTAG_UART_CONTROL(base);
   137a0:	e0bffb17 	ldw	r2,-20(fp)
   137a4:	10800104 	addi	r2,r2,4
   137a8:	10800037 	ldwio	r2,0(r2)
      }
    }
  }
   137ac:	003f8c06 	br	135e0 <__alt_data_end+0xf80135e0>
}
   137b0:	e037883a 	mov	sp,fp
   137b4:	df000017 	ldw	fp,0(sp)
   137b8:	dec00104 	addi	sp,sp,4
   137bc:	f800283a 	ret

000137c0 <altera_avalon_jtag_uart_timeout>:
 * Timeout routine is called every second
 */

static alt_u32 
altera_avalon_jtag_uart_timeout(void* context) 
{
   137c0:	defff804 	addi	sp,sp,-32
   137c4:	df000715 	stw	fp,28(sp)
   137c8:	df000704 	addi	fp,sp,28
   137cc:	e13ffb15 	stw	r4,-20(fp)
  altera_avalon_jtag_uart_state* sp = (altera_avalon_jtag_uart_state *) context;
   137d0:	e0bffb17 	ldw	r2,-20(fp)
   137d4:	e0bff915 	stw	r2,-28(fp)

  unsigned int control = IORD_ALTERA_AVALON_JTAG_UART_CONTROL(sp->base);
   137d8:	e0bff917 	ldw	r2,-28(fp)
   137dc:	10800017 	ldw	r2,0(r2)
   137e0:	10800104 	addi	r2,r2,4
   137e4:	10800037 	ldwio	r2,0(r2)
   137e8:	e0bffa15 	stw	r2,-24(fp)

  if (control & ALTERA_AVALON_JTAG_UART_CONTROL_AC_MSK)
   137ec:	e0bffa17 	ldw	r2,-24(fp)
   137f0:	1081000c 	andi	r2,r2,1024
   137f4:	10000b26 	beq	r2,zero,13824 <altera_avalon_jtag_uart_timeout+0x64>
  {
    IOWR_ALTERA_AVALON_JTAG_UART_CONTROL(sp->base, sp->irq_enable | ALTERA_AVALON_JTAG_UART_CONTROL_AC_MSK);
   137f8:	e0bff917 	ldw	r2,-28(fp)
   137fc:	10800017 	ldw	r2,0(r2)
   13800:	10800104 	addi	r2,r2,4
   13804:	1007883a 	mov	r3,r2
   13808:	e0bff917 	ldw	r2,-28(fp)
   1380c:	10800817 	ldw	r2,32(r2)
   13810:	10810014 	ori	r2,r2,1024
   13814:	18800035 	stwio	r2,0(r3)
    sp->host_inactive = 0;
   13818:	e0bff917 	ldw	r2,-28(fp)
   1381c:	10000915 	stw	zero,36(r2)
   13820:	00000a06 	br	1384c <altera_avalon_jtag_uart_timeout+0x8c>
  }
  else if (sp->host_inactive < INT_MAX - 2) {
   13824:	e0bff917 	ldw	r2,-28(fp)
   13828:	10c00917 	ldw	r3,36(r2)
   1382c:	00a00034 	movhi	r2,32768
   13830:	10bfff04 	addi	r2,r2,-4
   13834:	10c00536 	bltu	r2,r3,1384c <altera_avalon_jtag_uart_timeout+0x8c>
    sp->host_inactive++;
   13838:	e0bff917 	ldw	r2,-28(fp)
   1383c:	10800917 	ldw	r2,36(r2)
   13840:	10c00044 	addi	r3,r2,1
   13844:	e0bff917 	ldw	r2,-28(fp)
   13848:	10c00915 	stw	r3,36(r2)
   1384c:	00800374 	movhi	r2,13
   13850:	1091b304 	addi	r2,r2,18124
   13854:	10800017 	ldw	r2,0(r2)
      ALT_FLAG_POST (sp->events, ALT_JTAG_UART_TIMEOUT, OS_FLAG_SET);
    }
  }

  return alt_ticks_per_second();
}
   13858:	e037883a 	mov	sp,fp
   1385c:	df000017 	ldw	fp,0(sp)
   13860:	dec00104 	addi	sp,sp,4
   13864:	f800283a 	ret

00013868 <altera_avalon_jtag_uart_close>:
 * The close routine is not implemented for the small driver; instead it will
 * map to null. This is because the small driver simply waits while characters
 * are transmitted; there is no interrupt-serviced buffer to empty 
 */
int altera_avalon_jtag_uart_close(altera_avalon_jtag_uart_state* sp, int flags)
{
   13868:	defffd04 	addi	sp,sp,-12
   1386c:	df000215 	stw	fp,8(sp)
   13870:	df000204 	addi	fp,sp,8
   13874:	e13ffe15 	stw	r4,-8(fp)
   13878:	e17fff15 	stw	r5,-4(fp)
  /* 
   * Wait for all transmit data to be emptied by the JTAG UART ISR, or
   * for a host-inactivity timeout, in which case transmit data will be lost
   */
  while ( (sp->tx_out != sp->tx_in) && (sp->host_inactive < sp->timeout) ) {
   1387c:	00000506 	br	13894 <altera_avalon_jtag_uart_close+0x2c>
    if (flags & O_NONBLOCK) {
   13880:	e0bfff17 	ldw	r2,-4(fp)
   13884:	1090000c 	andi	r2,r2,16384
   13888:	10000226 	beq	r2,zero,13894 <altera_avalon_jtag_uart_close+0x2c>
      return -EWOULDBLOCK; 
   1388c:	00bffd44 	movi	r2,-11
   13890:	00000b06 	br	138c0 <altera_avalon_jtag_uart_close+0x58>
{
  /* 
   * Wait for all transmit data to be emptied by the JTAG UART ISR, or
   * for a host-inactivity timeout, in which case transmit data will be lost
   */
  while ( (sp->tx_out != sp->tx_in) && (sp->host_inactive < sp->timeout) ) {
   13894:	e0bffe17 	ldw	r2,-8(fp)
   13898:	10c00d17 	ldw	r3,52(r2)
   1389c:	e0bffe17 	ldw	r2,-8(fp)
   138a0:	10800c17 	ldw	r2,48(r2)
   138a4:	18800526 	beq	r3,r2,138bc <altera_avalon_jtag_uart_close+0x54>
   138a8:	e0bffe17 	ldw	r2,-8(fp)
   138ac:	10c00917 	ldw	r3,36(r2)
   138b0:	e0bffe17 	ldw	r2,-8(fp)
   138b4:	10800117 	ldw	r2,4(r2)
   138b8:	18bff136 	bltu	r3,r2,13880 <__alt_data_end+0xf8013880>
    if (flags & O_NONBLOCK) {
      return -EWOULDBLOCK; 
    }
  }

  return 0;
   138bc:	0005883a 	mov	r2,zero
}
   138c0:	e037883a 	mov	sp,fp
   138c4:	df000017 	ldw	fp,0(sp)
   138c8:	dec00104 	addi	sp,sp,4
   138cc:	f800283a 	ret

000138d0 <altera_avalon_jtag_uart_ioctl>:
/* ----------------------------------------------------------- */

int 
altera_avalon_jtag_uart_ioctl(altera_avalon_jtag_uart_state* sp, int req,
  void* arg)
{
   138d0:	defffa04 	addi	sp,sp,-24
   138d4:	df000515 	stw	fp,20(sp)
   138d8:	df000504 	addi	fp,sp,20
   138dc:	e13ffd15 	stw	r4,-12(fp)
   138e0:	e17ffe15 	stw	r5,-8(fp)
   138e4:	e1bfff15 	stw	r6,-4(fp)
  int rc = -ENOTTY;
   138e8:	00bff9c4 	movi	r2,-25
   138ec:	e0bffb15 	stw	r2,-20(fp)

  switch (req)
   138f0:	e0bffe17 	ldw	r2,-8(fp)
   138f4:	10da8060 	cmpeqi	r3,r2,27137
   138f8:	1800031e 	bne	r3,zero,13908 <altera_avalon_jtag_uart_ioctl+0x38>
   138fc:	109a80a0 	cmpeqi	r2,r2,27138
   13900:	1000191e 	bne	r2,zero,13968 <altera_avalon_jtag_uart_ioctl+0x98>
      rc = 0;
    }
    break;

  default:
    break;
   13904:	00002806 	br	139a8 <altera_avalon_jtag_uart_ioctl+0xd8>

  switch (req)
  {
  case TIOCSTIMEOUT:
    /* Set the time to wait until assuming host is not connected */
    if (sp->timeout != INT_MAX)
   13908:	e0bffd17 	ldw	r2,-12(fp)
   1390c:	10c00117 	ldw	r3,4(r2)
   13910:	00a00034 	movhi	r2,32768
   13914:	10bfffc4 	addi	r2,r2,-1
   13918:	18801226 	beq	r3,r2,13964 <altera_avalon_jtag_uart_ioctl+0x94>
    {
      int timeout = *((int *)arg);
   1391c:	e0bfff17 	ldw	r2,-4(fp)
   13920:	10800017 	ldw	r2,0(r2)
   13924:	e0bffc15 	stw	r2,-16(fp)
      sp->timeout = (timeout >= 2 && timeout < INT_MAX) ? timeout : INT_MAX - 1;
   13928:	e0bffc17 	ldw	r2,-16(fp)
   1392c:	10800090 	cmplti	r2,r2,2
   13930:	1000061e 	bne	r2,zero,1394c <altera_avalon_jtag_uart_ioctl+0x7c>
   13934:	e0fffc17 	ldw	r3,-16(fp)
   13938:	00a00034 	movhi	r2,32768
   1393c:	10bfffc4 	addi	r2,r2,-1
   13940:	18800226 	beq	r3,r2,1394c <altera_avalon_jtag_uart_ioctl+0x7c>
   13944:	e0bffc17 	ldw	r2,-16(fp)
   13948:	00000206 	br	13954 <altera_avalon_jtag_uart_ioctl+0x84>
   1394c:	00a00034 	movhi	r2,32768
   13950:	10bfff84 	addi	r2,r2,-2
   13954:	e0fffd17 	ldw	r3,-12(fp)
   13958:	18800115 	stw	r2,4(r3)
      rc = 0;
   1395c:	e03ffb15 	stw	zero,-20(fp)
    }
    break;
   13960:	00001106 	br	139a8 <altera_avalon_jtag_uart_ioctl+0xd8>
   13964:	00001006 	br	139a8 <altera_avalon_jtag_uart_ioctl+0xd8>

  case TIOCGCONNECTED:
    /* Find out whether host is connected */
    if (sp->timeout != INT_MAX)
   13968:	e0bffd17 	ldw	r2,-12(fp)
   1396c:	10c00117 	ldw	r3,4(r2)
   13970:	00a00034 	movhi	r2,32768
   13974:	10bfffc4 	addi	r2,r2,-1
   13978:	18800a26 	beq	r3,r2,139a4 <altera_avalon_jtag_uart_ioctl+0xd4>
    {
      *((int *)arg) = (sp->host_inactive < sp->timeout) ? 1 : 0;
   1397c:	e0bffd17 	ldw	r2,-12(fp)
   13980:	10c00917 	ldw	r3,36(r2)
   13984:	e0bffd17 	ldw	r2,-12(fp)
   13988:	10800117 	ldw	r2,4(r2)
   1398c:	1885803a 	cmpltu	r2,r3,r2
   13990:	10c03fcc 	andi	r3,r2,255
   13994:	e0bfff17 	ldw	r2,-4(fp)
   13998:	10c00015 	stw	r3,0(r2)
      rc = 0;
   1399c:	e03ffb15 	stw	zero,-20(fp)
    }
    break;
   139a0:	00000006 	br	139a4 <altera_avalon_jtag_uart_ioctl+0xd4>
   139a4:	0001883a 	nop

  default:
    break;
  }

  return rc;
   139a8:	e0bffb17 	ldw	r2,-20(fp)
}
   139ac:	e037883a 	mov	sp,fp
   139b0:	df000017 	ldw	fp,0(sp)
   139b4:	dec00104 	addi	sp,sp,4
   139b8:	f800283a 	ret

000139bc <altera_avalon_jtag_uart_read>:
/* ----------------------------------------------------------- */

int 
altera_avalon_jtag_uart_read(altera_avalon_jtag_uart_state* sp, 
  char * buffer, int space, int flags)
{
   139bc:	defff304 	addi	sp,sp,-52
   139c0:	dfc00c15 	stw	ra,48(sp)
   139c4:	df000b15 	stw	fp,44(sp)
   139c8:	df000b04 	addi	fp,sp,44
   139cc:	e13ffc15 	stw	r4,-16(fp)
   139d0:	e17ffd15 	stw	r5,-12(fp)
   139d4:	e1bffe15 	stw	r6,-8(fp)
   139d8:	e1ffff15 	stw	r7,-4(fp)
  char * ptr = buffer;
   139dc:	e0bffd17 	ldw	r2,-12(fp)
   139e0:	e0bff515 	stw	r2,-44(fp)
   * When running in a multi threaded environment, obtain the "read_lock"
   * semaphore. This ensures that reading from the device is thread-safe.
   */
  ALT_SEM_PEND (sp->read_lock, 0);

  while (space > 0)
   139e4:	00004906 	br	13b0c <altera_avalon_jtag_uart_read+0x150>
    unsigned int in, out;

    /* Read as much data as possible */
    do
    {
      in  = sp->rx_in;
   139e8:	e0bffc17 	ldw	r2,-16(fp)
   139ec:	10800a17 	ldw	r2,40(r2)
   139f0:	e0bff715 	stw	r2,-36(fp)
      out = sp->rx_out;
   139f4:	e0bffc17 	ldw	r2,-16(fp)
   139f8:	10800b17 	ldw	r2,44(r2)
   139fc:	e0bff815 	stw	r2,-32(fp)

      if (in >= out)
   13a00:	e0fff717 	ldw	r3,-36(fp)
   13a04:	e0bff817 	ldw	r2,-32(fp)
   13a08:	18800536 	bltu	r3,r2,13a20 <altera_avalon_jtag_uart_read+0x64>
        n = in - out;
   13a0c:	e0fff717 	ldw	r3,-36(fp)
   13a10:	e0bff817 	ldw	r2,-32(fp)
   13a14:	1885c83a 	sub	r2,r3,r2
   13a18:	e0bff615 	stw	r2,-40(fp)
   13a1c:	00000406 	br	13a30 <altera_avalon_jtag_uart_read+0x74>
      else
        n = ALTERA_AVALON_JTAG_UART_BUF_LEN - out;
   13a20:	00c20004 	movi	r3,2048
   13a24:	e0bff817 	ldw	r2,-32(fp)
   13a28:	1885c83a 	sub	r2,r3,r2
   13a2c:	e0bff615 	stw	r2,-40(fp)

      if (n == 0)
   13a30:	e0bff617 	ldw	r2,-40(fp)
   13a34:	1000011e 	bne	r2,zero,13a3c <altera_avalon_jtag_uart_read+0x80>
        break; /* No more data available */
   13a38:	00001d06 	br	13ab0 <altera_avalon_jtag_uart_read+0xf4>

      if (n > space)
   13a3c:	e0fffe17 	ldw	r3,-8(fp)
   13a40:	e0bff617 	ldw	r2,-40(fp)
   13a44:	1880022e 	bgeu	r3,r2,13a50 <altera_avalon_jtag_uart_read+0x94>
        n = space;
   13a48:	e0bffe17 	ldw	r2,-8(fp)
   13a4c:	e0bff615 	stw	r2,-40(fp)

      memcpy(ptr, sp->rx_buf + out, n);
   13a50:	e0bff817 	ldw	r2,-32(fp)
   13a54:	10800e04 	addi	r2,r2,56
   13a58:	e0fffc17 	ldw	r3,-16(fp)
   13a5c:	1885883a 	add	r2,r3,r2
   13a60:	e13ff517 	ldw	r4,-44(fp)
   13a64:	100b883a 	mov	r5,r2
   13a68:	e1bff617 	ldw	r6,-40(fp)
   13a6c:	000d26c0 	call	d26c <memcpy>
      ptr   += n;
   13a70:	e0fff517 	ldw	r3,-44(fp)
   13a74:	e0bff617 	ldw	r2,-40(fp)
   13a78:	1885883a 	add	r2,r3,r2
   13a7c:	e0bff515 	stw	r2,-44(fp)
      space -= n;
   13a80:	e0fffe17 	ldw	r3,-8(fp)
   13a84:	e0bff617 	ldw	r2,-40(fp)
   13a88:	1885c83a 	sub	r2,r3,r2
   13a8c:	e0bffe15 	stw	r2,-8(fp)

      sp->rx_out = (out + n) % ALTERA_AVALON_JTAG_UART_BUF_LEN;
   13a90:	e0fff817 	ldw	r3,-32(fp)
   13a94:	e0bff617 	ldw	r2,-40(fp)
   13a98:	1885883a 	add	r2,r3,r2
   13a9c:	10c1ffcc 	andi	r3,r2,2047
   13aa0:	e0bffc17 	ldw	r2,-16(fp)
   13aa4:	10c00b15 	stw	r3,44(r2)
    }
    while (space > 0);
   13aa8:	e0bffe17 	ldw	r2,-8(fp)
   13aac:	00bfce16 	blt	zero,r2,139e8 <__alt_data_end+0xf80139e8>

    /* If we read any data then return it */
    if (ptr != buffer)
   13ab0:	e0fff517 	ldw	r3,-44(fp)
   13ab4:	e0bffd17 	ldw	r2,-12(fp)
   13ab8:	18800126 	beq	r3,r2,13ac0 <altera_avalon_jtag_uart_read+0x104>
      break;
   13abc:	00001506 	br	13b14 <altera_avalon_jtag_uart_read+0x158>

    /* If in non-blocking mode then return error */
    if (flags & O_NONBLOCK)
   13ac0:	e0bfff17 	ldw	r2,-4(fp)
   13ac4:	1090000c 	andi	r2,r2,16384
   13ac8:	10000126 	beq	r2,zero,13ad0 <altera_avalon_jtag_uart_read+0x114>
      break;
   13acc:	00001106 	br	13b14 <altera_avalon_jtag_uart_read+0x158>
      while (in == sp->rx_in && sp->host_inactive < sp->timeout)
        ;
    }
#else
    /* No OS: Always spin */
    while (in == sp->rx_in && sp->host_inactive < sp->timeout)
   13ad0:	0001883a 	nop
   13ad4:	e0bffc17 	ldw	r2,-16(fp)
   13ad8:	10c00a17 	ldw	r3,40(r2)
   13adc:	e0bff717 	ldw	r2,-36(fp)
   13ae0:	1880051e 	bne	r3,r2,13af8 <altera_avalon_jtag_uart_read+0x13c>
   13ae4:	e0bffc17 	ldw	r2,-16(fp)
   13ae8:	10c00917 	ldw	r3,36(r2)
   13aec:	e0bffc17 	ldw	r2,-16(fp)
   13af0:	10800117 	ldw	r2,4(r2)
   13af4:	18bff736 	bltu	r3,r2,13ad4 <__alt_data_end+0xf8013ad4>
      ;
#endif /* __ucosii__ */

    if (in == sp->rx_in)
   13af8:	e0bffc17 	ldw	r2,-16(fp)
   13afc:	10c00a17 	ldw	r3,40(r2)
   13b00:	e0bff717 	ldw	r2,-36(fp)
   13b04:	1880011e 	bne	r3,r2,13b0c <altera_avalon_jtag_uart_read+0x150>
      break;
   13b08:	00000206 	br	13b14 <altera_avalon_jtag_uart_read+0x158>
   * When running in a multi threaded environment, obtain the "read_lock"
   * semaphore. This ensures that reading from the device is thread-safe.
   */
  ALT_SEM_PEND (sp->read_lock, 0);

  while (space > 0)
   13b0c:	e0bffe17 	ldw	r2,-8(fp)
   13b10:	00bfb516 	blt	zero,r2,139e8 <__alt_data_end+0xf80139e8>
   * semaphore so that other threads can access the buffer.
   */

  ALT_SEM_POST (sp->read_lock);

  if (ptr != buffer)
   13b14:	e0fff517 	ldw	r3,-44(fp)
   13b18:	e0bffd17 	ldw	r2,-12(fp)
   13b1c:	18801826 	beq	r3,r2,13b80 <altera_avalon_jtag_uart_read+0x1c4>
static ALT_INLINE alt_irq_context ALT_ALWAYS_INLINE 
       alt_irq_disable_all (void)
{
  alt_irq_context context;

  NIOS2_READ_STATUS (context);
   13b20:	0005303a 	rdctl	r2,status
   13b24:	e0bffa15 	stw	r2,-24(fp)

  NIOS2_WRITE_STATUS (context & ~NIOS2_STATUS_PIE_MSK);
   13b28:	e0fffa17 	ldw	r3,-24(fp)
   13b2c:	00bfff84 	movi	r2,-2
   13b30:	1884703a 	and	r2,r3,r2
   13b34:	1001703a 	wrctl	status,r2
  
  return context;
   13b38:	e0bffa17 	ldw	r2,-24(fp)
  {
    /* If we read any data then there is space in the buffer so enable interrupts */
    context = alt_irq_disable_all();
   13b3c:	e0bff915 	stw	r2,-28(fp)
    sp->irq_enable |= ALTERA_AVALON_JTAG_UART_CONTROL_RE_MSK;
   13b40:	e0bffc17 	ldw	r2,-16(fp)
   13b44:	10800817 	ldw	r2,32(r2)
   13b48:	10c00054 	ori	r3,r2,1
   13b4c:	e0bffc17 	ldw	r2,-16(fp)
   13b50:	10c00815 	stw	r3,32(r2)
    IOWR_ALTERA_AVALON_JTAG_UART_CONTROL(sp->base, sp->irq_enable);
   13b54:	e0bffc17 	ldw	r2,-16(fp)
   13b58:	10800017 	ldw	r2,0(r2)
   13b5c:	10800104 	addi	r2,r2,4
   13b60:	1007883a 	mov	r3,r2
   13b64:	e0bffc17 	ldw	r2,-16(fp)
   13b68:	10800817 	ldw	r2,32(r2)
   13b6c:	18800035 	stwio	r2,0(r3)
   13b70:	e0bff917 	ldw	r2,-28(fp)
   13b74:	e0bffb15 	stw	r2,-20(fp)
  status &= ~NIOS2_STATUS_PIE_MSK;
  status |= (context & NIOS2_STATUS_PIE_MSK);
  
  NIOS2_WRITE_STATUS (status);
#else
  NIOS2_WRITE_STATUS (context);
   13b78:	e0bffb17 	ldw	r2,-20(fp)
   13b7c:	1001703a 	wrctl	status,r2
    alt_irq_enable_all(context);
  }

  if (ptr != buffer)
   13b80:	e0fff517 	ldw	r3,-44(fp)
   13b84:	e0bffd17 	ldw	r2,-12(fp)
   13b88:	18800426 	beq	r3,r2,13b9c <altera_avalon_jtag_uart_read+0x1e0>
    return ptr - buffer;
   13b8c:	e0fff517 	ldw	r3,-44(fp)
   13b90:	e0bffd17 	ldw	r2,-12(fp)
   13b94:	1885c83a 	sub	r2,r3,r2
   13b98:	00000606 	br	13bb4 <altera_avalon_jtag_uart_read+0x1f8>
  else if (flags & O_NONBLOCK)
   13b9c:	e0bfff17 	ldw	r2,-4(fp)
   13ba0:	1090000c 	andi	r2,r2,16384
   13ba4:	10000226 	beq	r2,zero,13bb0 <altera_avalon_jtag_uart_read+0x1f4>
    return -EWOULDBLOCK;
   13ba8:	00bffd44 	movi	r2,-11
   13bac:	00000106 	br	13bb4 <altera_avalon_jtag_uart_read+0x1f8>
  else
    return -EIO;
   13bb0:	00bffec4 	movi	r2,-5
}
   13bb4:	e037883a 	mov	sp,fp
   13bb8:	dfc00117 	ldw	ra,4(sp)
   13bbc:	df000017 	ldw	fp,0(sp)
   13bc0:	dec00204 	addi	sp,sp,8
   13bc4:	f800283a 	ret

00013bc8 <altera_avalon_jtag_uart_write>:
/* ----------------------------------------------------------- */

int 
altera_avalon_jtag_uart_write(altera_avalon_jtag_uart_state* sp, 
  const char * ptr, int count, int flags)
{
   13bc8:	defff304 	addi	sp,sp,-52
   13bcc:	dfc00c15 	stw	ra,48(sp)
   13bd0:	df000b15 	stw	fp,44(sp)
   13bd4:	df000b04 	addi	fp,sp,44
   13bd8:	e13ffc15 	stw	r4,-16(fp)
   13bdc:	e17ffd15 	stw	r5,-12(fp)
   13be0:	e1bffe15 	stw	r6,-8(fp)
   13be4:	e1ffff15 	stw	r7,-4(fp)
  /* Remove warning at optimisation level 03 by seting out to 0 */
  unsigned int in, out=0;
   13be8:	e03ff515 	stw	zero,-44(fp)
  unsigned int n;
  alt_irq_context context;

  const char * start = ptr;
   13bec:	e0bffd17 	ldw	r2,-12(fp)
   13bf0:	e0bff715 	stw	r2,-36(fp)
  ALT_SEM_PEND (sp->write_lock, 0);

  do
  {
    /* Copy as much as we can into the transmit buffer */
    while (count > 0)
   13bf4:	00003806 	br	13cd8 <altera_avalon_jtag_uart_write+0x110>
    {
      /* We need a stable value of the out pointer to calculate the space available */
      in  = sp->tx_in;
   13bf8:	e0bffc17 	ldw	r2,-16(fp)
   13bfc:	10800c17 	ldw	r2,48(r2)
   13c00:	e0bff815 	stw	r2,-32(fp)
      out = sp->tx_out;
   13c04:	e0bffc17 	ldw	r2,-16(fp)
   13c08:	10800d17 	ldw	r2,52(r2)
   13c0c:	e0bff515 	stw	r2,-44(fp)

      if (in < out)
   13c10:	e0fff817 	ldw	r3,-32(fp)
   13c14:	e0bff517 	ldw	r2,-44(fp)
   13c18:	1880062e 	bgeu	r3,r2,13c34 <altera_avalon_jtag_uart_write+0x6c>
        n = out - 1 - in;
   13c1c:	e0fff517 	ldw	r3,-44(fp)
   13c20:	e0bff817 	ldw	r2,-32(fp)
   13c24:	1885c83a 	sub	r2,r3,r2
   13c28:	10bfffc4 	addi	r2,r2,-1
   13c2c:	e0bff615 	stw	r2,-40(fp)
   13c30:	00000b06 	br	13c60 <altera_avalon_jtag_uart_write+0x98>
      else if (out > 0)
   13c34:	e0bff517 	ldw	r2,-44(fp)
   13c38:	10000526 	beq	r2,zero,13c50 <altera_avalon_jtag_uart_write+0x88>
        n = ALTERA_AVALON_JTAG_UART_BUF_LEN - in;
   13c3c:	00c20004 	movi	r3,2048
   13c40:	e0bff817 	ldw	r2,-32(fp)
   13c44:	1885c83a 	sub	r2,r3,r2
   13c48:	e0bff615 	stw	r2,-40(fp)
   13c4c:	00000406 	br	13c60 <altera_avalon_jtag_uart_write+0x98>
      else
        n = ALTERA_AVALON_JTAG_UART_BUF_LEN - 1 - in;
   13c50:	00c1ffc4 	movi	r3,2047
   13c54:	e0bff817 	ldw	r2,-32(fp)
   13c58:	1885c83a 	sub	r2,r3,r2
   13c5c:	e0bff615 	stw	r2,-40(fp)

      if (n == 0)
   13c60:	e0bff617 	ldw	r2,-40(fp)
   13c64:	1000011e 	bne	r2,zero,13c6c <altera_avalon_jtag_uart_write+0xa4>
        break;
   13c68:	00001d06 	br	13ce0 <altera_avalon_jtag_uart_write+0x118>

      if (n > count)
   13c6c:	e0fffe17 	ldw	r3,-8(fp)
   13c70:	e0bff617 	ldw	r2,-40(fp)
   13c74:	1880022e 	bgeu	r3,r2,13c80 <altera_avalon_jtag_uart_write+0xb8>
        n = count;
   13c78:	e0bffe17 	ldw	r2,-8(fp)
   13c7c:	e0bff615 	stw	r2,-40(fp)

      memcpy(sp->tx_buf + in, ptr, n);
   13c80:	e0bff817 	ldw	r2,-32(fp)
   13c84:	10820e04 	addi	r2,r2,2104
   13c88:	e0fffc17 	ldw	r3,-16(fp)
   13c8c:	1885883a 	add	r2,r3,r2
   13c90:	1009883a 	mov	r4,r2
   13c94:	e17ffd17 	ldw	r5,-12(fp)
   13c98:	e1bff617 	ldw	r6,-40(fp)
   13c9c:	000d26c0 	call	d26c <memcpy>
      ptr   += n;
   13ca0:	e0fffd17 	ldw	r3,-12(fp)
   13ca4:	e0bff617 	ldw	r2,-40(fp)
   13ca8:	1885883a 	add	r2,r3,r2
   13cac:	e0bffd15 	stw	r2,-12(fp)
      count -= n;
   13cb0:	e0fffe17 	ldw	r3,-8(fp)
   13cb4:	e0bff617 	ldw	r2,-40(fp)
   13cb8:	1885c83a 	sub	r2,r3,r2
   13cbc:	e0bffe15 	stw	r2,-8(fp)

      sp->tx_in = (in + n) % ALTERA_AVALON_JTAG_UART_BUF_LEN;
   13cc0:	e0fff817 	ldw	r3,-32(fp)
   13cc4:	e0bff617 	ldw	r2,-40(fp)
   13cc8:	1885883a 	add	r2,r3,r2
   13ccc:	10c1ffcc 	andi	r3,r2,2047
   13cd0:	e0bffc17 	ldw	r2,-16(fp)
   13cd4:	10c00c15 	stw	r3,48(r2)
  ALT_SEM_PEND (sp->write_lock, 0);

  do
  {
    /* Copy as much as we can into the transmit buffer */
    while (count > 0)
   13cd8:	e0bffe17 	ldw	r2,-8(fp)
   13cdc:	00bfc616 	blt	zero,r2,13bf8 <__alt_data_end+0xf8013bf8>
static ALT_INLINE alt_irq_context ALT_ALWAYS_INLINE 
       alt_irq_disable_all (void)
{
  alt_irq_context context;

  NIOS2_READ_STATUS (context);
   13ce0:	0005303a 	rdctl	r2,status
   13ce4:	e0bffa15 	stw	r2,-24(fp)

  NIOS2_WRITE_STATUS (context & ~NIOS2_STATUS_PIE_MSK);
   13ce8:	e0fffa17 	ldw	r3,-24(fp)
   13cec:	00bfff84 	movi	r2,-2
   13cf0:	1884703a 	and	r2,r3,r2
   13cf4:	1001703a 	wrctl	status,r2
  
  return context;
   13cf8:	e0bffa17 	ldw	r2,-24(fp)
     * to enable interrupts if there is no space left in the FIFO
     *
     * For now kick the interrupt routine every time to make it transmit 
     * the data 
     */
    context = alt_irq_disable_all();
   13cfc:	e0bff915 	stw	r2,-28(fp)
    sp->irq_enable |= ALTERA_AVALON_JTAG_UART_CONTROL_WE_MSK;
   13d00:	e0bffc17 	ldw	r2,-16(fp)
   13d04:	10800817 	ldw	r2,32(r2)
   13d08:	10c00094 	ori	r3,r2,2
   13d0c:	e0bffc17 	ldw	r2,-16(fp)
   13d10:	10c00815 	stw	r3,32(r2)
    IOWR_ALTERA_AVALON_JTAG_UART_CONTROL(sp->base, sp->irq_enable);
   13d14:	e0bffc17 	ldw	r2,-16(fp)
   13d18:	10800017 	ldw	r2,0(r2)
   13d1c:	10800104 	addi	r2,r2,4
   13d20:	1007883a 	mov	r3,r2
   13d24:	e0bffc17 	ldw	r2,-16(fp)
   13d28:	10800817 	ldw	r2,32(r2)
   13d2c:	18800035 	stwio	r2,0(r3)
   13d30:	e0bff917 	ldw	r2,-28(fp)
   13d34:	e0bffb15 	stw	r2,-20(fp)
  status &= ~NIOS2_STATUS_PIE_MSK;
  status |= (context & NIOS2_STATUS_PIE_MSK);
  
  NIOS2_WRITE_STATUS (status);
#else
  NIOS2_WRITE_STATUS (context);
   13d38:	e0bffb17 	ldw	r2,-20(fp)
   13d3c:	1001703a 	wrctl	status,r2
    /* 
     * If there is any data left then either return now or block until 
     * some has been sent 
     */
    /* consider: test whether there is anything there while doing this and delay for at most 2s. */
    if (count > 0)
   13d40:	e0bffe17 	ldw	r2,-8(fp)
   13d44:	0080120e 	bge	zero,r2,13d90 <altera_avalon_jtag_uart_write+0x1c8>
    {
      if (flags & O_NONBLOCK)
   13d48:	e0bfff17 	ldw	r2,-4(fp)
   13d4c:	1090000c 	andi	r2,r2,16384
   13d50:	10000126 	beq	r2,zero,13d58 <altera_avalon_jtag_uart_write+0x190>
        break;
   13d54:	00001006 	br	13d98 <altera_avalon_jtag_uart_write+0x1d0>
      /*
       * No OS present: Always wait for data to be removed from buffer.  Once
       * the interrupt routine has removed some data then we will be able to
       * insert some more.
       */
      while (out == sp->tx_out && sp->host_inactive < sp->timeout)
   13d58:	0001883a 	nop
   13d5c:	e0bffc17 	ldw	r2,-16(fp)
   13d60:	10c00d17 	ldw	r3,52(r2)
   13d64:	e0bff517 	ldw	r2,-44(fp)
   13d68:	1880051e 	bne	r3,r2,13d80 <altera_avalon_jtag_uart_write+0x1b8>
   13d6c:	e0bffc17 	ldw	r2,-16(fp)
   13d70:	10c00917 	ldw	r3,36(r2)
   13d74:	e0bffc17 	ldw	r2,-16(fp)
   13d78:	10800117 	ldw	r2,4(r2)
   13d7c:	18bff736 	bltu	r3,r2,13d5c <__alt_data_end+0xf8013d5c>
        ;
#endif /* __ucosii__ */

      if  (sp->host_inactive)
   13d80:	e0bffc17 	ldw	r2,-16(fp)
   13d84:	10800917 	ldw	r2,36(r2)
   13d88:	10000126 	beq	r2,zero,13d90 <altera_avalon_jtag_uart_write+0x1c8>
         break;
   13d8c:	00000206 	br	13d98 <altera_avalon_jtag_uart_write+0x1d0>
    }
  }
  while (count > 0);
   13d90:	e0bffe17 	ldw	r2,-8(fp)
   13d94:	00bf9716 	blt	zero,r2,13bf4 <__alt_data_end+0xf8013bf4>
   * Now that access to the circular buffer is complete, release the write
   * semaphore so that other threads can access the buffer.
   */
  ALT_SEM_POST (sp->write_lock);

  if (ptr != start)
   13d98:	e0fffd17 	ldw	r3,-12(fp)
   13d9c:	e0bff717 	ldw	r2,-36(fp)
   13da0:	18800426 	beq	r3,r2,13db4 <altera_avalon_jtag_uart_write+0x1ec>
    return ptr - start;
   13da4:	e0fffd17 	ldw	r3,-12(fp)
   13da8:	e0bff717 	ldw	r2,-36(fp)
   13dac:	1885c83a 	sub	r2,r3,r2
   13db0:	00000606 	br	13dcc <altera_avalon_jtag_uart_write+0x204>
  else if (flags & O_NONBLOCK)
   13db4:	e0bfff17 	ldw	r2,-4(fp)
   13db8:	1090000c 	andi	r2,r2,16384
   13dbc:	10000226 	beq	r2,zero,13dc8 <altera_avalon_jtag_uart_write+0x200>
    return -EWOULDBLOCK;
   13dc0:	00bffd44 	movi	r2,-11
   13dc4:	00000106 	br	13dcc <altera_avalon_jtag_uart_write+0x204>
    sp->tx_out = sp->tx_in = 0;
    return ptr - start + count;
  }
#endif
  else
    return -EIO; /* Host not connected */
   13dc8:	00bffec4 	movi	r2,-5
}
   13dcc:	e037883a 	mov	sp,fp
   13dd0:	dfc00117 	ldw	ra,4(sp)
   13dd4:	df000017 	ldw	fp,0(sp)
   13dd8:	dec00204 	addi	sp,sp,8
   13ddc:	f800283a 	ret

00013de0 <alt_alarm_start>:
 */ 

int alt_alarm_start (alt_alarm* alarm, alt_u32 nticks,
                     alt_u32 (*callback) (void* context),
                     void* context)
{
   13de0:	defff504 	addi	sp,sp,-44
   13de4:	df000a15 	stw	fp,40(sp)
   13de8:	df000a04 	addi	fp,sp,40
   13dec:	e13ffc15 	stw	r4,-16(fp)
   13df0:	e17ffd15 	stw	r5,-12(fp)
   13df4:	e1bffe15 	stw	r6,-8(fp)
   13df8:	e1ffff15 	stw	r7,-4(fp)
  alt_irq_context irq_context;
  alt_u32 current_nticks = 0;
   13dfc:	e03ff615 	stw	zero,-40(fp)
   13e00:	00800374 	movhi	r2,13
   13e04:	1091b304 	addi	r2,r2,18124
   13e08:	10800017 	ldw	r2,0(r2)
  
  if (alt_ticks_per_second ())
   13e0c:	10003f26 	beq	r2,zero,13f0c <alt_alarm_start+0x12c>
  {
    if (alarm)
   13e10:	e0bffc17 	ldw	r2,-16(fp)
   13e14:	10003b26 	beq	r2,zero,13f04 <alt_alarm_start+0x124>
    {
      alarm->callback = callback;
   13e18:	e0bffc17 	ldw	r2,-16(fp)
   13e1c:	e0fffe17 	ldw	r3,-8(fp)
   13e20:	10c00315 	stw	r3,12(r2)
      alarm->context  = context;
   13e24:	e0bffc17 	ldw	r2,-16(fp)
   13e28:	e0ffff17 	ldw	r3,-4(fp)
   13e2c:	10c00515 	stw	r3,20(r2)
static ALT_INLINE alt_irq_context ALT_ALWAYS_INLINE 
       alt_irq_disable_all (void)
{
  alt_irq_context context;

  NIOS2_READ_STATUS (context);
   13e30:	0005303a 	rdctl	r2,status
   13e34:	e0bff815 	stw	r2,-32(fp)

  NIOS2_WRITE_STATUS (context & ~NIOS2_STATUS_PIE_MSK);
   13e38:	e0fff817 	ldw	r3,-32(fp)
   13e3c:	00bfff84 	movi	r2,-2
   13e40:	1884703a 	and	r2,r3,r2
   13e44:	1001703a 	wrctl	status,r2
  
  return context;
   13e48:	e0bff817 	ldw	r2,-32(fp)
 
      irq_context = alt_irq_disable_all ();
   13e4c:	e0bff715 	stw	r2,-36(fp)
 * alt_nticks() returns the elapsed number of system clock ticks since reset.
 */

static ALT_INLINE alt_u32 ALT_ALWAYS_INLINE alt_nticks (void)
{
  return _alt_nticks;
   13e50:	00800374 	movhi	r2,13
   13e54:	1091b404 	addi	r2,r2,18128
   13e58:	10800017 	ldw	r2,0(r2)
      
      current_nticks = alt_nticks();
   13e5c:	e0bff615 	stw	r2,-40(fp)
      
      alarm->time = nticks + current_nticks + 1; 
   13e60:	e0fffd17 	ldw	r3,-12(fp)
   13e64:	e0bff617 	ldw	r2,-40(fp)
   13e68:	1885883a 	add	r2,r3,r2
   13e6c:	10c00044 	addi	r3,r2,1
   13e70:	e0bffc17 	ldw	r2,-16(fp)
   13e74:	10c00215 	stw	r3,8(r2)
      /* 
       * If the desired alarm time causes a roll-over, set the rollover
       * flag. This will prevent the subsequent tick event from causing
       * an alarm too early.
       */
      if(alarm->time < current_nticks)
   13e78:	e0bffc17 	ldw	r2,-16(fp)
   13e7c:	10c00217 	ldw	r3,8(r2)
   13e80:	e0bff617 	ldw	r2,-40(fp)
   13e84:	1880042e 	bgeu	r3,r2,13e98 <alt_alarm_start+0xb8>
      {
        alarm->rollover = 1;
   13e88:	e0bffc17 	ldw	r2,-16(fp)
   13e8c:	00c00044 	movi	r3,1
   13e90:	10c00405 	stb	r3,16(r2)
   13e94:	00000206 	br	13ea0 <alt_alarm_start+0xc0>
      }
      else
      {
        alarm->rollover = 0;
   13e98:	e0bffc17 	ldw	r2,-16(fp)
   13e9c:	10000405 	stb	zero,16(r2)
      }
    
      alt_llist_insert (&alt_alarm_list, &alarm->llist);
   13ea0:	e0fffc17 	ldw	r3,-16(fp)
   13ea4:	00800374 	movhi	r2,13
   13ea8:	108a9804 	addi	r2,r2,10848
   13eac:	e0bff915 	stw	r2,-28(fp)
   13eb0:	e0fffa15 	stw	r3,-24(fp)
 */

static ALT_INLINE void ALT_ALWAYS_INLINE alt_llist_insert(alt_llist* list, 
                alt_llist* entry)
{
  entry->previous = list;
   13eb4:	e0bffa17 	ldw	r2,-24(fp)
   13eb8:	e0fff917 	ldw	r3,-28(fp)
   13ebc:	10c00115 	stw	r3,4(r2)
  entry->next     = list->next;
   13ec0:	e0bff917 	ldw	r2,-28(fp)
   13ec4:	10c00017 	ldw	r3,0(r2)
   13ec8:	e0bffa17 	ldw	r2,-24(fp)
   13ecc:	10c00015 	stw	r3,0(r2)

  list->next->previous = entry;
   13ed0:	e0bff917 	ldw	r2,-28(fp)
   13ed4:	10800017 	ldw	r2,0(r2)
   13ed8:	e0fffa17 	ldw	r3,-24(fp)
   13edc:	10c00115 	stw	r3,4(r2)
  list->next           = entry;
   13ee0:	e0bff917 	ldw	r2,-28(fp)
   13ee4:	e0fffa17 	ldw	r3,-24(fp)
   13ee8:	10c00015 	stw	r3,0(r2)
   13eec:	e0bff717 	ldw	r2,-36(fp)
   13ef0:	e0bffb15 	stw	r2,-20(fp)
  status &= ~NIOS2_STATUS_PIE_MSK;
  status |= (context & NIOS2_STATUS_PIE_MSK);
  
  NIOS2_WRITE_STATUS (status);
#else
  NIOS2_WRITE_STATUS (context);
   13ef4:	e0bffb17 	ldw	r2,-20(fp)
   13ef8:	1001703a 	wrctl	status,r2
      alt_irq_enable_all (irq_context);

      return 0;
   13efc:	0005883a 	mov	r2,zero
   13f00:	00000306 	br	13f10 <alt_alarm_start+0x130>
    }
    else
    {
      return -EINVAL;
   13f04:	00bffa84 	movi	r2,-22
   13f08:	00000106 	br	13f10 <alt_alarm_start+0x130>
    }
  }
  else
  {
    return -ENOTSUP;
   13f0c:	00bfde84 	movi	r2,-134
  }
}
   13f10:	e037883a 	mov	sp,fp
   13f14:	df000017 	ldw	fp,0(sp)
   13f18:	dec00104 	addi	sp,sp,4
   13f1c:	f800283a 	ret

00013f20 <alt_get_errno>:
#undef errno

extern int errno;

static ALT_INLINE int* alt_get_errno(void)
{
   13f20:	defffe04 	addi	sp,sp,-8
   13f24:	dfc00115 	stw	ra,4(sp)
   13f28:	df000015 	stw	fp,0(sp)
   13f2c:	d839883a 	mov	fp,sp
  return ((alt_errno) ? alt_errno() : &errno);
   13f30:	00800374 	movhi	r2,13
   13f34:	108a9604 	addi	r2,r2,10840
   13f38:	10800017 	ldw	r2,0(r2)
   13f3c:	10000526 	beq	r2,zero,13f54 <alt_get_errno+0x34>
   13f40:	00800374 	movhi	r2,13
   13f44:	108a9604 	addi	r2,r2,10840
   13f48:	10800017 	ldw	r2,0(r2)
   13f4c:	103ee83a 	callr	r2
   13f50:	00000206 	br	13f5c <alt_get_errno+0x3c>
   13f54:	00800374 	movhi	r2,13
   13f58:	1091ab04 	addi	r2,r2,18092
}
   13f5c:	e037883a 	mov	sp,fp
   13f60:	dfc00117 	ldw	ra,4(sp)
   13f64:	df000017 	ldw	fp,0(sp)
   13f68:	dec00204 	addi	sp,sp,8
   13f6c:	f800283a 	ret

00013f70 <close>:
 *
 * ALT_CLOSE is mapped onto the close() system call in alt_syscall.h
 */
 
int ALT_CLOSE (int fildes)
{
   13f70:	defffb04 	addi	sp,sp,-20
   13f74:	dfc00415 	stw	ra,16(sp)
   13f78:	df000315 	stw	fp,12(sp)
   13f7c:	df000304 	addi	fp,sp,12
   13f80:	e13fff15 	stw	r4,-4(fp)
   * A common error case is that when the file descriptor was created, the call
   * to open() failed resulting in a negative file descriptor. This is trapped
   * below so that we don't try and process an invalid file descriptor.
   */

  fd = (fildes < 0) ? NULL : &alt_fd_list[fildes];
   13f84:	e0bfff17 	ldw	r2,-4(fp)
   13f88:	10000616 	blt	r2,zero,13fa4 <close+0x34>
   13f8c:	e0bfff17 	ldw	r2,-4(fp)
   13f90:	10c00324 	muli	r3,r2,12
   13f94:	00800374 	movhi	r2,13
   13f98:	108a2404 	addi	r2,r2,10384
   13f9c:	1885883a 	add	r2,r3,r2
   13fa0:	00000106 	br	13fa8 <close+0x38>
   13fa4:	0005883a 	mov	r2,zero
   13fa8:	e0bffd15 	stw	r2,-12(fp)

  if (fd)
   13fac:	e0bffd17 	ldw	r2,-12(fp)
   13fb0:	10001926 	beq	r2,zero,14018 <close+0xa8>
    /*
     * If the associated file system/device has a close function, call it so 
     * that any necessary cleanup code can run.
     */

    rval = (fd->dev->close) ? fd->dev->close(fd) : 0;
   13fb4:	e0bffd17 	ldw	r2,-12(fp)
   13fb8:	10800017 	ldw	r2,0(r2)
   13fbc:	10800417 	ldw	r2,16(r2)
   13fc0:	10000626 	beq	r2,zero,13fdc <close+0x6c>
   13fc4:	e0bffd17 	ldw	r2,-12(fp)
   13fc8:	10800017 	ldw	r2,0(r2)
   13fcc:	10800417 	ldw	r2,16(r2)
   13fd0:	e13ffd17 	ldw	r4,-12(fp)
   13fd4:	103ee83a 	callr	r2
   13fd8:	00000106 	br	13fe0 <close+0x70>
   13fdc:	0005883a 	mov	r2,zero
   13fe0:	e0bffe15 	stw	r2,-8(fp)

    /* Free the file descriptor structure and return. */

    alt_release_fd (fildes);
   13fe4:	e13fff17 	ldw	r4,-4(fp)
   13fe8:	00147e80 	call	147e8 <alt_release_fd>
    if (rval < 0)
   13fec:	e0bffe17 	ldw	r2,-8(fp)
   13ff0:	1000070e 	bge	r2,zero,14010 <close+0xa0>
    {
      ALT_ERRNO = -rval;
   13ff4:	0013f200 	call	13f20 <alt_get_errno>
   13ff8:	1007883a 	mov	r3,r2
   13ffc:	e0bffe17 	ldw	r2,-8(fp)
   14000:	0085c83a 	sub	r2,zero,r2
   14004:	18800015 	stw	r2,0(r3)
      return -1;
   14008:	00bfffc4 	movi	r2,-1
   1400c:	00000706 	br	1402c <close+0xbc>
    }
    return 0;
   14010:	0005883a 	mov	r2,zero
   14014:	00000506 	br	1402c <close+0xbc>
  }
  else
  {
    ALT_ERRNO = EBADFD;
   14018:	0013f200 	call	13f20 <alt_get_errno>
   1401c:	1007883a 	mov	r3,r2
   14020:	00801444 	movi	r2,81
   14024:	18800015 	stw	r2,0(r3)
    return -1;
   14028:	00bfffc4 	movi	r2,-1
  }
}
   1402c:	e037883a 	mov	sp,fp
   14030:	dfc00117 	ldw	ra,4(sp)
   14034:	df000017 	ldw	fp,0(sp)
   14038:	dec00204 	addi	sp,sp,8
   1403c:	f800283a 	ret

00014040 <alt_dcache_flush_all>:
/*
 * alt_dcache_flush_all() is called to flush the entire data cache.
 */

void alt_dcache_flush_all (void)
{
   14040:	defffe04 	addi	sp,sp,-8
   14044:	df000115 	stw	fp,4(sp)
   14048:	df000104 	addi	fp,sp,4
#if NIOS2_DCACHE_SIZE > 0
  char* i;
  
  for (i = (char*) 0; i < (char*) NIOS2_DCACHE_SIZE; i+= NIOS2_DCACHE_LINE_SIZE)
   1404c:	e03fff15 	stw	zero,-4(fp)
   14050:	00000506 	br	14068 <alt_dcache_flush_all+0x28>
  { 
    __asm__ volatile ("flushd (%0)" :: "r" (i));
   14054:	e0bfff17 	ldw	r2,-4(fp)
   14058:	1000003b 	flushd	0(r2)
void alt_dcache_flush_all (void)
{
#if NIOS2_DCACHE_SIZE > 0
  char* i;
  
  for (i = (char*) 0; i < (char*) NIOS2_DCACHE_SIZE; i+= NIOS2_DCACHE_LINE_SIZE)
   1405c:	e0bfff17 	ldw	r2,-4(fp)
   14060:	10800804 	addi	r2,r2,32
   14064:	e0bfff15 	stw	r2,-4(fp)
   14068:	e0bfff17 	ldw	r2,-4(fp)
   1406c:	10820030 	cmpltui	r2,r2,2048
   14070:	103ff81e 	bne	r2,zero,14054 <__alt_data_end+0xf8014054>
  { 
    __asm__ volatile ("flushd (%0)" :: "r" (i));
  }
#endif /* NIOS2_DCACHE_SIZE > 0 */
}
   14074:	e037883a 	mov	sp,fp
   14078:	df000017 	ldw	fp,0(sp)
   1407c:	dec00104 	addi	sp,sp,4
   14080:	f800283a 	ret

00014084 <alt_dev_null_write>:
 * by the alt_dev_null device. It simple discards all data passed to it, and
 * indicates that the data has been successfully transmitted.
 */

static int alt_dev_null_write (alt_fd* fd, const char* ptr, int len)
{
   14084:	defffc04 	addi	sp,sp,-16
   14088:	df000315 	stw	fp,12(sp)
   1408c:	df000304 	addi	fp,sp,12
   14090:	e13ffd15 	stw	r4,-12(fp)
   14094:	e17ffe15 	stw	r5,-8(fp)
   14098:	e1bfff15 	stw	r6,-4(fp)
  return len;
   1409c:	e0bfff17 	ldw	r2,-4(fp)
}
   140a0:	e037883a 	mov	sp,fp
   140a4:	df000017 	ldw	fp,0(sp)
   140a8:	dec00104 	addi	sp,sp,4
   140ac:	f800283a 	ret

000140b0 <alt_get_errno>:
#undef errno

extern int errno;

static ALT_INLINE int* alt_get_errno(void)
{
   140b0:	defffe04 	addi	sp,sp,-8
   140b4:	dfc00115 	stw	ra,4(sp)
   140b8:	df000015 	stw	fp,0(sp)
   140bc:	d839883a 	mov	fp,sp
  return ((alt_errno) ? alt_errno() : &errno);
   140c0:	00800374 	movhi	r2,13
   140c4:	108a9604 	addi	r2,r2,10840
   140c8:	10800017 	ldw	r2,0(r2)
   140cc:	10000526 	beq	r2,zero,140e4 <alt_get_errno+0x34>
   140d0:	00800374 	movhi	r2,13
   140d4:	108a9604 	addi	r2,r2,10840
   140d8:	10800017 	ldw	r2,0(r2)
   140dc:	103ee83a 	callr	r2
   140e0:	00000206 	br	140ec <alt_get_errno+0x3c>
   140e4:	00800374 	movhi	r2,13
   140e8:	1091ab04 	addi	r2,r2,18092
}
   140ec:	e037883a 	mov	sp,fp
   140f0:	dfc00117 	ldw	ra,4(sp)
   140f4:	df000017 	ldw	fp,0(sp)
   140f8:	dec00204 	addi	sp,sp,8
   140fc:	f800283a 	ret

00014100 <alt_dev_llist_insert>:
/*
 *
 */

int alt_dev_llist_insert (alt_dev_llist* dev, alt_llist* list)
{
   14100:	defffa04 	addi	sp,sp,-24
   14104:	dfc00515 	stw	ra,20(sp)
   14108:	df000415 	stw	fp,16(sp)
   1410c:	df000404 	addi	fp,sp,16
   14110:	e13ffe15 	stw	r4,-8(fp)
   14114:	e17fff15 	stw	r5,-4(fp)
  /*
   * check that the device exists, and that it has a valid name.
   */

  if (!dev || !dev->name)
   14118:	e0bffe17 	ldw	r2,-8(fp)
   1411c:	10000326 	beq	r2,zero,1412c <alt_dev_llist_insert+0x2c>
   14120:	e0bffe17 	ldw	r2,-8(fp)
   14124:	10800217 	ldw	r2,8(r2)
   14128:	1000061e 	bne	r2,zero,14144 <alt_dev_llist_insert+0x44>
  {
    ALT_ERRNO = EINVAL;
   1412c:	00140b00 	call	140b0 <alt_get_errno>
   14130:	1007883a 	mov	r3,r2
   14134:	00800584 	movi	r2,22
   14138:	18800015 	stw	r2,0(r3)
    return -EINVAL;
   1413c:	00bffa84 	movi	r2,-22
   14140:	00001306 	br	14190 <alt_dev_llist_insert+0x90>
  
  /*
   * register the device.
   */
  
  alt_llist_insert(list, &dev->llist);
   14144:	e0bffe17 	ldw	r2,-8(fp)
   14148:	e0ffff17 	ldw	r3,-4(fp)
   1414c:	e0fffc15 	stw	r3,-16(fp)
   14150:	e0bffd15 	stw	r2,-12(fp)
 */

static ALT_INLINE void ALT_ALWAYS_INLINE alt_llist_insert(alt_llist* list, 
                alt_llist* entry)
{
  entry->previous = list;
   14154:	e0bffd17 	ldw	r2,-12(fp)
   14158:	e0fffc17 	ldw	r3,-16(fp)
   1415c:	10c00115 	stw	r3,4(r2)
  entry->next     = list->next;
   14160:	e0bffc17 	ldw	r2,-16(fp)
   14164:	10c00017 	ldw	r3,0(r2)
   14168:	e0bffd17 	ldw	r2,-12(fp)
   1416c:	10c00015 	stw	r3,0(r2)

  list->next->previous = entry;
   14170:	e0bffc17 	ldw	r2,-16(fp)
   14174:	10800017 	ldw	r2,0(r2)
   14178:	e0fffd17 	ldw	r3,-12(fp)
   1417c:	10c00115 	stw	r3,4(r2)
  list->next           = entry;
   14180:	e0bffc17 	ldw	r2,-16(fp)
   14184:	e0fffd17 	ldw	r3,-12(fp)
   14188:	10c00015 	stw	r3,0(r2)

  return 0;  
   1418c:	0005883a 	mov	r2,zero
}
   14190:	e037883a 	mov	sp,fp
   14194:	dfc00117 	ldw	ra,4(sp)
   14198:	df000017 	ldw	fp,0(sp)
   1419c:	dec00204 	addi	sp,sp,8
   141a0:	f800283a 	ret

000141a4 <_do_ctors>:
/*
 * Run the C++ static constructors.
 */

void _do_ctors(void)
{
   141a4:	defffd04 	addi	sp,sp,-12
   141a8:	dfc00215 	stw	ra,8(sp)
   141ac:	df000115 	stw	fp,4(sp)
   141b0:	df000104 	addi	fp,sp,4
  constructor* ctor;

  for (ctor = &__CTOR_END__[-1]; ctor >= __CTOR_LIST__; ctor--)
   141b4:	00800074 	movhi	r2,1
   141b8:	10944904 	addi	r2,r2,20772
   141bc:	e0bfff15 	stw	r2,-4(fp)
   141c0:	00000606 	br	141dc <_do_ctors+0x38>
        (*ctor) (); 
   141c4:	e0bfff17 	ldw	r2,-4(fp)
   141c8:	10800017 	ldw	r2,0(r2)
   141cc:	103ee83a 	callr	r2

void _do_ctors(void)
{
  constructor* ctor;

  for (ctor = &__CTOR_END__[-1]; ctor >= __CTOR_LIST__; ctor--)
   141d0:	e0bfff17 	ldw	r2,-4(fp)
   141d4:	10bfff04 	addi	r2,r2,-4
   141d8:	e0bfff15 	stw	r2,-4(fp)
   141dc:	e0ffff17 	ldw	r3,-4(fp)
   141e0:	00800074 	movhi	r2,1
   141e4:	10944a04 	addi	r2,r2,20776
   141e8:	18bff62e 	bgeu	r3,r2,141c4 <__alt_data_end+0xf80141c4>
        (*ctor) (); 
}
   141ec:	e037883a 	mov	sp,fp
   141f0:	dfc00117 	ldw	ra,4(sp)
   141f4:	df000017 	ldw	fp,0(sp)
   141f8:	dec00204 	addi	sp,sp,8
   141fc:	f800283a 	ret

00014200 <_do_dtors>:
/*
 * Run the C++ static destructors.
 */

void _do_dtors(void)
{
   14200:	defffd04 	addi	sp,sp,-12
   14204:	dfc00215 	stw	ra,8(sp)
   14208:	df000115 	stw	fp,4(sp)
   1420c:	df000104 	addi	fp,sp,4
  destructor* dtor;

  for (dtor = &__DTOR_END__[-1]; dtor >= __DTOR_LIST__; dtor--)
   14210:	00800074 	movhi	r2,1
   14214:	10944904 	addi	r2,r2,20772
   14218:	e0bfff15 	stw	r2,-4(fp)
   1421c:	00000606 	br	14238 <_do_dtors+0x38>
        (*dtor) (); 
   14220:	e0bfff17 	ldw	r2,-4(fp)
   14224:	10800017 	ldw	r2,0(r2)
   14228:	103ee83a 	callr	r2

void _do_dtors(void)
{
  destructor* dtor;

  for (dtor = &__DTOR_END__[-1]; dtor >= __DTOR_LIST__; dtor--)
   1422c:	e0bfff17 	ldw	r2,-4(fp)
   14230:	10bfff04 	addi	r2,r2,-4
   14234:	e0bfff15 	stw	r2,-4(fp)
   14238:	e0ffff17 	ldw	r3,-4(fp)
   1423c:	00800074 	movhi	r2,1
   14240:	10944a04 	addi	r2,r2,20776
   14244:	18bff62e 	bgeu	r3,r2,14220 <__alt_data_end+0xf8014220>
        (*dtor) (); 
}
   14248:	e037883a 	mov	sp,fp
   1424c:	dfc00117 	ldw	ra,4(sp)
   14250:	df000017 	ldw	fp,0(sp)
   14254:	dec00204 	addi	sp,sp,8
   14258:	f800283a 	ret

0001425c <alt_icache_flush_all>:
/*
 * alt_icache_flush_all() is called to flush the entire instruction cache.
 */

void alt_icache_flush_all (void)
{
   1425c:	defffe04 	addi	sp,sp,-8
   14260:	dfc00115 	stw	ra,4(sp)
   14264:	df000015 	stw	fp,0(sp)
   14268:	d839883a 	mov	fp,sp
#if NIOS2_ICACHE_SIZE > 0
  alt_icache_flush (0, NIOS2_ICACHE_SIZE);
   1426c:	0009883a 	mov	r4,zero
   14270:	01440004 	movi	r5,4096
   14274:	0014c5c0 	call	14c5c <alt_icache_flush>
#endif
}
   14278:	e037883a 	mov	sp,fp
   1427c:	dfc00117 	ldw	ra,4(sp)
   14280:	df000017 	ldw	fp,0(sp)
   14284:	dec00204 	addi	sp,sp,8
   14288:	f800283a 	ret

0001428c <alt_open_fd>:
 * If the device can not be succesfully opened, then the input file descriptor
 * remains unchanged.
 */

static void alt_open_fd(alt_fd* fd, const char* name, int flags, int mode)
{
   1428c:	defff904 	addi	sp,sp,-28
   14290:	dfc00615 	stw	ra,24(sp)
   14294:	df000515 	stw	fp,20(sp)
   14298:	df000504 	addi	fp,sp,20
   1429c:	e13ffc15 	stw	r4,-16(fp)
   142a0:	e17ffd15 	stw	r5,-12(fp)
   142a4:	e1bffe15 	stw	r6,-8(fp)
   142a8:	e1ffff15 	stw	r7,-4(fp)
  int old;

  old = open (name, flags, mode);
   142ac:	e13ffd17 	ldw	r4,-12(fp)
   142b0:	e17ffe17 	ldw	r5,-8(fp)
   142b4:	e1bfff17 	ldw	r6,-4(fp)
   142b8:	00146900 	call	14690 <open>
   142bc:	e0bffb15 	stw	r2,-20(fp)

  if (old >= 0)
   142c0:	e0bffb17 	ldw	r2,-20(fp)
   142c4:	10001c16 	blt	r2,zero,14338 <alt_open_fd+0xac>
  {
    fd->dev      = alt_fd_list[old].dev;
   142c8:	00800374 	movhi	r2,13
   142cc:	108a2404 	addi	r2,r2,10384
   142d0:	e0fffb17 	ldw	r3,-20(fp)
   142d4:	18c00324 	muli	r3,r3,12
   142d8:	10c5883a 	add	r2,r2,r3
   142dc:	10c00017 	ldw	r3,0(r2)
   142e0:	e0bffc17 	ldw	r2,-16(fp)
   142e4:	10c00015 	stw	r3,0(r2)
    fd->priv     = alt_fd_list[old].priv;
   142e8:	00800374 	movhi	r2,13
   142ec:	108a2404 	addi	r2,r2,10384
   142f0:	e0fffb17 	ldw	r3,-20(fp)
   142f4:	18c00324 	muli	r3,r3,12
   142f8:	10c5883a 	add	r2,r2,r3
   142fc:	10800104 	addi	r2,r2,4
   14300:	10c00017 	ldw	r3,0(r2)
   14304:	e0bffc17 	ldw	r2,-16(fp)
   14308:	10c00115 	stw	r3,4(r2)
    fd->fd_flags = alt_fd_list[old].fd_flags;
   1430c:	00800374 	movhi	r2,13
   14310:	108a2404 	addi	r2,r2,10384
   14314:	e0fffb17 	ldw	r3,-20(fp)
   14318:	18c00324 	muli	r3,r3,12
   1431c:	10c5883a 	add	r2,r2,r3
   14320:	10800204 	addi	r2,r2,8
   14324:	10c00017 	ldw	r3,0(r2)
   14328:	e0bffc17 	ldw	r2,-16(fp)
   1432c:	10c00215 	stw	r3,8(r2)

    alt_release_fd (old);
   14330:	e13ffb17 	ldw	r4,-20(fp)
   14334:	00147e80 	call	147e8 <alt_release_fd>
  }
} 
   14338:	e037883a 	mov	sp,fp
   1433c:	dfc00117 	ldw	ra,4(sp)
   14340:	df000017 	ldw	fp,0(sp)
   14344:	dec00204 	addi	sp,sp,8
   14348:	f800283a 	ret

0001434c <alt_io_redirect>:
 */
 
void alt_io_redirect(const char* stdout_dev, 
                     const char* stdin_dev, 
                     const char* stderr_dev)
{
   1434c:	defffb04 	addi	sp,sp,-20
   14350:	dfc00415 	stw	ra,16(sp)
   14354:	df000315 	stw	fp,12(sp)
   14358:	df000304 	addi	fp,sp,12
   1435c:	e13ffd15 	stw	r4,-12(fp)
   14360:	e17ffe15 	stw	r5,-8(fp)
   14364:	e1bfff15 	stw	r6,-4(fp)
  /* Redirect the channels */

  alt_open_fd (&alt_fd_list[STDOUT_FILENO], stdout_dev, O_WRONLY, 0777);
   14368:	01000374 	movhi	r4,13
   1436c:	210a2704 	addi	r4,r4,10396
   14370:	e17ffd17 	ldw	r5,-12(fp)
   14374:	01800044 	movi	r6,1
   14378:	01c07fc4 	movi	r7,511
   1437c:	001428c0 	call	1428c <alt_open_fd>
  alt_open_fd (&alt_fd_list[STDIN_FILENO], stdin_dev, O_RDONLY, 0777);
   14380:	01000374 	movhi	r4,13
   14384:	210a2404 	addi	r4,r4,10384
   14388:	e17ffe17 	ldw	r5,-8(fp)
   1438c:	000d883a 	mov	r6,zero
   14390:	01c07fc4 	movi	r7,511
   14394:	001428c0 	call	1428c <alt_open_fd>
  alt_open_fd (&alt_fd_list[STDERR_FILENO], stderr_dev, O_WRONLY, 0777);
   14398:	01000374 	movhi	r4,13
   1439c:	210a2a04 	addi	r4,r4,10408
   143a0:	e17fff17 	ldw	r5,-4(fp)
   143a4:	01800044 	movi	r6,1
   143a8:	01c07fc4 	movi	r7,511
   143ac:	001428c0 	call	1428c <alt_open_fd>
}  
   143b0:	e037883a 	mov	sp,fp
   143b4:	dfc00117 	ldw	ra,4(sp)
   143b8:	df000017 	ldw	fp,0(sp)
   143bc:	dec00204 	addi	sp,sp,8
   143c0:	f800283a 	ret

000143c4 <alt_irq_register>:
 */
 
int alt_irq_register (alt_u32 id, 
                      void* context, 
                      alt_isr_func handler)
{
   143c4:	defff004 	addi	sp,sp,-64
   143c8:	df000f15 	stw	fp,60(sp)
   143cc:	df000f04 	addi	fp,sp,60
   143d0:	e13ffd15 	stw	r4,-12(fp)
   143d4:	e17ffe15 	stw	r5,-8(fp)
   143d8:	e1bfff15 	stw	r6,-4(fp)
  int rc = -EINVAL;  
   143dc:	00bffa84 	movi	r2,-22
   143e0:	e0bff115 	stw	r2,-60(fp)
  alt_irq_context status;

  if (id < ALT_NIRQ)
   143e4:	e0bffd17 	ldw	r2,-12(fp)
   143e8:	10800828 	cmpgeui	r2,r2,32
   143ec:	10005c1e 	bne	r2,zero,14560 <alt_irq_register+0x19c>
static ALT_INLINE alt_irq_context ALT_ALWAYS_INLINE 
       alt_irq_disable_all (void)
{
  alt_irq_context context;

  NIOS2_READ_STATUS (context);
   143f0:	0005303a 	rdctl	r2,status
   143f4:	e0bff315 	stw	r2,-52(fp)

  NIOS2_WRITE_STATUS (context & ~NIOS2_STATUS_PIE_MSK);
   143f8:	e0fff317 	ldw	r3,-52(fp)
   143fc:	00bfff84 	movi	r2,-2
   14400:	1884703a 	and	r2,r3,r2
   14404:	1001703a 	wrctl	status,r2
  
  return context;
   14408:	e0bff317 	ldw	r2,-52(fp)
     * interrupts are disabled while the handler tables are updated to ensure
     * that an interrupt doesn't occur while the tables are in an inconsistant
     * state.
     */

    status = alt_irq_disable_all ();
   1440c:	e0bff215 	stw	r2,-56(fp)

    alt_irq[id].handler = handler;
   14410:	008004b4 	movhi	r2,18
   14414:	1080ba04 	addi	r2,r2,744
   14418:	e0fffd17 	ldw	r3,-12(fp)
   1441c:	180690fa 	slli	r3,r3,3
   14420:	10c5883a 	add	r2,r2,r3
   14424:	e0ffff17 	ldw	r3,-4(fp)
   14428:	10c00015 	stw	r3,0(r2)
    alt_irq[id].context = context;
   1442c:	008004b4 	movhi	r2,18
   14430:	1080ba04 	addi	r2,r2,744
   14434:	e0fffd17 	ldw	r3,-12(fp)
   14438:	180690fa 	slli	r3,r3,3
   1443c:	10c5883a 	add	r2,r2,r3
   14440:	10800104 	addi	r2,r2,4
   14444:	e0fffe17 	ldw	r3,-8(fp)
   14448:	10c00015 	stw	r3,0(r2)

    rc = (handler) ? alt_irq_enable (id): alt_irq_disable (id);
   1444c:	e0bfff17 	ldw	r2,-4(fp)
   14450:	10001f26 	beq	r2,zero,144d0 <alt_irq_register+0x10c>
   14454:	e0bffd17 	ldw	r2,-12(fp)
   14458:	e0bff415 	stw	r2,-48(fp)
static ALT_INLINE alt_irq_context ALT_ALWAYS_INLINE 
       alt_irq_disable_all (void)
{
  alt_irq_context context;

  NIOS2_READ_STATUS (context);
   1445c:	0005303a 	rdctl	r2,status
   14460:	e0bff515 	stw	r2,-44(fp)

  NIOS2_WRITE_STATUS (context & ~NIOS2_STATUS_PIE_MSK);
   14464:	e0fff517 	ldw	r3,-44(fp)
   14468:	00bfff84 	movi	r2,-2
   1446c:	1884703a 	and	r2,r3,r2
   14470:	1001703a 	wrctl	status,r2
  
  return context;
   14474:	e0bff517 	ldw	r2,-44(fp)
static ALT_INLINE int ALT_ALWAYS_INLINE alt_irq_enable (alt_u32 id)
{
  alt_irq_context  status;
  extern volatile alt_u32 alt_irq_active;

  status = alt_irq_disable_all ();
   14478:	e0bff615 	stw	r2,-40(fp)

  alt_irq_active |= (1 << id);
   1447c:	e0bff417 	ldw	r2,-48(fp)
   14480:	00c00044 	movi	r3,1
   14484:	1884983a 	sll	r2,r3,r2
   14488:	1007883a 	mov	r3,r2
   1448c:	00800374 	movhi	r2,13
   14490:	1091b204 	addi	r2,r2,18120
   14494:	10800017 	ldw	r2,0(r2)
   14498:	1886b03a 	or	r3,r3,r2
   1449c:	00800374 	movhi	r2,13
   144a0:	1091b204 	addi	r2,r2,18120
   144a4:	10c00015 	stw	r3,0(r2)
  NIOS2_WRITE_IENABLE (alt_irq_active);
   144a8:	00800374 	movhi	r2,13
   144ac:	1091b204 	addi	r2,r2,18120
   144b0:	10800017 	ldw	r2,0(r2)
   144b4:	100170fa 	wrctl	ienable,r2
   144b8:	e0bff617 	ldw	r2,-40(fp)
   144bc:	e0bff715 	stw	r2,-36(fp)
  status &= ~NIOS2_STATUS_PIE_MSK;
  status |= (context & NIOS2_STATUS_PIE_MSK);
  
  NIOS2_WRITE_STATUS (status);
#else
  NIOS2_WRITE_STATUS (context);
   144c0:	e0bff717 	ldw	r2,-36(fp)
   144c4:	1001703a 	wrctl	status,r2

  alt_irq_enable_all(status);

  return 0;
   144c8:	0005883a 	mov	r2,zero
   144cc:	00001f06 	br	1454c <alt_irq_register+0x188>
   144d0:	e0bffd17 	ldw	r2,-12(fp)
   144d4:	e0bff815 	stw	r2,-32(fp)
static ALT_INLINE alt_irq_context ALT_ALWAYS_INLINE 
       alt_irq_disable_all (void)
{
  alt_irq_context context;

  NIOS2_READ_STATUS (context);
   144d8:	0005303a 	rdctl	r2,status
   144dc:	e0bff915 	stw	r2,-28(fp)

  NIOS2_WRITE_STATUS (context & ~NIOS2_STATUS_PIE_MSK);
   144e0:	e0fff917 	ldw	r3,-28(fp)
   144e4:	00bfff84 	movi	r2,-2
   144e8:	1884703a 	and	r2,r3,r2
   144ec:	1001703a 	wrctl	status,r2
  
  return context;
   144f0:	e0bff917 	ldw	r2,-28(fp)
static ALT_INLINE int ALT_ALWAYS_INLINE alt_irq_disable (alt_u32 id)
{
  alt_irq_context  status;
  extern volatile alt_u32 alt_irq_active;

  status = alt_irq_disable_all ();
   144f4:	e0bffa15 	stw	r2,-24(fp)

  alt_irq_active &= ~(1 << id);
   144f8:	e0bff817 	ldw	r2,-32(fp)
   144fc:	00c00044 	movi	r3,1
   14500:	1884983a 	sll	r2,r3,r2
   14504:	0084303a 	nor	r2,zero,r2
   14508:	1007883a 	mov	r3,r2
   1450c:	00800374 	movhi	r2,13
   14510:	1091b204 	addi	r2,r2,18120
   14514:	10800017 	ldw	r2,0(r2)
   14518:	1886703a 	and	r3,r3,r2
   1451c:	00800374 	movhi	r2,13
   14520:	1091b204 	addi	r2,r2,18120
   14524:	10c00015 	stw	r3,0(r2)
  NIOS2_WRITE_IENABLE (alt_irq_active);
   14528:	00800374 	movhi	r2,13
   1452c:	1091b204 	addi	r2,r2,18120
   14530:	10800017 	ldw	r2,0(r2)
   14534:	100170fa 	wrctl	ienable,r2
   14538:	e0bffa17 	ldw	r2,-24(fp)
   1453c:	e0bffb15 	stw	r2,-20(fp)
  status &= ~NIOS2_STATUS_PIE_MSK;
  status |= (context & NIOS2_STATUS_PIE_MSK);
  
  NIOS2_WRITE_STATUS (status);
#else
  NIOS2_WRITE_STATUS (context);
   14540:	e0bffb17 	ldw	r2,-20(fp)
   14544:	1001703a 	wrctl	status,r2

  alt_irq_enable_all(status);

  return 0;
   14548:	0005883a 	mov	r2,zero
   1454c:	e0bff115 	stw	r2,-60(fp)
   14550:	e0bff217 	ldw	r2,-56(fp)
   14554:	e0bffc15 	stw	r2,-16(fp)
   14558:	e0bffc17 	ldw	r2,-16(fp)
   1455c:	1001703a 	wrctl	status,r2

    alt_irq_enable_all(status);
  }
  return rc; 
   14560:	e0bff117 	ldw	r2,-60(fp)
}
   14564:	e037883a 	mov	sp,fp
   14568:	df000017 	ldw	fp,0(sp)
   1456c:	dec00104 	addi	sp,sp,4
   14570:	f800283a 	ret

00014574 <alt_get_errno>:
#undef errno

extern int errno;

static ALT_INLINE int* alt_get_errno(void)
{
   14574:	defffe04 	addi	sp,sp,-8
   14578:	dfc00115 	stw	ra,4(sp)
   1457c:	df000015 	stw	fp,0(sp)
   14580:	d839883a 	mov	fp,sp
  return ((alt_errno) ? alt_errno() : &errno);
   14584:	00800374 	movhi	r2,13
   14588:	108a9604 	addi	r2,r2,10840
   1458c:	10800017 	ldw	r2,0(r2)
   14590:	10000526 	beq	r2,zero,145a8 <alt_get_errno+0x34>
   14594:	00800374 	movhi	r2,13
   14598:	108a9604 	addi	r2,r2,10840
   1459c:	10800017 	ldw	r2,0(r2)
   145a0:	103ee83a 	callr	r2
   145a4:	00000206 	br	145b0 <alt_get_errno+0x3c>
   145a8:	00800374 	movhi	r2,13
   145ac:	1091ab04 	addi	r2,r2,18092
}
   145b0:	e037883a 	mov	sp,fp
   145b4:	dfc00117 	ldw	ra,4(sp)
   145b8:	df000017 	ldw	fp,0(sp)
   145bc:	dec00204 	addi	sp,sp,8
   145c0:	f800283a 	ret

000145c4 <alt_file_locked>:
 * performed for devices. Filesystems are required to handle the ioctl() call
 * themselves, and report the error from the filesystems open() function. 
 */ 

static int alt_file_locked (alt_fd* fd)
{
   145c4:	defffd04 	addi	sp,sp,-12
   145c8:	df000215 	stw	fp,8(sp)
   145cc:	df000204 	addi	fp,sp,8
   145d0:	e13fff15 	stw	r4,-4(fp)

  /*
   * Mark the file descriptor as belonging to a device.
   */

  fd->fd_flags |= ALT_FD_DEV;
   145d4:	e0bfff17 	ldw	r2,-4(fp)
   145d8:	10800217 	ldw	r2,8(r2)
   145dc:	10d00034 	orhi	r3,r2,16384
   145e0:	e0bfff17 	ldw	r2,-4(fp)
   145e4:	10c00215 	stw	r3,8(r2)
  /*
   * Loop through all current file descriptors searching for one that's locked
   * for exclusive access. If a match is found, generate an error.
   */

  for (i = 0; i <= alt_max_fd; i++)
   145e8:	e03ffe15 	stw	zero,-8(fp)
   145ec:	00001d06 	br	14664 <alt_file_locked+0xa0>
  {
    if ((alt_fd_list[i].dev == fd->dev) &&
   145f0:	00800374 	movhi	r2,13
   145f4:	108a2404 	addi	r2,r2,10384
   145f8:	e0fffe17 	ldw	r3,-8(fp)
   145fc:	18c00324 	muli	r3,r3,12
   14600:	10c5883a 	add	r2,r2,r3
   14604:	10c00017 	ldw	r3,0(r2)
   14608:	e0bfff17 	ldw	r2,-4(fp)
   1460c:	10800017 	ldw	r2,0(r2)
   14610:	1880111e 	bne	r3,r2,14658 <alt_file_locked+0x94>
        (alt_fd_list[i].fd_flags & ALT_FD_EXCL) &&
   14614:	00800374 	movhi	r2,13
   14618:	108a2404 	addi	r2,r2,10384
   1461c:	e0fffe17 	ldw	r3,-8(fp)
   14620:	18c00324 	muli	r3,r3,12
   14624:	10c5883a 	add	r2,r2,r3
   14628:	10800204 	addi	r2,r2,8
   1462c:	10800017 	ldw	r2,0(r2)
   * for exclusive access. If a match is found, generate an error.
   */

  for (i = 0; i <= alt_max_fd; i++)
  {
    if ((alt_fd_list[i].dev == fd->dev) &&
   14630:	1000090e 	bge	r2,zero,14658 <alt_file_locked+0x94>
        (alt_fd_list[i].fd_flags & ALT_FD_EXCL) &&
        (&alt_fd_list[i] != fd))
   14634:	e0bffe17 	ldw	r2,-8(fp)
   14638:	10c00324 	muli	r3,r2,12
   1463c:	00800374 	movhi	r2,13
   14640:	108a2404 	addi	r2,r2,10384
   14644:	1887883a 	add	r3,r3,r2
   */

  for (i = 0; i <= alt_max_fd; i++)
  {
    if ((alt_fd_list[i].dev == fd->dev) &&
        (alt_fd_list[i].fd_flags & ALT_FD_EXCL) &&
   14648:	e0bfff17 	ldw	r2,-4(fp)
   1464c:	18800226 	beq	r3,r2,14658 <alt_file_locked+0x94>
        (&alt_fd_list[i] != fd))
    {
      return -EACCES;
   14650:	00bffcc4 	movi	r2,-13
   14654:	00000a06 	br	14680 <alt_file_locked+0xbc>
  /*
   * Loop through all current file descriptors searching for one that's locked
   * for exclusive access. If a match is found, generate an error.
   */

  for (i = 0; i <= alt_max_fd; i++)
   14658:	e0bffe17 	ldw	r2,-8(fp)
   1465c:	10800044 	addi	r2,r2,1
   14660:	e0bffe15 	stw	r2,-8(fp)
   14664:	00800374 	movhi	r2,13
   14668:	108a9504 	addi	r2,r2,10836
   1466c:	10800017 	ldw	r2,0(r2)
   14670:	1007883a 	mov	r3,r2
   14674:	e0bffe17 	ldw	r2,-8(fp)
   14678:	18bfdd2e 	bgeu	r3,r2,145f0 <__alt_data_end+0xf80145f0>
    }
  }
  
  /* The device is not locked */
 
  return 0;
   1467c:	0005883a 	mov	r2,zero
}
   14680:	e037883a 	mov	sp,fp
   14684:	df000017 	ldw	fp,0(sp)
   14688:	dec00104 	addi	sp,sp,4
   1468c:	f800283a 	ret

00014690 <open>:
 *
 * ALT_OPEN is mapped onto the open() system call in alt_syscall.h
 */
 
int ALT_OPEN (const char* file, int flags, int mode)
{ 
   14690:	defff604 	addi	sp,sp,-40
   14694:	dfc00915 	stw	ra,36(sp)
   14698:	df000815 	stw	fp,32(sp)
   1469c:	df000804 	addi	fp,sp,32
   146a0:	e13ffd15 	stw	r4,-12(fp)
   146a4:	e17ffe15 	stw	r5,-8(fp)
   146a8:	e1bfff15 	stw	r6,-4(fp)
  alt_dev* dev;
  alt_fd*  fd;
  int index  = -1;
   146ac:	00bfffc4 	movi	r2,-1
   146b0:	e0bff915 	stw	r2,-28(fp)
  int status = -ENODEV;
   146b4:	00bffb44 	movi	r2,-19
   146b8:	e0bffa15 	stw	r2,-24(fp)
  int isafs = 0;
   146bc:	e03ffb15 	stw	zero,-20(fp)
  /* 
   * Check the device list, to see if a device with a matching name is 
   * registered.
   */
  
  if (!(dev = alt_find_dev (file, &alt_dev_list)))
   146c0:	e13ffd17 	ldw	r4,-12(fp)
   146c4:	01400374 	movhi	r5,13
   146c8:	294a9304 	addi	r5,r5,10828
   146cc:	0014a040 	call	14a04 <alt_find_dev>
   146d0:	e0bff815 	stw	r2,-32(fp)
   146d4:	e0bff817 	ldw	r2,-32(fp)
   146d8:	1000051e 	bne	r2,zero,146f0 <open+0x60>
  {
    /* No matching device, so try the filesystem list */

    dev   = alt_find_file (file);
   146dc:	e13ffd17 	ldw	r4,-12(fp)
   146e0:	0014a940 	call	14a94 <alt_find_file>
   146e4:	e0bff815 	stw	r2,-32(fp)
    isafs = 1;
   146e8:	00800044 	movi	r2,1
   146ec:	e0bffb15 	stw	r2,-20(fp)

  /* 
   * If a matching device or filesystem is found, allocate a file descriptor. 
   */

  if (dev)
   146f0:	e0bff817 	ldw	r2,-32(fp)
   146f4:	10002926 	beq	r2,zero,1479c <open+0x10c>
  {
    if ((index = alt_get_fd (dev)) < 0)
   146f8:	e13ff817 	ldw	r4,-32(fp)
   146fc:	0014ba80 	call	14ba8 <alt_get_fd>
   14700:	e0bff915 	stw	r2,-28(fp)
   14704:	e0bff917 	ldw	r2,-28(fp)
   14708:	1000030e 	bge	r2,zero,14718 <open+0x88>
    {
      status = index;
   1470c:	e0bff917 	ldw	r2,-28(fp)
   14710:	e0bffa15 	stw	r2,-24(fp)
   14714:	00002306 	br	147a4 <open+0x114>
    }
    else
    {
      fd = &alt_fd_list[index];
   14718:	e0bff917 	ldw	r2,-28(fp)
   1471c:	10c00324 	muli	r3,r2,12
   14720:	00800374 	movhi	r2,13
   14724:	108a2404 	addi	r2,r2,10384
   14728:	1885883a 	add	r2,r3,r2
   1472c:	e0bffc15 	stw	r2,-16(fp)
      fd->fd_flags = (flags & ~ALT_FD_FLAGS_MASK);
   14730:	e0fffe17 	ldw	r3,-8(fp)
   14734:	00900034 	movhi	r2,16384
   14738:	10bfffc4 	addi	r2,r2,-1
   1473c:	1886703a 	and	r3,r3,r2
   14740:	e0bffc17 	ldw	r2,-16(fp)
   14744:	10c00215 	stw	r3,8(r2)
      
      /* If this is a device, ensure it isn't already locked */

      if (isafs || ((status = alt_file_locked (fd)) >= 0))
   14748:	e0bffb17 	ldw	r2,-20(fp)
   1474c:	1000051e 	bne	r2,zero,14764 <open+0xd4>
   14750:	e13ffc17 	ldw	r4,-16(fp)
   14754:	00145c40 	call	145c4 <alt_file_locked>
   14758:	e0bffa15 	stw	r2,-24(fp)
   1475c:	e0bffa17 	ldw	r2,-24(fp)
   14760:	10001016 	blt	r2,zero,147a4 <open+0x114>
        /* 
         * If the device or filesystem provides an open() callback function,
         * call it now to perform any device/filesystem specific operations.
         */
    
        status = (dev->open) ? dev->open(fd, file, flags, mode): 0;
   14764:	e0bff817 	ldw	r2,-32(fp)
   14768:	10800317 	ldw	r2,12(r2)
   1476c:	10000826 	beq	r2,zero,14790 <open+0x100>
   14770:	e0bff817 	ldw	r2,-32(fp)
   14774:	10800317 	ldw	r2,12(r2)
   14778:	e13ffc17 	ldw	r4,-16(fp)
   1477c:	e17ffd17 	ldw	r5,-12(fp)
   14780:	e1bffe17 	ldw	r6,-8(fp)
   14784:	e1ffff17 	ldw	r7,-4(fp)
   14788:	103ee83a 	callr	r2
   1478c:	00000106 	br	14794 <open+0x104>
   14790:	0005883a 	mov	r2,zero
   14794:	e0bffa15 	stw	r2,-24(fp)
   14798:	00000206 	br	147a4 <open+0x114>
      }
    }
  }
  else
  {
    status = -ENODEV;
   1479c:	00bffb44 	movi	r2,-19
   147a0:	e0bffa15 	stw	r2,-24(fp)
  }

  /* Allocation failed, so clean up and return an error */ 

  if (status < 0)
   147a4:	e0bffa17 	ldw	r2,-24(fp)
   147a8:	1000090e 	bge	r2,zero,147d0 <open+0x140>
  {
    alt_release_fd (index);  
   147ac:	e13ff917 	ldw	r4,-28(fp)
   147b0:	00147e80 	call	147e8 <alt_release_fd>
    ALT_ERRNO = -status;
   147b4:	00145740 	call	14574 <alt_get_errno>
   147b8:	1007883a 	mov	r3,r2
   147bc:	e0bffa17 	ldw	r2,-24(fp)
   147c0:	0085c83a 	sub	r2,zero,r2
   147c4:	18800015 	stw	r2,0(r3)
    return -1;
   147c8:	00bfffc4 	movi	r2,-1
   147cc:	00000106 	br	147d4 <open+0x144>
  }
  
  /* return the reference upon success */

  return index;
   147d0:	e0bff917 	ldw	r2,-28(fp)
}
   147d4:	e037883a 	mov	sp,fp
   147d8:	dfc00117 	ldw	ra,4(sp)
   147dc:	df000017 	ldw	fp,0(sp)
   147e0:	dec00204 	addi	sp,sp,8
   147e4:	f800283a 	ret

000147e8 <alt_release_fd>:
 * File descriptors correcponding to standard in, standard out and standard 
 * error cannont be released backed to the pool. They are always reserved.
 */

void alt_release_fd (int fd)
{
   147e8:	defffe04 	addi	sp,sp,-8
   147ec:	df000115 	stw	fp,4(sp)
   147f0:	df000104 	addi	fp,sp,4
   147f4:	e13fff15 	stw	r4,-4(fp)
  if (fd > 2)
   147f8:	e0bfff17 	ldw	r2,-4(fp)
   147fc:	108000d0 	cmplti	r2,r2,3
   14800:	10000d1e 	bne	r2,zero,14838 <alt_release_fd+0x50>
  {
    alt_fd_list[fd].fd_flags = 0;
   14804:	00800374 	movhi	r2,13
   14808:	108a2404 	addi	r2,r2,10384
   1480c:	e0ffff17 	ldw	r3,-4(fp)
   14810:	18c00324 	muli	r3,r3,12
   14814:	10c5883a 	add	r2,r2,r3
   14818:	10800204 	addi	r2,r2,8
   1481c:	10000015 	stw	zero,0(r2)
    alt_fd_list[fd].dev      = 0;
   14820:	00800374 	movhi	r2,13
   14824:	108a2404 	addi	r2,r2,10384
   14828:	e0ffff17 	ldw	r3,-4(fp)
   1482c:	18c00324 	muli	r3,r3,12
   14830:	10c5883a 	add	r2,r2,r3
   14834:	10000015 	stw	zero,0(r2)
  }
}
   14838:	e037883a 	mov	sp,fp
   1483c:	df000017 	ldw	fp,0(sp)
   14840:	dec00104 	addi	sp,sp,4
   14844:	f800283a 	ret

00014848 <alt_alarm_stop>:
 * alarms. Alternatively an alarm can unregister itself by returning zero when 
 * the alarm executes.
 */

void alt_alarm_stop (alt_alarm* alarm)
{
   14848:	defffa04 	addi	sp,sp,-24
   1484c:	df000515 	stw	fp,20(sp)
   14850:	df000504 	addi	fp,sp,20
   14854:	e13fff15 	stw	r4,-4(fp)
static ALT_INLINE alt_irq_context ALT_ALWAYS_INLINE 
       alt_irq_disable_all (void)
{
  alt_irq_context context;

  NIOS2_READ_STATUS (context);
   14858:	0005303a 	rdctl	r2,status
   1485c:	e0bffc15 	stw	r2,-16(fp)

  NIOS2_WRITE_STATUS (context & ~NIOS2_STATUS_PIE_MSK);
   14860:	e0fffc17 	ldw	r3,-16(fp)
   14864:	00bfff84 	movi	r2,-2
   14868:	1884703a 	and	r2,r3,r2
   1486c:	1001703a 	wrctl	status,r2
  
  return context;
   14870:	e0bffc17 	ldw	r2,-16(fp)
  alt_irq_context irq_context;

  irq_context = alt_irq_disable_all();
   14874:	e0bffb15 	stw	r2,-20(fp)
  alt_llist_remove (&alarm->llist);
   14878:	e0bfff17 	ldw	r2,-4(fp)
   1487c:	e0bffd15 	stw	r2,-12(fp)
 * input argument is the element to remove.
 */
     
static ALT_INLINE void ALT_ALWAYS_INLINE alt_llist_remove(alt_llist* entry)
{
  entry->next->previous = entry->previous;
   14880:	e0bffd17 	ldw	r2,-12(fp)
   14884:	10800017 	ldw	r2,0(r2)
   14888:	e0fffd17 	ldw	r3,-12(fp)
   1488c:	18c00117 	ldw	r3,4(r3)
   14890:	10c00115 	stw	r3,4(r2)
  entry->previous->next = entry->next;
   14894:	e0bffd17 	ldw	r2,-12(fp)
   14898:	10800117 	ldw	r2,4(r2)
   1489c:	e0fffd17 	ldw	r3,-12(fp)
   148a0:	18c00017 	ldw	r3,0(r3)
   148a4:	10c00015 	stw	r3,0(r2)
  /* 
   * Set the entry to point to itself, so that any further calls to
   * alt_llist_remove() are harmless.
   */

  entry->previous = entry;
   148a8:	e0bffd17 	ldw	r2,-12(fp)
   148ac:	e0fffd17 	ldw	r3,-12(fp)
   148b0:	10c00115 	stw	r3,4(r2)
  entry->next     = entry;
   148b4:	e0bffd17 	ldw	r2,-12(fp)
   148b8:	e0fffd17 	ldw	r3,-12(fp)
   148bc:	10c00015 	stw	r3,0(r2)
   148c0:	e0bffb17 	ldw	r2,-20(fp)
   148c4:	e0bffe15 	stw	r2,-8(fp)
  status &= ~NIOS2_STATUS_PIE_MSK;
  status |= (context & NIOS2_STATUS_PIE_MSK);
  
  NIOS2_WRITE_STATUS (status);
#else
  NIOS2_WRITE_STATUS (context);
   148c8:	e0bffe17 	ldw	r2,-8(fp)
   148cc:	1001703a 	wrctl	status,r2
  alt_irq_enable_all (irq_context);
}
   148d0:	e037883a 	mov	sp,fp
   148d4:	df000017 	ldw	fp,0(sp)
   148d8:	dec00104 	addi	sp,sp,4
   148dc:	f800283a 	ret

000148e0 <alt_tick>:
 * 
 * alt_tick() is expected to run at interrupt level.
 */

void alt_tick (void)
{
   148e0:	defffb04 	addi	sp,sp,-20
   148e4:	dfc00415 	stw	ra,16(sp)
   148e8:	df000315 	stw	fp,12(sp)
   148ec:	df000304 	addi	fp,sp,12
  alt_alarm* next;
  alt_alarm* alarm = (alt_alarm*) alt_alarm_list.next;
   148f0:	d0a01417 	ldw	r2,-32688(gp)
   148f4:	e0bffd15 	stw	r2,-12(fp)

  alt_u32    next_callback;

  /* update the tick counter */

  _alt_nticks++;
   148f8:	d0a73017 	ldw	r2,-25408(gp)
   148fc:	10800044 	addi	r2,r2,1
   14900:	d0a73015 	stw	r2,-25408(gp)

  /* process the registered callbacks */

  while (alarm != (alt_alarm*) &alt_alarm_list)
   14904:	00002e06 	br	149c0 <alt_tick+0xe0>
  {
    next = (alt_alarm*) alarm->llist.next;
   14908:	e0bffd17 	ldw	r2,-12(fp)
   1490c:	10800017 	ldw	r2,0(r2)
   14910:	e0bffe15 	stw	r2,-8(fp)
    /* 
     * Upon the tick-counter rolling over it is safe to clear the 
     * roll-over flag; once the flag is cleared this (or subsequnt)
     * tick events are enabled to generate an alarm event. 
     */
    if ((alarm->rollover) && (_alt_nticks == 0))
   14914:	e0bffd17 	ldw	r2,-12(fp)
   14918:	10800403 	ldbu	r2,16(r2)
   1491c:	10803fcc 	andi	r2,r2,255
   14920:	10000426 	beq	r2,zero,14934 <alt_tick+0x54>
   14924:	d0a73017 	ldw	r2,-25408(gp)
   14928:	1000021e 	bne	r2,zero,14934 <alt_tick+0x54>
    {
      alarm->rollover = 0;
   1492c:	e0bffd17 	ldw	r2,-12(fp)
   14930:	10000405 	stb	zero,16(r2)
    }
    
    /* if the alarm period has expired, make the callback */    
    if ((alarm->time <= _alt_nticks) && (alarm->rollover == 0))
   14934:	e0bffd17 	ldw	r2,-12(fp)
   14938:	10800217 	ldw	r2,8(r2)
   1493c:	d0e73017 	ldw	r3,-25408(gp)
   14940:	18801d36 	bltu	r3,r2,149b8 <alt_tick+0xd8>
   14944:	e0bffd17 	ldw	r2,-12(fp)
   14948:	10800403 	ldbu	r2,16(r2)
   1494c:	10803fcc 	andi	r2,r2,255
   14950:	1000191e 	bne	r2,zero,149b8 <alt_tick+0xd8>
    {
      next_callback = alarm->callback (alarm->context);
   14954:	e0bffd17 	ldw	r2,-12(fp)
   14958:	10800317 	ldw	r2,12(r2)
   1495c:	e0fffd17 	ldw	r3,-12(fp)
   14960:	18c00517 	ldw	r3,20(r3)
   14964:	1809883a 	mov	r4,r3
   14968:	103ee83a 	callr	r2
   1496c:	e0bfff15 	stw	r2,-4(fp)

      /* deactivate the alarm if the return value is zero */

      if (next_callback == 0)
   14970:	e0bfff17 	ldw	r2,-4(fp)
   14974:	1000031e 	bne	r2,zero,14984 <alt_tick+0xa4>
      {
        alt_alarm_stop (alarm);
   14978:	e13ffd17 	ldw	r4,-12(fp)
   1497c:	00148480 	call	14848 <alt_alarm_stop>
   14980:	00000d06 	br	149b8 <alt_tick+0xd8>
      }
      else
      {
        alarm->time += next_callback;
   14984:	e0bffd17 	ldw	r2,-12(fp)
   14988:	10c00217 	ldw	r3,8(r2)
   1498c:	e0bfff17 	ldw	r2,-4(fp)
   14990:	1887883a 	add	r3,r3,r2
   14994:	e0bffd17 	ldw	r2,-12(fp)
   14998:	10c00215 	stw	r3,8(r2)
        /* 
         * If the desired alarm time causes a roll-over, set the rollover
         * flag. This will prevent the subsequent tick event from causing
         * an alarm too early.
         */
        if(alarm->time < _alt_nticks)
   1499c:	e0bffd17 	ldw	r2,-12(fp)
   149a0:	10c00217 	ldw	r3,8(r2)
   149a4:	d0a73017 	ldw	r2,-25408(gp)
   149a8:	1880032e 	bgeu	r3,r2,149b8 <alt_tick+0xd8>
        {
          alarm->rollover = 1;
   149ac:	e0bffd17 	ldw	r2,-12(fp)
   149b0:	00c00044 	movi	r3,1
   149b4:	10c00405 	stb	r3,16(r2)
        }
      }
    }
    alarm = next;
   149b8:	e0bffe17 	ldw	r2,-8(fp)
   149bc:	e0bffd15 	stw	r2,-12(fp)

  _alt_nticks++;

  /* process the registered callbacks */

  while (alarm != (alt_alarm*) &alt_alarm_list)
   149c0:	e0fffd17 	ldw	r3,-12(fp)
   149c4:	d0a01404 	addi	r2,gp,-32688
   149c8:	18bfcf1e 	bne	r3,r2,14908 <__alt_data_end+0xf8014908>

  /* 
   * Update the operating system specific timer facilities.
   */

  ALT_OS_TIME_TICK();
   149cc:	0001883a 	nop
}
   149d0:	e037883a 	mov	sp,fp
   149d4:	dfc00117 	ldw	ra,4(sp)
   149d8:	df000017 	ldw	fp,0(sp)
   149dc:	dec00204 	addi	sp,sp,8
   149e0:	f800283a 	ret

000149e4 <altera_nios2_gen2_irq_init>:
/*
 * To initialize the internal interrupt controller, just clear the IENABLE
 * register so that all possible IRQs are disabled.
 */
void altera_nios2_gen2_irq_init(void) 
{
   149e4:	deffff04 	addi	sp,sp,-4
   149e8:	df000015 	stw	fp,0(sp)
   149ec:	d839883a 	mov	fp,sp
    NIOS2_WRITE_IENABLE(0);
   149f0:	000170fa 	wrctl	ienable,zero
}
   149f4:	e037883a 	mov	sp,fp
   149f8:	df000017 	ldw	fp,0(sp)
   149fc:	dec00104 	addi	sp,sp,4
   14a00:	f800283a 	ret

00014a04 <alt_find_dev>:
 * "name" must be an exact match for the devices registered name for a match to
 * be found.
 */
 
alt_dev* alt_find_dev(const char* name, alt_llist* llist)
{
   14a04:	defffa04 	addi	sp,sp,-24
   14a08:	dfc00515 	stw	ra,20(sp)
   14a0c:	df000415 	stw	fp,16(sp)
   14a10:	df000404 	addi	fp,sp,16
   14a14:	e13ffe15 	stw	r4,-8(fp)
   14a18:	e17fff15 	stw	r5,-4(fp)
  alt_dev* next = (alt_dev*) llist->next;
   14a1c:	e0bfff17 	ldw	r2,-4(fp)
   14a20:	10800017 	ldw	r2,0(r2)
   14a24:	e0bffc15 	stw	r2,-16(fp)
  alt_32 len;

  len  = strlen(name) + 1;
   14a28:	e13ffe17 	ldw	r4,-8(fp)
   14a2c:	00093400 	call	9340 <strlen>
   14a30:	10800044 	addi	r2,r2,1
   14a34:	e0bffd15 	stw	r2,-12(fp)
  /*
   * Check each list entry in turn, until a match is found, or we reach the
   * end of the list (i.e. next winds up pointing back to the list head).
   */ 

  while (next != (alt_dev*) llist)
   14a38:	00000d06 	br	14a70 <alt_find_dev+0x6c>
    /* 
     * memcmp() is used here rather than strcmp() in order to reduce the size
     * of the executable.
     */

    if (!memcmp (next->name, name, len))
   14a3c:	e0bffc17 	ldw	r2,-16(fp)
   14a40:	10c00217 	ldw	r3,8(r2)
   14a44:	e0bffd17 	ldw	r2,-12(fp)
   14a48:	1809883a 	mov	r4,r3
   14a4c:	e17ffe17 	ldw	r5,-8(fp)
   14a50:	100d883a 	mov	r6,r2
   14a54:	0014dd00 	call	14dd0 <memcmp>
   14a58:	1000021e 	bne	r2,zero,14a64 <alt_find_dev+0x60>
    {
      /* match found */

      return next;
   14a5c:	e0bffc17 	ldw	r2,-16(fp)
   14a60:	00000706 	br	14a80 <alt_find_dev+0x7c>
    }
    next = (alt_dev*) next->llist.next;
   14a64:	e0bffc17 	ldw	r2,-16(fp)
   14a68:	10800017 	ldw	r2,0(r2)
   14a6c:	e0bffc15 	stw	r2,-16(fp)
  /*
   * Check each list entry in turn, until a match is found, or we reach the
   * end of the list (i.e. next winds up pointing back to the list head).
   */ 

  while (next != (alt_dev*) llist)
   14a70:	e0fffc17 	ldw	r3,-16(fp)
   14a74:	e0bfff17 	ldw	r2,-4(fp)
   14a78:	18bff01e 	bne	r3,r2,14a3c <__alt_data_end+0xf8014a3c>
    next = (alt_dev*) next->llist.next;
  }
  
  /* No match found */
  
  return NULL;
   14a7c:	0005883a 	mov	r2,zero
}
   14a80:	e037883a 	mov	sp,fp
   14a84:	dfc00117 	ldw	ra,4(sp)
   14a88:	df000017 	ldw	fp,0(sp)
   14a8c:	dec00204 	addi	sp,sp,8
   14a90:	f800283a 	ret

00014a94 <alt_find_file>:
 * either '/' or '\0' is the prefix of the filename. For example the filename:
 * "/myfilesystem/junk.txt" would match: "/myfilesystem", but not: "/myfile". 
 */
 
alt_dev* alt_find_file (const char* name)
{
   14a94:	defffb04 	addi	sp,sp,-20
   14a98:	dfc00415 	stw	ra,16(sp)
   14a9c:	df000315 	stw	fp,12(sp)
   14aa0:	df000304 	addi	fp,sp,12
   14aa4:	e13fff15 	stw	r4,-4(fp)
  alt_dev* next = (alt_dev*) alt_fs_list.next;   
   14aa8:	00800374 	movhi	r2,13
   14aac:	108a9104 	addi	r2,r2,10820
   14ab0:	10800017 	ldw	r2,0(r2)
   14ab4:	e0bffd15 	stw	r2,-12(fp)
  /*
   * Check each list entry in turn, until a match is found, or we reach the
   * end of the list (i.e. next winds up pointing back to the list head).
   */ 
 
  while (next != (alt_dev*) &alt_fs_list)
   14ab8:	00003106 	br	14b80 <alt_find_file+0xec>
  {
    len = strlen(next->name);
   14abc:	e0bffd17 	ldw	r2,-12(fp)
   14ac0:	10800217 	ldw	r2,8(r2)
   14ac4:	1009883a 	mov	r4,r2
   14ac8:	00093400 	call	9340 <strlen>
   14acc:	e0bffe15 	stw	r2,-8(fp)
    
    if (next->name[len-1] == '/')
   14ad0:	e0bffd17 	ldw	r2,-12(fp)
   14ad4:	10c00217 	ldw	r3,8(r2)
   14ad8:	e0bffe17 	ldw	r2,-8(fp)
   14adc:	10bfffc4 	addi	r2,r2,-1
   14ae0:	1885883a 	add	r2,r3,r2
   14ae4:	10800003 	ldbu	r2,0(r2)
   14ae8:	10803fcc 	andi	r2,r2,255
   14aec:	1080201c 	xori	r2,r2,128
   14af0:	10bfe004 	addi	r2,r2,-128
   14af4:	10800bd8 	cmpnei	r2,r2,47
   14af8:	1000031e 	bne	r2,zero,14b08 <alt_find_file+0x74>
    {
      len -= 1;
   14afc:	e0bffe17 	ldw	r2,-8(fp)
   14b00:	10bfffc4 	addi	r2,r2,-1
   14b04:	e0bffe15 	stw	r2,-8(fp)
    }

    if (((name[len] == '/') || (name[len] == '\0')) && 
   14b08:	e0bffe17 	ldw	r2,-8(fp)
   14b0c:	e0ffff17 	ldw	r3,-4(fp)
   14b10:	1885883a 	add	r2,r3,r2
   14b14:	10800003 	ldbu	r2,0(r2)
   14b18:	10803fcc 	andi	r2,r2,255
   14b1c:	1080201c 	xori	r2,r2,128
   14b20:	10bfe004 	addi	r2,r2,-128
   14b24:	10800be0 	cmpeqi	r2,r2,47
   14b28:	1000081e 	bne	r2,zero,14b4c <alt_find_file+0xb8>
   14b2c:	e0bffe17 	ldw	r2,-8(fp)
   14b30:	e0ffff17 	ldw	r3,-4(fp)
   14b34:	1885883a 	add	r2,r3,r2
   14b38:	10800003 	ldbu	r2,0(r2)
   14b3c:	10803fcc 	andi	r2,r2,255
   14b40:	1080201c 	xori	r2,r2,128
   14b44:	10bfe004 	addi	r2,r2,-128
   14b48:	10000a1e 	bne	r2,zero,14b74 <alt_find_file+0xe0>
        !memcmp (next->name, name, len))
   14b4c:	e0bffd17 	ldw	r2,-12(fp)
   14b50:	10c00217 	ldw	r3,8(r2)
   14b54:	e0bffe17 	ldw	r2,-8(fp)
   14b58:	1809883a 	mov	r4,r3
   14b5c:	e17fff17 	ldw	r5,-4(fp)
   14b60:	100d883a 	mov	r6,r2
   14b64:	0014dd00 	call	14dd0 <memcmp>
    if (next->name[len-1] == '/')
    {
      len -= 1;
    }

    if (((name[len] == '/') || (name[len] == '\0')) && 
   14b68:	1000021e 	bne	r2,zero,14b74 <alt_find_file+0xe0>
        !memcmp (next->name, name, len))
    {
      /* match found */

      return next;
   14b6c:	e0bffd17 	ldw	r2,-12(fp)
   14b70:	00000806 	br	14b94 <alt_find_file+0x100>
    }
    next = (alt_dev*) next->llist.next;
   14b74:	e0bffd17 	ldw	r2,-12(fp)
   14b78:	10800017 	ldw	r2,0(r2)
   14b7c:	e0bffd15 	stw	r2,-12(fp)
  /*
   * Check each list entry in turn, until a match is found, or we reach the
   * end of the list (i.e. next winds up pointing back to the list head).
   */ 
 
  while (next != (alt_dev*) &alt_fs_list)
   14b80:	e0fffd17 	ldw	r3,-12(fp)
   14b84:	00800374 	movhi	r2,13
   14b88:	108a9104 	addi	r2,r2,10820
   14b8c:	18bfcb1e 	bne	r3,r2,14abc <__alt_data_end+0xf8014abc>
    next = (alt_dev*) next->llist.next;
  }
  
  /* No match found */
  
  return NULL;     
   14b90:	0005883a 	mov	r2,zero
}
   14b94:	e037883a 	mov	sp,fp
   14b98:	dfc00117 	ldw	ra,4(sp)
   14b9c:	df000017 	ldw	fp,0(sp)
   14ba0:	dec00204 	addi	sp,sp,8
   14ba4:	f800283a 	ret

00014ba8 <alt_get_fd>:
 * the offset of the file descriptor within the file descriptor array). A
 * negative value indicates failure.
 */

int alt_get_fd (alt_dev* dev)
{
   14ba8:	defffc04 	addi	sp,sp,-16
   14bac:	df000315 	stw	fp,12(sp)
   14bb0:	df000304 	addi	fp,sp,12
   14bb4:	e13fff15 	stw	r4,-4(fp)
  alt_32 i;
  int rc = -EMFILE;
   14bb8:	00bffa04 	movi	r2,-24
   14bbc:	e0bffe15 	stw	r2,-8(fp)
   * indicates the highest file descriptor ever allocated. This is used to
   * improve efficency when searching the file descriptor list, and 
   * therefore reduce contention on the alt_fd_list_lock semaphore. 
   */

  for (i = 0; i < ALT_MAX_FD; i++)
   14bc0:	e03ffd15 	stw	zero,-12(fp)
   14bc4:	00001d06 	br	14c3c <alt_get_fd+0x94>
  {
    if (!alt_fd_list[i].dev)
   14bc8:	00800374 	movhi	r2,13
   14bcc:	108a2404 	addi	r2,r2,10384
   14bd0:	e0fffd17 	ldw	r3,-12(fp)
   14bd4:	18c00324 	muli	r3,r3,12
   14bd8:	10c5883a 	add	r2,r2,r3
   14bdc:	10800017 	ldw	r2,0(r2)
   14be0:	1000131e 	bne	r2,zero,14c30 <alt_get_fd+0x88>
    {
      alt_fd_list[i].dev = dev;
   14be4:	00800374 	movhi	r2,13
   14be8:	108a2404 	addi	r2,r2,10384
   14bec:	e0fffd17 	ldw	r3,-12(fp)
   14bf0:	18c00324 	muli	r3,r3,12
   14bf4:	10c5883a 	add	r2,r2,r3
   14bf8:	e0ffff17 	ldw	r3,-4(fp)
   14bfc:	10c00015 	stw	r3,0(r2)
      if (i > alt_max_fd)
   14c00:	00800374 	movhi	r2,13
   14c04:	108a9504 	addi	r2,r2,10836
   14c08:	10c00017 	ldw	r3,0(r2)
   14c0c:	e0bffd17 	ldw	r2,-12(fp)
   14c10:	1880040e 	bge	r3,r2,14c24 <alt_get_fd+0x7c>
      {
        alt_max_fd = i;
   14c14:	00800374 	movhi	r2,13
   14c18:	108a9504 	addi	r2,r2,10836
   14c1c:	e0fffd17 	ldw	r3,-12(fp)
   14c20:	10c00015 	stw	r3,0(r2)
      }
      rc = i;
   14c24:	e0bffd17 	ldw	r2,-12(fp)
   14c28:	e0bffe15 	stw	r2,-8(fp)
      goto alt_get_fd_exit;
   14c2c:	00000606 	br	14c48 <alt_get_fd+0xa0>
   * indicates the highest file descriptor ever allocated. This is used to
   * improve efficency when searching the file descriptor list, and 
   * therefore reduce contention on the alt_fd_list_lock semaphore. 
   */

  for (i = 0; i < ALT_MAX_FD; i++)
   14c30:	e0bffd17 	ldw	r2,-12(fp)
   14c34:	10800044 	addi	r2,r2,1
   14c38:	e0bffd15 	stw	r2,-12(fp)
   14c3c:	e0bffd17 	ldw	r2,-12(fp)
   14c40:	10800810 	cmplti	r2,r2,32
   14c44:	103fe01e 	bne	r2,zero,14bc8 <__alt_data_end+0xf8014bc8>
   * file descriptor pool.
   */

  ALT_SEM_POST(alt_fd_list_lock);

  return rc;
   14c48:	e0bffe17 	ldw	r2,-8(fp)
}
   14c4c:	e037883a 	mov	sp,fp
   14c50:	df000017 	ldw	fp,0(sp)
   14c54:	dec00104 	addi	sp,sp,4
   14c58:	f800283a 	ret

00014c5c <alt_icache_flush>:
 * alt_icache_flush() is called to flush the instruction cache for a memory
 * region of length "len" bytes, starting at address "start".
 */

void alt_icache_flush (void* start, alt_u32 len)
{
   14c5c:	defffb04 	addi	sp,sp,-20
   14c60:	df000415 	stw	fp,16(sp)
   14c64:	df000404 	addi	fp,sp,16
   14c68:	e13ffe15 	stw	r4,-8(fp)
   14c6c:	e17fff15 	stw	r5,-4(fp)

  /*
   * This is the most we would ever need to flush.
   */
 
  if (len > NIOS2_ICACHE_SIZE)
   14c70:	e0bfff17 	ldw	r2,-4(fp)
   14c74:	10840070 	cmpltui	r2,r2,4097
   14c78:	1000021e 	bne	r2,zero,14c84 <alt_icache_flush+0x28>
  {
    len = NIOS2_ICACHE_SIZE;
   14c7c:	00840004 	movi	r2,4096
   14c80:	e0bfff15 	stw	r2,-4(fp)
  }

  end = ((char*) start) + len;
   14c84:	e0fffe17 	ldw	r3,-8(fp)
   14c88:	e0bfff17 	ldw	r2,-4(fp)
   14c8c:	1885883a 	add	r2,r3,r2
   14c90:	e0bffd15 	stw	r2,-12(fp)

  for (i = start; i < end; i+= NIOS2_ICACHE_LINE_SIZE)
   14c94:	e0bffe17 	ldw	r2,-8(fp)
   14c98:	e0bffc15 	stw	r2,-16(fp)
   14c9c:	00000506 	br	14cb4 <alt_icache_flush+0x58>
  { 
    __asm__ volatile ("flushi %0" :: "r" (i)); 
   14ca0:	e0bffc17 	ldw	r2,-16(fp)
   14ca4:	1000603a 	flushi	r2
    len = NIOS2_ICACHE_SIZE;
  }

  end = ((char*) start) + len;

  for (i = start; i < end; i+= NIOS2_ICACHE_LINE_SIZE)
   14ca8:	e0bffc17 	ldw	r2,-16(fp)
   14cac:	10800804 	addi	r2,r2,32
   14cb0:	e0bffc15 	stw	r2,-16(fp)
   14cb4:	e0fffc17 	ldw	r3,-16(fp)
   14cb8:	e0bffd17 	ldw	r2,-12(fp)
   14cbc:	18bff836 	bltu	r3,r2,14ca0 <__alt_data_end+0xf8014ca0>
   * For an unaligned flush request, we've got one more line left.
   * Note that this is dependent on NIOS2_ICACHE_LINE_SIZE to be a 
   * multiple of 2 (which it always is).
   */

  if (((alt_u32) start) & (NIOS2_ICACHE_LINE_SIZE - 1))
   14cc0:	e0bffe17 	ldw	r2,-8(fp)
   14cc4:	108007cc 	andi	r2,r2,31
   14cc8:	10000226 	beq	r2,zero,14cd4 <alt_icache_flush+0x78>
  {
    __asm__ volatile ("flushi %0" :: "r" (i));
   14ccc:	e0bffc17 	ldw	r2,-16(fp)
   14cd0:	1000603a 	flushi	r2
  /* 
   * Having flushed the cache, flush any stale instructions in the 
   * pipeline 
   */

  __asm__ volatile ("flushp");
   14cd4:	0000203a 	flushp

#endif /* NIOS2_ICACHE_SIZE > 0 */
}
   14cd8:	e037883a 	mov	sp,fp
   14cdc:	df000017 	ldw	fp,0(sp)
   14ce0:	dec00104 	addi	sp,sp,4
   14ce4:	f800283a 	ret

00014ce8 <alt_exception_cause_generated_bad_addr>:
 * Return: 1: BADADDR (bad_addr argument to handler) is valid
 *         0: BADADDR is not valid
 */
int 
alt_exception_cause_generated_bad_addr(alt_exception_cause cause)
{
   14ce8:	defffe04 	addi	sp,sp,-8
   14cec:	df000115 	stw	fp,4(sp)
   14cf0:	df000104 	addi	fp,sp,4
   14cf4:	e13fff15 	stw	r4,-4(fp)
  switch (cause) {
   14cf8:	e0bfff17 	ldw	r2,-4(fp)
   14cfc:	10bffe84 	addi	r2,r2,-6
   14d00:	10c00428 	cmpgeui	r3,r2,16
   14d04:	18001a1e 	bne	r3,zero,14d70 <alt_exception_cause_generated_bad_addr+0x88>
   14d08:	100690ba 	slli	r3,r2,2
   14d0c:	00800074 	movhi	r2,1
   14d10:	10934804 	addi	r2,r2,19744
   14d14:	1885883a 	add	r2,r3,r2
   14d18:	10800017 	ldw	r2,0(r2)
   14d1c:	1000683a 	jmp	r2
   14d20:	00014d60 	cmpeqi	zero,zero,1333
   14d24:	00014d60 	cmpeqi	zero,zero,1333
   14d28:	00014d70 	cmpltui	zero,zero,1333
   14d2c:	00014d70 	cmpltui	zero,zero,1333
   14d30:	00014d70 	cmpltui	zero,zero,1333
   14d34:	00014d60 	cmpeqi	zero,zero,1333
   14d38:	00014d68 	cmpgeui	zero,zero,1333
   14d3c:	00014d70 	cmpltui	zero,zero,1333
   14d40:	00014d60 	cmpeqi	zero,zero,1333
   14d44:	00014d60 	cmpeqi	zero,zero,1333
   14d48:	00014d70 	cmpltui	zero,zero,1333
   14d4c:	00014d60 	cmpeqi	zero,zero,1333
   14d50:	00014d68 	cmpgeui	zero,zero,1333
   14d54:	00014d70 	cmpltui	zero,zero,1333
   14d58:	00014d70 	cmpltui	zero,zero,1333
   14d5c:	00014d60 	cmpeqi	zero,zero,1333
  case NIOS2_EXCEPTION_MISALIGNED_TARGET_PC:
  case NIOS2_EXCEPTION_TLB_READ_PERM_VIOLATION:
  case NIOS2_EXCEPTION_TLB_WRITE_PERM_VIOLATION:
  case NIOS2_EXCEPTION_MPU_DATA_REGION_VIOLATION:
  case NIOS2_EXCEPTION_ECC_DATA_ERR:
    return 1;
   14d60:	00800044 	movi	r2,1
   14d64:	00000306 	br	14d74 <alt_exception_cause_generated_bad_addr+0x8c>

  case NIOS2_EXCEPTION_TLB_MISS:
  case NIOS2_EXCEPTION_ECC_TLB_ERR:
    return 0;
   14d68:	0005883a 	mov	r2,zero
   14d6c:	00000106 	br	14d74 <alt_exception_cause_generated_bad_addr+0x8c>

  default:
    return 0;
   14d70:	0005883a 	mov	r2,zero
  }
}
   14d74:	e037883a 	mov	sp,fp
   14d78:	df000017 	ldw	fp,0(sp)
   14d7c:	dec00104 	addi	sp,sp,4
   14d80:	f800283a 	ret

00014d84 <atexit>:
   14d84:	200b883a 	mov	r5,r4
   14d88:	000d883a 	mov	r6,zero
   14d8c:	0009883a 	mov	r4,zero
   14d90:	000f883a 	mov	r7,zero
   14d94:	0014e4c1 	jmpi	14e4c <__register_exitproc>

00014d98 <exit>:
   14d98:	defffe04 	addi	sp,sp,-8
   14d9c:	000b883a 	mov	r5,zero
   14da0:	dc000015 	stw	r16,0(sp)
   14da4:	dfc00115 	stw	ra,4(sp)
   14da8:	2021883a 	mov	r16,r4
   14dac:	0014f600 	call	14f60 <__call_exitprocs>
   14db0:	00800374 	movhi	r2,13
   14db4:	108a8d04 	addi	r2,r2,10804
   14db8:	11000017 	ldw	r4,0(r2)
   14dbc:	20800f17 	ldw	r2,60(r4)
   14dc0:	10000126 	beq	r2,zero,14dc8 <exit+0x30>
   14dc4:	103ee83a 	callr	r2
   14dc8:	8009883a 	mov	r4,r16
   14dcc:	00150f40 	call	150f4 <_exit>

00014dd0 <memcmp>:
   14dd0:	01c000c4 	movi	r7,3
   14dd4:	3980192e 	bgeu	r7,r6,14e3c <memcmp+0x6c>
   14dd8:	2144b03a 	or	r2,r4,r5
   14ddc:	11c4703a 	and	r2,r2,r7
   14de0:	10000f26 	beq	r2,zero,14e20 <memcmp+0x50>
   14de4:	20800003 	ldbu	r2,0(r4)
   14de8:	28c00003 	ldbu	r3,0(r5)
   14dec:	10c0151e 	bne	r2,r3,14e44 <memcmp+0x74>
   14df0:	31bfff84 	addi	r6,r6,-2
   14df4:	01ffffc4 	movi	r7,-1
   14df8:	00000406 	br	14e0c <memcmp+0x3c>
   14dfc:	20800003 	ldbu	r2,0(r4)
   14e00:	28c00003 	ldbu	r3,0(r5)
   14e04:	31bfffc4 	addi	r6,r6,-1
   14e08:	10c00e1e 	bne	r2,r3,14e44 <memcmp+0x74>
   14e0c:	21000044 	addi	r4,r4,1
   14e10:	29400044 	addi	r5,r5,1
   14e14:	31fff91e 	bne	r6,r7,14dfc <__alt_data_end+0xf8014dfc>
   14e18:	0005883a 	mov	r2,zero
   14e1c:	f800283a 	ret
   14e20:	20c00017 	ldw	r3,0(r4)
   14e24:	28800017 	ldw	r2,0(r5)
   14e28:	1880041e 	bne	r3,r2,14e3c <memcmp+0x6c>
   14e2c:	31bfff04 	addi	r6,r6,-4
   14e30:	21000104 	addi	r4,r4,4
   14e34:	29400104 	addi	r5,r5,4
   14e38:	39bff936 	bltu	r7,r6,14e20 <__alt_data_end+0xf8014e20>
   14e3c:	303fe91e 	bne	r6,zero,14de4 <__alt_data_end+0xf8014de4>
   14e40:	003ff506 	br	14e18 <__alt_data_end+0xf8014e18>
   14e44:	10c5c83a 	sub	r2,r2,r3
   14e48:	f800283a 	ret

00014e4c <__register_exitproc>:
   14e4c:	00800374 	movhi	r2,13
   14e50:	defffa04 	addi	sp,sp,-24
   14e54:	108a8d04 	addi	r2,r2,10804
   14e58:	dc000315 	stw	r16,12(sp)
   14e5c:	14000017 	ldw	r16,0(r2)
   14e60:	dc400415 	stw	r17,16(sp)
   14e64:	dfc00515 	stw	ra,20(sp)
   14e68:	80805217 	ldw	r2,328(r16)
   14e6c:	2023883a 	mov	r17,r4
   14e70:	10003626 	beq	r2,zero,14f4c <__register_exitproc+0x100>
   14e74:	10c00117 	ldw	r3,4(r2)
   14e78:	010007c4 	movi	r4,31
   14e7c:	20c00e16 	blt	r4,r3,14eb8 <__register_exitproc+0x6c>
   14e80:	1a400044 	addi	r9,r3,1
   14e84:	8800211e 	bne	r17,zero,14f0c <__register_exitproc+0xc0>
   14e88:	18c00084 	addi	r3,r3,2
   14e8c:	18c7883a 	add	r3,r3,r3
   14e90:	18c7883a 	add	r3,r3,r3
   14e94:	12400115 	stw	r9,4(r2)
   14e98:	10c7883a 	add	r3,r2,r3
   14e9c:	19400015 	stw	r5,0(r3)
   14ea0:	0005883a 	mov	r2,zero
   14ea4:	dfc00517 	ldw	ra,20(sp)
   14ea8:	dc400417 	ldw	r17,16(sp)
   14eac:	dc000317 	ldw	r16,12(sp)
   14eb0:	dec00604 	addi	sp,sp,24
   14eb4:	f800283a 	ret
   14eb8:	00800074 	movhi	r2,1
   14ebc:	10a29604 	addi	r2,r2,-30120
   14ec0:	10002526 	beq	r2,zero,14f58 <__register_exitproc+0x10c>
   14ec4:	01006404 	movi	r4,400
   14ec8:	d9400015 	stw	r5,0(sp)
   14ecc:	d9800115 	stw	r6,4(sp)
   14ed0:	d9c00215 	stw	r7,8(sp)
   14ed4:	0008a580 	call	8a58 <malloc>
   14ed8:	d9400017 	ldw	r5,0(sp)
   14edc:	d9800117 	ldw	r6,4(sp)
   14ee0:	d9c00217 	ldw	r7,8(sp)
   14ee4:	10001c26 	beq	r2,zero,14f58 <__register_exitproc+0x10c>
   14ee8:	80c05217 	ldw	r3,328(r16)
   14eec:	10000115 	stw	zero,4(r2)
   14ef0:	02400044 	movi	r9,1
   14ef4:	10c00015 	stw	r3,0(r2)
   14ef8:	80805215 	stw	r2,328(r16)
   14efc:	10006215 	stw	zero,392(r2)
   14f00:	10006315 	stw	zero,396(r2)
   14f04:	0007883a 	mov	r3,zero
   14f08:	883fdf26 	beq	r17,zero,14e88 <__alt_data_end+0xf8014e88>
   14f0c:	18d1883a 	add	r8,r3,r3
   14f10:	4211883a 	add	r8,r8,r8
   14f14:	1211883a 	add	r8,r2,r8
   14f18:	41802215 	stw	r6,136(r8)
   14f1c:	01000044 	movi	r4,1
   14f20:	11806217 	ldw	r6,392(r2)
   14f24:	20c8983a 	sll	r4,r4,r3
   14f28:	310cb03a 	or	r6,r6,r4
   14f2c:	11806215 	stw	r6,392(r2)
   14f30:	41c04215 	stw	r7,264(r8)
   14f34:	01800084 	movi	r6,2
   14f38:	89bfd31e 	bne	r17,r6,14e88 <__alt_data_end+0xf8014e88>
   14f3c:	11806317 	ldw	r6,396(r2)
   14f40:	3108b03a 	or	r4,r6,r4
   14f44:	11006315 	stw	r4,396(r2)
   14f48:	003fcf06 	br	14e88 <__alt_data_end+0xf8014e88>
   14f4c:	80805304 	addi	r2,r16,332
   14f50:	80805215 	stw	r2,328(r16)
   14f54:	003fc706 	br	14e74 <__alt_data_end+0xf8014e74>
   14f58:	00bfffc4 	movi	r2,-1
   14f5c:	003fd106 	br	14ea4 <__alt_data_end+0xf8014ea4>

00014f60 <__call_exitprocs>:
   14f60:	00800374 	movhi	r2,13
   14f64:	108a8d04 	addi	r2,r2,10804
   14f68:	10800017 	ldw	r2,0(r2)
   14f6c:	defff404 	addi	sp,sp,-48
   14f70:	dd800815 	stw	r22,32(sp)
   14f74:	d8800015 	stw	r2,0(sp)
   14f78:	10805204 	addi	r2,r2,328
   14f7c:	dd000615 	stw	r20,24(sp)
   14f80:	dc800415 	stw	r18,16(sp)
   14f84:	dfc00b15 	stw	ra,44(sp)
   14f88:	df000a15 	stw	fp,40(sp)
   14f8c:	ddc00915 	stw	r23,36(sp)
   14f90:	dd400715 	stw	r21,28(sp)
   14f94:	dcc00515 	stw	r19,20(sp)
   14f98:	dc400315 	stw	r17,12(sp)
   14f9c:	dc000215 	stw	r16,8(sp)
   14fa0:	2025883a 	mov	r18,r4
   14fa4:	2829883a 	mov	r20,r5
   14fa8:	d8800115 	stw	r2,4(sp)
   14fac:	05bfffc4 	movi	r22,-1
   14fb0:	d8800017 	ldw	r2,0(sp)
   14fb4:	14c05217 	ldw	r19,328(r2)
   14fb8:	98001d26 	beq	r19,zero,15030 <__call_exitprocs+0xd0>
   14fbc:	dd400117 	ldw	r21,4(sp)
   14fc0:	98800117 	ldw	r2,4(r19)
   14fc4:	173fffc4 	addi	fp,r2,-1
   14fc8:	e0000d16 	blt	fp,zero,15000 <__call_exitprocs+0xa0>
   14fcc:	14000044 	addi	r16,r2,1
   14fd0:	8421883a 	add	r16,r16,r16
   14fd4:	8421883a 	add	r16,r16,r16
   14fd8:	84402004 	addi	r17,r16,128
   14fdc:	9c63883a 	add	r17,r19,r17
   14fe0:	9c21883a 	add	r16,r19,r16
   14fe4:	a0001e26 	beq	r20,zero,15060 <__call_exitprocs+0x100>
   14fe8:	80804017 	ldw	r2,256(r16)
   14fec:	15001c26 	beq	r2,r20,15060 <__call_exitprocs+0x100>
   14ff0:	e73fffc4 	addi	fp,fp,-1
   14ff4:	843fff04 	addi	r16,r16,-4
   14ff8:	8c7fff04 	addi	r17,r17,-4
   14ffc:	e5bff91e 	bne	fp,r22,14fe4 <__alt_data_end+0xf8014fe4>
   15000:	00800074 	movhi	r2,1
   15004:	10a29b04 	addi	r2,r2,-30100
   15008:	10000926 	beq	r2,zero,15030 <__call_exitprocs+0xd0>
   1500c:	98800117 	ldw	r2,4(r19)
   15010:	1000311e 	bne	r2,zero,150d8 <__call_exitprocs+0x178>
   15014:	98800017 	ldw	r2,0(r19)
   15018:	10003426 	beq	r2,zero,150ec <__call_exitprocs+0x18c>
   1501c:	9809883a 	mov	r4,r19
   15020:	a8800015 	stw	r2,0(r21)
   15024:	0008a6c0 	call	8a6c <free>
   15028:	acc00017 	ldw	r19,0(r21)
   1502c:	983fe41e 	bne	r19,zero,14fc0 <__alt_data_end+0xf8014fc0>
   15030:	dfc00b17 	ldw	ra,44(sp)
   15034:	df000a17 	ldw	fp,40(sp)
   15038:	ddc00917 	ldw	r23,36(sp)
   1503c:	dd800817 	ldw	r22,32(sp)
   15040:	dd400717 	ldw	r21,28(sp)
   15044:	dd000617 	ldw	r20,24(sp)
   15048:	dcc00517 	ldw	r19,20(sp)
   1504c:	dc800417 	ldw	r18,16(sp)
   15050:	dc400317 	ldw	r17,12(sp)
   15054:	dc000217 	ldw	r16,8(sp)
   15058:	dec00c04 	addi	sp,sp,48
   1505c:	f800283a 	ret
   15060:	98800117 	ldw	r2,4(r19)
   15064:	80c00017 	ldw	r3,0(r16)
   15068:	10bfffc4 	addi	r2,r2,-1
   1506c:	17001526 	beq	r2,fp,150c4 <__call_exitprocs+0x164>
   15070:	80000015 	stw	zero,0(r16)
   15074:	183fde26 	beq	r3,zero,14ff0 <__alt_data_end+0xf8014ff0>
   15078:	00800044 	movi	r2,1
   1507c:	1708983a 	sll	r4,r2,fp
   15080:	98806217 	ldw	r2,392(r19)
   15084:	9dc00117 	ldw	r23,4(r19)
   15088:	2084703a 	and	r2,r4,r2
   1508c:	1000061e 	bne	r2,zero,150a8 <__call_exitprocs+0x148>
   15090:	183ee83a 	callr	r3
   15094:	98800117 	ldw	r2,4(r19)
   15098:	15ffc51e 	bne	r2,r23,14fb0 <__alt_data_end+0xf8014fb0>
   1509c:	a8800017 	ldw	r2,0(r21)
   150a0:	14ffd326 	beq	r2,r19,14ff0 <__alt_data_end+0xf8014ff0>
   150a4:	003fc206 	br	14fb0 <__alt_data_end+0xf8014fb0>
   150a8:	98806317 	ldw	r2,396(r19)
   150ac:	2084703a 	and	r2,r4,r2
   150b0:	1000061e 	bne	r2,zero,150cc <__call_exitprocs+0x16c>
   150b4:	89400017 	ldw	r5,0(r17)
   150b8:	9009883a 	mov	r4,r18
   150bc:	183ee83a 	callr	r3
   150c0:	003ff406 	br	15094 <__alt_data_end+0xf8015094>
   150c4:	9f000115 	stw	fp,4(r19)
   150c8:	003fea06 	br	15074 <__alt_data_end+0xf8015074>
   150cc:	89000017 	ldw	r4,0(r17)
   150d0:	183ee83a 	callr	r3
   150d4:	003fef06 	br	15094 <__alt_data_end+0xf8015094>
   150d8:	98800017 	ldw	r2,0(r19)
   150dc:	982b883a 	mov	r21,r19
   150e0:	1027883a 	mov	r19,r2
   150e4:	983fb61e 	bne	r19,zero,14fc0 <__alt_data_end+0xf8014fc0>
   150e8:	003fd106 	br	15030 <__alt_data_end+0xf8015030>
   150ec:	0005883a 	mov	r2,zero
   150f0:	003ffa06 	br	150dc <__alt_data_end+0xf80150dc>

000150f4 <_exit>:
 *
 * ALT_EXIT is mapped onto the _exit() system call in alt_syscall.h
 */

void ALT_EXIT (int exit_code)
{
   150f4:	defffd04 	addi	sp,sp,-12
   150f8:	df000215 	stw	fp,8(sp)
   150fc:	df000204 	addi	fp,sp,8
   15100:	e13fff15 	stw	r4,-4(fp)
  ALT_LOG_PRINT_BOOT("[alt_exit.c] Entering _exit() function.\r\n");
  ALT_LOG_PRINT_BOOT("[alt_exit.c] Exit code from main was %d.\r\n",exit_code);
  /* Stop all other threads */

  ALT_LOG_PRINT_BOOT("[alt_exit.c] Calling ALT_OS_STOP().\r\n");
  ALT_OS_STOP();
   15104:	0001883a 	nop
   15108:	e0bfff17 	ldw	r2,-4(fp)
   1510c:	e0bffe15 	stw	r2,-8(fp)
/*
 * Routine called on exit.
 */
static ALT_INLINE ALT_ALWAYS_INLINE void alt_sim_halt(int exit_code)
{
  register int r2 asm ("r2") = exit_code;
   15110:	e0bffe17 	ldw	r2,-8(fp)
  __asm__ volatile ("\n0:\n\taddi %0,%0, -1\n\tbgt %0,zero,0b" : : "r" (ALT_CPU_FREQ/100) ); /* Delay for >30ms */

  __asm__ volatile ("break 2" : : "r"(r2), "r"(r3) ALT_GMON_DATA );

#else /* !DEBUG_STUB */
  if (r2) {
   15114:	10000226 	beq	r2,zero,15120 <_exit+0x2c>
    ALT_SIM_FAIL();
   15118:	002af070 	cmpltui	zero,zero,43969
   1511c:	00000106 	br	15124 <_exit+0x30>
  } else {
    ALT_SIM_PASS();
   15120:	002af0b0 	cmpltui	zero,zero,43970
  ALT_SIM_HALT(exit_code);

  /* spin forever, since there's no where to go back to */

  ALT_LOG_PRINT_BOOT("[alt_exit.c] Spinning forever.\r\n");
  while (1);
   15124:	003fff06 	br	15124 <__alt_data_end+0xf8015124>
